ARM GAS  /tmp/cc8sKhx5.s 			page 1


   1              		.cpu cortex-m4
   2              		.arch armv7e-m
   3              		.fpu fpv4-sp-d16
   4              		.eabi_attribute 27, 1
   5              		.eabi_attribute 28, 1
   6              		.eabi_attribute 20, 1
   7              		.eabi_attribute 21, 1
   8              		.eabi_attribute 23, 3
   9              		.eabi_attribute 24, 1
  10              		.eabi_attribute 25, 1
  11              		.eabi_attribute 26, 1
  12              		.eabi_attribute 30, 2
  13              		.eabi_attribute 34, 1
  14              		.eabi_attribute 18, 4
  15              		.file	"audio.c"
  16              		.text
  17              	.Ltext0:
  18              		.cfi_sections	.debug_frame
  19              		.file 1 "src/audio.c"
  20              		.section	.text.audio_fill,"ax",%progbits
  21              		.align	1
  22              		.p2align 2,,3
  23              		.syntax unified
  24              		.thumb
  25              		.thumb_func
  27              	audio_fill:
  28              	.LFB148:
   1:src/audio.c   **** #include "tables.h"
   2:src/audio.c   **** #include <audio.h>
   3:src/audio.c   **** #include <drum.h>
   4:src/audio.c   **** #include <stm32f4xx.h>
   5:src/audio.c   **** #include <stm32f4xx_hal.h>
   6:src/audio.c   **** #include <string.h>
   7:src/audio.c   **** 
   8:src/audio.c   **** #define AUDIO_CHANS 16
   9:src/audio.c   **** #define PERC_CHANS 4
  10:src/audio.c   **** #define AUDIO_BUF_SIZE 512
  11:src/audio.c   **** #define AUDIO_SET_ADSR(n, op, ...) {\
  12:src/audio.c   ****     typedef struct {\
  13:src/audio.c   ****         float A_max, A, D, S, R;\
  14:src/audio.c   ****     }ADSRLocal;\
  15:src/audio.c   ****     ADSRLocal l = __VA_ARGS__;\
  16:src/audio.c   ****     memcpy(&audio_voices[n].op.A_max, &l, sizeof(ADSRLocal));\
  17:src/audio.c   **** }
  18:src/audio.c   **** 
  19:src/audio.c   **** typedef enum {
  20:src/audio.c   ****     Idle,
  21:src/audio.c   ****     Attack,
  22:src/audio.c   ****     Decay,
  23:src/audio.c   ****     AfterDecay,
  24:src/audio.c   ****     Release
  25:src/audio.c   **** }ADSRState;
  26:src/audio.c   **** 
  27:src/audio.c   **** typedef struct {
  28:src/audio.c   ****     float volume;
  29:src/audio.c   ****     float A_max;
  30:src/audio.c   ****     float A,D,S,R;
ARM GAS  /tmp/cc8sKhx5.s 			page 2


  31:src/audio.c   ****     uint32_t factor;
  32:src/audio.c   ****     const float *wave;
  33:src/audio.c   ****     ADSRState state;
  34:src/audio.c   **** }VoiceOp;
  35:src/audio.c   **** 
  36:src/audio.c   **** typedef struct {
  37:src/audio.c   ****     uint32_t ev_tick;
  38:src/audio.c   ****     uint8_t playing, note, channel;
  39:src/audio.c   ****     VoiceOp fm, carrier;
  40:src/audio.c   ****     uint32_t acc, inc;
  41:src/audio.c   **** }AudioVoice;
  42:src/audio.c   **** 
  43:src/audio.c   **** typedef struct {
  44:src/audio.c   ****     uint32_t ev_tick;
  45:src/audio.c   ****     uint8_t note;
  46:src/audio.c   ****     const uint8_t *sample;
  47:src/audio.c   ****     uint32_t size, acc, inc;
  48:src/audio.c   ****     float volume;
  49:src/audio.c   **** }PercVoice;
  50:src/audio.c   **** 
  51:src/audio.c   **** typedef struct {
  52:src/audio.c   ****     float A_max;
  53:src/audio.c   ****     float A,D,S,R;
  54:src/audio.c   ****     uint32_t factor;
  55:src/audio.c   ****     const float *wave;
  56:src/audio.c   **** }ChannelOp;
  57:src/audio.c   **** 
  58:src/audio.c   **** typedef struct {
  59:src/audio.c   ****     //TODO: implement
  60:src/audio.c   ****     float volume, pitch;
  61:src/audio.c   ****     ChannelOp fm, carrier;
  62:src/audio.c   **** }ChannelSettings;
  63:src/audio.c   **** 
  64:src/audio.c   **** static AudioVoice audio_voices[AUDIO_CHANS];
  65:src/audio.c   **** static PercVoice perc_voices[PERC_CHANS];
  66:src/audio.c   **** static float global_perc_vol;
  67:src/audio.c   **** static ChannelSettings channel_settings[16];
  68:src/audio.c   **** 
  69:src/audio.c   **** static const float sine_fact = 5726.623061f;//45812.98449;
  70:src/audio.c   **** static uint32_t audio_buf[AUDIO_BUF_SIZE];
  71:src/audio.c   **** static uint8_t audio_target_buf;
  72:src/audio.c   **** 
  73:src/audio.c   **** static inline uint32_t audio_get_sample(){
  74:src/audio.c   ****     float final_sample = 0;
  75:src/audio.c   **** 
  76:src/audio.c   ****     for(uint32_t i = 0; i != AUDIO_CHANS; i++){
  77:src/audio.c   ****         AudioVoice *v = audio_voices + i;
  78:src/audio.c   ****         //make them sync
  79:src/audio.c   ****         uint16_t fm_idx = ((uint32_t)(v->acc * v->fm.factor) >> 17) & 0xfff;
  80:src/audio.c   ****         uint16_t carrier_idx = ((uint32_t)(v->acc * v->carrier.factor) >> 17);
  81:src/audio.c   **** 
  82:src/audio.c   ****         float float_fm_sample = v->fm.wave[fm_idx] * v->fm.volume;
  83:src/audio.c   ****         float float_sample = v->carrier.wave[(carrier_idx + (int)(float_fm_sample * 6144)) & 0xfff]
  84:src/audio.c   **** 
  85:src/audio.c   ****         v->acc += v->inc;
  86:src/audio.c   ****         final_sample += float_sample * v->carrier.volume;
  87:src/audio.c   ****     }
ARM GAS  /tmp/cc8sKhx5.s 			page 3


  88:src/audio.c   **** 
  89:src/audio.c   ****     for(uint8_t i = 0; i != PERC_CHANS; i++){
  90:src/audio.c   ****         PercVoice *v = perc_voices + i;
  91:src/audio.c   ****         uint32_t idx = v->acc >> 8;
  92:src/audio.c   ****         if(idx > v->size)continue;
  93:src/audio.c   ****         v->acc += v->inc;
  94:src/audio.c   ****         final_sample += ((int)v->sample[idx] - 127) * (1 / 32.0f) * v->volume;
  95:src/audio.c   ****     }
  96:src/audio.c   **** 
  97:src/audio.c   ****     //Volume can range between -8 -> +8
  98:src/audio.c   ****     int32_t dynamic_sample = final_sample * 767.0f;
  99:src/audio.c   ****     return compressor_table[dynamic_sample + 12288];
 100:src/audio.c   **** }
 101:src/audio.c   **** 
 102:src/audio.c   **** static void audio_fill(){
  29              		.loc 1 102 25 view -0
  30              		.cfi_startproc
  31              		@ args = 0, pretend = 0, frame = 56
  32              		@ frame_needed = 0, uses_anonymous_args = 0
 103:src/audio.c   ****     uint32_t *ptr = audio_buf + (AUDIO_BUF_SIZE / 2) * audio_target_buf;
  33              		.loc 1 103 5 view .LVU1
 102:src/audio.c   ****     uint32_t *ptr = audio_buf + (AUDIO_BUF_SIZE / 2) * audio_target_buf;
  34              		.loc 1 102 25 is_stmt 0 view .LVU2
  35 0000 2DE9F04F 		push	{r4, r5, r6, r7, r8, r9, r10, fp, lr}
  36              	.LCFI0:
  37              		.cfi_def_cfa_offset 36
  38              		.cfi_offset 4, -36
  39              		.cfi_offset 5, -32
  40              		.cfi_offset 6, -28
  41              		.cfi_offset 7, -24
  42              		.cfi_offset 8, -20
  43              		.cfi_offset 9, -16
  44              		.cfi_offset 10, -12
  45              		.cfi_offset 11, -8
  46              		.cfi_offset 14, -4
  47              		.loc 1 103 31 view .LVU3
  48 0004 D24B     		ldr	r3, .L23
  49              	.LBB40:
  50              	.LBB41:
  51              	.LBB42:
  52              	.LBB43:
  53              	.LBB44:
  92:src/audio.c   ****         v->acc += v->inc;
  54              		.loc 1 92 19 view .LVU4
  55 0006 DFF864E3 		ldr	lr, .L23+28
  56              	.LBE44:
  57              	.LBE43:
  58              	.LBE42:
  59              	.LBE41:
  60              	.LBE40:
  61              		.loc 1 103 31 view .LVU5
  62 000a 1B78     		ldrb	r3, [r3]	@ zero_extendqisi2
  63 000c D14A     		ldr	r2, .L23+4
  64              	.LBB112:
  65              	.LBB100:
  66              	.LBB88:
  67              	.LBB63:
ARM GAS  /tmp/cc8sKhx5.s 			page 4


  68              	.LBB45:
  92:src/audio.c   ****         v->acc += v->inc;
  69              		.loc 1 92 19 view .LVU6
  70 000e DEF80CA0 		ldr	r10, [lr, #12]
  71 0012 DEF828B0 		ldr	fp, [lr, #40]
  94:src/audio.c   ****     }
  72              		.loc 1 94 32 view .LVU7
  73 0016 DEF85C00 		ldr	r0, [lr, #92]
  74              	.LBE45:
  75              	.LBE63:
  76              	.LBB64:
  77              	.LBB65:
  83:src/audio.c   **** 
  78              		.loc 1 83 83 view .LVU8
  79 001a DFEDCF5A 		vldr.32	s11, .L23+8
  80              	.LBE65:
  81              	.LBE64:
  82              	.LBB73:
  83              	.LBB46:
  94:src/audio.c   ****     }
  84              		.loc 1 94 53 view .LVU9
  85 001e DFEDCF4A 		vldr.32	s9, .L23+12
  86              	.LBE46:
  87              	.LBE73:
  98:src/audio.c   ****     return compressor_table[dynamic_sample + 12288];
  88              		.loc 1 98 43 view .LVU10
  89 0022 9FEDCF4A 		vldr.32	s8, .L23+16
  90 0026 DFF848C3 		ldr	ip, .L23+32
  91 002a DFF84893 		ldr	r9, .L23+36
  92              	.LBB74:
  93              	.LBB47:
  94:src/audio.c   ****     }
  94              		.loc 1 94 70 view .LVU11
  95 002e DEED066A 		vldr.32	s13, [lr, #24]
  96 0032 9EED0D6A 		vldr.32	s12, [lr, #52]
  97 0036 9EED145A 		vldr.32	s10, [lr, #80]
  98 003a DEED1B3A 		vldr.32	s7, [lr, #108]
  91:src/audio.c   ****         if(idx > v->size)continue;
  99              		.loc 1 91 25 view .LVU12
 100 003e DEF81010 		ldr	r1, [lr, #16]
 101 0042 DEF82C40 		ldr	r4, [lr, #44]
 102 0046 DEF84850 		ldr	r5, [lr, #72]
 103              	.LBE47:
 104              	.LBE74:
 105              	.LBE88:
 106              	.LBE100:
 107              	.LBE112:
 102:src/audio.c   ****     uint32_t *ptr = audio_buf + (AUDIO_BUF_SIZE / 2) * audio_target_buf;
 108              		.loc 1 102 25 view .LVU13
 109 004a 8FB0     		sub	sp, sp, #60
 110              	.LCFI1:
 111              		.cfi_def_cfa_offset 96
 112              	.LBB113:
 104:src/audio.c   ****     for(uint32_t i = 0; i != AUDIO_BUF_SIZE / 2; i++){
 113              		.loc 1 104 18 view .LVU14
 114 004c 0027     		movs	r7, #0
 115              	.LBE113:
ARM GAS  /tmp/cc8sKhx5.s 			page 5


 103:src/audio.c   ****     for(uint32_t i = 0; i != AUDIO_BUF_SIZE / 2; i++){
 116              		.loc 1 103 31 view .LVU15
 117 004e 0C93     		str	r3, [sp, #48]
 118 0050 9B02     		lsls	r3, r3, #10
 119 0052 0D93     		str	r3, [sp, #52]
 120              	.LVL0:
 121              		.loc 1 104 5 is_stmt 1 view .LVU16
 122              	.LBB114:
 123              		.loc 1 104 9 view .LVU17
 124              		.loc 1 104 27 discriminator 1 view .LVU18
 125 0054 043B     		subs	r3, r3, #4
 126              	.LVL1:
 127              		.loc 1 104 27 is_stmt 0 discriminator 1 view .LVU19
 128 0056 02EB0308 		add	r8, r2, r3
 129              	.LBB101:
 130              	.LBB89:
 131              	.LBB75:
 132              	.LBB48:
  93:src/audio.c   ****         final_sample += ((int)v->sample[idx] - 127) * (1 / 32.0f) * v->volume;
 133              		.loc 1 93 20 view .LVU20
 134 005a DEF81430 		ldr	r3, [lr, #20]
 135 005e 0493     		str	r3, [sp, #16]
  94:src/audio.c   ****     }
 136              		.loc 1 94 32 view .LVU21
 137 0060 DEF80830 		ldr	r3, [lr, #8]
 138 0064 0593     		str	r3, [sp, #20]
  93:src/audio.c   ****         final_sample += ((int)v->sample[idx] - 127) * (1 / 32.0f) * v->volume;
 139              		.loc 1 93 20 view .LVU22
 140 0066 DEF83030 		ldr	r3, [lr, #48]
 141 006a 0693     		str	r3, [sp, #24]
  94:src/audio.c   ****     }
 142              		.loc 1 94 32 view .LVU23
 143 006c DEF82430 		ldr	r3, [lr, #36]
 144 0070 0793     		str	r3, [sp, #28]
  92:src/audio.c   ****         v->acc += v->inc;
 145              		.loc 1 92 19 view .LVU24
 146 0072 DEF84430 		ldr	r3, [lr, #68]
 147 0076 0193     		str	r3, [sp, #4]
  93:src/audio.c   ****         final_sample += ((int)v->sample[idx] - 127) * (1 / 32.0f) * v->volume;
 148              		.loc 1 93 20 view .LVU25
 149 0078 DEF84C30 		ldr	r3, [lr, #76]
 150 007c 0893     		str	r3, [sp, #32]
  94:src/audio.c   ****     }
 151              		.loc 1 94 32 view .LVU26
 152 007e DEF84030 		ldr	r3, [lr, #64]
 153 0082 0993     		str	r3, [sp, #36]
  92:src/audio.c   ****         v->acc += v->inc;
 154              		.loc 1 92 19 view .LVU27
 155 0084 DEF86030 		ldr	r3, [lr, #96]
 156 0088 0A93     		str	r3, [sp, #40]
  93:src/audio.c   ****         final_sample += ((int)v->sample[idx] - 127) * (1 / 32.0f) * v->volume;
 157              		.loc 1 93 20 view .LVU28
 158 008a DEF86830 		ldr	r3, [lr, #104]
 159 008e 0B93     		str	r3, [sp, #44]
  91:src/audio.c   ****         if(idx > v->size)continue;
 160              		.loc 1 91 25 view .LVU29
 161 0090 DEF86460 		ldr	r6, [lr, #100]
ARM GAS  /tmp/cc8sKhx5.s 			page 6


 162 0094 CDE902AB 		strd	r10, fp, [sp, #8]
 163 0098 8246     		mov	r10, r0
 164              	.LVL2:
 165              	.L7:
  91:src/audio.c   ****         if(idx > v->size)continue;
 166              		.loc 1 91 25 view .LVU30
 167              	.LBE48:
 168              	.LBE75:
 169              	.LBE89:
 170              	.LBE101:
 105:src/audio.c   ****         ptr[i] = audio_get_sample();
 171              		.loc 1 105 9 is_stmt 1 view .LVU31
 172              	.LBB102:
 173              	.LBI41:
  73:src/audio.c   ****     float final_sample = 0;
 174              		.loc 1 73 24 view .LVU32
 175              	.LBB90:
  74:src/audio.c   **** 
 176              		.loc 1 74 5 view .LVU33
  76:src/audio.c   ****         AudioVoice *v = audio_voices + i;
 177              		.loc 1 76 5 view .LVU34
 178              	.LBB76:
  76:src/audio.c   ****         AudioVoice *v = audio_voices + i;
 179              		.loc 1 76 9 view .LVU35
  76:src/audio.c   ****         AudioVoice *v = audio_voices + i;
 180              		.loc 1 76 27 discriminator 1 view .LVU36
 181              	.LBE76:
  74:src/audio.c   **** 
 182              		.loc 1 74 11 is_stmt 0 view .LVU37
 183 009a 9FEDB27A 		vldr.32	s14, .L23+20
 184              	.LBE90:
 185              	.LBE102:
 104:src/audio.c   ****         ptr[i] = audio_get_sample();
 186              		.loc 1 104 18 view .LVU38
 187 009e B24B     		ldr	r3, .L23+24
 188 00a0 BB46     		mov	fp, r7
 189 00a2 3746     		mov	r7, r6
 190              	.LVL3:
 191              	.L2:
 192              	.LBB103:
 193              	.LBB91:
 194              	.LBB77:
 195              	.LBB66:
  77:src/audio.c   ****         //make them sync
 196              		.loc 1 77 9 is_stmt 1 view .LVU39
  79:src/audio.c   ****         uint16_t carrier_idx = ((uint32_t)(v->acc * v->carrier.factor) >> 17);
 197              		.loc 1 79 9 view .LVU40
  79:src/audio.c   ****         uint16_t carrier_idx = ((uint32_t)(v->acc * v->carrier.factor) >> 17);
 198              		.loc 1 79 40 is_stmt 0 view .LVU41
 199 00a4 186D     		ldr	r0, [r3, #80]
 200              	.LVL4:
  80:src/audio.c   **** 
 201              		.loc 1 80 9 is_stmt 1 view .LVU42
  82:src/audio.c   ****         float float_sample = v->carrier.wave[(carrier_idx + (int)(float_fm_sample * 6144)) & 0xfff]
 202              		.loc 1 82 9 view .LVU43
  83:src/audio.c   **** 
 203              		.loc 1 83 9 view .LVU44
ARM GAS  /tmp/cc8sKhx5.s 			page 7


  79:src/audio.c   ****         uint16_t carrier_idx = ((uint32_t)(v->acc * v->carrier.factor) >> 17);
 204              		.loc 1 79 46 is_stmt 0 view .LVU45
 205 00a6 1A6A     		ldr	r2, [r3, #32]
  82:src/audio.c   ****         float float_sample = v->carrier.wave[(carrier_idx + (int)(float_fm_sample * 6144)) & 0xfff]
 206              		.loc 1 82 43 view .LVU46
 207 00a8 5E6A     		ldr	r6, [r3, #36]
  82:src/audio.c   ****         float float_sample = v->carrier.wave[(carrier_idx + (int)(float_fm_sample * 6144)) & 0xfff]
 208              		.loc 1 82 15 view .LVU47
 209 00aa 93ED023A 		vldr.32	s6, [r3, #8]
  86:src/audio.c   ****     }
 210              		.loc 1 86 22 view .LVU48
 211 00ae D3ED0B2A 		vldr.32	s5, [r3, #44]
  79:src/audio.c   ****         uint16_t carrier_idx = ((uint32_t)(v->acc * v->carrier.factor) >> 17);
 212              		.loc 1 79 46 view .LVU49
 213 00b2 00FB02F2 		mul	r2, r0, r2
  82:src/audio.c   ****         float float_sample = v->carrier.wave[(carrier_idx + (int)(float_fm_sample * 6144)) & 0xfff]
 214              		.loc 1 82 43 view .LVU50
 215 00b6 C2F34B42 		ubfx	r2, r2, #17, #12
 216 00ba 06EB8206 		add	r6, r6, r2, lsl #2
  82:src/audio.c   ****         float float_sample = v->carrier.wave[(carrier_idx + (int)(float_fm_sample * 6144)) & 0xfff]
 217              		.loc 1 82 15 view .LVU51
 218 00be D6ED007A 		vldr.32	s15, [r6]
  80:src/audio.c   **** 
 219              		.loc 1 80 51 view .LVU52
 220 00c2 5A6C     		ldr	r2, [r3, #68]
  82:src/audio.c   ****         float float_sample = v->carrier.wave[(carrier_idx + (int)(float_fm_sample * 6144)) & 0xfff]
 221              		.loc 1 82 15 view .LVU53
 222 00c4 67EE837A 		vmul.f32	s15, s15, s6
  80:src/audio.c   **** 
 223              		.loc 1 80 51 view .LVU54
 224 00c8 00FB02F2 		mul	r2, r0, r2
  83:src/audio.c   **** 
 225              		.loc 1 83 83 view .LVU55
 226 00cc 67EEA57A 		vmul.f32	s15, s15, s11
 227              	.LBE66:
  76:src/audio.c   ****         AudioVoice *v = audio_voices + i;
 228              		.loc 1 76 27 discriminator 1 view .LVU56
 229 00d0 5833     		adds	r3, r3, #88
 230              	.LVL5:
 231              	.LBB67:
  83:src/audio.c   **** 
 232              		.loc 1 83 61 view .LVU57
 233 00d2 FDEEE77A 		vcvt.s32.f32	s15, s15
 234 00d6 17EE906A 		vmov	r6, s15	@ int
  83:src/audio.c   **** 
 235              		.loc 1 83 59 view .LVU58
 236 00da 06EB5246 		add	r6, r6, r2, lsr #17
  83:src/audio.c   **** 
 237              		.loc 1 83 15 view .LVU59
 238 00de 53F8102C 		ldr	r2, [r3, #-16]
  83:src/audio.c   **** 
 239              		.loc 1 83 92 view .LVU60
 240 00e2 C6F30B06 		ubfx	r6, r6, #0, #12
  83:src/audio.c   **** 
 241              		.loc 1 83 15 view .LVU61
 242 00e6 02EB8602 		add	r2, r2, r6, lsl #2
 243 00ea D2ED007A 		vldr.32	s15, [r2]
ARM GAS  /tmp/cc8sKhx5.s 			page 8


 244              	.LVL6:
  85:src/audio.c   ****         final_sample += float_sample * v->carrier.volume;
 245              		.loc 1 85 9 is_stmt 1 view .LVU62
  85:src/audio.c   ****         final_sample += float_sample * v->carrier.volume;
 246              		.loc 1 85 16 is_stmt 0 view .LVU63
 247 00ee 53F8042C 		ldr	r2, [r3, #-4]
 248 00f2 0244     		add	r2, r2, r0
 249 00f4 43F8082C 		str	r2, [r3, #-8]
 250              	.LVL7:
  86:src/audio.c   ****     }
 251              		.loc 1 86 9 is_stmt 1 view .LVU64
 252              	.LBE67:
  76:src/audio.c   ****         AudioVoice *v = audio_voices + i;
 253              		.loc 1 76 27 is_stmt 0 discriminator 1 view .LVU65
 254 00f8 9C45     		cmp	ip, r3
 255              	.LBB68:
  86:src/audio.c   ****     }
 256              		.loc 1 86 22 view .LVU66
 257 00fa A7EEA27A 		vfma.f32	s14, s15, s5
 258              	.LVL8:
  86:src/audio.c   ****     }
 259              		.loc 1 86 22 view .LVU67
 260              	.LBE68:
  76:src/audio.c   ****         AudioVoice *v = audio_voices + i;
 261              		.loc 1 76 44 is_stmt 1 discriminator 3 view .LVU68
  76:src/audio.c   ****         AudioVoice *v = audio_voices + i;
 262              		.loc 1 76 27 discriminator 1 view .LVU69
 263 00fe D1D1     		bne	.L2
 264              	.LBE77:
 265              	.LBB78:
 266              	.LBB49:
  92:src/audio.c   ****         v->acc += v->inc;
 267              		.loc 1 92 11 is_stmt 0 view .LVU70
 268 0100 029A     		ldr	r2, [sp, #8]
 269 0102 B2EB112F 		cmp	r2, r1, lsr #8
  91:src/audio.c   ****         if(idx > v->size)continue;
 270              		.loc 1 91 18 view .LVU71
 271 0106 3E46     		mov	r6, r7
 272 0108 4FEA1123 		lsr	r3, r1, #8
 273              	.LVL9:
  91:src/audio.c   ****         if(idx > v->size)continue;
 274              		.loc 1 91 18 view .LVU72
 275 010c 5F46     		mov	r7, fp
 276              	.LVL10:
  91:src/audio.c   ****         if(idx > v->size)continue;
 277              		.loc 1 91 18 view .LVU73
 278              	.LBE49:
  89:src/audio.c   ****         PercVoice *v = perc_voices + i;
 279              		.loc 1 89 26 is_stmt 1 discriminator 1 view .LVU74
 280              	.LBB50:
  90:src/audio.c   ****         uint32_t idx = v->acc >> 8;
 281              		.loc 1 90 9 view .LVU75
  91:src/audio.c   ****         if(idx > v->size)continue;
 282              		.loc 1 91 9 view .LVU76
  92:src/audio.c   ****         v->acc += v->inc;
 283              		.loc 1 92 9 view .LVU77
  92:src/audio.c   ****         v->acc += v->inc;
ARM GAS  /tmp/cc8sKhx5.s 			page 9


 284              		.loc 1 92 11 is_stmt 0 view .LVU78
 285 010e 0ED3     		bcc	.L3
 286              	.LVL11:
  93:src/audio.c   ****         final_sample += ((int)v->sample[idx] - 127) * (1 / 32.0f) * v->volume;
 287              		.loc 1 93 9 is_stmt 1 view .LVU79
  93:src/audio.c   ****         final_sample += ((int)v->sample[idx] - 127) * (1 / 32.0f) * v->volume;
 288              		.loc 1 93 16 is_stmt 0 view .LVU80
 289 0110 049A     		ldr	r2, [sp, #16]
 290 0112 1144     		add	r1, r1, r2
  94:src/audio.c   ****     }
 291              		.loc 1 94 26 view .LVU81
 292 0114 059A     		ldr	r2, [sp, #20]
  93:src/audio.c   ****         final_sample += ((int)v->sample[idx] - 127) * (1 / 32.0f) * v->volume;
 293              		.loc 1 93 16 view .LVU82
 294 0116 CEF81010 		str	r1, [lr, #16]
  94:src/audio.c   ****     }
 295              		.loc 1 94 9 is_stmt 1 view .LVU83
  94:src/audio.c   ****     }
 296              		.loc 1 94 26 is_stmt 0 view .LVU84
 297 011a D35C     		ldrb	r3, [r2, r3]	@ zero_extendqisi2
 298              	.LVL12:
  94:src/audio.c   ****     }
 299              		.loc 1 94 46 view .LVU85
 300 011c 7F3B     		subs	r3, r3, #127
 301 011e 07EE903A 		vmov	s15, r3	@ int
 302              	.LVL13:
  94:src/audio.c   ****     }
 303              		.loc 1 94 53 view .LVU86
 304 0122 F8EEE77A 		vcvt.f32.s32	s15, s15
 305 0126 67EEA47A 		vmul.f32	s15, s15, s9
  94:src/audio.c   ****     }
 306              		.loc 1 94 22 view .LVU87
 307 012a A7EEA67A 		vfma.f32	s14, s15, s13
 308              	.LVL14:
 309              	.L3:
  94:src/audio.c   ****     }
 310              		.loc 1 94 22 view .LVU88
 311              	.LBE50:
  89:src/audio.c   ****         PercVoice *v = perc_voices + i;
 312              		.loc 1 89 42 is_stmt 1 discriminator 2 view .LVU89
  89:src/audio.c   ****         PercVoice *v = perc_voices + i;
 313              		.loc 1 89 26 discriminator 1 view .LVU90
 314              	.LBB51:
  90:src/audio.c   ****         uint32_t idx = v->acc >> 8;
 315              		.loc 1 90 9 view .LVU91
  91:src/audio.c   ****         if(idx > v->size)continue;
 316              		.loc 1 91 9 view .LVU92
  92:src/audio.c   ****         v->acc += v->inc;
 317              		.loc 1 92 11 is_stmt 0 view .LVU93
 318 012e 039A     		ldr	r2, [sp, #12]
 319 0130 B2EB142F 		cmp	r2, r4, lsr #8
  91:src/audio.c   ****         if(idx > v->size)continue;
 320              		.loc 1 91 18 view .LVU94
 321 0134 4FEA1423 		lsr	r3, r4, #8
 322              	.LVL15:
  92:src/audio.c   ****         v->acc += v->inc;
 323              		.loc 1 92 9 is_stmt 1 view .LVU95
ARM GAS  /tmp/cc8sKhx5.s 			page 10


  92:src/audio.c   ****         v->acc += v->inc;
 324              		.loc 1 92 11 is_stmt 0 view .LVU96
 325 0138 0ED3     		bcc	.L4
  93:src/audio.c   ****         final_sample += ((int)v->sample[idx] - 127) * (1 / 32.0f) * v->volume;
 326              		.loc 1 93 9 is_stmt 1 view .LVU97
  93:src/audio.c   ****         final_sample += ((int)v->sample[idx] - 127) * (1 / 32.0f) * v->volume;
 327              		.loc 1 93 16 is_stmt 0 view .LVU98
 328 013a 069A     		ldr	r2, [sp, #24]
 329 013c 1444     		add	r4, r4, r2
  94:src/audio.c   ****     }
 330              		.loc 1 94 26 view .LVU99
 331 013e 079A     		ldr	r2, [sp, #28]
  93:src/audio.c   ****         final_sample += ((int)v->sample[idx] - 127) * (1 / 32.0f) * v->volume;
 332              		.loc 1 93 16 view .LVU100
 333 0140 CEF82C40 		str	r4, [lr, #44]
  94:src/audio.c   ****     }
 334              		.loc 1 94 9 is_stmt 1 view .LVU101
  94:src/audio.c   ****     }
 335              		.loc 1 94 26 is_stmt 0 view .LVU102
 336 0144 D35C     		ldrb	r3, [r2, r3]	@ zero_extendqisi2
 337              	.LVL16:
  94:src/audio.c   ****     }
 338              		.loc 1 94 46 view .LVU103
 339 0146 7F3B     		subs	r3, r3, #127
 340 0148 07EE903A 		vmov	s15, r3	@ int
  94:src/audio.c   ****     }
 341              		.loc 1 94 53 view .LVU104
 342 014c F8EEE77A 		vcvt.f32.s32	s15, s15
 343 0150 67EEA47A 		vmul.f32	s15, s15, s9
  94:src/audio.c   ****     }
 344              		.loc 1 94 22 view .LVU105
 345 0154 A7EE867A 		vfma.f32	s14, s15, s12
 346              	.LVL17:
 347              	.L4:
  94:src/audio.c   ****     }
 348              		.loc 1 94 22 view .LVU106
 349              	.LBE51:
  89:src/audio.c   ****         PercVoice *v = perc_voices + i;
 350              		.loc 1 89 42 is_stmt 1 discriminator 2 view .LVU107
  89:src/audio.c   ****         PercVoice *v = perc_voices + i;
 351              		.loc 1 89 26 discriminator 1 view .LVU108
 352              	.LBB52:
  90:src/audio.c   ****         uint32_t idx = v->acc >> 8;
 353              		.loc 1 90 9 view .LVU109
  91:src/audio.c   ****         if(idx > v->size)continue;
 354              		.loc 1 91 9 view .LVU110
  92:src/audio.c   ****         v->acc += v->inc;
 355              		.loc 1 92 11 is_stmt 0 view .LVU111
 356 0158 019A     		ldr	r2, [sp, #4]
 357 015a B2EB152F 		cmp	r2, r5, lsr #8
  91:src/audio.c   ****         if(idx > v->size)continue;
 358              		.loc 1 91 18 view .LVU112
 359 015e 4FEA1523 		lsr	r3, r5, #8
 360              	.LVL18:
  92:src/audio.c   ****         v->acc += v->inc;
 361              		.loc 1 92 9 is_stmt 1 view .LVU113
  92:src/audio.c   ****         v->acc += v->inc;
ARM GAS  /tmp/cc8sKhx5.s 			page 11


 362              		.loc 1 92 11 is_stmt 0 view .LVU114
 363 0162 0ED3     		bcc	.L5
  93:src/audio.c   ****         final_sample += ((int)v->sample[idx] - 127) * (1 / 32.0f) * v->volume;
 364              		.loc 1 93 9 is_stmt 1 view .LVU115
  93:src/audio.c   ****         final_sample += ((int)v->sample[idx] - 127) * (1 / 32.0f) * v->volume;
 365              		.loc 1 93 16 is_stmt 0 view .LVU116
 366 0164 089A     		ldr	r2, [sp, #32]
 367 0166 1544     		add	r5, r5, r2
  94:src/audio.c   ****     }
 368              		.loc 1 94 26 view .LVU117
 369 0168 099A     		ldr	r2, [sp, #36]
  93:src/audio.c   ****         final_sample += ((int)v->sample[idx] - 127) * (1 / 32.0f) * v->volume;
 370              		.loc 1 93 16 view .LVU118
 371 016a CEF84850 		str	r5, [lr, #72]
  94:src/audio.c   ****     }
 372              		.loc 1 94 9 is_stmt 1 view .LVU119
  94:src/audio.c   ****     }
 373              		.loc 1 94 26 is_stmt 0 view .LVU120
 374 016e D35C     		ldrb	r3, [r2, r3]	@ zero_extendqisi2
 375              	.LVL19:
  94:src/audio.c   ****     }
 376              		.loc 1 94 46 view .LVU121
 377 0170 7F3B     		subs	r3, r3, #127
 378 0172 07EE903A 		vmov	s15, r3	@ int
  94:src/audio.c   ****     }
 379              		.loc 1 94 53 view .LVU122
 380 0176 F8EEE77A 		vcvt.f32.s32	s15, s15
 381 017a 67EEA47A 		vmul.f32	s15, s15, s9
  94:src/audio.c   ****     }
 382              		.loc 1 94 22 view .LVU123
 383 017e A7EE857A 		vfma.f32	s14, s15, s10
 384              	.LVL20:
 385              	.L5:
  94:src/audio.c   ****     }
 386              		.loc 1 94 22 view .LVU124
 387              	.LBE52:
  89:src/audio.c   ****         PercVoice *v = perc_voices + i;
 388              		.loc 1 89 42 is_stmt 1 discriminator 2 view .LVU125
  89:src/audio.c   ****         PercVoice *v = perc_voices + i;
 389              		.loc 1 89 26 discriminator 1 view .LVU126
 390              	.LBB53:
  90:src/audio.c   ****         uint32_t idx = v->acc >> 8;
 391              		.loc 1 90 9 view .LVU127
  91:src/audio.c   ****         if(idx > v->size)continue;
 392              		.loc 1 91 9 view .LVU128
  92:src/audio.c   ****         v->acc += v->inc;
 393              		.loc 1 92 11 is_stmt 0 view .LVU129
 394 0182 0A9A     		ldr	r2, [sp, #40]
 395 0184 B2EB162F 		cmp	r2, r6, lsr #8
  91:src/audio.c   ****         if(idx > v->size)continue;
 396              		.loc 1 91 18 view .LVU130
 397 0188 4FEA1623 		lsr	r3, r6, #8
 398              	.LVL21:
  92:src/audio.c   ****         v->acc += v->inc;
 399              		.loc 1 92 9 is_stmt 1 view .LVU131
  92:src/audio.c   ****         v->acc += v->inc;
 400              		.loc 1 92 11 is_stmt 0 view .LVU132
ARM GAS  /tmp/cc8sKhx5.s 			page 12


 401 018c 28D3     		bcc	.L6
  93:src/audio.c   ****         final_sample += ((int)v->sample[idx] - 127) * (1 / 32.0f) * v->volume;
 402              		.loc 1 93 9 is_stmt 1 view .LVU133
  93:src/audio.c   ****         final_sample += ((int)v->sample[idx] - 127) * (1 / 32.0f) * v->volume;
 403              		.loc 1 93 16 is_stmt 0 view .LVU134
 404 018e 0B9A     		ldr	r2, [sp, #44]
 405 0190 1644     		add	r6, r6, r2
 406 0192 CEF86460 		str	r6, [lr, #100]
  94:src/audio.c   ****     }
 407              		.loc 1 94 9 is_stmt 1 view .LVU135
  94:src/audio.c   ****     }
 408              		.loc 1 94 26 is_stmt 0 view .LVU136
 409 0196 1AF80330 		ldrb	r3, [r10, r3]	@ zero_extendqisi2
 410              	.LVL22:
  94:src/audio.c   ****     }
 411              		.loc 1 94 46 view .LVU137
 412 019a 7F3B     		subs	r3, r3, #127
 413 019c 07EE903A 		vmov	s15, r3	@ int
  94:src/audio.c   ****     }
 414              		.loc 1 94 53 view .LVU138
 415 01a0 F8EEE77A 		vcvt.f32.s32	s15, s15
 416              	.LBE53:
 417              	.LBE78:
 418              	.LBE91:
 419              	.LBE103:
 104:src/audio.c   ****         ptr[i] = audio_get_sample();
 420              		.loc 1 104 51 discriminator 3 view .LVU139
 421 01a4 0137     		adds	r7, r7, #1
 422              	.LVL23:
 423              	.LBB104:
 424              	.LBB92:
 425              	.LBB79:
 426              	.LBB54:
  94:src/audio.c   ****     }
 427              		.loc 1 94 53 view .LVU140
 428 01a6 67EEA47A 		vmul.f32	s15, s15, s9
 429              	.LBE54:
 430              	.LBE79:
 431              	.LBE92:
 432              	.LBE104:
 104:src/audio.c   ****         ptr[i] = audio_get_sample();
 433              		.loc 1 104 27 discriminator 1 view .LVU141
 434 01aa B7F5807F 		cmp	r7, #256
 435              	.LBB105:
 436              	.LBB93:
 437              	.LBB80:
 438              	.LBB55:
  94:src/audio.c   ****     }
 439              		.loc 1 94 22 view .LVU142
 440 01ae A7EEA37A 		vfma.f32	s14, s15, s7
 441              	.LVL24:
  94:src/audio.c   ****     }
 442              		.loc 1 94 22 view .LVU143
 443              	.LBE55:
  89:src/audio.c   ****         PercVoice *v = perc_voices + i;
 444              		.loc 1 89 42 is_stmt 1 discriminator 2 view .LVU144
  89:src/audio.c   ****         PercVoice *v = perc_voices + i;
ARM GAS  /tmp/cc8sKhx5.s 			page 13


 445              		.loc 1 89 26 discriminator 1 view .LVU145
 446              	.LBE80:
  98:src/audio.c   ****     return compressor_table[dynamic_sample + 12288];
 447              		.loc 1 98 5 view .LVU146
  99:src/audio.c   **** }
 448              		.loc 1 99 5 view .LVU147
  98:src/audio.c   ****     return compressor_table[dynamic_sample + 12288];
 449              		.loc 1 98 43 is_stmt 0 view .LVU148
 450 01b2 27EE047A 		vmul.f32	s14, s14, s8
  98:src/audio.c   ****     return compressor_table[dynamic_sample + 12288];
 451              		.loc 1 98 13 view .LVU149
 452 01b6 FDEEC77A 		vcvt.s32.f32	s15, s14
 453 01ba 17EE903A 		vmov	r3, s15	@ int
  99:src/audio.c   **** }
 454              		.loc 1 99 28 view .LVU150
 455 01be 03F54053 		add	r3, r3, #12288
 456 01c2 39F81330 		ldrh	r3, [r9, r3, lsl #1]
 457 01c6 48F8043F 		str	r3, [r8, #4]!
 458              	.LBE93:
 459              	.LBE105:
 104:src/audio.c   ****         ptr[i] = audio_get_sample();
 460              		.loc 1 104 51 is_stmt 1 discriminator 3 view .LVU151
 461              	.LVL25:
 104:src/audio.c   ****         ptr[i] = audio_get_sample();
 462              		.loc 1 104 27 discriminator 1 view .LVU152
 463 01ca 7FF466AF 		bne	.L7
 464              	.LVL26:
 465              	.L8:
 104:src/audio.c   ****         ptr[i] = audio_get_sample();
 466              		.loc 1 104 27 is_stmt 0 discriminator 1 view .LVU153
 467              	.LBE114:
 106:src/audio.c   ****     }
 107:src/audio.c   **** 
 108:src/audio.c   ****     audio_target_buf = !audio_target_buf;
 468              		.loc 1 108 5 is_stmt 1 view .LVU154
 469              		.loc 1 108 24 is_stmt 0 view .LVU155
 470 01ce 0C9B     		ldr	r3, [sp, #48]
 471 01d0 5F4A     		ldr	r2, .L23
 472 01d2 B3FA83F3 		clz	r3, r3
 473 01d6 5B09     		lsrs	r3, r3, #5
 474 01d8 1370     		strb	r3, [r2]
 109:src/audio.c   **** }
 475              		.loc 1 109 1 view .LVU156
 476 01da 0FB0     		add	sp, sp, #60
 477              	.LCFI2:
 478              		.cfi_remember_state
 479              		.cfi_def_cfa_offset 36
 480              		@ sp needed
 481 01dc BDE8F08F 		pop	{r4, r5, r6, r7, r8, r9, r10, fp, pc}
 482              	.LVL27:
 483              	.L6:
 484              	.LCFI3:
 485              		.cfi_restore_state
 486              	.LBB115:
 487              	.LBB106:
 488              	.LBB94:
  98:src/audio.c   ****     return compressor_table[dynamic_sample + 12288];
ARM GAS  /tmp/cc8sKhx5.s 			page 14


 489              		.loc 1 98 43 view .LVU157
 490 01e0 DFED5F4A 		vldr.32	s9, .L23+16
 491 01e4 27EE247A 		vmul.f32	s14, s14, s9
 492              	.LVL28:
  98:src/audio.c   ****     return compressor_table[dynamic_sample + 12288];
 493              		.loc 1 98 43 view .LVU158
 494              	.LBE94:
 495              	.LBE106:
 104:src/audio.c   ****         ptr[i] = audio_get_sample();
 496              		.loc 1 104 27 discriminator 1 view .LVU159
 497 01e8 FF2F     		cmp	r7, #255
 498              	.LBB107:
 499              	.LBB95:
  98:src/audio.c   ****     return compressor_table[dynamic_sample + 12288];
 500              		.loc 1 98 13 view .LVU160
 501 01ea BDEEC77A 		vcvt.s32.f32	s14, s14
  98:src/audio.c   ****     return compressor_table[dynamic_sample + 12288];
 502              		.loc 1 98 43 view .LVU161
 503 01ee DDE902AB 		ldrd	r10, fp, [sp, #8]
 504              	.LVL29:
 505              	.LBB81:
  89:src/audio.c   ****         PercVoice *v = perc_voices + i;
 506              		.loc 1 89 42 is_stmt 1 discriminator 2 view .LVU162
  89:src/audio.c   ****         PercVoice *v = perc_voices + i;
 507              		.loc 1 89 26 discriminator 1 view .LVU163
 508              	.LBE81:
  98:src/audio.c   ****     return compressor_table[dynamic_sample + 12288];
 509              		.loc 1 98 5 view .LVU164
  99:src/audio.c   **** }
 510              		.loc 1 99 5 view .LVU165
  99:src/audio.c   **** }
 511              		.loc 1 99 28 is_stmt 0 view .LVU166
 512 01f2 17EE103A 		vmov	r3, s14	@ int
 513 01f6 03F54053 		add	r3, r3, #12288
 514              	.LBE95:
 515              	.LBE107:
 104:src/audio.c   ****         ptr[i] = audio_get_sample();
 516              		.loc 1 104 51 discriminator 3 view .LVU167
 517 01fa 07F10102 		add	r2, r7, #1
 518              	.LBB108:
 519              	.LBB96:
  99:src/audio.c   **** }
 520              		.loc 1 99 28 view .LVU168
 521 01fe 39F81330 		ldrh	r3, [r9, r3, lsl #1]
 522 0202 C8F80430 		str	r3, [r8, #4]
 523              	.LBE96:
 524              	.LBE108:
 104:src/audio.c   ****         ptr[i] = audio_get_sample();
 525              		.loc 1 104 51 is_stmt 1 discriminator 3 view .LVU169
 526              	.LVL30:
 104:src/audio.c   ****         ptr[i] = audio_get_sample();
 527              		.loc 1 104 27 discriminator 1 view .LVU170
 528 0206 E2D0     		beq	.L8
 529 0208 0C9B     		ldr	r3, [sp, #48]
 530              	.LBB109:
 531              	.LBB97:
 532              	.LBB82:
ARM GAS  /tmp/cc8sKhx5.s 			page 15


 533              	.LBB69:
  83:src/audio.c   **** 
 534              		.loc 1 83 83 is_stmt 0 view .LVU171
 535 020a DFED535A 		vldr.32	s11, .L23+8
 536              	.LBE69:
 537              	.LBE82:
 538              	.LBB83:
 539              	.LBB56:
  94:src/audio.c   ****     }
 540              		.loc 1 94 53 view .LVU172
 541 020e 9FED534A 		vldr.32	s8, .L23+12
 542 0212 02EB0320 		add	r0, r2, r3, lsl #8
 543 0216 00F18040 		add	r0, r0, #1073741824
 544 021a 4E4B     		ldr	r3, .L23+4
 545 021c 0D9A     		ldr	r2, [sp, #52]
 546              	.LVL31:
  94:src/audio.c   ****     }
 547              		.loc 1 94 53 view .LVU173
 548 021e 0138     		subs	r0, r0, #1
 549 0220 03EB8000 		add	r0, r3, r0, lsl #2
 550 0224 03F57F73 		add	r3, r3, #1020
 551 0228 1A44     		add	r2, r2, r3
 552 022a 9046     		mov	r8, r2
 553 022c 2F0A     		lsrs	r7, r5, #8
 554              	.LVL32:
  94:src/audio.c   ****     }
 555              		.loc 1 94 53 view .LVU174
 556 022e 5646     		mov	r6, r10
 557              	.LVL33:
 558              	.L14:
  94:src/audio.c   ****     }
 559              		.loc 1 94 53 view .LVU175
 560              	.LBE56:
 561              	.LBE83:
 562              	.LBE97:
 563              	.LBE109:
 105:src/audio.c   ****     }
 564              		.loc 1 105 9 is_stmt 1 view .LVU176
 565              	.LBB110:
  73:src/audio.c   ****     float final_sample = 0;
 566              		.loc 1 73 24 view .LVU177
 567              	.LBB98:
  74:src/audio.c   **** 
 568              		.loc 1 74 5 view .LVU178
  76:src/audio.c   ****         AudioVoice *v = audio_voices + i;
 569              		.loc 1 76 5 view .LVU179
 570              	.LBB84:
  76:src/audio.c   ****         AudioVoice *v = audio_voices + i;
 571              		.loc 1 76 9 view .LVU180
  76:src/audio.c   ****         AudioVoice *v = audio_voices + i;
 572              		.loc 1 76 27 discriminator 1 view .LVU181
 573              	.LBE84:
  74:src/audio.c   **** 
 574              		.loc 1 74 11 is_stmt 0 view .LVU182
 575 0230 9FED4C7A 		vldr.32	s14, .L23+20
 576 0234 4C4B     		ldr	r3, .L23+24
 577 0236 0290     		str	r0, [sp, #8]
ARM GAS  /tmp/cc8sKhx5.s 			page 16


 578 0238 B246     		mov	r10, r6
 579              	.LVL34:
 580              	.L9:
 581              	.LBB85:
 582              	.LBB70:
  77:src/audio.c   ****         //make them sync
 583              		.loc 1 77 9 is_stmt 1 view .LVU183
  79:src/audio.c   ****         uint16_t carrier_idx = ((uint32_t)(v->acc * v->carrier.factor) >> 17);
 584              		.loc 1 79 9 view .LVU184
  79:src/audio.c   ****         uint16_t carrier_idx = ((uint32_t)(v->acc * v->carrier.factor) >> 17);
 585              		.loc 1 79 40 is_stmt 0 view .LVU185
 586 023a 186D     		ldr	r0, [r3, #80]
 587              	.LVL35:
  80:src/audio.c   **** 
 588              		.loc 1 80 9 is_stmt 1 view .LVU186
  82:src/audio.c   ****         float float_sample = v->carrier.wave[(carrier_idx + (int)(float_fm_sample * 6144)) & 0xfff]
 589              		.loc 1 82 9 view .LVU187
  83:src/audio.c   **** 
 590              		.loc 1 83 9 view .LVU188
  79:src/audio.c   ****         uint16_t carrier_idx = ((uint32_t)(v->acc * v->carrier.factor) >> 17);
 591              		.loc 1 79 46 is_stmt 0 view .LVU189
 592 023c 1A6A     		ldr	r2, [r3, #32]
  82:src/audio.c   ****         float float_sample = v->carrier.wave[(carrier_idx + (int)(float_fm_sample * 6144)) & 0xfff]
 593              		.loc 1 82 43 view .LVU190
 594 023e 5E6A     		ldr	r6, [r3, #36]
  82:src/audio.c   ****         float float_sample = v->carrier.wave[(carrier_idx + (int)(float_fm_sample * 6144)) & 0xfff]
 595              		.loc 1 82 15 view .LVU191
 596 0240 D3ED023A 		vldr.32	s7, [r3, #8]
  86:src/audio.c   ****     }
 597              		.loc 1 86 22 view .LVU192
 598 0244 93ED0B3A 		vldr.32	s6, [r3, #44]
  79:src/audio.c   ****         uint16_t carrier_idx = ((uint32_t)(v->acc * v->carrier.factor) >> 17);
 599              		.loc 1 79 46 view .LVU193
 600 0248 00FB02F2 		mul	r2, r0, r2
  82:src/audio.c   ****         float float_sample = v->carrier.wave[(carrier_idx + (int)(float_fm_sample * 6144)) & 0xfff]
 601              		.loc 1 82 43 view .LVU194
 602 024c C2F34B42 		ubfx	r2, r2, #17, #12
 603 0250 06EB8206 		add	r6, r6, r2, lsl #2
  82:src/audio.c   ****         float float_sample = v->carrier.wave[(carrier_idx + (int)(float_fm_sample * 6144)) & 0xfff]
 604              		.loc 1 82 15 view .LVU195
 605 0254 D6ED007A 		vldr.32	s15, [r6]
  80:src/audio.c   **** 
 606              		.loc 1 80 51 view .LVU196
 607 0258 5A6C     		ldr	r2, [r3, #68]
  82:src/audio.c   ****         float float_sample = v->carrier.wave[(carrier_idx + (int)(float_fm_sample * 6144)) & 0xfff]
 608              		.loc 1 82 15 view .LVU197
 609 025a 67EEA37A 		vmul.f32	s15, s15, s7
  80:src/audio.c   **** 
 610              		.loc 1 80 51 view .LVU198
 611 025e 00FB02F2 		mul	r2, r0, r2
  83:src/audio.c   **** 
 612              		.loc 1 83 83 view .LVU199
 613 0262 67EEA57A 		vmul.f32	s15, s15, s11
 614              	.LBE70:
  76:src/audio.c   ****         AudioVoice *v = audio_voices + i;
 615              		.loc 1 76 27 discriminator 1 view .LVU200
 616 0266 5833     		adds	r3, r3, #88
ARM GAS  /tmp/cc8sKhx5.s 			page 17


 617              	.LVL36:
 618              	.LBB71:
  83:src/audio.c   **** 
 619              		.loc 1 83 61 view .LVU201
 620 0268 FDEEE77A 		vcvt.s32.f32	s15, s15
 621 026c 17EE906A 		vmov	r6, s15	@ int
  83:src/audio.c   **** 
 622              		.loc 1 83 59 view .LVU202
 623 0270 06EB5246 		add	r6, r6, r2, lsr #17
  83:src/audio.c   **** 
 624              		.loc 1 83 15 view .LVU203
 625 0274 53F8102C 		ldr	r2, [r3, #-16]
  83:src/audio.c   **** 
 626              		.loc 1 83 92 view .LVU204
 627 0278 C6F30B06 		ubfx	r6, r6, #0, #12
  83:src/audio.c   **** 
 628              		.loc 1 83 15 view .LVU205
 629 027c 02EB8602 		add	r2, r2, r6, lsl #2
 630 0280 D2ED007A 		vldr.32	s15, [r2]
 631              	.LVL37:
  85:src/audio.c   ****         final_sample += float_sample * v->carrier.volume;
 632              		.loc 1 85 9 is_stmt 1 view .LVU206
  85:src/audio.c   ****         final_sample += float_sample * v->carrier.volume;
 633              		.loc 1 85 16 is_stmt 0 view .LVU207
 634 0284 53F8042C 		ldr	r2, [r3, #-4]
 635 0288 0244     		add	r2, r2, r0
 636 028a 43F8082C 		str	r2, [r3, #-8]
 637              	.LVL38:
  86:src/audio.c   ****     }
 638              		.loc 1 86 9 is_stmt 1 view .LVU208
 639              	.LBE71:
  76:src/audio.c   ****         AudioVoice *v = audio_voices + i;
 640              		.loc 1 76 27 is_stmt 0 discriminator 1 view .LVU209
 641 028e 9C45     		cmp	ip, r3
 642              	.LBB72:
  86:src/audio.c   ****     }
 643              		.loc 1 86 22 view .LVU210
 644 0290 A3EE277A 		vfma.f32	s14, s6, s15
 645              	.LVL39:
  86:src/audio.c   ****     }
 646              		.loc 1 86 22 view .LVU211
 647              	.LBE72:
  76:src/audio.c   ****         AudioVoice *v = audio_voices + i;
 648              		.loc 1 76 44 is_stmt 1 discriminator 3 view .LVU212
  76:src/audio.c   ****         AudioVoice *v = audio_voices + i;
 649              		.loc 1 76 27 discriminator 1 view .LVU213
 650 0294 D1D1     		bne	.L9
 651              	.LBE85:
 652              	.LBB86:
 653              	.LBB57:
  92:src/audio.c   ****         v->acc += v->inc;
 654              		.loc 1 92 11 is_stmt 0 view .LVU214
 655 0296 BAEB112F 		cmp	r10, r1, lsr #8
  91:src/audio.c   ****         if(idx > v->size)continue;
 656              		.loc 1 91 18 view .LVU215
 657 029a 0298     		ldr	r0, [sp, #8]
 658              	.LVL40:
ARM GAS  /tmp/cc8sKhx5.s 			page 18


  91:src/audio.c   ****         if(idx > v->size)continue;
 659              		.loc 1 91 18 view .LVU216
 660 029c 5646     		mov	r6, r10
 661              	.LVL41:
  91:src/audio.c   ****         if(idx > v->size)continue;
 662              		.loc 1 91 18 view .LVU217
 663              	.LBE57:
  89:src/audio.c   ****         PercVoice *v = perc_voices + i;
 664              		.loc 1 89 26 is_stmt 1 discriminator 1 view .LVU218
 665              	.LBB58:
  90:src/audio.c   ****         uint32_t idx = v->acc >> 8;
 666              		.loc 1 90 9 view .LVU219
  91:src/audio.c   ****         if(idx > v->size)continue;
 667              		.loc 1 91 9 view .LVU220
  91:src/audio.c   ****         if(idx > v->size)continue;
 668              		.loc 1 91 18 is_stmt 0 view .LVU221
 669 029e 4FEA1123 		lsr	r3, r1, #8
 670              	.LVL42:
  92:src/audio.c   ****         v->acc += v->inc;
 671              		.loc 1 92 9 is_stmt 1 view .LVU222
  92:src/audio.c   ****         v->acc += v->inc;
 672              		.loc 1 92 11 is_stmt 0 view .LVU223
 673 02a2 0ED3     		bcc	.L10
  93:src/audio.c   ****         final_sample += ((int)v->sample[idx] - 127) * (1 / 32.0f) * v->volume;
 674              		.loc 1 93 9 is_stmt 1 view .LVU224
  93:src/audio.c   ****         final_sample += ((int)v->sample[idx] - 127) * (1 / 32.0f) * v->volume;
 675              		.loc 1 93 16 is_stmt 0 view .LVU225
 676 02a4 049A     		ldr	r2, [sp, #16]
 677 02a6 1144     		add	r1, r1, r2
  94:src/audio.c   ****     }
 678              		.loc 1 94 26 view .LVU226
 679 02a8 059A     		ldr	r2, [sp, #20]
  93:src/audio.c   ****         final_sample += ((int)v->sample[idx] - 127) * (1 / 32.0f) * v->volume;
 680              		.loc 1 93 16 view .LVU227
 681 02aa CEF81010 		str	r1, [lr, #16]
  94:src/audio.c   ****     }
 682              		.loc 1 94 9 is_stmt 1 view .LVU228
  94:src/audio.c   ****     }
 683              		.loc 1 94 26 is_stmt 0 view .LVU229
 684 02ae D35C     		ldrb	r3, [r2, r3]	@ zero_extendqisi2
 685              	.LVL43:
  94:src/audio.c   ****     }
 686              		.loc 1 94 46 view .LVU230
 687 02b0 7F3B     		subs	r3, r3, #127
 688 02b2 07EE903A 		vmov	s15, r3	@ int
 689              	.LVL44:
  94:src/audio.c   ****     }
 690              		.loc 1 94 53 view .LVU231
 691 02b6 F8EEE77A 		vcvt.f32.s32	s15, s15
 692 02ba 67EE847A 		vmul.f32	s15, s15, s8
  94:src/audio.c   ****     }
 693              		.loc 1 94 22 view .LVU232
 694 02be A6EEA77A 		vfma.f32	s14, s13, s15
 695              	.LVL45:
 696              	.L10:
  94:src/audio.c   ****     }
 697              		.loc 1 94 22 view .LVU233
ARM GAS  /tmp/cc8sKhx5.s 			page 19


 698              	.LBE58:
  89:src/audio.c   ****         PercVoice *v = perc_voices + i;
 699              		.loc 1 89 42 is_stmt 1 discriminator 2 view .LVU234
  89:src/audio.c   ****         PercVoice *v = perc_voices + i;
 700              		.loc 1 89 26 discriminator 1 view .LVU235
 701              	.LBB59:
  90:src/audio.c   ****         uint32_t idx = v->acc >> 8;
 702              		.loc 1 90 9 view .LVU236
  91:src/audio.c   ****         if(idx > v->size)continue;
 703              		.loc 1 91 9 view .LVU237
  92:src/audio.c   ****         v->acc += v->inc;
 704              		.loc 1 92 11 is_stmt 0 view .LVU238
 705 02c2 BBEB142F 		cmp	fp, r4, lsr #8
  91:src/audio.c   ****         if(idx > v->size)continue;
 706              		.loc 1 91 18 view .LVU239
 707 02c6 4FEA1423 		lsr	r3, r4, #8
 708              	.LVL46:
  92:src/audio.c   ****         v->acc += v->inc;
 709              		.loc 1 92 9 is_stmt 1 view .LVU240
  92:src/audio.c   ****         v->acc += v->inc;
 710              		.loc 1 92 11 is_stmt 0 view .LVU241
 711 02ca 0ED3     		bcc	.L11
  93:src/audio.c   ****         final_sample += ((int)v->sample[idx] - 127) * (1 / 32.0f) * v->volume;
 712              		.loc 1 93 9 is_stmt 1 view .LVU242
  93:src/audio.c   ****         final_sample += ((int)v->sample[idx] - 127) * (1 / 32.0f) * v->volume;
 713              		.loc 1 93 16 is_stmt 0 view .LVU243
 714 02cc 069A     		ldr	r2, [sp, #24]
 715 02ce 1444     		add	r4, r4, r2
  94:src/audio.c   ****     }
 716              		.loc 1 94 26 view .LVU244
 717 02d0 079A     		ldr	r2, [sp, #28]
  93:src/audio.c   ****         final_sample += ((int)v->sample[idx] - 127) * (1 / 32.0f) * v->volume;
 718              		.loc 1 93 16 view .LVU245
 719 02d2 CEF82C40 		str	r4, [lr, #44]
  94:src/audio.c   ****     }
 720              		.loc 1 94 9 is_stmt 1 view .LVU246
  94:src/audio.c   ****     }
 721              		.loc 1 94 26 is_stmt 0 view .LVU247
 722 02d6 D35C     		ldrb	r3, [r2, r3]	@ zero_extendqisi2
 723              	.LVL47:
  94:src/audio.c   ****     }
 724              		.loc 1 94 46 view .LVU248
 725 02d8 7F3B     		subs	r3, r3, #127
 726 02da 07EE903A 		vmov	s15, r3	@ int
  94:src/audio.c   ****     }
 727              		.loc 1 94 53 view .LVU249
 728 02de F8EEE77A 		vcvt.f32.s32	s15, s15
 729 02e2 67EE847A 		vmul.f32	s15, s15, s8
  94:src/audio.c   ****     }
 730              		.loc 1 94 22 view .LVU250
 731 02e6 A6EE277A 		vfma.f32	s14, s12, s15
 732              	.LVL48:
 733              	.L11:
  94:src/audio.c   ****     }
 734              		.loc 1 94 22 view .LVU251
 735              	.LBE59:
  89:src/audio.c   ****         PercVoice *v = perc_voices + i;
ARM GAS  /tmp/cc8sKhx5.s 			page 20


 736              		.loc 1 89 42 is_stmt 1 discriminator 2 view .LVU252
  89:src/audio.c   ****         PercVoice *v = perc_voices + i;
 737              		.loc 1 89 26 discriminator 1 view .LVU253
 738              	.LBB60:
  90:src/audio.c   ****         uint32_t idx = v->acc >> 8;
 739              		.loc 1 90 9 view .LVU254
  91:src/audio.c   ****         if(idx > v->size)continue;
 740              		.loc 1 91 9 view .LVU255
  92:src/audio.c   ****         v->acc += v->inc;
 741              		.loc 1 92 9 view .LVU256
  92:src/audio.c   ****         v->acc += v->inc;
 742              		.loc 1 92 11 is_stmt 0 view .LVU257
 743 02ea 019B     		ldr	r3, [sp, #4]
 744 02ec BB42     		cmp	r3, r7
 745 02ee 1FD3     		bcc	.L12
  93:src/audio.c   ****         final_sample += ((int)v->sample[idx] - 127) * (1 / 32.0f) * v->volume;
 746              		.loc 1 93 9 is_stmt 1 view .LVU258
  93:src/audio.c   ****         final_sample += ((int)v->sample[idx] - 127) * (1 / 32.0f) * v->volume;
 747              		.loc 1 93 16 is_stmt 0 view .LVU259
 748 02f0 089B     		ldr	r3, [sp, #32]
 749 02f2 1D44     		add	r5, r5, r3
  94:src/audio.c   ****     }
 750              		.loc 1 94 26 view .LVU260
 751 02f4 099B     		ldr	r3, [sp, #36]
  93:src/audio.c   ****         final_sample += ((int)v->sample[idx] - 127) * (1 / 32.0f) * v->volume;
 752              		.loc 1 93 16 view .LVU261
 753 02f6 CEF84850 		str	r5, [lr, #72]
  94:src/audio.c   ****     }
 754              		.loc 1 94 9 is_stmt 1 view .LVU262
  94:src/audio.c   ****     }
 755              		.loc 1 94 26 is_stmt 0 view .LVU263
 756 02fa DB5D     		ldrb	r3, [r3, r7]	@ zero_extendqisi2
  94:src/audio.c   ****     }
 757              		.loc 1 94 46 view .LVU264
 758 02fc 7F3B     		subs	r3, r3, #127
 759 02fe 07EE903A 		vmov	s15, r3	@ int
  94:src/audio.c   ****     }
 760              		.loc 1 94 53 view .LVU265
 761 0302 F8EEE77A 		vcvt.f32.s32	s15, s15
 762 0306 67EE847A 		vmul.f32	s15, s15, s8
  94:src/audio.c   ****     }
 763              		.loc 1 94 22 view .LVU266
 764 030a A5EE277A 		vfma.f32	s14, s10, s15
 765              	.LVL49:
  94:src/audio.c   ****     }
 766              		.loc 1 94 22 view .LVU267
 767              	.LBE60:
  89:src/audio.c   ****         PercVoice *v = perc_voices + i;
 768              		.loc 1 89 42 is_stmt 1 discriminator 2 view .LVU268
  89:src/audio.c   ****         PercVoice *v = perc_voices + i;
 769              		.loc 1 89 26 discriminator 1 view .LVU269
 770              	.LBB61:
  90:src/audio.c   ****         uint32_t idx = v->acc >> 8;
 771              		.loc 1 90 9 view .LVU270
  91:src/audio.c   ****         if(idx > v->size)continue;
 772              		.loc 1 91 9 view .LVU271
  92:src/audio.c   ****         v->acc += v->inc;
ARM GAS  /tmp/cc8sKhx5.s 			page 21


 773              		.loc 1 92 9 view .LVU272
  92:src/audio.c   ****         v->acc += v->inc;
 774              		.loc 1 92 9 is_stmt 0 view .LVU273
 775              	.LBE61:
  89:src/audio.c   ****         PercVoice *v = perc_voices + i;
 776              		.loc 1 89 42 is_stmt 1 discriminator 2 view .LVU274
  89:src/audio.c   ****         PercVoice *v = perc_voices + i;
 777              		.loc 1 89 26 discriminator 1 view .LVU275
 778              	.LBE86:
  98:src/audio.c   ****     return compressor_table[dynamic_sample + 12288];
 779              		.loc 1 98 5 view .LVU276
  99:src/audio.c   **** }
 780              		.loc 1 99 5 view .LVU277
  98:src/audio.c   ****     return compressor_table[dynamic_sample + 12288];
 781              		.loc 1 98 43 is_stmt 0 view .LVU278
 782 030e 67EE247A 		vmul.f32	s15, s14, s9
  98:src/audio.c   ****     return compressor_table[dynamic_sample + 12288];
 783              		.loc 1 98 13 view .LVU279
 784 0312 FDEEE77A 		vcvt.s32.f32	s15, s15
 785 0316 17EE903A 		vmov	r3, s15	@ int
  99:src/audio.c   **** }
 786              		.loc 1 99 28 view .LVU280
 787 031a 03F54053 		add	r3, r3, #12288
 788 031e 39F81330 		ldrh	r3, [r9, r3, lsl #1]
 789 0322 40F8043F 		str	r3, [r0, #4]!
 790              	.LBE98:
 791              	.LBE110:
 104:src/audio.c   ****         ptr[i] = audio_get_sample();
 792              		.loc 1 104 51 is_stmt 1 discriminator 3 view .LVU281
 104:src/audio.c   ****         ptr[i] = audio_get_sample();
 793              		.loc 1 104 27 discriminator 1 view .LVU282
 794 0326 4045     		cmp	r0, r8
 795 0328 3FF451AF 		beq	.L8
 796 032c 2F0A     		lsrs	r7, r5, #8
 797 032e 7FE7     		b	.L14
 798              	.LVL50:
 799              	.L12:
 800              	.LBB111:
 801              	.LBB99:
 802              	.LBB87:
  89:src/audio.c   ****         PercVoice *v = perc_voices + i;
 803              		.loc 1 89 42 discriminator 2 view .LVU283
  89:src/audio.c   ****         PercVoice *v = perc_voices + i;
 804              		.loc 1 89 26 discriminator 1 view .LVU284
 805              	.LBB62:
  90:src/audio.c   ****         uint32_t idx = v->acc >> 8;
 806              		.loc 1 90 9 view .LVU285
  91:src/audio.c   ****         if(idx > v->size)continue;
 807              		.loc 1 91 9 view .LVU286
  92:src/audio.c   ****         v->acc += v->inc;
 808              		.loc 1 92 9 view .LVU287
  92:src/audio.c   ****         v->acc += v->inc;
 809              		.loc 1 92 9 is_stmt 0 view .LVU288
 810              	.LBE62:
  89:src/audio.c   ****         PercVoice *v = perc_voices + i;
 811              		.loc 1 89 42 is_stmt 1 discriminator 2 view .LVU289
  89:src/audio.c   ****         PercVoice *v = perc_voices + i;
ARM GAS  /tmp/cc8sKhx5.s 			page 22


 812              		.loc 1 89 26 discriminator 1 view .LVU290
 813              	.LBE87:
  98:src/audio.c   ****     return compressor_table[dynamic_sample + 12288];
 814              		.loc 1 98 5 view .LVU291
  99:src/audio.c   **** }
 815              		.loc 1 99 5 view .LVU292
  98:src/audio.c   ****     return compressor_table[dynamic_sample + 12288];
 816              		.loc 1 98 43 is_stmt 0 view .LVU293
 817 0330 27EE247A 		vmul.f32	s14, s14, s9
  98:src/audio.c   ****     return compressor_table[dynamic_sample + 12288];
 818              		.loc 1 98 13 view .LVU294
 819 0334 FDEEC77A 		vcvt.s32.f32	s15, s14
 820 0338 17EE903A 		vmov	r3, s15	@ int
  99:src/audio.c   **** }
 821              		.loc 1 99 28 view .LVU295
 822 033c 03F54053 		add	r3, r3, #12288
 823 0340 39F81330 		ldrh	r3, [r9, r3, lsl #1]
 824 0344 40F8043F 		str	r3, [r0, #4]!
 825              	.LBE99:
 826              	.LBE111:
 104:src/audio.c   ****         ptr[i] = audio_get_sample();
 827              		.loc 1 104 51 is_stmt 1 discriminator 3 view .LVU296
 104:src/audio.c   ****         ptr[i] = audio_get_sample();
 828              		.loc 1 104 27 discriminator 1 view .LVU297
 829 0348 8045     		cmp	r8, r0
 830 034a 7FF471AF 		bne	.L14
 831 034e 3EE7     		b	.L8
 832              	.L24:
 833              		.align	2
 834              	.L23:
 835 0350 00000000 		.word	audio_target_buf
 836 0354 00000000 		.word	audio_buf
 837 0358 0000C045 		.word	1170210816
 838 035c 0000003D 		.word	1023410176
 839 0360 00C03F44 		.word	1145028608
 840 0364 00000000 		.word	0
 841 0368 00000000 		.word	audio_voices
 842 036c 00000000 		.word	perc_voices
 843 0370 80050000 		.word	audio_voices+1408
 844 0374 00000000 		.word	compressor_table
 845              	.LBE115:
 846              		.cfi_endproc
 847              	.LFE148:
 849              		.section	.text.audio_init,"ax",%progbits
 850              		.align	1
 851              		.p2align 2,,3
 852              		.global	audio_init
 853              		.syntax unified
 854              		.thumb
 855              		.thumb_func
 857              	audio_init:
 858              	.LFB155:
 110:src/audio.c   **** 
 111:src/audio.c   **** static void audio_process_adsr(VoiceOp *op){
 112:src/audio.c   ****     float next_volume = op->volume;
 113:src/audio.c   ****     switch(op->state){
 114:src/audio.c   ****         //TODO: Implement volume mixing
ARM GAS  /tmp/cc8sKhx5.s 			page 23


 115:src/audio.c   ****         case Idle: return;
 116:src/audio.c   ****         case Attack:
 117:src/audio.c   ****             next_volume += op->A;
 118:src/audio.c   ****             if(next_volume >= op->A_max){
 119:src/audio.c   ****                 op->state = Decay;
 120:src/audio.c   ****                 next_volume = op->A_max;
 121:src/audio.c   ****             }
 122:src/audio.c   ****             break;
 123:src/audio.c   ****         case Decay:
 124:src/audio.c   ****             next_volume -= op->D;
 125:src/audio.c   ****             if(next_volume <= op->S){
 126:src/audio.c   ****                 op->state = AfterDecay;
 127:src/audio.c   ****                 next_volume = op->S;
 128:src/audio.c   ****             }
 129:src/audio.c   ****             break;
 130:src/audio.c   ****         case AfterDecay:
 131:src/audio.c   ****             next_volume = op->S;
 132:src/audio.c   ****             break;
 133:src/audio.c   ****         case Release:
 134:src/audio.c   ****             next_volume -= op->R;
 135:src/audio.c   ****             if(next_volume <= 0.0f){
 136:src/audio.c   ****                 op->state = Idle;
 137:src/audio.c   ****                 next_volume = 0.0f;
 138:src/audio.c   ****             }
 139:src/audio.c   ****             break;
 140:src/audio.c   ****     }
 141:src/audio.c   ****     op->volume = next_volume;
 142:src/audio.c   **** }
 143:src/audio.c   **** 
 144:src/audio.c   **** static void audio_tick_adsr(){
 145:src/audio.c   ****     for(uint8_t i = 0; i != AUDIO_CHANS; i++){
 146:src/audio.c   ****         audio_process_adsr(&audio_voices[i].fm);
 147:src/audio.c   ****         audio_process_adsr(&audio_voices[i].carrier);
 148:src/audio.c   ****         if(audio_voices[i].playing){
 149:src/audio.c   ****             if(audio_voices[i].carrier.volume == 0.0f){
 150:src/audio.c   ****                 audio_voices[i].playing = 0;
 151:src/audio.c   ****             }
 152:src/audio.c   ****         }
 153:src/audio.c   ****     }
 154:src/audio.c   **** }
 155:src/audio.c   **** 
 156:src/audio.c   **** static void audio_start_voice(AudioVoice *v, uint8_t channel, uint8_t note, uint8_t volume){
 157:src/audio.c   ****     float freq = freq_table[note];
 158:src/audio.c   ****     ChannelSettings *c = channel_settings + channel;
 159:src/audio.c   **** 
 160:src/audio.c   ****     //Load the channel "instrument"
 161:src/audio.c   ****     memcpy(&v->fm.A_max, &c->fm, sizeof(ChannelOp));
 162:src/audio.c   ****     memcpy(&v->carrier.A_max, &c->carrier, sizeof(ChannelOp));
 163:src/audio.c   **** 
 164:src/audio.c   ****     v->ev_tick = HAL_GetTick();
 165:src/audio.c   ****     v->channel = channel;
 166:src/audio.c   ****     v->note = note;
 167:src/audio.c   ****     v->carrier.state = Attack;
 168:src/audio.c   ****     v->fm.state = Attack;
 169:src/audio.c   ****     v->playing = 1;
 170:src/audio.c   **** 
 171:src/audio.c   ****     v->inc = freq * sine_fact;
ARM GAS  /tmp/cc8sKhx5.s 			page 24


 172:src/audio.c   **** }
 173:src/audio.c   **** 
 174:src/audio.c   **** static void audio_start_perc(PercVoice *v, uint8_t note, uint8_t volume){
 175:src/audio.c   ****     ChannelSettings *c = channel_settings + 9;
 176:src/audio.c   ****     v->ev_tick = HAL_GetTick();
 177:src/audio.c   ****     v->note = note;
 178:src/audio.c   ****     v->inc = 0;
 179:src/audio.c   ****     v->acc = 0;
 180:src/audio.c   **** 
 181:src/audio.c   **** #define SAMPLE(s) \
 182:src/audio.c   ****     v->sample = s; \
 183:src/audio.c   ****     v->size = sizeof(s) - 1;
 184:src/audio.c   ****     
 185:src/audio.c   ****     switch(note){
 186:src/audio.c   ****         case 35: case 36:
 187:src/audio.c   ****             SAMPLE(kick);
 188:src/audio.c   ****             break;
 189:src/audio.c   ****         case 38: case 40:
 190:src/audio.c   ****             SAMPLE(snare);
 191:src/audio.c   ****             break;
 192:src/audio.c   ****         case 42: case 44:
 193:src/audio.c   ****             SAMPLE(closed_hihat);
 194:src/audio.c   ****             break;
 195:src/audio.c   ****         case 37:
 196:src/audio.c   ****             //SAMPLE(stick);
 197:src/audio.c   ****             break;
 198:src/audio.c   ****         case 46:
 199:src/audio.c   ****             SAMPLE(open_hi_hat);
 200:src/audio.c   ****             break;
 201:src/audio.c   ****         case 49: case 52: case 55: case 57:
 202:src/audio.c   ****             SAMPLE(crash);
 203:src/audio.c   ****             break;
 204:src/audio.c   ****         case 51: case 59:
 205:src/audio.c   ****             SAMPLE(ride);
 206:src/audio.c   ****             break;
 207:src/audio.c   ****         case 50:
 208:src/audio.c   ****             SAMPLE(tomm);
 209:src/audio.c   ****             break;
 210:src/audio.c   ****         case 48:
 211:src/audio.c   ****             SAMPLE(tomm);
 212:src/audio.c   ****             break;
 213:src/audio.c   ****         case 47:
 214:src/audio.c   ****             SAMPLE(tomm);
 215:src/audio.c   ****             break;
 216:src/audio.c   ****         case 45:
 217:src/audio.c   ****             SAMPLE(tomm);
 218:src/audio.c   ****             break;
 219:src/audio.c   ****         case 43:
 220:src/audio.c   ****             SAMPLE(tomm);
 221:src/audio.c   ****             break;
 222:src/audio.c   ****         case 41:
 223:src/audio.c   ****             SAMPLE(tomm);
 224:src/audio.c   ****             break;
 225:src/audio.c   ****         default:
 226:src/audio.c   ****             v->sample = safe_sample;
 227:src/audio.c   ****             v->size = 0;
 228:src/audio.c   **** 
ARM GAS  /tmp/cc8sKhx5.s 			page 25


 229:src/audio.c   **** #if 0
 230:src/audio.c   ****       if (mididata == 50) {
 231:src/audio.c   ****         set_percussion(a,tomm,sizeof(tomm),mididata,velocity);
 232:src/audio.c   **** 		percussion_increment[a]=pecussion_constant*1.5;
 233:src/audio.c   **** 		LEDS_volume[high_tomm]=255;
 234:src/audio.c   ****         LEDS_color_offset[high_tomm] += color_offset;
 235:src/audio.c   ****       }
 236:src/audio.c   **** 	  else if (mididata == 48) {
 237:src/audio.c   ****         set_percussion(a,tomm,sizeof(tomm),mididata,velocity);
 238:src/audio.c   **** 		percussion_increment[a]=pecussion_constant*1.2;
 239:src/audio.c   **** 		LEDS_volume[highmid_tomm]=255;
 240:src/audio.c   ****          LEDS_color_offset[highmid_tomm] += color_offset;
 241:src/audio.c   ****       }
 242:src/audio.c   **** 	  else if (mididata == 47) {
 243:src/audio.c   ****         set_percussion(a,tomm,sizeof(tomm),mididata,velocity);
 244:src/audio.c   **** 		LEDS_volume[highlow_tomm]=255;
 245:src/audio.c   ****          LEDS_color_offset[highlow_tomm] += color_offset;
 246:src/audio.c   ****       }
 247:src/audio.c   **** 	  else if (mididata == 45) {
 248:src/audio.c   ****         set_percussion(a,tomm,sizeof(tomm),mididata,velocity);
 249:src/audio.c   **** 		percussion_increment[a]=pecussion_constant*0.8;
 250:src/audio.c   **** 		LEDS_volume[lowmid_tomm]=255;
 251:src/audio.c   ****         LEDS_color_offset[lowmid_tomm] += color_offset;
 252:src/audio.c   ****       }
 253:src/audio.c   **** 	  else if (mididata == 43) {
 254:src/audio.c   ****         set_percussion(a,tomm,sizeof(tomm),mididata,velocity);
 255:src/audio.c   **** 		percussion_increment[a]=pecussion_constant*0.6;
 256:src/audio.c   **** 		LEDS_volume[low_tomm]=255;
 257:src/audio.c   ****         LEDS_color_offset[low_tomm] += color_offset;
 258:src/audio.c   ****       }
 259:src/audio.c   **** 	  else if (mididata == 41) {
 260:src/audio.c   ****         set_percussion(a,tomm,sizeof(tomm),mididata,velocity);
 261:src/audio.c   **** 		percussion_increment[a]=pecussion_constant*0.4;
 262:src/audio.c   **** 		LEDS_volume[low_tomm]=255;
 263:src/audio.c   ****         LEDS_color_offset[low_tomm] += color_offset;
 264:src/audio.c   ****       }
 265:src/audio.c   **** 
 266:src/audio.c   **** #endif
 267:src/audio.c   ****     }
 268:src/audio.c   ****     v->inc = 0.512f * 380;
 269:src/audio.c   ****     v->volume = (volume / 127.0f) * global_perc_vol * c->volume;
 270:src/audio.c   **** }
 271:src/audio.c   **** 
 272:src/audio.c   **** static void audio_play_perc(uint8_t note, uint8_t vel){
 273:src/audio.c   ****     PercVoice *v, *last_v = perc_voices, *same_note = NULL;
 274:src/audio.c   ****     uint32_t max_lifetime = 0;
 275:src/audio.c   ****     uint32_t cur_tick = HAL_GetTick();
 276:src/audio.c   **** 
 277:src/audio.c   ****     for(uint8_t i = 0; i != PERC_CHANS; i++){
 278:src/audio.c   ****         v = perc_voices + i;
 279:src/audio.c   ****         //If the sample is done in the current channel, use it
 280:src/audio.c   ****         if((v->acc >> 8) > v->size)goto assign;
 281:src/audio.c   **** 
 282:src/audio.c   ****         if(v->note == note)same_note = v;
 283:src/audio.c   **** 
 284:src/audio.c   ****         uint32_t lifetime = cur_tick - v->ev_tick;
 285:src/audio.c   ****         if(lifetime >= max_lifetime){
ARM GAS  /tmp/cc8sKhx5.s 			page 26


 286:src/audio.c   ****             last_v = v;
 287:src/audio.c   ****             max_lifetime = lifetime;
 288:src/audio.c   ****         }
 289:src/audio.c   ****     }
 290:src/audio.c   **** 
 291:src/audio.c   ****     v = last_v;
 292:src/audio.c   ****     if(same_note)v = same_note;
 293:src/audio.c   **** assign:
 294:src/audio.c   ****     //Play the note
 295:src/audio.c   ****     audio_start_perc(v, note, vel);
 296:src/audio.c   **** }
 297:src/audio.c   **** 
 298:src/audio.c   **** static void audio_stop_voice(AudioVoice *v){
 299:src/audio.c   ****     v->carrier.state = Release;
 300:src/audio.c   ****     v->fm.state = Release;
 301:src/audio.c   **** }
 302:src/audio.c   **** 
 303:src/audio.c   **** void audio_init(){
 859              		.loc 1 303 18 view -0
 860              		.cfi_startproc
 861              		@ args = 0, pretend = 0, frame = 0
 862              		@ frame_needed = 0, uses_anonymous_args = 0
 304:src/audio.c   ****     RCC->AHB1ENR |= RCC_AHB1ENR_GPIOAEN | RCC_AHB1ENR_DMA1EN;
 863              		.loc 1 304 5 view .LVU299
 864              		.loc 1 304 8 is_stmt 0 view .LVU300
 865 0000 9649     		ldr	r1, .L27
 305:src/audio.c   ****     RCC->APB1ENR |= RCC_APB1ENR_TIM2EN;
 306:src/audio.c   ****     
 307:src/audio.c   ****     //PA1 to alternate function
 308:src/audio.c   ****     GPIOA->MODER = (GPIOA->MODER & ~GPIO_MODER_MODER1) | (0b10 << GPIO_MODER_MODER1_Pos);
 866              		.loc 1 308 26 view .LVU301
 867 0002 974A     		ldr	r2, .L27+4
 304:src/audio.c   ****     RCC->AHB1ENR |= RCC_AHB1ENR_GPIOAEN | RCC_AHB1ENR_DMA1EN;
 868              		.loc 1 304 8 view .LVU302
 869 0004 0B6B     		ldr	r3, [r1, #48]
 304:src/audio.c   ****     RCC->AHB1ENR |= RCC_AHB1ENR_GPIOAEN | RCC_AHB1ENR_DMA1EN;
 870              		.loc 1 304 18 view .LVU303
 871 0006 43F40013 		orr	r3, r3, #2097152
 872 000a 43F00103 		orr	r3, r3, #1
 303:src/audio.c   ****     RCC->AHB1ENR |= RCC_AHB1ENR_GPIOAEN | RCC_AHB1ENR_DMA1EN;
 873              		.loc 1 303 18 view .LVU304
 874 000e 2DE9F041 		push	{r4, r5, r6, r7, r8, lr}
 875              	.LCFI4:
 876              		.cfi_def_cfa_offset 24
 877              		.cfi_offset 4, -24
 878              		.cfi_offset 5, -20
 879              		.cfi_offset 6, -16
 880              		.cfi_offset 7, -12
 881              		.cfi_offset 8, -8
 882              		.cfi_offset 14, -4
 304:src/audio.c   ****     RCC->AHB1ENR |= RCC_AHB1ENR_GPIOAEN | RCC_AHB1ENR_DMA1EN;
 883              		.loc 1 304 18 view .LVU305
 884 0012 0B63     		str	r3, [r1, #48]
 305:src/audio.c   ****     RCC->APB1ENR |= RCC_APB1ENR_TIM2EN;
 885              		.loc 1 305 5 is_stmt 1 view .LVU306
 305:src/audio.c   ****     RCC->APB1ENR |= RCC_APB1ENR_TIM2EN;
 886              		.loc 1 305 8 is_stmt 0 view .LVU307
ARM GAS  /tmp/cc8sKhx5.s 			page 27


 887 0014 0B6C     		ldr	r3, [r1, #64]
 309:src/audio.c   ****     //AF01 for PA1 (TIM2 2)
 310:src/audio.c   ****     GPIOA->AFR[0] = (GPIOA->AFR[0] & ~GPIO_AFRL_AFSEL1) | (1 << GPIO_AFRL_AFSEL1_Pos);
 311:src/audio.c   **** 
 312:src/audio.c   ****     TIM2->CCMR1 = TIM_CCMR1_OC2PE | (0b110 << TIM_CCMR1_OC2M_Pos);
 313:src/audio.c   ****     TIM2->CCER = TIM_CCER_CC2E;
 314:src/audio.c   ****     TIM2->PSC = 0;
 315:src/audio.c   ****     TIM2->ARR = 2047;
 316:src/audio.c   ****     TIM2->CR1 = TIM_CR1_ARPE;
 317:src/audio.c   ****     TIM2->DIER = TIM_DIER_UDE;
 318:src/audio.c   **** 
 319:src/audio.c   ****     //Channel 3 (TIM2 UP); 16 bit size; Mem -> Perif
 320:src/audio.c   ****     DMA1_Stream1->CR = (3 << DMA_SxCR_CHSEL_Pos) | DMA_SxCR_MINC |
 888              		.loc 1 320 22 view .LVU308
 889 0016 DFF87482 		ldr	r8, .L27+48
 321:src/audio.c   ****                        DMA_SxCR_CIRC |
 322:src/audio.c   ****                        (0b10 << DMA_SxCR_MSIZE_Pos) |
 323:src/audio.c   ****                        (0b10 << DMA_SxCR_PSIZE_Pos) |
 324:src/audio.c   ****                        (0b10 << DMA_SxCR_PL_Pos) |
 325:src/audio.c   ****                        (0b01 << DMA_SxCR_DIR_Pos);
 326:src/audio.c   **** 
 327:src/audio.c   ****     DMA1_Stream1->NDTR = AUDIO_BUF_SIZE;
 328:src/audio.c   ****     DMA1_Stream1->M0AR = (uint32_t)audio_buf;
 329:src/audio.c   ****     DMA1_Stream1->PAR  = (uint32_t)&TIM2->CCR2;
 330:src/audio.c   ****     DMA1_Stream1->CR |= DMA_SxCR_HTIE | DMA_SxCR_TCIE;
 331:src/audio.c   **** 
 332:src/audio.c   ****     //Quirks of using sram and optimizations
 333:src/audio.c   ****     audio_target_buf = 0;
 334:src/audio.c   ****     global_perc_vol = 1;
 335:src/audio.c   ****     memset(audio_voices, 0, sizeof(audio_voices));
 890              		.loc 1 335 5 view .LVU309
 891 001a 924C     		ldr	r4, .L27+8
 305:src/audio.c   ****     
 892              		.loc 1 305 18 view .LVU310
 893 001c 43F00103 		orr	r3, r3, #1
 894 0020 0B64     		str	r3, [r1, #64]
 308:src/audio.c   ****     //AF01 for PA1 (TIM2 2)
 895              		.loc 1 308 5 is_stmt 1 view .LVU311
 308:src/audio.c   ****     //AF01 for PA1 (TIM2 2)
 896              		.loc 1 308 26 is_stmt 0 view .LVU312
 897 0022 1368     		ldr	r3, [r2]
 308:src/audio.c   ****     //AF01 for PA1 (TIM2 2)
 898              		.loc 1 308 34 view .LVU313
 899 0024 23F00C03 		bic	r3, r3, #12
 308:src/audio.c   ****     //AF01 for PA1 (TIM2 2)
 900              		.loc 1 308 56 view .LVU314
 901 0028 43F00803 		orr	r3, r3, #8
 308:src/audio.c   ****     //AF01 for PA1 (TIM2 2)
 902              		.loc 1 308 18 view .LVU315
 903 002c 1360     		str	r3, [r2]
 310:src/audio.c   **** 
 904              		.loc 1 310 5 is_stmt 1 view .LVU316
 310:src/audio.c   **** 
 905              		.loc 1 310 32 is_stmt 0 view .LVU317
 906 002e 136A     		ldr	r3, [r2, #32]
 310:src/audio.c   **** 
 907              		.loc 1 310 36 view .LVU318
ARM GAS  /tmp/cc8sKhx5.s 			page 28


 908 0030 23F0F003 		bic	r3, r3, #240
 312:src/audio.c   ****     TIM2->CCER = TIM_CCER_CC2E;
 909              		.loc 1 312 17 view .LVU319
 910 0034 4FF08047 		mov	r7, #1073741824
 310:src/audio.c   **** 
 911              		.loc 1 310 57 view .LVU320
 912 0038 43F01003 		orr	r3, r3, #16
 310:src/audio.c   **** 
 913              		.loc 1 310 19 view .LVU321
 914 003c 1362     		str	r3, [r2, #32]
 312:src/audio.c   ****     TIM2->CCER = TIM_CCER_CC2E;
 915              		.loc 1 312 5 is_stmt 1 view .LVU322
 314:src/audio.c   ****     TIM2->ARR = 2047;
 916              		.loc 1 314 15 is_stmt 0 view .LVU323
 917 003e 0026     		movs	r6, #0
 312:src/audio.c   ****     TIM2->CCER = TIM_CCER_CC2E;
 918              		.loc 1 312 17 view .LVU324
 919 0040 4FF4D040 		mov	r0, #26624
 313:src/audio.c   ****     TIM2->PSC = 0;
 920              		.loc 1 313 16 view .LVU325
 921 0044 1022     		movs	r2, #16
 315:src/audio.c   ****     TIM2->CR1 = TIM_CR1_ARPE;
 922              		.loc 1 315 15 view .LVU326
 923 0046 40F2FF73 		movw	r3, #2047
 312:src/audio.c   ****     TIM2->CCER = TIM_CCER_CC2E;
 924              		.loc 1 312 17 view .LVU327
 925 004a B861     		str	r0, [r7, #24]
 313:src/audio.c   ****     TIM2->PSC = 0;
 926              		.loc 1 313 5 is_stmt 1 view .LVU328
 313:src/audio.c   ****     TIM2->PSC = 0;
 927              		.loc 1 313 16 is_stmt 0 view .LVU329
 928 004c 3A62     		str	r2, [r7, #32]
 314:src/audio.c   ****     TIM2->ARR = 2047;
 929              		.loc 1 314 5 is_stmt 1 view .LVU330
 314:src/audio.c   ****     TIM2->ARR = 2047;
 930              		.loc 1 314 15 is_stmt 0 view .LVU331
 931 004e BE62     		str	r6, [r7, #40]
 315:src/audio.c   ****     TIM2->CR1 = TIM_CR1_ARPE;
 932              		.loc 1 315 5 is_stmt 1 view .LVU332
 315:src/audio.c   ****     TIM2->CR1 = TIM_CR1_ARPE;
 933              		.loc 1 315 15 is_stmt 0 view .LVU333
 934 0050 FB62     		str	r3, [r7, #44]
 316:src/audio.c   ****     TIM2->DIER = TIM_DIER_UDE;
 935              		.loc 1 316 5 is_stmt 1 view .LVU334
 316:src/audio.c   ****     TIM2->DIER = TIM_DIER_UDE;
 936              		.loc 1 316 15 is_stmt 0 view .LVU335
 937 0052 8023     		movs	r3, #128
 938 0054 3B60     		str	r3, [r7]
 317:src/audio.c   **** 
 939              		.loc 1 317 5 is_stmt 1 view .LVU336
 320:src/audio.c   ****                        DMA_SxCR_CIRC |
 940              		.loc 1 320 22 is_stmt 0 view .LVU337
 941 0056 01F14641 		add	r1, r1, #-973078528
 317:src/audio.c   **** 
 942              		.loc 1 317 16 view .LVU338
 943 005a 4FF48073 		mov	r3, #256
 944 005e FB60     		str	r3, [r7, #12]
ARM GAS  /tmp/cc8sKhx5.s 			page 29


 320:src/audio.c   ****                        DMA_SxCR_CIRC |
 945              		.loc 1 320 5 is_stmt 1 view .LVU339
 320:src/audio.c   ****                        DMA_SxCR_CIRC |
 946              		.loc 1 320 22 is_stmt 0 view .LVU340
 947 0060 01F5EA51 		add	r1, r1, #7488
 327:src/audio.c   ****     DMA1_Stream1->M0AR = (uint32_t)audio_buf;
 948              		.loc 1 327 24 view .LVU341
 949 0064 4FF40073 		mov	r3, #512
 320:src/audio.c   ****                        DMA_SxCR_CIRC |
 950              		.loc 1 320 22 view .LVU342
 951 0068 C8F82810 		str	r1, [r8, #40]
 327:src/audio.c   ****     DMA1_Stream1->M0AR = (uint32_t)audio_buf;
 952              		.loc 1 327 5 is_stmt 1 view .LVU343
 328:src/audio.c   ****     DMA1_Stream1->PAR  = (uint32_t)&TIM2->CCR2;
 953              		.loc 1 328 26 is_stmt 0 view .LVU344
 954 006c 7E4A     		ldr	r2, .L27+12
 327:src/audio.c   ****     DMA1_Stream1->M0AR = (uint32_t)audio_buf;
 955              		.loc 1 327 24 view .LVU345
 956 006e C8F82C30 		str	r3, [r8, #44]
 328:src/audio.c   ****     DMA1_Stream1->PAR  = (uint32_t)&TIM2->CCR2;
 957              		.loc 1 328 5 is_stmt 1 view .LVU346
 329:src/audio.c   ****     DMA1_Stream1->CR |= DMA_SxCR_HTIE | DMA_SxCR_TCIE;
 958              		.loc 1 329 24 is_stmt 0 view .LVU347
 959 0072 7E4B     		ldr	r3, .L27+16
 328:src/audio.c   ****     DMA1_Stream1->PAR  = (uint32_t)&TIM2->CCR2;
 960              		.loc 1 328 24 view .LVU348
 961 0074 C8F83420 		str	r2, [r8, #52]
 329:src/audio.c   ****     DMA1_Stream1->CR |= DMA_SxCR_HTIE | DMA_SxCR_TCIE;
 962              		.loc 1 329 5 is_stmt 1 view .LVU349
 329:src/audio.c   ****     DMA1_Stream1->CR |= DMA_SxCR_HTIE | DMA_SxCR_TCIE;
 963              		.loc 1 329 24 is_stmt 0 view .LVU350
 964 0078 C8F83030 		str	r3, [r8, #48]
 330:src/audio.c   **** 
 965              		.loc 1 330 5 is_stmt 1 view .LVU351
 330:src/audio.c   **** 
 966              		.loc 1 330 17 is_stmt 0 view .LVU352
 967 007c D8F82830 		ldr	r3, [r8, #40]
 333:src/audio.c   ****     global_perc_vol = 1;
 968              		.loc 1 333 22 view .LVU353
 969 0080 7B4A     		ldr	r2, .L27+20
 330:src/audio.c   **** 
 970              		.loc 1 330 22 view .LVU354
 971 0082 43F01803 		orr	r3, r3, #24
 972 0086 C8F82830 		str	r3, [r8, #40]
 333:src/audio.c   ****     global_perc_vol = 1;
 973              		.loc 1 333 5 is_stmt 1 view .LVU355
 334:src/audio.c   ****     memset(audio_voices, 0, sizeof(audio_voices));
 974              		.loc 1 334 21 is_stmt 0 view .LVU356
 975 008a 7A4B     		ldr	r3, .L27+24
 333:src/audio.c   ****     global_perc_vol = 1;
 976              		.loc 1 333 22 view .LVU357
 977 008c 1670     		strb	r6, [r2]
 334:src/audio.c   ****     memset(audio_voices, 0, sizeof(audio_voices));
 978              		.loc 1 334 5 is_stmt 1 view .LVU358
 334:src/audio.c   ****     memset(audio_voices, 0, sizeof(audio_voices));
 979              		.loc 1 334 21 is_stmt 0 view .LVU359
 980 008e 4FF07E55 		mov	r5, #1065353216
ARM GAS  /tmp/cc8sKhx5.s 			page 30


 981              		.loc 1 335 5 view .LVU360
 982 0092 3146     		mov	r1, r6
 983 0094 4FF4B062 		mov	r2, #1408
 984 0098 2046     		mov	r0, r4
 334:src/audio.c   ****     memset(audio_voices, 0, sizeof(audio_voices));
 985              		.loc 1 334 21 view .LVU361
 986 009a 1D60     		str	r5, [r3]	@ float
 987              		.loc 1 335 5 is_stmt 1 view .LVU362
 988 009c FFF7FEFF 		bl	memset
 989              	.LVL51:
 336:src/audio.c   ****     memset(perc_voices, 0, sizeof(perc_voices));
 990              		.loc 1 336 5 view .LVU363
 991 00a0 3146     		mov	r1, r6
 992 00a2 754E     		ldr	r6, .L27+28
 993 00a4 7022     		movs	r2, #112
 994 00a6 3046     		mov	r0, r6
 995 00a8 FFF7FEFF 		bl	memset
 996              	.LVL52:
 337:src/audio.c   ****     for(uint8_t i = 0; i != AUDIO_CHANS; i++){
 997              		.loc 1 337 5 view .LVU364
 998              	.LBB116:
 999              		.loc 1 337 9 view .LVU365
 1000              		.loc 1 337 26 discriminator 1 view .LVU366
 338:src/audio.c   ****         audio_voices[i].carrier.wave = sine_table;
 1001              		.loc 1 338 9 view .LVU367
 1002              	.LBE116:
 1003              	.LBB117:
 339:src/audio.c   ****         audio_voices[i].fm.wave = sine_table;
 340:src/audio.c   ****     }
 341:src/audio.c   **** 
 342:src/audio.c   ****     for(uint8_t i = 0; i != PERC_CHANS; i++){
 343:src/audio.c   ****         perc_voices[i].sample = safe_sample;
 344:src/audio.c   ****         perc_voices[i].inc = 10000;
 345:src/audio.c   ****     }
 346:src/audio.c   **** 
 347:src/audio.c   ****     for(uint8_t i = 0; i != 16; i++){
 348:src/audio.c   ****         channel_settings[i].carrier.wave = sine_table;
 1004              		.loc 1 348 42 is_stmt 0 view .LVU368
 1005 00ac 734B     		ldr	r3, .L27+32
 1006              	.LBE117:
 1007              	.LBB118:
 338:src/audio.c   ****         audio_voices[i].carrier.wave = sine_table;
 1008              		.loc 1 338 38 view .LVU369
 1009 00ae 744A     		ldr	r2, .L27+36
 1010              	.LBE118:
 1011              	.LBB119:
 343:src/audio.c   ****         perc_voices[i].inc = 10000;
 1012              		.loc 1 343 31 view .LVU370
 1013 00b0 7448     		ldr	r0, .L27+40
 1014              	.LBE119:
 1015              	.LBB120:
 338:src/audio.c   ****         audio_voices[i].carrier.wave = sine_table;
 1016              		.loc 1 338 38 view .LVU371
 1017 00b2 A264     		str	r2, [r4, #72]
 339:src/audio.c   ****         audio_voices[i].fm.wave = sine_table;
 1018              		.loc 1 339 9 is_stmt 1 view .LVU372
 1019              	.LBE120:
ARM GAS  /tmp/cc8sKhx5.s 			page 31


 1020              	.LBB121:
 349:src/audio.c   ****         channel_settings[i].fm.wave = sine_table;
 350:src/audio.c   ****         channel_settings[i].volume = 1;
 351:src/audio.c   ****         channel_settings[i].pitch = 0;
 1021              		.loc 1 351 35 is_stmt 0 view .LVU373
 1022 00b4 0021     		movs	r1, #0
 1023              	.LBE121:
 1024              	.LBB122:
 339:src/audio.c   ****     }
 1025              		.loc 1 339 33 view .LVU374
 1026 00b6 6262     		str	r2, [r4, #36]
 337:src/audio.c   ****         audio_voices[i].carrier.wave = sine_table;
 1027              		.loc 1 337 43 is_stmt 1 discriminator 3 view .LVU375
 1028              	.LVL53:
 337:src/audio.c   ****         audio_voices[i].carrier.wave = sine_table;
 1029              		.loc 1 337 26 discriminator 1 view .LVU376
 338:src/audio.c   ****         audio_voices[i].fm.wave = sine_table;
 1030              		.loc 1 338 9 view .LVU377
 338:src/audio.c   ****         audio_voices[i].fm.wave = sine_table;
 1031              		.loc 1 338 38 is_stmt 0 view .LVU378
 1032 00b8 C4F8A020 		str	r2, [r4, #160]
 339:src/audio.c   ****     }
 1033              		.loc 1 339 9 is_stmt 1 view .LVU379
 339:src/audio.c   ****     }
 1034              		.loc 1 339 33 is_stmt 0 view .LVU380
 1035 00bc E267     		str	r2, [r4, #124]
 337:src/audio.c   ****         audio_voices[i].carrier.wave = sine_table;
 1036              		.loc 1 337 43 is_stmt 1 discriminator 3 view .LVU381
 1037              	.LVL54:
 337:src/audio.c   ****         audio_voices[i].carrier.wave = sine_table;
 1038              		.loc 1 337 26 discriminator 1 view .LVU382
 338:src/audio.c   ****         audio_voices[i].fm.wave = sine_table;
 1039              		.loc 1 338 9 view .LVU383
 338:src/audio.c   ****         audio_voices[i].fm.wave = sine_table;
 1040              		.loc 1 338 38 is_stmt 0 view .LVU384
 1041 00be C4F8F820 		str	r2, [r4, #248]
 339:src/audio.c   ****     }
 1042              		.loc 1 339 9 is_stmt 1 view .LVU385
 339:src/audio.c   ****     }
 1043              		.loc 1 339 33 is_stmt 0 view .LVU386
 1044 00c2 C4F8D420 		str	r2, [r4, #212]
 337:src/audio.c   ****         audio_voices[i].carrier.wave = sine_table;
 1045              		.loc 1 337 43 is_stmt 1 discriminator 3 view .LVU387
 1046              	.LVL55:
 337:src/audio.c   ****         audio_voices[i].carrier.wave = sine_table;
 1047              		.loc 1 337 26 discriminator 1 view .LVU388
 338:src/audio.c   ****         audio_voices[i].fm.wave = sine_table;
 1048              		.loc 1 338 9 view .LVU389
 338:src/audio.c   ****         audio_voices[i].fm.wave = sine_table;
 1049              		.loc 1 338 38 is_stmt 0 view .LVU390
 1050 00c6 C4F85021 		str	r2, [r4, #336]
 339:src/audio.c   ****     }
 1051              		.loc 1 339 9 is_stmt 1 view .LVU391
 339:src/audio.c   ****     }
 1052              		.loc 1 339 33 is_stmt 0 view .LVU392
 1053 00ca C4F82C21 		str	r2, [r4, #300]
 337:src/audio.c   ****         audio_voices[i].carrier.wave = sine_table;
ARM GAS  /tmp/cc8sKhx5.s 			page 32


 1054              		.loc 1 337 43 is_stmt 1 discriminator 3 view .LVU393
 1055              	.LVL56:
 337:src/audio.c   ****         audio_voices[i].carrier.wave = sine_table;
 1056              		.loc 1 337 26 discriminator 1 view .LVU394
 338:src/audio.c   ****         audio_voices[i].fm.wave = sine_table;
 1057              		.loc 1 338 9 view .LVU395
 338:src/audio.c   ****         audio_voices[i].fm.wave = sine_table;
 1058              		.loc 1 338 38 is_stmt 0 view .LVU396
 1059 00ce C4F8A821 		str	r2, [r4, #424]
 339:src/audio.c   ****     }
 1060              		.loc 1 339 9 is_stmt 1 view .LVU397
 339:src/audio.c   ****     }
 1061              		.loc 1 339 33 is_stmt 0 view .LVU398
 1062 00d2 C4F88421 		str	r2, [r4, #388]
 337:src/audio.c   ****         audio_voices[i].carrier.wave = sine_table;
 1063              		.loc 1 337 43 is_stmt 1 discriminator 3 view .LVU399
 1064              	.LVL57:
 337:src/audio.c   ****         audio_voices[i].carrier.wave = sine_table;
 1065              		.loc 1 337 26 discriminator 1 view .LVU400
 338:src/audio.c   ****         audio_voices[i].fm.wave = sine_table;
 1066              		.loc 1 338 9 view .LVU401
 338:src/audio.c   ****         audio_voices[i].fm.wave = sine_table;
 1067              		.loc 1 338 38 is_stmt 0 view .LVU402
 1068 00d6 C4F80022 		str	r2, [r4, #512]
 339:src/audio.c   ****     }
 1069              		.loc 1 339 9 is_stmt 1 view .LVU403
 339:src/audio.c   ****     }
 1070              		.loc 1 339 33 is_stmt 0 view .LVU404
 1071 00da C4F8DC21 		str	r2, [r4, #476]
 337:src/audio.c   ****         audio_voices[i].carrier.wave = sine_table;
 1072              		.loc 1 337 43 is_stmt 1 discriminator 3 view .LVU405
 1073              	.LVL58:
 337:src/audio.c   ****         audio_voices[i].carrier.wave = sine_table;
 1074              		.loc 1 337 26 discriminator 1 view .LVU406
 338:src/audio.c   ****         audio_voices[i].fm.wave = sine_table;
 1075              		.loc 1 338 9 view .LVU407
 338:src/audio.c   ****         audio_voices[i].fm.wave = sine_table;
 1076              		.loc 1 338 38 is_stmt 0 view .LVU408
 1077 00de C4F85822 		str	r2, [r4, #600]
 339:src/audio.c   ****     }
 1078              		.loc 1 339 9 is_stmt 1 view .LVU409
 339:src/audio.c   ****     }
 1079              		.loc 1 339 33 is_stmt 0 view .LVU410
 1080 00e2 C4F83422 		str	r2, [r4, #564]
 337:src/audio.c   ****         audio_voices[i].carrier.wave = sine_table;
 1081              		.loc 1 337 43 is_stmt 1 discriminator 3 view .LVU411
 1082              	.LVL59:
 337:src/audio.c   ****         audio_voices[i].carrier.wave = sine_table;
 1083              		.loc 1 337 26 discriminator 1 view .LVU412
 338:src/audio.c   ****         audio_voices[i].fm.wave = sine_table;
 1084              		.loc 1 338 9 view .LVU413
 338:src/audio.c   ****         audio_voices[i].fm.wave = sine_table;
 1085              		.loc 1 338 38 is_stmt 0 view .LVU414
 1086 00e6 C4F8B022 		str	r2, [r4, #688]
 339:src/audio.c   ****     }
 1087              		.loc 1 339 9 is_stmt 1 view .LVU415
 339:src/audio.c   ****     }
ARM GAS  /tmp/cc8sKhx5.s 			page 33


 1088              		.loc 1 339 33 is_stmt 0 view .LVU416
 1089 00ea C4F88C22 		str	r2, [r4, #652]
 337:src/audio.c   ****         audio_voices[i].carrier.wave = sine_table;
 1090              		.loc 1 337 43 is_stmt 1 discriminator 3 view .LVU417
 1091              	.LVL60:
 337:src/audio.c   ****         audio_voices[i].carrier.wave = sine_table;
 1092              		.loc 1 337 26 discriminator 1 view .LVU418
 338:src/audio.c   ****         audio_voices[i].fm.wave = sine_table;
 1093              		.loc 1 338 9 view .LVU419
 338:src/audio.c   ****         audio_voices[i].fm.wave = sine_table;
 1094              		.loc 1 338 38 is_stmt 0 view .LVU420
 1095 00ee C4F80823 		str	r2, [r4, #776]
 339:src/audio.c   ****     }
 1096              		.loc 1 339 9 is_stmt 1 view .LVU421
 339:src/audio.c   ****     }
 1097              		.loc 1 339 33 is_stmt 0 view .LVU422
 1098 00f2 C4F8E422 		str	r2, [r4, #740]
 337:src/audio.c   ****         audio_voices[i].carrier.wave = sine_table;
 1099              		.loc 1 337 43 is_stmt 1 discriminator 3 view .LVU423
 1100              	.LVL61:
 337:src/audio.c   ****         audio_voices[i].carrier.wave = sine_table;
 1101              		.loc 1 337 26 discriminator 1 view .LVU424
 338:src/audio.c   ****         audio_voices[i].fm.wave = sine_table;
 1102              		.loc 1 338 9 view .LVU425
 338:src/audio.c   ****         audio_voices[i].fm.wave = sine_table;
 1103              		.loc 1 338 38 is_stmt 0 view .LVU426
 1104 00f6 C4F86023 		str	r2, [r4, #864]
 339:src/audio.c   ****     }
 1105              		.loc 1 339 9 is_stmt 1 view .LVU427
 339:src/audio.c   ****     }
 1106              		.loc 1 339 33 is_stmt 0 view .LVU428
 1107 00fa C4F83C23 		str	r2, [r4, #828]
 337:src/audio.c   ****         audio_voices[i].carrier.wave = sine_table;
 1108              		.loc 1 337 43 is_stmt 1 discriminator 3 view .LVU429
 1109              	.LVL62:
 337:src/audio.c   ****         audio_voices[i].carrier.wave = sine_table;
 1110              		.loc 1 337 26 discriminator 1 view .LVU430
 338:src/audio.c   ****         audio_voices[i].fm.wave = sine_table;
 1111              		.loc 1 338 9 view .LVU431
 338:src/audio.c   ****         audio_voices[i].fm.wave = sine_table;
 1112              		.loc 1 338 38 is_stmt 0 view .LVU432
 1113 00fe C4F8B823 		str	r2, [r4, #952]
 339:src/audio.c   ****     }
 1114              		.loc 1 339 9 is_stmt 1 view .LVU433
 339:src/audio.c   ****     }
 1115              		.loc 1 339 33 is_stmt 0 view .LVU434
 1116 0102 C4F89423 		str	r2, [r4, #916]
 337:src/audio.c   ****         audio_voices[i].carrier.wave = sine_table;
 1117              		.loc 1 337 43 is_stmt 1 discriminator 3 view .LVU435
 1118              	.LVL63:
 337:src/audio.c   ****         audio_voices[i].carrier.wave = sine_table;
 1119              		.loc 1 337 26 discriminator 1 view .LVU436
 338:src/audio.c   ****         audio_voices[i].fm.wave = sine_table;
 1120              		.loc 1 338 9 view .LVU437
 338:src/audio.c   ****         audio_voices[i].fm.wave = sine_table;
 1121              		.loc 1 338 38 is_stmt 0 view .LVU438
 1122 0106 C4F81024 		str	r2, [r4, #1040]
ARM GAS  /tmp/cc8sKhx5.s 			page 34


 339:src/audio.c   ****     }
 1123              		.loc 1 339 9 is_stmt 1 view .LVU439
 339:src/audio.c   ****     }
 1124              		.loc 1 339 33 is_stmt 0 view .LVU440
 1125 010a C4F8EC23 		str	r2, [r4, #1004]
 337:src/audio.c   ****         audio_voices[i].carrier.wave = sine_table;
 1126              		.loc 1 337 43 is_stmt 1 discriminator 3 view .LVU441
 1127              	.LVL64:
 337:src/audio.c   ****         audio_voices[i].carrier.wave = sine_table;
 1128              		.loc 1 337 26 discriminator 1 view .LVU442
 338:src/audio.c   ****         audio_voices[i].fm.wave = sine_table;
 1129              		.loc 1 338 9 view .LVU443
 338:src/audio.c   ****         audio_voices[i].fm.wave = sine_table;
 1130              		.loc 1 338 38 is_stmt 0 view .LVU444
 1131 010e C4F86824 		str	r2, [r4, #1128]
 339:src/audio.c   ****     }
 1132              		.loc 1 339 9 is_stmt 1 view .LVU445
 339:src/audio.c   ****     }
 1133              		.loc 1 339 33 is_stmt 0 view .LVU446
 1134 0112 C4F84424 		str	r2, [r4, #1092]
 337:src/audio.c   ****         audio_voices[i].carrier.wave = sine_table;
 1135              		.loc 1 337 43 is_stmt 1 discriminator 3 view .LVU447
 1136              	.LVL65:
 337:src/audio.c   ****         audio_voices[i].carrier.wave = sine_table;
 1137              		.loc 1 337 26 discriminator 1 view .LVU448
 338:src/audio.c   ****         audio_voices[i].fm.wave = sine_table;
 1138              		.loc 1 338 9 view .LVU449
 338:src/audio.c   ****         audio_voices[i].fm.wave = sine_table;
 1139              		.loc 1 338 38 is_stmt 0 view .LVU450
 1140 0116 C4F8C024 		str	r2, [r4, #1216]
 339:src/audio.c   ****     }
 1141              		.loc 1 339 9 is_stmt 1 view .LVU451
 339:src/audio.c   ****     }
 1142              		.loc 1 339 33 is_stmt 0 view .LVU452
 1143 011a C4F89C24 		str	r2, [r4, #1180]
 337:src/audio.c   ****         audio_voices[i].carrier.wave = sine_table;
 1144              		.loc 1 337 43 is_stmt 1 discriminator 3 view .LVU453
 1145              	.LVL66:
 337:src/audio.c   ****         audio_voices[i].carrier.wave = sine_table;
 1146              		.loc 1 337 26 discriminator 1 view .LVU454
 338:src/audio.c   ****         audio_voices[i].fm.wave = sine_table;
 1147              		.loc 1 338 9 view .LVU455
 338:src/audio.c   ****         audio_voices[i].fm.wave = sine_table;
 1148              		.loc 1 338 38 is_stmt 0 view .LVU456
 1149 011e C4F81825 		str	r2, [r4, #1304]
 339:src/audio.c   ****     }
 1150              		.loc 1 339 9 is_stmt 1 view .LVU457
 339:src/audio.c   ****     }
 1151              		.loc 1 339 33 is_stmt 0 view .LVU458
 1152 0122 C4F8F424 		str	r2, [r4, #1268]
 337:src/audio.c   ****         audio_voices[i].carrier.wave = sine_table;
 1153              		.loc 1 337 43 is_stmt 1 discriminator 3 view .LVU459
 1154              	.LVL67:
 337:src/audio.c   ****         audio_voices[i].carrier.wave = sine_table;
 1155              		.loc 1 337 26 discriminator 1 view .LVU460
 338:src/audio.c   ****         audio_voices[i].fm.wave = sine_table;
 1156              		.loc 1 338 9 view .LVU461
ARM GAS  /tmp/cc8sKhx5.s 			page 35


 338:src/audio.c   ****         audio_voices[i].fm.wave = sine_table;
 1157              		.loc 1 338 38 is_stmt 0 view .LVU462
 1158 0126 C4F87025 		str	r2, [r4, #1392]
 339:src/audio.c   ****     }
 1159              		.loc 1 339 9 is_stmt 1 view .LVU463
 339:src/audio.c   ****     }
 1160              		.loc 1 339 33 is_stmt 0 view .LVU464
 1161 012a C4F84C25 		str	r2, [r4, #1356]
 337:src/audio.c   ****         audio_voices[i].carrier.wave = sine_table;
 1162              		.loc 1 337 43 is_stmt 1 discriminator 3 view .LVU465
 1163              	.LVL68:
 337:src/audio.c   ****         audio_voices[i].carrier.wave = sine_table;
 1164              		.loc 1 337 26 discriminator 1 view .LVU466
 337:src/audio.c   ****         audio_voices[i].carrier.wave = sine_table;
 1165              		.loc 1 337 26 is_stmt 0 discriminator 1 view .LVU467
 1166              	.LBE122:
 1167              	.LBB123:
 342:src/audio.c   ****         perc_voices[i].sample = safe_sample;
 1168              		.loc 1 342 26 is_stmt 1 discriminator 1 view .LVU468
 343:src/audio.c   ****         perc_voices[i].inc = 10000;
 1169              		.loc 1 343 9 view .LVU469
 343:src/audio.c   ****         perc_voices[i].inc = 10000;
 1170              		.loc 1 343 31 is_stmt 0 view .LVU470
 1171 012e B060     		str	r0, [r6, #8]
 344:src/audio.c   ****     }
 1172              		.loc 1 344 9 is_stmt 1 view .LVU471
 343:src/audio.c   ****         perc_voices[i].inc = 10000;
 1173              		.loc 1 343 31 is_stmt 0 view .LVU472
 1174 0130 7062     		str	r0, [r6, #36]
 1175 0132 3064     		str	r0, [r6, #64]
 1176 0134 F065     		str	r0, [r6, #92]
 344:src/audio.c   ****     }
 1177              		.loc 1 344 28 view .LVU473
 1178 0136 42F21070 		movw	r0, #10000
 1179              	.LBE123:
 1180              	.LBB124:
 1181              		.loc 1 351 35 view .LVU474
 1182 013a 5960     		str	r1, [r3, #4]	@ float
 1183 013c 5964     		str	r1, [r3, #68]	@ float
 1184 013e C3F88410 		str	r1, [r3, #132]	@ float
 1185 0142 C3F8C410 		str	r1, [r3, #196]	@ float
 1186 0146 C3F80411 		str	r1, [r3, #260]	@ float
 1187 014a C3F84411 		str	r1, [r3, #324]	@ float
 1188              	.LBE124:
 1189              	.LBB125:
 344:src/audio.c   ****     }
 1190              		.loc 1 344 28 view .LVU475
 1191 014e 7061     		str	r0, [r6, #20]
 342:src/audio.c   ****         perc_voices[i].sample = safe_sample;
 1192              		.loc 1 342 42 is_stmt 1 discriminator 3 view .LVU476
 1193              	.LVL69:
 342:src/audio.c   ****         perc_voices[i].sample = safe_sample;
 1194              		.loc 1 342 26 discriminator 1 view .LVU477
 343:src/audio.c   ****         perc_voices[i].inc = 10000;
 1195              		.loc 1 343 9 view .LVU478
 344:src/audio.c   ****     }
 1196              		.loc 1 344 9 view .LVU479
ARM GAS  /tmp/cc8sKhx5.s 			page 36


 344:src/audio.c   ****     }
 1197              		.loc 1 344 28 is_stmt 0 view .LVU480
 1198 0150 3063     		str	r0, [r6, #48]
 342:src/audio.c   ****         perc_voices[i].sample = safe_sample;
 1199              		.loc 1 342 42 is_stmt 1 discriminator 3 view .LVU481
 1200              	.LVL70:
 342:src/audio.c   ****         perc_voices[i].sample = safe_sample;
 1201              		.loc 1 342 26 discriminator 1 view .LVU482
 343:src/audio.c   ****         perc_voices[i].inc = 10000;
 1202              		.loc 1 343 9 view .LVU483
 344:src/audio.c   ****     }
 1203              		.loc 1 344 9 view .LVU484
 344:src/audio.c   ****     }
 1204              		.loc 1 344 28 is_stmt 0 view .LVU485
 1205 0152 F064     		str	r0, [r6, #76]
 342:src/audio.c   ****         perc_voices[i].sample = safe_sample;
 1206              		.loc 1 342 42 is_stmt 1 discriminator 3 view .LVU486
 1207              	.LVL71:
 342:src/audio.c   ****         perc_voices[i].sample = safe_sample;
 1208              		.loc 1 342 26 discriminator 1 view .LVU487
 343:src/audio.c   ****         perc_voices[i].inc = 10000;
 1209              		.loc 1 343 9 view .LVU488
 344:src/audio.c   ****     }
 1210              		.loc 1 344 9 view .LVU489
 344:src/audio.c   ****     }
 1211              		.loc 1 344 28 is_stmt 0 view .LVU490
 1212 0154 B066     		str	r0, [r6, #104]
 342:src/audio.c   ****         perc_voices[i].sample = safe_sample;
 1213              		.loc 1 342 42 is_stmt 1 discriminator 3 view .LVU491
 1214              	.LVL72:
 342:src/audio.c   ****         perc_voices[i].sample = safe_sample;
 1215              		.loc 1 342 26 discriminator 1 view .LVU492
 342:src/audio.c   ****         perc_voices[i].sample = safe_sample;
 1216              		.loc 1 342 26 is_stmt 0 discriminator 1 view .LVU493
 1217              	.LBE125:
 1218              	.LBB126:
 347:src/audio.c   ****         channel_settings[i].carrier.wave = sine_table;
 1219              		.loc 1 347 26 is_stmt 1 discriminator 1 view .LVU494
 348:src/audio.c   ****         channel_settings[i].fm.wave = sine_table;
 1220              		.loc 1 348 9 view .LVU495
 349:src/audio.c   ****         channel_settings[i].volume = 1;
 1221              		.loc 1 349 9 view .LVU496
 350:src/audio.c   ****         channel_settings[i].pitch = 0;
 1222              		.loc 1 350 9 view .LVU497
 1223              		.loc 1 351 9 view .LVU498
 347:src/audio.c   ****         channel_settings[i].carrier.wave = sine_table;
 1224              		.loc 1 347 34 discriminator 3 view .LVU499
 347:src/audio.c   ****         channel_settings[i].carrier.wave = sine_table;
 1225              		.loc 1 347 26 discriminator 1 view .LVU500
 348:src/audio.c   ****         channel_settings[i].fm.wave = sine_table;
 1226              		.loc 1 348 9 view .LVU501
 349:src/audio.c   ****         channel_settings[i].volume = 1;
 1227              		.loc 1 349 9 view .LVU502
 350:src/audio.c   ****         channel_settings[i].pitch = 0;
 1228              		.loc 1 350 9 view .LVU503
 1229              		.loc 1 351 9 view .LVU504
 347:src/audio.c   ****         channel_settings[i].carrier.wave = sine_table;
ARM GAS  /tmp/cc8sKhx5.s 			page 37


 1230              		.loc 1 347 34 discriminator 3 view .LVU505
 347:src/audio.c   ****         channel_settings[i].carrier.wave = sine_table;
 1231              		.loc 1 347 26 discriminator 1 view .LVU506
 348:src/audio.c   ****         channel_settings[i].fm.wave = sine_table;
 1232              		.loc 1 348 9 view .LVU507
 349:src/audio.c   ****         channel_settings[i].volume = 1;
 1233              		.loc 1 349 9 view .LVU508
 350:src/audio.c   ****         channel_settings[i].pitch = 0;
 1234              		.loc 1 350 9 view .LVU509
 1235              		.loc 1 351 9 view .LVU510
 347:src/audio.c   ****         channel_settings[i].carrier.wave = sine_table;
 1236              		.loc 1 347 34 discriminator 3 view .LVU511
 347:src/audio.c   ****         channel_settings[i].carrier.wave = sine_table;
 1237              		.loc 1 347 26 discriminator 1 view .LVU512
 348:src/audio.c   ****         channel_settings[i].fm.wave = sine_table;
 1238              		.loc 1 348 9 view .LVU513
 349:src/audio.c   ****         channel_settings[i].volume = 1;
 1239              		.loc 1 349 9 view .LVU514
 350:src/audio.c   ****         channel_settings[i].pitch = 0;
 1240              		.loc 1 350 9 view .LVU515
 1241              		.loc 1 351 9 view .LVU516
 347:src/audio.c   ****         channel_settings[i].carrier.wave = sine_table;
 1242              		.loc 1 347 34 discriminator 3 view .LVU517
 347:src/audio.c   ****         channel_settings[i].carrier.wave = sine_table;
 1243              		.loc 1 347 26 discriminator 1 view .LVU518
 348:src/audio.c   ****         channel_settings[i].fm.wave = sine_table;
 1244              		.loc 1 348 9 view .LVU519
 349:src/audio.c   ****         channel_settings[i].volume = 1;
 1245              		.loc 1 349 9 view .LVU520
 350:src/audio.c   ****         channel_settings[i].pitch = 0;
 1246              		.loc 1 350 9 view .LVU521
 1247              		.loc 1 351 9 view .LVU522
 347:src/audio.c   ****         channel_settings[i].carrier.wave = sine_table;
 1248              		.loc 1 347 34 discriminator 3 view .LVU523
 347:src/audio.c   ****         channel_settings[i].carrier.wave = sine_table;
 1249              		.loc 1 347 26 discriminator 1 view .LVU524
 348:src/audio.c   ****         channel_settings[i].fm.wave = sine_table;
 1250              		.loc 1 348 9 view .LVU525
 349:src/audio.c   ****         channel_settings[i].volume = 1;
 1251              		.loc 1 349 9 view .LVU526
 350:src/audio.c   ****         channel_settings[i].pitch = 0;
 1252              		.loc 1 350 9 view .LVU527
 1253              		.loc 1 351 9 view .LVU528
 347:src/audio.c   ****         channel_settings[i].carrier.wave = sine_table;
 1254              		.loc 1 347 34 discriminator 3 view .LVU529
 347:src/audio.c   ****         channel_settings[i].carrier.wave = sine_table;
 1255              		.loc 1 347 26 discriminator 1 view .LVU530
 348:src/audio.c   ****         channel_settings[i].fm.wave = sine_table;
 1256              		.loc 1 348 9 view .LVU531
 349:src/audio.c   ****         channel_settings[i].volume = 1;
 1257              		.loc 1 349 9 view .LVU532
 350:src/audio.c   ****         channel_settings[i].pitch = 0;
 1258              		.loc 1 350 36 is_stmt 0 view .LVU533
 1259 0156 1D60     		str	r5, [r3]	@ float
 1260 0158 1D64     		str	r5, [r3, #64]	@ float
 1261 015a C3F88050 		str	r5, [r3, #128]	@ float
 1262 015e C3F8C050 		str	r5, [r3, #192]	@ float
ARM GAS  /tmp/cc8sKhx5.s 			page 38


 1263 0162 C3F80051 		str	r5, [r3, #256]	@ float
 1264 0166 C3F84051 		str	r5, [r3, #320]	@ float
 348:src/audio.c   ****         channel_settings[i].fm.wave = sine_table;
 1265              		.loc 1 348 42 view .LVU534
 1266 016a DA63     		str	r2, [r3, #60]
 349:src/audio.c   ****         channel_settings[i].volume = 1;
 1267              		.loc 1 349 37 view .LVU535
 1268 016c 1A62     		str	r2, [r3, #32]
 348:src/audio.c   ****         channel_settings[i].fm.wave = sine_table;
 1269              		.loc 1 348 42 view .LVU536
 1270 016e DA67     		str	r2, [r3, #124]
 349:src/audio.c   ****         channel_settings[i].volume = 1;
 1271              		.loc 1 349 37 view .LVU537
 1272 0170 1A66     		str	r2, [r3, #96]
 348:src/audio.c   ****         channel_settings[i].fm.wave = sine_table;
 1273              		.loc 1 348 42 view .LVU538
 1274 0172 C3F8BC20 		str	r2, [r3, #188]
 349:src/audio.c   ****         channel_settings[i].volume = 1;
 1275              		.loc 1 349 37 view .LVU539
 1276 0176 C3F8A020 		str	r2, [r3, #160]
 348:src/audio.c   ****         channel_settings[i].fm.wave = sine_table;
 1277              		.loc 1 348 42 view .LVU540
 1278 017a C3F8FC20 		str	r2, [r3, #252]
 349:src/audio.c   ****         channel_settings[i].volume = 1;
 1279              		.loc 1 349 37 view .LVU541
 1280 017e C3F8E020 		str	r2, [r3, #224]
 348:src/audio.c   ****         channel_settings[i].fm.wave = sine_table;
 1281              		.loc 1 348 42 view .LVU542
 1282 0182 C3F83C21 		str	r2, [r3, #316]
 349:src/audio.c   ****         channel_settings[i].volume = 1;
 1283              		.loc 1 349 37 view .LVU543
 1284 0186 C3F82021 		str	r2, [r3, #288]
 348:src/audio.c   ****         channel_settings[i].fm.wave = sine_table;
 1285              		.loc 1 348 42 view .LVU544
 1286 018a C3F87C21 		str	r2, [r3, #380]
 349:src/audio.c   ****         channel_settings[i].volume = 1;
 1287              		.loc 1 349 37 view .LVU545
 1288 018e C3F86021 		str	r2, [r3, #352]
 348:src/audio.c   ****         channel_settings[i].fm.wave = sine_table;
 1289              		.loc 1 348 42 view .LVU546
 1290 0192 C3F8BC21 		str	r2, [r3, #444]
 349:src/audio.c   ****         channel_settings[i].volume = 1;
 1291              		.loc 1 349 37 view .LVU547
 1292 0196 C3F8A021 		str	r2, [r3, #416]
 350:src/audio.c   ****         channel_settings[i].pitch = 0;
 1293              		.loc 1 350 9 is_stmt 1 view .LVU548
 1294              		.loc 1 351 35 is_stmt 0 view .LVU549
 1295 019a C3F88411 		str	r1, [r3, #388]	@ float
 1296 019e C3F8C411 		str	r1, [r3, #452]	@ float
 1297 01a2 C3F80412 		str	r1, [r3, #516]	@ float
 1298 01a6 C3F84412 		str	r1, [r3, #580]	@ float
 1299 01aa C3F88412 		str	r1, [r3, #644]	@ float
 1300 01ae C3F8C412 		str	r1, [r3, #708]	@ float
 1301 01b2 C3F80413 		str	r1, [r3, #772]	@ float
 1302 01b6 C3F84413 		str	r1, [r3, #836]	@ float
 350:src/audio.c   ****         channel_settings[i].pitch = 0;
 1303              		.loc 1 350 36 view .LVU550
ARM GAS  /tmp/cc8sKhx5.s 			page 39


 1304 01ba C3F88051 		str	r5, [r3, #384]	@ float
 1305              		.loc 1 351 9 is_stmt 1 view .LVU551
 347:src/audio.c   ****         channel_settings[i].carrier.wave = sine_table;
 1306              		.loc 1 347 34 discriminator 3 view .LVU552
 1307              	.LVL73:
 347:src/audio.c   ****         channel_settings[i].carrier.wave = sine_table;
 1308              		.loc 1 347 26 discriminator 1 view .LVU553
 348:src/audio.c   ****         channel_settings[i].fm.wave = sine_table;
 1309              		.loc 1 348 9 view .LVU554
 350:src/audio.c   ****         channel_settings[i].pitch = 0;
 1310              		.loc 1 350 36 is_stmt 0 view .LVU555
 1311 01be C3F8C051 		str	r5, [r3, #448]	@ float
 1312 01c2 C3F80052 		str	r5, [r3, #512]	@ float
 1313 01c6 C3F84052 		str	r5, [r3, #576]	@ float
 1314 01ca C3F88052 		str	r5, [r3, #640]	@ float
 1315 01ce C3F8C052 		str	r5, [r3, #704]	@ float
 1316 01d2 C3F80053 		str	r5, [r3, #768]	@ float
 1317 01d6 C3F84053 		str	r5, [r3, #832]	@ float
 348:src/audio.c   ****         channel_settings[i].fm.wave = sine_table;
 1318              		.loc 1 348 42 view .LVU556
 1319 01da C3F8FC21 		str	r2, [r3, #508]
 349:src/audio.c   ****         channel_settings[i].volume = 1;
 1320              		.loc 1 349 9 is_stmt 1 view .LVU557
 349:src/audio.c   ****         channel_settings[i].volume = 1;
 1321              		.loc 1 349 37 is_stmt 0 view .LVU558
 1322 01de C3F8E021 		str	r2, [r3, #480]
 350:src/audio.c   ****         channel_settings[i].pitch = 0;
 1323              		.loc 1 350 9 is_stmt 1 view .LVU559
 1324              		.loc 1 351 9 view .LVU560
 347:src/audio.c   ****         channel_settings[i].carrier.wave = sine_table;
 1325              		.loc 1 347 34 discriminator 3 view .LVU561
 1326              	.LVL74:
 347:src/audio.c   ****         channel_settings[i].carrier.wave = sine_table;
 1327              		.loc 1 347 26 discriminator 1 view .LVU562
 348:src/audio.c   ****         channel_settings[i].fm.wave = sine_table;
 1328              		.loc 1 348 9 view .LVU563
 348:src/audio.c   ****         channel_settings[i].fm.wave = sine_table;
 1329              		.loc 1 348 42 is_stmt 0 view .LVU564
 1330 01e2 C3F83C22 		str	r2, [r3, #572]
 349:src/audio.c   ****         channel_settings[i].volume = 1;
 1331              		.loc 1 349 9 is_stmt 1 view .LVU565
 349:src/audio.c   ****         channel_settings[i].volume = 1;
 1332              		.loc 1 349 37 is_stmt 0 view .LVU566
 1333 01e6 C3F82022 		str	r2, [r3, #544]
 350:src/audio.c   ****         channel_settings[i].pitch = 0;
 1334              		.loc 1 350 9 is_stmt 1 view .LVU567
 1335              		.loc 1 351 9 view .LVU568
 347:src/audio.c   ****         channel_settings[i].carrier.wave = sine_table;
 1336              		.loc 1 347 34 discriminator 3 view .LVU569
 1337              	.LVL75:
 347:src/audio.c   ****         channel_settings[i].carrier.wave = sine_table;
 1338              		.loc 1 347 26 discriminator 1 view .LVU570
 348:src/audio.c   ****         channel_settings[i].fm.wave = sine_table;
 1339              		.loc 1 348 9 view .LVU571
 348:src/audio.c   ****         channel_settings[i].fm.wave = sine_table;
 1340              		.loc 1 348 42 is_stmt 0 view .LVU572
 1341 01ea C3F87C22 		str	r2, [r3, #636]
ARM GAS  /tmp/cc8sKhx5.s 			page 40


 349:src/audio.c   ****         channel_settings[i].volume = 1;
 1342              		.loc 1 349 9 is_stmt 1 view .LVU573
 349:src/audio.c   ****         channel_settings[i].volume = 1;
 1343              		.loc 1 349 37 is_stmt 0 view .LVU574
 1344 01ee C3F86022 		str	r2, [r3, #608]
 350:src/audio.c   ****         channel_settings[i].pitch = 0;
 1345              		.loc 1 350 9 is_stmt 1 view .LVU575
 1346              		.loc 1 351 9 view .LVU576
 347:src/audio.c   ****         channel_settings[i].carrier.wave = sine_table;
 1347              		.loc 1 347 34 discriminator 3 view .LVU577
 1348              	.LVL76:
 347:src/audio.c   ****         channel_settings[i].carrier.wave = sine_table;
 1349              		.loc 1 347 26 discriminator 1 view .LVU578
 348:src/audio.c   ****         channel_settings[i].fm.wave = sine_table;
 1350              		.loc 1 348 9 view .LVU579
 348:src/audio.c   ****         channel_settings[i].fm.wave = sine_table;
 1351              		.loc 1 348 42 is_stmt 0 view .LVU580
 1352 01f2 C3F8BC22 		str	r2, [r3, #700]
 349:src/audio.c   ****         channel_settings[i].volume = 1;
 1353              		.loc 1 349 9 is_stmt 1 view .LVU581
 349:src/audio.c   ****         channel_settings[i].volume = 1;
 1354              		.loc 1 349 37 is_stmt 0 view .LVU582
 1355 01f6 C3F8A022 		str	r2, [r3, #672]
 350:src/audio.c   ****         channel_settings[i].pitch = 0;
 1356              		.loc 1 350 9 is_stmt 1 view .LVU583
 1357              		.loc 1 351 9 view .LVU584
 347:src/audio.c   ****         channel_settings[i].carrier.wave = sine_table;
 1358              		.loc 1 347 34 discriminator 3 view .LVU585
 1359              	.LVL77:
 347:src/audio.c   ****         channel_settings[i].carrier.wave = sine_table;
 1360              		.loc 1 347 26 discriminator 1 view .LVU586
 348:src/audio.c   ****         channel_settings[i].fm.wave = sine_table;
 1361              		.loc 1 348 9 view .LVU587
 348:src/audio.c   ****         channel_settings[i].fm.wave = sine_table;
 1362              		.loc 1 348 42 is_stmt 0 view .LVU588
 1363 01fa C3F8FC22 		str	r2, [r3, #764]
 349:src/audio.c   ****         channel_settings[i].volume = 1;
 1364              		.loc 1 349 9 is_stmt 1 view .LVU589
 349:src/audio.c   ****         channel_settings[i].volume = 1;
 1365              		.loc 1 349 37 is_stmt 0 view .LVU590
 1366 01fe C3F8E022 		str	r2, [r3, #736]
 350:src/audio.c   ****         channel_settings[i].pitch = 0;
 1367              		.loc 1 350 9 is_stmt 1 view .LVU591
 1368              		.loc 1 351 9 view .LVU592
 347:src/audio.c   ****         channel_settings[i].carrier.wave = sine_table;
 1369              		.loc 1 347 34 discriminator 3 view .LVU593
 1370              	.LVL78:
 347:src/audio.c   ****         channel_settings[i].carrier.wave = sine_table;
 1371              		.loc 1 347 26 discriminator 1 view .LVU594
 348:src/audio.c   ****         channel_settings[i].fm.wave = sine_table;
 1372              		.loc 1 348 9 view .LVU595
 348:src/audio.c   ****         channel_settings[i].fm.wave = sine_table;
 1373              		.loc 1 348 42 is_stmt 0 view .LVU596
 1374 0202 C3F83C23 		str	r2, [r3, #828]
 349:src/audio.c   ****         channel_settings[i].volume = 1;
 1375              		.loc 1 349 9 is_stmt 1 view .LVU597
 349:src/audio.c   ****         channel_settings[i].volume = 1;
ARM GAS  /tmp/cc8sKhx5.s 			page 41


 1376              		.loc 1 349 37 is_stmt 0 view .LVU598
 1377 0206 C3F82023 		str	r2, [r3, #800]
 350:src/audio.c   ****         channel_settings[i].pitch = 0;
 1378              		.loc 1 350 9 is_stmt 1 view .LVU599
 1379              		.loc 1 351 9 view .LVU600
 347:src/audio.c   ****         channel_settings[i].carrier.wave = sine_table;
 1380              		.loc 1 347 34 discriminator 3 view .LVU601
 1381              	.LVL79:
 347:src/audio.c   ****         channel_settings[i].carrier.wave = sine_table;
 1382              		.loc 1 347 26 discriminator 1 view .LVU602
 348:src/audio.c   ****         channel_settings[i].fm.wave = sine_table;
 1383              		.loc 1 348 9 view .LVU603
 348:src/audio.c   ****         channel_settings[i].fm.wave = sine_table;
 1384              		.loc 1 348 42 is_stmt 0 view .LVU604
 1385 020a C3F87C23 		str	r2, [r3, #892]
 349:src/audio.c   ****         channel_settings[i].volume = 1;
 1386              		.loc 1 349 9 is_stmt 1 view .LVU605
 349:src/audio.c   ****         channel_settings[i].volume = 1;
 1387              		.loc 1 349 37 is_stmt 0 view .LVU606
 1388 020e C3F86023 		str	r2, [r3, #864]
 350:src/audio.c   ****         channel_settings[i].pitch = 0;
 1389              		.loc 1 350 9 is_stmt 1 view .LVU607
 1390              		.loc 1 351 9 view .LVU608
 347:src/audio.c   ****         channel_settings[i].carrier.wave = sine_table;
 1391              		.loc 1 347 34 discriminator 3 view .LVU609
 1392              	.LVL80:
 347:src/audio.c   ****         channel_settings[i].carrier.wave = sine_table;
 1393              		.loc 1 347 26 discriminator 1 view .LVU610
 348:src/audio.c   ****         channel_settings[i].fm.wave = sine_table;
 1394              		.loc 1 348 9 view .LVU611
 348:src/audio.c   ****         channel_settings[i].fm.wave = sine_table;
 1395              		.loc 1 348 42 is_stmt 0 view .LVU612
 1396 0212 C3F8BC23 		str	r2, [r3, #956]
 349:src/audio.c   ****         channel_settings[i].volume = 1;
 1397              		.loc 1 349 9 is_stmt 1 view .LVU613
 349:src/audio.c   ****         channel_settings[i].volume = 1;
 1398              		.loc 1 349 37 is_stmt 0 view .LVU614
 1399 0216 C3F8A023 		str	r2, [r3, #928]
 350:src/audio.c   ****         channel_settings[i].pitch = 0;
 1400              		.loc 1 350 9 is_stmt 1 view .LVU615
 350:src/audio.c   ****         channel_settings[i].pitch = 0;
 1401              		.loc 1 350 36 is_stmt 0 view .LVU616
 1402 021a C3F88053 		str	r5, [r3, #896]	@ float
 1403              		.loc 1 351 9 is_stmt 1 view .LVU617
 1404              		.loc 1 351 35 is_stmt 0 view .LVU618
 1405 021e C3F88413 		str	r1, [r3, #900]	@ float
 347:src/audio.c   ****         channel_settings[i].carrier.wave = sine_table;
 1406              		.loc 1 347 34 is_stmt 1 discriminator 3 view .LVU619
 1407              	.LVL81:
 347:src/audio.c   ****         channel_settings[i].carrier.wave = sine_table;
 1408              		.loc 1 347 26 discriminator 1 view .LVU620
 348:src/audio.c   ****         channel_settings[i].fm.wave = sine_table;
 1409              		.loc 1 348 9 view .LVU621
 1410              		.loc 1 351 35 is_stmt 0 view .LVU622
 1411 0222 C3F8C413 		str	r1, [r3, #964]	@ float
 350:src/audio.c   ****         channel_settings[i].pitch = 0;
 1412              		.loc 1 350 36 view .LVU623
ARM GAS  /tmp/cc8sKhx5.s 			page 42


 1413 0226 C3F8C053 		str	r5, [r3, #960]	@ float
 348:src/audio.c   ****         channel_settings[i].fm.wave = sine_table;
 1414              		.loc 1 348 42 view .LVU624
 1415 022a C3F8FC23 		str	r2, [r3, #1020]
 349:src/audio.c   ****         channel_settings[i].volume = 1;
 1416              		.loc 1 349 9 is_stmt 1 view .LVU625
 349:src/audio.c   ****         channel_settings[i].volume = 1;
 1417              		.loc 1 349 37 is_stmt 0 view .LVU626
 1418 022e C3F8E023 		str	r2, [r3, #992]
 350:src/audio.c   ****         channel_settings[i].pitch = 0;
 1419              		.loc 1 350 9 is_stmt 1 view .LVU627
 1420              		.loc 1 351 9 view .LVU628
 347:src/audio.c   ****         channel_settings[i].carrier.wave = sine_table;
 1421              		.loc 1 347 34 discriminator 3 view .LVU629
 1422              	.LVL82:
 347:src/audio.c   ****         channel_settings[i].carrier.wave = sine_table;
 1423              		.loc 1 347 26 discriminator 1 view .LVU630
 1424              	.LBE126:
 352:src/audio.c   ****     }
 353:src/audio.c   **** 
 354:src/audio.c   ****     audio_fill();
 1425              		.loc 1 354 5 view .LVU631
 1426 0232 FFF7FEFF 		bl	audio_fill
 1427              	.LVL83:
 355:src/audio.c   ****     audio_fill();
 1428              		.loc 1 355 5 view .LVU632
 1429 0236 FFF7FEFF 		bl	audio_fill
 1430              	.LVL84:
 356:src/audio.c   ****     NVIC_EnableIRQ(DMA1_Stream1_IRQn);
 1431              		.loc 1 356 5 view .LVU633
 1432              	.LBB127:
 1433              	.LBI127:
 1434              		.file 2 "Drivers/CMSIS/Include/core_cm4.h"
   1:Drivers/CMSIS/Include/core_cm4.h **** /**************************************************************************//**
   2:Drivers/CMSIS/Include/core_cm4.h ****  * @file     core_cm4.h
   3:Drivers/CMSIS/Include/core_cm4.h ****  * @brief    CMSIS Cortex-M4 Core Peripheral Access Layer Header File
   4:Drivers/CMSIS/Include/core_cm4.h ****  * @version  V5.1.2
   5:Drivers/CMSIS/Include/core_cm4.h ****  * @date     04. June 2021
   6:Drivers/CMSIS/Include/core_cm4.h ****  ******************************************************************************/
   7:Drivers/CMSIS/Include/core_cm4.h **** /*
   8:Drivers/CMSIS/Include/core_cm4.h ****  * Copyright (c) 2009-2020 Arm Limited. All rights reserved.
   9:Drivers/CMSIS/Include/core_cm4.h ****  *
  10:Drivers/CMSIS/Include/core_cm4.h ****  * SPDX-License-Identifier: Apache-2.0
  11:Drivers/CMSIS/Include/core_cm4.h ****  *
  12:Drivers/CMSIS/Include/core_cm4.h ****  * Licensed under the Apache License, Version 2.0 (the License); you may
  13:Drivers/CMSIS/Include/core_cm4.h ****  * not use this file except in compliance with the License.
  14:Drivers/CMSIS/Include/core_cm4.h ****  * You may obtain a copy of the License at
  15:Drivers/CMSIS/Include/core_cm4.h ****  *
  16:Drivers/CMSIS/Include/core_cm4.h ****  * www.apache.org/licenses/LICENSE-2.0
  17:Drivers/CMSIS/Include/core_cm4.h ****  *
  18:Drivers/CMSIS/Include/core_cm4.h ****  * Unless required by applicable law or agreed to in writing, software
  19:Drivers/CMSIS/Include/core_cm4.h ****  * distributed under the License is distributed on an AS IS BASIS, WITHOUT
  20:Drivers/CMSIS/Include/core_cm4.h ****  * WARRANTIES OR CONDITIONS OF ANY KIND, either express or implied.
  21:Drivers/CMSIS/Include/core_cm4.h ****  * See the License for the specific language governing permissions and
  22:Drivers/CMSIS/Include/core_cm4.h ****  * limitations under the License.
  23:Drivers/CMSIS/Include/core_cm4.h ****  */
  24:Drivers/CMSIS/Include/core_cm4.h **** 
ARM GAS  /tmp/cc8sKhx5.s 			page 43


  25:Drivers/CMSIS/Include/core_cm4.h **** #if   defined ( __ICCARM__ )
  26:Drivers/CMSIS/Include/core_cm4.h ****   #pragma system_include         /* treat file as system include file for MISRA check */
  27:Drivers/CMSIS/Include/core_cm4.h **** #elif defined (__clang__)
  28:Drivers/CMSIS/Include/core_cm4.h ****   #pragma clang system_header   /* treat file as system include file */
  29:Drivers/CMSIS/Include/core_cm4.h **** #endif
  30:Drivers/CMSIS/Include/core_cm4.h **** 
  31:Drivers/CMSIS/Include/core_cm4.h **** #ifndef __CORE_CM4_H_GENERIC
  32:Drivers/CMSIS/Include/core_cm4.h **** #define __CORE_CM4_H_GENERIC
  33:Drivers/CMSIS/Include/core_cm4.h **** 
  34:Drivers/CMSIS/Include/core_cm4.h **** #include <stdint.h>
  35:Drivers/CMSIS/Include/core_cm4.h **** 
  36:Drivers/CMSIS/Include/core_cm4.h **** #ifdef __cplusplus
  37:Drivers/CMSIS/Include/core_cm4.h ****  extern "C" {
  38:Drivers/CMSIS/Include/core_cm4.h **** #endif
  39:Drivers/CMSIS/Include/core_cm4.h **** 
  40:Drivers/CMSIS/Include/core_cm4.h **** /**
  41:Drivers/CMSIS/Include/core_cm4.h ****   \page CMSIS_MISRA_Exceptions  MISRA-C:2004 Compliance Exceptions
  42:Drivers/CMSIS/Include/core_cm4.h ****   CMSIS violates the following MISRA-C:2004 rules:
  43:Drivers/CMSIS/Include/core_cm4.h **** 
  44:Drivers/CMSIS/Include/core_cm4.h ****    \li Required Rule 8.5, object/function definition in header file.<br>
  45:Drivers/CMSIS/Include/core_cm4.h ****      Function definitions in header files are used to allow 'inlining'.
  46:Drivers/CMSIS/Include/core_cm4.h **** 
  47:Drivers/CMSIS/Include/core_cm4.h ****    \li Required Rule 18.4, declaration of union type or object of union type: '{...}'.<br>
  48:Drivers/CMSIS/Include/core_cm4.h ****      Unions are used for effective representation of core registers.
  49:Drivers/CMSIS/Include/core_cm4.h **** 
  50:Drivers/CMSIS/Include/core_cm4.h ****    \li Advisory Rule 19.7, Function-like macro defined.<br>
  51:Drivers/CMSIS/Include/core_cm4.h ****      Function-like macros are used to allow more efficient code.
  52:Drivers/CMSIS/Include/core_cm4.h ****  */
  53:Drivers/CMSIS/Include/core_cm4.h **** 
  54:Drivers/CMSIS/Include/core_cm4.h **** 
  55:Drivers/CMSIS/Include/core_cm4.h **** /*******************************************************************************
  56:Drivers/CMSIS/Include/core_cm4.h ****  *                 CMSIS definitions
  57:Drivers/CMSIS/Include/core_cm4.h ****  ******************************************************************************/
  58:Drivers/CMSIS/Include/core_cm4.h **** /**
  59:Drivers/CMSIS/Include/core_cm4.h ****   \ingroup Cortex_M4
  60:Drivers/CMSIS/Include/core_cm4.h ****   @{
  61:Drivers/CMSIS/Include/core_cm4.h ****  */
  62:Drivers/CMSIS/Include/core_cm4.h **** 
  63:Drivers/CMSIS/Include/core_cm4.h **** #include "cmsis_version.h"
  64:Drivers/CMSIS/Include/core_cm4.h **** 
  65:Drivers/CMSIS/Include/core_cm4.h **** /* CMSIS CM4 definitions */
  66:Drivers/CMSIS/Include/core_cm4.h **** #define __CM4_CMSIS_VERSION_MAIN  (__CM_CMSIS_VERSION_MAIN)              /*!< \deprecated [31:16] C
  67:Drivers/CMSIS/Include/core_cm4.h **** #define __CM4_CMSIS_VERSION_SUB   (__CM_CMSIS_VERSION_SUB)               /*!< \deprecated [15:0]  C
  68:Drivers/CMSIS/Include/core_cm4.h **** #define __CM4_CMSIS_VERSION       ((__CM4_CMSIS_VERSION_MAIN << 16U) | \
  69:Drivers/CMSIS/Include/core_cm4.h ****                                     __CM4_CMSIS_VERSION_SUB           )  /*!< \deprecated CMSIS HAL
  70:Drivers/CMSIS/Include/core_cm4.h **** 
  71:Drivers/CMSIS/Include/core_cm4.h **** #define __CORTEX_M                (4U)                                   /*!< Cortex-M Core */
  72:Drivers/CMSIS/Include/core_cm4.h **** 
  73:Drivers/CMSIS/Include/core_cm4.h **** /** __FPU_USED indicates whether an FPU is used or not.
  74:Drivers/CMSIS/Include/core_cm4.h ****     For this, __FPU_PRESENT has to be checked prior to making use of FPU specific registers and fun
  75:Drivers/CMSIS/Include/core_cm4.h **** */
  76:Drivers/CMSIS/Include/core_cm4.h **** #if defined ( __CC_ARM )
  77:Drivers/CMSIS/Include/core_cm4.h ****   #if defined __TARGET_FPU_VFP
  78:Drivers/CMSIS/Include/core_cm4.h ****     #if defined (__FPU_PRESENT) && (__FPU_PRESENT == 1U)
  79:Drivers/CMSIS/Include/core_cm4.h ****       #define __FPU_USED       1U
  80:Drivers/CMSIS/Include/core_cm4.h ****     #else
  81:Drivers/CMSIS/Include/core_cm4.h ****       #error "Compiler generates FPU instructions for a device without an FPU (check __FPU_PRESENT)
ARM GAS  /tmp/cc8sKhx5.s 			page 44


  82:Drivers/CMSIS/Include/core_cm4.h ****       #define __FPU_USED       0U
  83:Drivers/CMSIS/Include/core_cm4.h ****     #endif
  84:Drivers/CMSIS/Include/core_cm4.h ****   #else
  85:Drivers/CMSIS/Include/core_cm4.h ****     #define __FPU_USED         0U
  86:Drivers/CMSIS/Include/core_cm4.h ****   #endif
  87:Drivers/CMSIS/Include/core_cm4.h **** 
  88:Drivers/CMSIS/Include/core_cm4.h **** #elif defined (__ARMCC_VERSION) && (__ARMCC_VERSION >= 6010050)
  89:Drivers/CMSIS/Include/core_cm4.h ****   #if defined __ARM_FP
  90:Drivers/CMSIS/Include/core_cm4.h ****     #if defined (__FPU_PRESENT) && (__FPU_PRESENT == 1U)
  91:Drivers/CMSIS/Include/core_cm4.h ****       #define __FPU_USED       1U
  92:Drivers/CMSIS/Include/core_cm4.h ****     #else
  93:Drivers/CMSIS/Include/core_cm4.h ****       #warning "Compiler generates FPU instructions for a device without an FPU (check __FPU_PRESEN
  94:Drivers/CMSIS/Include/core_cm4.h ****       #define __FPU_USED       0U
  95:Drivers/CMSIS/Include/core_cm4.h ****     #endif
  96:Drivers/CMSIS/Include/core_cm4.h ****   #else
  97:Drivers/CMSIS/Include/core_cm4.h ****     #define __FPU_USED         0U
  98:Drivers/CMSIS/Include/core_cm4.h ****   #endif
  99:Drivers/CMSIS/Include/core_cm4.h **** 
 100:Drivers/CMSIS/Include/core_cm4.h **** #elif defined ( __GNUC__ )
 101:Drivers/CMSIS/Include/core_cm4.h ****   #if defined (__VFP_FP__) && !defined(__SOFTFP__)
 102:Drivers/CMSIS/Include/core_cm4.h ****     #if defined (__FPU_PRESENT) && (__FPU_PRESENT == 1U)
 103:Drivers/CMSIS/Include/core_cm4.h ****       #define __FPU_USED       1U
 104:Drivers/CMSIS/Include/core_cm4.h ****     #else
 105:Drivers/CMSIS/Include/core_cm4.h ****       #error "Compiler generates FPU instructions for a device without an FPU (check __FPU_PRESENT)
 106:Drivers/CMSIS/Include/core_cm4.h ****       #define __FPU_USED       0U
 107:Drivers/CMSIS/Include/core_cm4.h ****     #endif
 108:Drivers/CMSIS/Include/core_cm4.h ****   #else
 109:Drivers/CMSIS/Include/core_cm4.h ****     #define __FPU_USED         0U
 110:Drivers/CMSIS/Include/core_cm4.h ****   #endif
 111:Drivers/CMSIS/Include/core_cm4.h **** 
 112:Drivers/CMSIS/Include/core_cm4.h **** #elif defined ( __ICCARM__ )
 113:Drivers/CMSIS/Include/core_cm4.h ****   #if defined __ARMVFP__
 114:Drivers/CMSIS/Include/core_cm4.h ****     #if defined (__FPU_PRESENT) && (__FPU_PRESENT == 1U)
 115:Drivers/CMSIS/Include/core_cm4.h ****       #define __FPU_USED       1U
 116:Drivers/CMSIS/Include/core_cm4.h ****     #else
 117:Drivers/CMSIS/Include/core_cm4.h ****       #error "Compiler generates FPU instructions for a device without an FPU (check __FPU_PRESENT)
 118:Drivers/CMSIS/Include/core_cm4.h ****       #define __FPU_USED       0U
 119:Drivers/CMSIS/Include/core_cm4.h ****     #endif
 120:Drivers/CMSIS/Include/core_cm4.h ****   #else
 121:Drivers/CMSIS/Include/core_cm4.h ****     #define __FPU_USED         0U
 122:Drivers/CMSIS/Include/core_cm4.h ****   #endif
 123:Drivers/CMSIS/Include/core_cm4.h **** 
 124:Drivers/CMSIS/Include/core_cm4.h **** #elif defined ( __TI_ARM__ )
 125:Drivers/CMSIS/Include/core_cm4.h ****   #if defined __TI_VFP_SUPPORT__
 126:Drivers/CMSIS/Include/core_cm4.h ****     #if defined (__FPU_PRESENT) && (__FPU_PRESENT == 1U)
 127:Drivers/CMSIS/Include/core_cm4.h ****       #define __FPU_USED       1U
 128:Drivers/CMSIS/Include/core_cm4.h ****     #else
 129:Drivers/CMSIS/Include/core_cm4.h ****       #error "Compiler generates FPU instructions for a device without an FPU (check __FPU_PRESENT)
 130:Drivers/CMSIS/Include/core_cm4.h ****       #define __FPU_USED       0U
 131:Drivers/CMSIS/Include/core_cm4.h ****     #endif
 132:Drivers/CMSIS/Include/core_cm4.h ****   #else
 133:Drivers/CMSIS/Include/core_cm4.h ****     #define __FPU_USED         0U
 134:Drivers/CMSIS/Include/core_cm4.h ****   #endif
 135:Drivers/CMSIS/Include/core_cm4.h **** 
 136:Drivers/CMSIS/Include/core_cm4.h **** #elif defined ( __TASKING__ )
 137:Drivers/CMSIS/Include/core_cm4.h ****   #if defined __FPU_VFP__
 138:Drivers/CMSIS/Include/core_cm4.h ****     #if defined (__FPU_PRESENT) && (__FPU_PRESENT == 1U)
ARM GAS  /tmp/cc8sKhx5.s 			page 45


 139:Drivers/CMSIS/Include/core_cm4.h ****       #define __FPU_USED       1U
 140:Drivers/CMSIS/Include/core_cm4.h ****     #else
 141:Drivers/CMSIS/Include/core_cm4.h ****       #error "Compiler generates FPU instructions for a device without an FPU (check __FPU_PRESENT)
 142:Drivers/CMSIS/Include/core_cm4.h ****       #define __FPU_USED       0U
 143:Drivers/CMSIS/Include/core_cm4.h ****     #endif
 144:Drivers/CMSIS/Include/core_cm4.h ****   #else
 145:Drivers/CMSIS/Include/core_cm4.h ****     #define __FPU_USED         0U
 146:Drivers/CMSIS/Include/core_cm4.h ****   #endif
 147:Drivers/CMSIS/Include/core_cm4.h **** 
 148:Drivers/CMSIS/Include/core_cm4.h **** #elif defined ( __CSMC__ )
 149:Drivers/CMSIS/Include/core_cm4.h ****   #if ( __CSMC__ & 0x400U)
 150:Drivers/CMSIS/Include/core_cm4.h ****     #if defined (__FPU_PRESENT) && (__FPU_PRESENT == 1U)
 151:Drivers/CMSIS/Include/core_cm4.h ****       #define __FPU_USED       1U
 152:Drivers/CMSIS/Include/core_cm4.h ****     #else
 153:Drivers/CMSIS/Include/core_cm4.h ****       #error "Compiler generates FPU instructions for a device without an FPU (check __FPU_PRESENT)
 154:Drivers/CMSIS/Include/core_cm4.h ****       #define __FPU_USED       0U
 155:Drivers/CMSIS/Include/core_cm4.h ****     #endif
 156:Drivers/CMSIS/Include/core_cm4.h ****   #else
 157:Drivers/CMSIS/Include/core_cm4.h ****     #define __FPU_USED         0U
 158:Drivers/CMSIS/Include/core_cm4.h ****   #endif
 159:Drivers/CMSIS/Include/core_cm4.h **** 
 160:Drivers/CMSIS/Include/core_cm4.h **** #endif
 161:Drivers/CMSIS/Include/core_cm4.h **** 
 162:Drivers/CMSIS/Include/core_cm4.h **** #include "cmsis_compiler.h"               /* CMSIS compiler specific defines */
 163:Drivers/CMSIS/Include/core_cm4.h **** 
 164:Drivers/CMSIS/Include/core_cm4.h **** 
 165:Drivers/CMSIS/Include/core_cm4.h **** #ifdef __cplusplus
 166:Drivers/CMSIS/Include/core_cm4.h **** }
 167:Drivers/CMSIS/Include/core_cm4.h **** #endif
 168:Drivers/CMSIS/Include/core_cm4.h **** 
 169:Drivers/CMSIS/Include/core_cm4.h **** #endif /* __CORE_CM4_H_GENERIC */
 170:Drivers/CMSIS/Include/core_cm4.h **** 
 171:Drivers/CMSIS/Include/core_cm4.h **** #ifndef __CMSIS_GENERIC
 172:Drivers/CMSIS/Include/core_cm4.h **** 
 173:Drivers/CMSIS/Include/core_cm4.h **** #ifndef __CORE_CM4_H_DEPENDANT
 174:Drivers/CMSIS/Include/core_cm4.h **** #define __CORE_CM4_H_DEPENDANT
 175:Drivers/CMSIS/Include/core_cm4.h **** 
 176:Drivers/CMSIS/Include/core_cm4.h **** #ifdef __cplusplus
 177:Drivers/CMSIS/Include/core_cm4.h ****  extern "C" {
 178:Drivers/CMSIS/Include/core_cm4.h **** #endif
 179:Drivers/CMSIS/Include/core_cm4.h **** 
 180:Drivers/CMSIS/Include/core_cm4.h **** /* check device defines and use defaults */
 181:Drivers/CMSIS/Include/core_cm4.h **** #if defined __CHECK_DEVICE_DEFINES
 182:Drivers/CMSIS/Include/core_cm4.h ****   #ifndef __CM4_REV
 183:Drivers/CMSIS/Include/core_cm4.h ****     #define __CM4_REV               0x0000U
 184:Drivers/CMSIS/Include/core_cm4.h ****     #warning "__CM4_REV not defined in device header file; using default!"
 185:Drivers/CMSIS/Include/core_cm4.h ****   #endif
 186:Drivers/CMSIS/Include/core_cm4.h **** 
 187:Drivers/CMSIS/Include/core_cm4.h ****   #ifndef __FPU_PRESENT
 188:Drivers/CMSIS/Include/core_cm4.h ****     #define __FPU_PRESENT             0U
 189:Drivers/CMSIS/Include/core_cm4.h ****     #warning "__FPU_PRESENT not defined in device header file; using default!"
 190:Drivers/CMSIS/Include/core_cm4.h ****   #endif
 191:Drivers/CMSIS/Include/core_cm4.h **** 
 192:Drivers/CMSIS/Include/core_cm4.h ****   #ifndef __MPU_PRESENT
 193:Drivers/CMSIS/Include/core_cm4.h ****     #define __MPU_PRESENT             0U
 194:Drivers/CMSIS/Include/core_cm4.h ****     #warning "__MPU_PRESENT not defined in device header file; using default!"
 195:Drivers/CMSIS/Include/core_cm4.h ****   #endif
ARM GAS  /tmp/cc8sKhx5.s 			page 46


 196:Drivers/CMSIS/Include/core_cm4.h **** 
 197:Drivers/CMSIS/Include/core_cm4.h ****   #ifndef __VTOR_PRESENT
 198:Drivers/CMSIS/Include/core_cm4.h ****     #define __VTOR_PRESENT             1U
 199:Drivers/CMSIS/Include/core_cm4.h ****     #warning "__VTOR_PRESENT not defined in device header file; using default!"
 200:Drivers/CMSIS/Include/core_cm4.h ****   #endif
 201:Drivers/CMSIS/Include/core_cm4.h **** 
 202:Drivers/CMSIS/Include/core_cm4.h ****   #ifndef __NVIC_PRIO_BITS
 203:Drivers/CMSIS/Include/core_cm4.h ****     #define __NVIC_PRIO_BITS          3U
 204:Drivers/CMSIS/Include/core_cm4.h ****     #warning "__NVIC_PRIO_BITS not defined in device header file; using default!"
 205:Drivers/CMSIS/Include/core_cm4.h ****   #endif
 206:Drivers/CMSIS/Include/core_cm4.h **** 
 207:Drivers/CMSIS/Include/core_cm4.h ****   #ifndef __Vendor_SysTickConfig
 208:Drivers/CMSIS/Include/core_cm4.h ****     #define __Vendor_SysTickConfig    0U
 209:Drivers/CMSIS/Include/core_cm4.h ****     #warning "__Vendor_SysTickConfig not defined in device header file; using default!"
 210:Drivers/CMSIS/Include/core_cm4.h ****   #endif
 211:Drivers/CMSIS/Include/core_cm4.h **** #endif
 212:Drivers/CMSIS/Include/core_cm4.h **** 
 213:Drivers/CMSIS/Include/core_cm4.h **** /* IO definitions (access restrictions to peripheral registers) */
 214:Drivers/CMSIS/Include/core_cm4.h **** /**
 215:Drivers/CMSIS/Include/core_cm4.h ****     \defgroup CMSIS_glob_defs CMSIS Global Defines
 216:Drivers/CMSIS/Include/core_cm4.h **** 
 217:Drivers/CMSIS/Include/core_cm4.h ****     <strong>IO Type Qualifiers</strong> are used
 218:Drivers/CMSIS/Include/core_cm4.h ****     \li to specify the access to peripheral variables.
 219:Drivers/CMSIS/Include/core_cm4.h ****     \li for automatic generation of peripheral register debug information.
 220:Drivers/CMSIS/Include/core_cm4.h **** */
 221:Drivers/CMSIS/Include/core_cm4.h **** #ifdef __cplusplus
 222:Drivers/CMSIS/Include/core_cm4.h ****   #define   __I     volatile             /*!< Defines 'read only' permissions */
 223:Drivers/CMSIS/Include/core_cm4.h **** #else
 224:Drivers/CMSIS/Include/core_cm4.h ****   #define   __I     volatile const       /*!< Defines 'read only' permissions */
 225:Drivers/CMSIS/Include/core_cm4.h **** #endif
 226:Drivers/CMSIS/Include/core_cm4.h **** #define     __O     volatile             /*!< Defines 'write only' permissions */
 227:Drivers/CMSIS/Include/core_cm4.h **** #define     __IO    volatile             /*!< Defines 'read / write' permissions */
 228:Drivers/CMSIS/Include/core_cm4.h **** 
 229:Drivers/CMSIS/Include/core_cm4.h **** /* following defines should be used for structure members */
 230:Drivers/CMSIS/Include/core_cm4.h **** #define     __IM     volatile const      /*! Defines 'read only' structure member permissions */
 231:Drivers/CMSIS/Include/core_cm4.h **** #define     __OM     volatile            /*! Defines 'write only' structure member permissions */
 232:Drivers/CMSIS/Include/core_cm4.h **** #define     __IOM    volatile            /*! Defines 'read / write' structure member permissions */
 233:Drivers/CMSIS/Include/core_cm4.h **** 
 234:Drivers/CMSIS/Include/core_cm4.h **** /*@} end of group Cortex_M4 */
 235:Drivers/CMSIS/Include/core_cm4.h **** 
 236:Drivers/CMSIS/Include/core_cm4.h **** 
 237:Drivers/CMSIS/Include/core_cm4.h **** 
 238:Drivers/CMSIS/Include/core_cm4.h **** /*******************************************************************************
 239:Drivers/CMSIS/Include/core_cm4.h ****  *                 Register Abstraction
 240:Drivers/CMSIS/Include/core_cm4.h ****   Core Register contain:
 241:Drivers/CMSIS/Include/core_cm4.h ****   - Core Register
 242:Drivers/CMSIS/Include/core_cm4.h ****   - Core NVIC Register
 243:Drivers/CMSIS/Include/core_cm4.h ****   - Core SCB Register
 244:Drivers/CMSIS/Include/core_cm4.h ****   - Core SysTick Register
 245:Drivers/CMSIS/Include/core_cm4.h ****   - Core Debug Register
 246:Drivers/CMSIS/Include/core_cm4.h ****   - Core MPU Register
 247:Drivers/CMSIS/Include/core_cm4.h ****   - Core FPU Register
 248:Drivers/CMSIS/Include/core_cm4.h ****  ******************************************************************************/
 249:Drivers/CMSIS/Include/core_cm4.h **** /**
 250:Drivers/CMSIS/Include/core_cm4.h ****   \defgroup CMSIS_core_register Defines and Type Definitions
 251:Drivers/CMSIS/Include/core_cm4.h ****   \brief Type definitions and defines for Cortex-M processor based devices.
 252:Drivers/CMSIS/Include/core_cm4.h **** */
ARM GAS  /tmp/cc8sKhx5.s 			page 47


 253:Drivers/CMSIS/Include/core_cm4.h **** 
 254:Drivers/CMSIS/Include/core_cm4.h **** /**
 255:Drivers/CMSIS/Include/core_cm4.h ****   \ingroup    CMSIS_core_register
 256:Drivers/CMSIS/Include/core_cm4.h ****   \defgroup   CMSIS_CORE  Status and Control Registers
 257:Drivers/CMSIS/Include/core_cm4.h ****   \brief      Core Register type definitions.
 258:Drivers/CMSIS/Include/core_cm4.h ****   @{
 259:Drivers/CMSIS/Include/core_cm4.h ****  */
 260:Drivers/CMSIS/Include/core_cm4.h **** 
 261:Drivers/CMSIS/Include/core_cm4.h **** /**
 262:Drivers/CMSIS/Include/core_cm4.h ****   \brief  Union type to access the Application Program Status Register (APSR).
 263:Drivers/CMSIS/Include/core_cm4.h ****  */
 264:Drivers/CMSIS/Include/core_cm4.h **** typedef union
 265:Drivers/CMSIS/Include/core_cm4.h **** {
 266:Drivers/CMSIS/Include/core_cm4.h ****   struct
 267:Drivers/CMSIS/Include/core_cm4.h ****   {
 268:Drivers/CMSIS/Include/core_cm4.h ****     uint32_t _reserved0:16;              /*!< bit:  0..15  Reserved */
 269:Drivers/CMSIS/Include/core_cm4.h ****     uint32_t GE:4;                       /*!< bit: 16..19  Greater than or Equal flags */
 270:Drivers/CMSIS/Include/core_cm4.h ****     uint32_t _reserved1:7;               /*!< bit: 20..26  Reserved */
 271:Drivers/CMSIS/Include/core_cm4.h ****     uint32_t Q:1;                        /*!< bit:     27  Saturation condition flag */
 272:Drivers/CMSIS/Include/core_cm4.h ****     uint32_t V:1;                        /*!< bit:     28  Overflow condition code flag */
 273:Drivers/CMSIS/Include/core_cm4.h ****     uint32_t C:1;                        /*!< bit:     29  Carry condition code flag */
 274:Drivers/CMSIS/Include/core_cm4.h ****     uint32_t Z:1;                        /*!< bit:     30  Zero condition code flag */
 275:Drivers/CMSIS/Include/core_cm4.h ****     uint32_t N:1;                        /*!< bit:     31  Negative condition code flag */
 276:Drivers/CMSIS/Include/core_cm4.h ****   } b;                                   /*!< Structure used for bit  access */
 277:Drivers/CMSIS/Include/core_cm4.h ****   uint32_t w;                            /*!< Type      used for word access */
 278:Drivers/CMSIS/Include/core_cm4.h **** } APSR_Type;
 279:Drivers/CMSIS/Include/core_cm4.h **** 
 280:Drivers/CMSIS/Include/core_cm4.h **** /* APSR Register Definitions */
 281:Drivers/CMSIS/Include/core_cm4.h **** #define APSR_N_Pos                         31U                                            /*!< APSR
 282:Drivers/CMSIS/Include/core_cm4.h **** #define APSR_N_Msk                         (1UL << APSR_N_Pos)                            /*!< APSR
 283:Drivers/CMSIS/Include/core_cm4.h **** 
 284:Drivers/CMSIS/Include/core_cm4.h **** #define APSR_Z_Pos                         30U                                            /*!< APSR
 285:Drivers/CMSIS/Include/core_cm4.h **** #define APSR_Z_Msk                         (1UL << APSR_Z_Pos)                            /*!< APSR
 286:Drivers/CMSIS/Include/core_cm4.h **** 
 287:Drivers/CMSIS/Include/core_cm4.h **** #define APSR_C_Pos                         29U                                            /*!< APSR
 288:Drivers/CMSIS/Include/core_cm4.h **** #define APSR_C_Msk                         (1UL << APSR_C_Pos)                            /*!< APSR
 289:Drivers/CMSIS/Include/core_cm4.h **** 
 290:Drivers/CMSIS/Include/core_cm4.h **** #define APSR_V_Pos                         28U                                            /*!< APSR
 291:Drivers/CMSIS/Include/core_cm4.h **** #define APSR_V_Msk                         (1UL << APSR_V_Pos)                            /*!< APSR
 292:Drivers/CMSIS/Include/core_cm4.h **** 
 293:Drivers/CMSIS/Include/core_cm4.h **** #define APSR_Q_Pos                         27U                                            /*!< APSR
 294:Drivers/CMSIS/Include/core_cm4.h **** #define APSR_Q_Msk                         (1UL << APSR_Q_Pos)                            /*!< APSR
 295:Drivers/CMSIS/Include/core_cm4.h **** 
 296:Drivers/CMSIS/Include/core_cm4.h **** #define APSR_GE_Pos                        16U                                            /*!< APSR
 297:Drivers/CMSIS/Include/core_cm4.h **** #define APSR_GE_Msk                        (0xFUL << APSR_GE_Pos)                         /*!< APSR
 298:Drivers/CMSIS/Include/core_cm4.h **** 
 299:Drivers/CMSIS/Include/core_cm4.h **** 
 300:Drivers/CMSIS/Include/core_cm4.h **** /**
 301:Drivers/CMSIS/Include/core_cm4.h ****   \brief  Union type to access the Interrupt Program Status Register (IPSR).
 302:Drivers/CMSIS/Include/core_cm4.h ****  */
 303:Drivers/CMSIS/Include/core_cm4.h **** typedef union
 304:Drivers/CMSIS/Include/core_cm4.h **** {
 305:Drivers/CMSIS/Include/core_cm4.h ****   struct
 306:Drivers/CMSIS/Include/core_cm4.h ****   {
 307:Drivers/CMSIS/Include/core_cm4.h ****     uint32_t ISR:9;                      /*!< bit:  0.. 8  Exception number */
 308:Drivers/CMSIS/Include/core_cm4.h ****     uint32_t _reserved0:23;              /*!< bit:  9..31  Reserved */
 309:Drivers/CMSIS/Include/core_cm4.h ****   } b;                                   /*!< Structure used for bit  access */
ARM GAS  /tmp/cc8sKhx5.s 			page 48


 310:Drivers/CMSIS/Include/core_cm4.h ****   uint32_t w;                            /*!< Type      used for word access */
 311:Drivers/CMSIS/Include/core_cm4.h **** } IPSR_Type;
 312:Drivers/CMSIS/Include/core_cm4.h **** 
 313:Drivers/CMSIS/Include/core_cm4.h **** /* IPSR Register Definitions */
 314:Drivers/CMSIS/Include/core_cm4.h **** #define IPSR_ISR_Pos                        0U                                            /*!< IPSR
 315:Drivers/CMSIS/Include/core_cm4.h **** #define IPSR_ISR_Msk                       (0x1FFUL /*<< IPSR_ISR_Pos*/)                  /*!< IPSR
 316:Drivers/CMSIS/Include/core_cm4.h **** 
 317:Drivers/CMSIS/Include/core_cm4.h **** 
 318:Drivers/CMSIS/Include/core_cm4.h **** /**
 319:Drivers/CMSIS/Include/core_cm4.h ****   \brief  Union type to access the Special-Purpose Program Status Registers (xPSR).
 320:Drivers/CMSIS/Include/core_cm4.h ****  */
 321:Drivers/CMSIS/Include/core_cm4.h **** typedef union
 322:Drivers/CMSIS/Include/core_cm4.h **** {
 323:Drivers/CMSIS/Include/core_cm4.h ****   struct
 324:Drivers/CMSIS/Include/core_cm4.h ****   {
 325:Drivers/CMSIS/Include/core_cm4.h ****     uint32_t ISR:9;                      /*!< bit:  0.. 8  Exception number */
 326:Drivers/CMSIS/Include/core_cm4.h ****     uint32_t _reserved0:1;               /*!< bit:      9  Reserved */
 327:Drivers/CMSIS/Include/core_cm4.h ****     uint32_t ICI_IT_1:6;                 /*!< bit: 10..15  ICI/IT part 1 */
 328:Drivers/CMSIS/Include/core_cm4.h ****     uint32_t GE:4;                       /*!< bit: 16..19  Greater than or Equal flags */
 329:Drivers/CMSIS/Include/core_cm4.h ****     uint32_t _reserved1:4;               /*!< bit: 20..23  Reserved */
 330:Drivers/CMSIS/Include/core_cm4.h ****     uint32_t T:1;                        /*!< bit:     24  Thumb bit */
 331:Drivers/CMSIS/Include/core_cm4.h ****     uint32_t ICI_IT_2:2;                 /*!< bit: 25..26  ICI/IT part 2 */
 332:Drivers/CMSIS/Include/core_cm4.h ****     uint32_t Q:1;                        /*!< bit:     27  Saturation condition flag */
 333:Drivers/CMSIS/Include/core_cm4.h ****     uint32_t V:1;                        /*!< bit:     28  Overflow condition code flag */
 334:Drivers/CMSIS/Include/core_cm4.h ****     uint32_t C:1;                        /*!< bit:     29  Carry condition code flag */
 335:Drivers/CMSIS/Include/core_cm4.h ****     uint32_t Z:1;                        /*!< bit:     30  Zero condition code flag */
 336:Drivers/CMSIS/Include/core_cm4.h ****     uint32_t N:1;                        /*!< bit:     31  Negative condition code flag */
 337:Drivers/CMSIS/Include/core_cm4.h ****   } b;                                   /*!< Structure used for bit  access */
 338:Drivers/CMSIS/Include/core_cm4.h ****   uint32_t w;                            /*!< Type      used for word access */
 339:Drivers/CMSIS/Include/core_cm4.h **** } xPSR_Type;
 340:Drivers/CMSIS/Include/core_cm4.h **** 
 341:Drivers/CMSIS/Include/core_cm4.h **** /* xPSR Register Definitions */
 342:Drivers/CMSIS/Include/core_cm4.h **** #define xPSR_N_Pos                         31U                                            /*!< xPSR
 343:Drivers/CMSIS/Include/core_cm4.h **** #define xPSR_N_Msk                         (1UL << xPSR_N_Pos)                            /*!< xPSR
 344:Drivers/CMSIS/Include/core_cm4.h **** 
 345:Drivers/CMSIS/Include/core_cm4.h **** #define xPSR_Z_Pos                         30U                                            /*!< xPSR
 346:Drivers/CMSIS/Include/core_cm4.h **** #define xPSR_Z_Msk                         (1UL << xPSR_Z_Pos)                            /*!< xPSR
 347:Drivers/CMSIS/Include/core_cm4.h **** 
 348:Drivers/CMSIS/Include/core_cm4.h **** #define xPSR_C_Pos                         29U                                            /*!< xPSR
 349:Drivers/CMSIS/Include/core_cm4.h **** #define xPSR_C_Msk                         (1UL << xPSR_C_Pos)                            /*!< xPSR
 350:Drivers/CMSIS/Include/core_cm4.h **** 
 351:Drivers/CMSIS/Include/core_cm4.h **** #define xPSR_V_Pos                         28U                                            /*!< xPSR
 352:Drivers/CMSIS/Include/core_cm4.h **** #define xPSR_V_Msk                         (1UL << xPSR_V_Pos)                            /*!< xPSR
 353:Drivers/CMSIS/Include/core_cm4.h **** 
 354:Drivers/CMSIS/Include/core_cm4.h **** #define xPSR_Q_Pos                         27U                                            /*!< xPSR
 355:Drivers/CMSIS/Include/core_cm4.h **** #define xPSR_Q_Msk                         (1UL << xPSR_Q_Pos)                            /*!< xPSR
 356:Drivers/CMSIS/Include/core_cm4.h **** 
 357:Drivers/CMSIS/Include/core_cm4.h **** #define xPSR_ICI_IT_2_Pos                  25U                                            /*!< xPSR
 358:Drivers/CMSIS/Include/core_cm4.h **** #define xPSR_ICI_IT_2_Msk                  (3UL << xPSR_ICI_IT_2_Pos)                     /*!< xPSR
 359:Drivers/CMSIS/Include/core_cm4.h **** 
 360:Drivers/CMSIS/Include/core_cm4.h **** #define xPSR_T_Pos                         24U                                            /*!< xPSR
 361:Drivers/CMSIS/Include/core_cm4.h **** #define xPSR_T_Msk                         (1UL << xPSR_T_Pos)                            /*!< xPSR
 362:Drivers/CMSIS/Include/core_cm4.h **** 
 363:Drivers/CMSIS/Include/core_cm4.h **** #define xPSR_GE_Pos                        16U                                            /*!< xPSR
 364:Drivers/CMSIS/Include/core_cm4.h **** #define xPSR_GE_Msk                        (0xFUL << xPSR_GE_Pos)                         /*!< xPSR
 365:Drivers/CMSIS/Include/core_cm4.h **** 
 366:Drivers/CMSIS/Include/core_cm4.h **** #define xPSR_ICI_IT_1_Pos                  10U                                            /*!< xPSR
ARM GAS  /tmp/cc8sKhx5.s 			page 49


 367:Drivers/CMSIS/Include/core_cm4.h **** #define xPSR_ICI_IT_1_Msk                  (0x3FUL << xPSR_ICI_IT_1_Pos)                  /*!< xPSR
 368:Drivers/CMSIS/Include/core_cm4.h **** 
 369:Drivers/CMSIS/Include/core_cm4.h **** #define xPSR_ISR_Pos                        0U                                            /*!< xPSR
 370:Drivers/CMSIS/Include/core_cm4.h **** #define xPSR_ISR_Msk                       (0x1FFUL /*<< xPSR_ISR_Pos*/)                  /*!< xPSR
 371:Drivers/CMSIS/Include/core_cm4.h **** 
 372:Drivers/CMSIS/Include/core_cm4.h **** 
 373:Drivers/CMSIS/Include/core_cm4.h **** /**
 374:Drivers/CMSIS/Include/core_cm4.h ****   \brief  Union type to access the Control Registers (CONTROL).
 375:Drivers/CMSIS/Include/core_cm4.h ****  */
 376:Drivers/CMSIS/Include/core_cm4.h **** typedef union
 377:Drivers/CMSIS/Include/core_cm4.h **** {
 378:Drivers/CMSIS/Include/core_cm4.h ****   struct
 379:Drivers/CMSIS/Include/core_cm4.h ****   {
 380:Drivers/CMSIS/Include/core_cm4.h ****     uint32_t nPRIV:1;                    /*!< bit:      0  Execution privilege in Thread mode */
 381:Drivers/CMSIS/Include/core_cm4.h ****     uint32_t SPSEL:1;                    /*!< bit:      1  Stack to be used */
 382:Drivers/CMSIS/Include/core_cm4.h ****     uint32_t FPCA:1;                     /*!< bit:      2  FP extension active flag */
 383:Drivers/CMSIS/Include/core_cm4.h ****     uint32_t _reserved0:29;              /*!< bit:  3..31  Reserved */
 384:Drivers/CMSIS/Include/core_cm4.h ****   } b;                                   /*!< Structure used for bit  access */
 385:Drivers/CMSIS/Include/core_cm4.h ****   uint32_t w;                            /*!< Type      used for word access */
 386:Drivers/CMSIS/Include/core_cm4.h **** } CONTROL_Type;
 387:Drivers/CMSIS/Include/core_cm4.h **** 
 388:Drivers/CMSIS/Include/core_cm4.h **** /* CONTROL Register Definitions */
 389:Drivers/CMSIS/Include/core_cm4.h **** #define CONTROL_FPCA_Pos                    2U                                            /*!< CONT
 390:Drivers/CMSIS/Include/core_cm4.h **** #define CONTROL_FPCA_Msk                   (1UL << CONTROL_FPCA_Pos)                      /*!< CONT
 391:Drivers/CMSIS/Include/core_cm4.h **** 
 392:Drivers/CMSIS/Include/core_cm4.h **** #define CONTROL_SPSEL_Pos                   1U                                            /*!< CONT
 393:Drivers/CMSIS/Include/core_cm4.h **** #define CONTROL_SPSEL_Msk                  (1UL << CONTROL_SPSEL_Pos)                     /*!< CONT
 394:Drivers/CMSIS/Include/core_cm4.h **** 
 395:Drivers/CMSIS/Include/core_cm4.h **** #define CONTROL_nPRIV_Pos                   0U                                            /*!< CONT
 396:Drivers/CMSIS/Include/core_cm4.h **** #define CONTROL_nPRIV_Msk                  (1UL /*<< CONTROL_nPRIV_Pos*/)                 /*!< CONT
 397:Drivers/CMSIS/Include/core_cm4.h **** 
 398:Drivers/CMSIS/Include/core_cm4.h **** /*@} end of group CMSIS_CORE */
 399:Drivers/CMSIS/Include/core_cm4.h **** 
 400:Drivers/CMSIS/Include/core_cm4.h **** 
 401:Drivers/CMSIS/Include/core_cm4.h **** /**
 402:Drivers/CMSIS/Include/core_cm4.h ****   \ingroup    CMSIS_core_register
 403:Drivers/CMSIS/Include/core_cm4.h ****   \defgroup   CMSIS_NVIC  Nested Vectored Interrupt Controller (NVIC)
 404:Drivers/CMSIS/Include/core_cm4.h ****   \brief      Type definitions for the NVIC Registers
 405:Drivers/CMSIS/Include/core_cm4.h ****   @{
 406:Drivers/CMSIS/Include/core_cm4.h ****  */
 407:Drivers/CMSIS/Include/core_cm4.h **** 
 408:Drivers/CMSIS/Include/core_cm4.h **** /**
 409:Drivers/CMSIS/Include/core_cm4.h ****   \brief  Structure type to access the Nested Vectored Interrupt Controller (NVIC).
 410:Drivers/CMSIS/Include/core_cm4.h ****  */
 411:Drivers/CMSIS/Include/core_cm4.h **** typedef struct
 412:Drivers/CMSIS/Include/core_cm4.h **** {
 413:Drivers/CMSIS/Include/core_cm4.h ****   __IOM uint32_t ISER[8U];               /*!< Offset: 0x000 (R/W)  Interrupt Set Enable Register */
 414:Drivers/CMSIS/Include/core_cm4.h ****         uint32_t RESERVED0[24U];
 415:Drivers/CMSIS/Include/core_cm4.h ****   __IOM uint32_t ICER[8U];               /*!< Offset: 0x080 (R/W)  Interrupt Clear Enable Register 
 416:Drivers/CMSIS/Include/core_cm4.h ****         uint32_t RESERVED1[24U];
 417:Drivers/CMSIS/Include/core_cm4.h ****   __IOM uint32_t ISPR[8U];               /*!< Offset: 0x100 (R/W)  Interrupt Set Pending Register *
 418:Drivers/CMSIS/Include/core_cm4.h ****         uint32_t RESERVED2[24U];
 419:Drivers/CMSIS/Include/core_cm4.h ****   __IOM uint32_t ICPR[8U];               /*!< Offset: 0x180 (R/W)  Interrupt Clear Pending Register
 420:Drivers/CMSIS/Include/core_cm4.h ****         uint32_t RESERVED3[24U];
 421:Drivers/CMSIS/Include/core_cm4.h ****   __IOM uint32_t IABR[8U];               /*!< Offset: 0x200 (R/W)  Interrupt Active bit Register */
 422:Drivers/CMSIS/Include/core_cm4.h ****         uint32_t RESERVED4[56U];
 423:Drivers/CMSIS/Include/core_cm4.h ****   __IOM uint8_t  IP[240U];               /*!< Offset: 0x300 (R/W)  Interrupt Priority Register (8Bi
ARM GAS  /tmp/cc8sKhx5.s 			page 50


 424:Drivers/CMSIS/Include/core_cm4.h ****         uint32_t RESERVED5[644U];
 425:Drivers/CMSIS/Include/core_cm4.h ****   __OM  uint32_t STIR;                   /*!< Offset: 0xE00 ( /W)  Software Trigger Interrupt Regis
 426:Drivers/CMSIS/Include/core_cm4.h **** }  NVIC_Type;
 427:Drivers/CMSIS/Include/core_cm4.h **** 
 428:Drivers/CMSIS/Include/core_cm4.h **** /* Software Triggered Interrupt Register Definitions */
 429:Drivers/CMSIS/Include/core_cm4.h **** #define NVIC_STIR_INTID_Pos                 0U                                         /*!< STIR: I
 430:Drivers/CMSIS/Include/core_cm4.h **** #define NVIC_STIR_INTID_Msk                (0x1FFUL /*<< NVIC_STIR_INTID_Pos*/)        /*!< STIR: I
 431:Drivers/CMSIS/Include/core_cm4.h **** 
 432:Drivers/CMSIS/Include/core_cm4.h **** /*@} end of group CMSIS_NVIC */
 433:Drivers/CMSIS/Include/core_cm4.h **** 
 434:Drivers/CMSIS/Include/core_cm4.h **** 
 435:Drivers/CMSIS/Include/core_cm4.h **** /**
 436:Drivers/CMSIS/Include/core_cm4.h ****   \ingroup  CMSIS_core_register
 437:Drivers/CMSIS/Include/core_cm4.h ****   \defgroup CMSIS_SCB     System Control Block (SCB)
 438:Drivers/CMSIS/Include/core_cm4.h ****   \brief    Type definitions for the System Control Block Registers
 439:Drivers/CMSIS/Include/core_cm4.h ****   @{
 440:Drivers/CMSIS/Include/core_cm4.h ****  */
 441:Drivers/CMSIS/Include/core_cm4.h **** 
 442:Drivers/CMSIS/Include/core_cm4.h **** /**
 443:Drivers/CMSIS/Include/core_cm4.h ****   \brief  Structure type to access the System Control Block (SCB).
 444:Drivers/CMSIS/Include/core_cm4.h ****  */
 445:Drivers/CMSIS/Include/core_cm4.h **** typedef struct
 446:Drivers/CMSIS/Include/core_cm4.h **** {
 447:Drivers/CMSIS/Include/core_cm4.h ****   __IM  uint32_t CPUID;                  /*!< Offset: 0x000 (R/ )  CPUID Base Register */
 448:Drivers/CMSIS/Include/core_cm4.h ****   __IOM uint32_t ICSR;                   /*!< Offset: 0x004 (R/W)  Interrupt Control and State Regi
 449:Drivers/CMSIS/Include/core_cm4.h ****   __IOM uint32_t VTOR;                   /*!< Offset: 0x008 (R/W)  Vector Table Offset Register */
 450:Drivers/CMSIS/Include/core_cm4.h ****   __IOM uint32_t AIRCR;                  /*!< Offset: 0x00C (R/W)  Application Interrupt and Reset 
 451:Drivers/CMSIS/Include/core_cm4.h ****   __IOM uint32_t SCR;                    /*!< Offset: 0x010 (R/W)  System Control Register */
 452:Drivers/CMSIS/Include/core_cm4.h ****   __IOM uint32_t CCR;                    /*!< Offset: 0x014 (R/W)  Configuration Control Register *
 453:Drivers/CMSIS/Include/core_cm4.h ****   __IOM uint8_t  SHP[12U];               /*!< Offset: 0x018 (R/W)  System Handlers Priority Registe
 454:Drivers/CMSIS/Include/core_cm4.h ****   __IOM uint32_t SHCSR;                  /*!< Offset: 0x024 (R/W)  System Handler Control and State
 455:Drivers/CMSIS/Include/core_cm4.h ****   __IOM uint32_t CFSR;                   /*!< Offset: 0x028 (R/W)  Configurable Fault Status Regist
 456:Drivers/CMSIS/Include/core_cm4.h ****   __IOM uint32_t HFSR;                   /*!< Offset: 0x02C (R/W)  HardFault Status Register */
 457:Drivers/CMSIS/Include/core_cm4.h ****   __IOM uint32_t DFSR;                   /*!< Offset: 0x030 (R/W)  Debug Fault Status Register */
 458:Drivers/CMSIS/Include/core_cm4.h ****   __IOM uint32_t MMFAR;                  /*!< Offset: 0x034 (R/W)  MemManage Fault Address Register
 459:Drivers/CMSIS/Include/core_cm4.h ****   __IOM uint32_t BFAR;                   /*!< Offset: 0x038 (R/W)  BusFault Address Register */
 460:Drivers/CMSIS/Include/core_cm4.h ****   __IOM uint32_t AFSR;                   /*!< Offset: 0x03C (R/W)  Auxiliary Fault Status Register 
 461:Drivers/CMSIS/Include/core_cm4.h ****   __IM  uint32_t PFR[2U];                /*!< Offset: 0x040 (R/ )  Processor Feature Register */
 462:Drivers/CMSIS/Include/core_cm4.h ****   __IM  uint32_t DFR;                    /*!< Offset: 0x048 (R/ )  Debug Feature Register */
 463:Drivers/CMSIS/Include/core_cm4.h ****   __IM  uint32_t ADR;                    /*!< Offset: 0x04C (R/ )  Auxiliary Feature Register */
 464:Drivers/CMSIS/Include/core_cm4.h ****   __IM  uint32_t MMFR[4U];               /*!< Offset: 0x050 (R/ )  Memory Model Feature Register */
 465:Drivers/CMSIS/Include/core_cm4.h ****   __IM  uint32_t ISAR[5U];               /*!< Offset: 0x060 (R/ )  Instruction Set Attributes Regis
 466:Drivers/CMSIS/Include/core_cm4.h ****         uint32_t RESERVED0[5U];
 467:Drivers/CMSIS/Include/core_cm4.h ****   __IOM uint32_t CPACR;                  /*!< Offset: 0x088 (R/W)  Coprocessor Access Control Regis
 468:Drivers/CMSIS/Include/core_cm4.h **** } SCB_Type;
 469:Drivers/CMSIS/Include/core_cm4.h **** 
 470:Drivers/CMSIS/Include/core_cm4.h **** /* SCB CPUID Register Definitions */
 471:Drivers/CMSIS/Include/core_cm4.h **** #define SCB_CPUID_IMPLEMENTER_Pos          24U                                            /*!< SCB 
 472:Drivers/CMSIS/Include/core_cm4.h **** #define SCB_CPUID_IMPLEMENTER_Msk          (0xFFUL << SCB_CPUID_IMPLEMENTER_Pos)          /*!< SCB 
 473:Drivers/CMSIS/Include/core_cm4.h **** 
 474:Drivers/CMSIS/Include/core_cm4.h **** #define SCB_CPUID_VARIANT_Pos              20U                                            /*!< SCB 
 475:Drivers/CMSIS/Include/core_cm4.h **** #define SCB_CPUID_VARIANT_Msk              (0xFUL << SCB_CPUID_VARIANT_Pos)               /*!< SCB 
 476:Drivers/CMSIS/Include/core_cm4.h **** 
 477:Drivers/CMSIS/Include/core_cm4.h **** #define SCB_CPUID_ARCHITECTURE_Pos         16U                                            /*!< SCB 
 478:Drivers/CMSIS/Include/core_cm4.h **** #define SCB_CPUID_ARCHITECTURE_Msk         (0xFUL << SCB_CPUID_ARCHITECTURE_Pos)          /*!< SCB 
 479:Drivers/CMSIS/Include/core_cm4.h **** 
 480:Drivers/CMSIS/Include/core_cm4.h **** #define SCB_CPUID_PARTNO_Pos                4U                                            /*!< SCB 
ARM GAS  /tmp/cc8sKhx5.s 			page 51


 481:Drivers/CMSIS/Include/core_cm4.h **** #define SCB_CPUID_PARTNO_Msk               (0xFFFUL << SCB_CPUID_PARTNO_Pos)              /*!< SCB 
 482:Drivers/CMSIS/Include/core_cm4.h **** 
 483:Drivers/CMSIS/Include/core_cm4.h **** #define SCB_CPUID_REVISION_Pos              0U                                            /*!< SCB 
 484:Drivers/CMSIS/Include/core_cm4.h **** #define SCB_CPUID_REVISION_Msk             (0xFUL /*<< SCB_CPUID_REVISION_Pos*/)          /*!< SCB 
 485:Drivers/CMSIS/Include/core_cm4.h **** 
 486:Drivers/CMSIS/Include/core_cm4.h **** /* SCB Interrupt Control State Register Definitions */
 487:Drivers/CMSIS/Include/core_cm4.h **** #define SCB_ICSR_NMIPENDSET_Pos            31U                                            /*!< SCB 
 488:Drivers/CMSIS/Include/core_cm4.h **** #define SCB_ICSR_NMIPENDSET_Msk            (1UL << SCB_ICSR_NMIPENDSET_Pos)               /*!< SCB 
 489:Drivers/CMSIS/Include/core_cm4.h **** 
 490:Drivers/CMSIS/Include/core_cm4.h **** #define SCB_ICSR_PENDSVSET_Pos             28U                                            /*!< SCB 
 491:Drivers/CMSIS/Include/core_cm4.h **** #define SCB_ICSR_PENDSVSET_Msk             (1UL << SCB_ICSR_PENDSVSET_Pos)                /*!< SCB 
 492:Drivers/CMSIS/Include/core_cm4.h **** 
 493:Drivers/CMSIS/Include/core_cm4.h **** #define SCB_ICSR_PENDSVCLR_Pos             27U                                            /*!< SCB 
 494:Drivers/CMSIS/Include/core_cm4.h **** #define SCB_ICSR_PENDSVCLR_Msk             (1UL << SCB_ICSR_PENDSVCLR_Pos)                /*!< SCB 
 495:Drivers/CMSIS/Include/core_cm4.h **** 
 496:Drivers/CMSIS/Include/core_cm4.h **** #define SCB_ICSR_PENDSTSET_Pos             26U                                            /*!< SCB 
 497:Drivers/CMSIS/Include/core_cm4.h **** #define SCB_ICSR_PENDSTSET_Msk             (1UL << SCB_ICSR_PENDSTSET_Pos)                /*!< SCB 
 498:Drivers/CMSIS/Include/core_cm4.h **** 
 499:Drivers/CMSIS/Include/core_cm4.h **** #define SCB_ICSR_PENDSTCLR_Pos             25U                                            /*!< SCB 
 500:Drivers/CMSIS/Include/core_cm4.h **** #define SCB_ICSR_PENDSTCLR_Msk             (1UL << SCB_ICSR_PENDSTCLR_Pos)                /*!< SCB 
 501:Drivers/CMSIS/Include/core_cm4.h **** 
 502:Drivers/CMSIS/Include/core_cm4.h **** #define SCB_ICSR_ISRPREEMPT_Pos            23U                                            /*!< SCB 
 503:Drivers/CMSIS/Include/core_cm4.h **** #define SCB_ICSR_ISRPREEMPT_Msk            (1UL << SCB_ICSR_ISRPREEMPT_Pos)               /*!< SCB 
 504:Drivers/CMSIS/Include/core_cm4.h **** 
 505:Drivers/CMSIS/Include/core_cm4.h **** #define SCB_ICSR_ISRPENDING_Pos            22U                                            /*!< SCB 
 506:Drivers/CMSIS/Include/core_cm4.h **** #define SCB_ICSR_ISRPENDING_Msk            (1UL << SCB_ICSR_ISRPENDING_Pos)               /*!< SCB 
 507:Drivers/CMSIS/Include/core_cm4.h **** 
 508:Drivers/CMSIS/Include/core_cm4.h **** #define SCB_ICSR_VECTPENDING_Pos           12U                                            /*!< SCB 
 509:Drivers/CMSIS/Include/core_cm4.h **** #define SCB_ICSR_VECTPENDING_Msk           (0x1FFUL << SCB_ICSR_VECTPENDING_Pos)          /*!< SCB 
 510:Drivers/CMSIS/Include/core_cm4.h **** 
 511:Drivers/CMSIS/Include/core_cm4.h **** #define SCB_ICSR_RETTOBASE_Pos             11U                                            /*!< SCB 
 512:Drivers/CMSIS/Include/core_cm4.h **** #define SCB_ICSR_RETTOBASE_Msk             (1UL << SCB_ICSR_RETTOBASE_Pos)                /*!< SCB 
 513:Drivers/CMSIS/Include/core_cm4.h **** 
 514:Drivers/CMSIS/Include/core_cm4.h **** #define SCB_ICSR_VECTACTIVE_Pos             0U                                            /*!< SCB 
 515:Drivers/CMSIS/Include/core_cm4.h **** #define SCB_ICSR_VECTACTIVE_Msk            (0x1FFUL /*<< SCB_ICSR_VECTACTIVE_Pos*/)       /*!< SCB 
 516:Drivers/CMSIS/Include/core_cm4.h **** 
 517:Drivers/CMSIS/Include/core_cm4.h **** /* SCB Vector Table Offset Register Definitions */
 518:Drivers/CMSIS/Include/core_cm4.h **** #define SCB_VTOR_TBLOFF_Pos                 7U                                            /*!< SCB 
 519:Drivers/CMSIS/Include/core_cm4.h **** #define SCB_VTOR_TBLOFF_Msk                (0x1FFFFFFUL << SCB_VTOR_TBLOFF_Pos)           /*!< SCB 
 520:Drivers/CMSIS/Include/core_cm4.h **** 
 521:Drivers/CMSIS/Include/core_cm4.h **** /* SCB Application Interrupt and Reset Control Register Definitions */
 522:Drivers/CMSIS/Include/core_cm4.h **** #define SCB_AIRCR_VECTKEY_Pos              16U                                            /*!< SCB 
 523:Drivers/CMSIS/Include/core_cm4.h **** #define SCB_AIRCR_VECTKEY_Msk              (0xFFFFUL << SCB_AIRCR_VECTKEY_Pos)            /*!< SCB 
 524:Drivers/CMSIS/Include/core_cm4.h **** 
 525:Drivers/CMSIS/Include/core_cm4.h **** #define SCB_AIRCR_VECTKEYSTAT_Pos          16U                                            /*!< SCB 
 526:Drivers/CMSIS/Include/core_cm4.h **** #define SCB_AIRCR_VECTKEYSTAT_Msk          (0xFFFFUL << SCB_AIRCR_VECTKEYSTAT_Pos)        /*!< SCB 
 527:Drivers/CMSIS/Include/core_cm4.h **** 
 528:Drivers/CMSIS/Include/core_cm4.h **** #define SCB_AIRCR_ENDIANESS_Pos            15U                                            /*!< SCB 
 529:Drivers/CMSIS/Include/core_cm4.h **** #define SCB_AIRCR_ENDIANESS_Msk            (1UL << SCB_AIRCR_ENDIANESS_Pos)               /*!< SCB 
 530:Drivers/CMSIS/Include/core_cm4.h **** 
 531:Drivers/CMSIS/Include/core_cm4.h **** #define SCB_AIRCR_PRIGROUP_Pos              8U                                            /*!< SCB 
 532:Drivers/CMSIS/Include/core_cm4.h **** #define SCB_AIRCR_PRIGROUP_Msk             (7UL << SCB_AIRCR_PRIGROUP_Pos)                /*!< SCB 
 533:Drivers/CMSIS/Include/core_cm4.h **** 
 534:Drivers/CMSIS/Include/core_cm4.h **** #define SCB_AIRCR_SYSRESETREQ_Pos           2U                                            /*!< SCB 
 535:Drivers/CMSIS/Include/core_cm4.h **** #define SCB_AIRCR_SYSRESETREQ_Msk          (1UL << SCB_AIRCR_SYSRESETREQ_Pos)             /*!< SCB 
 536:Drivers/CMSIS/Include/core_cm4.h **** 
 537:Drivers/CMSIS/Include/core_cm4.h **** #define SCB_AIRCR_VECTCLRACTIVE_Pos         1U                                            /*!< SCB 
ARM GAS  /tmp/cc8sKhx5.s 			page 52


 538:Drivers/CMSIS/Include/core_cm4.h **** #define SCB_AIRCR_VECTCLRACTIVE_Msk        (1UL << SCB_AIRCR_VECTCLRACTIVE_Pos)           /*!< SCB 
 539:Drivers/CMSIS/Include/core_cm4.h **** 
 540:Drivers/CMSIS/Include/core_cm4.h **** #define SCB_AIRCR_VECTRESET_Pos             0U                                            /*!< SCB 
 541:Drivers/CMSIS/Include/core_cm4.h **** #define SCB_AIRCR_VECTRESET_Msk            (1UL /*<< SCB_AIRCR_VECTRESET_Pos*/)           /*!< SCB 
 542:Drivers/CMSIS/Include/core_cm4.h **** 
 543:Drivers/CMSIS/Include/core_cm4.h **** /* SCB System Control Register Definitions */
 544:Drivers/CMSIS/Include/core_cm4.h **** #define SCB_SCR_SEVONPEND_Pos               4U                                            /*!< SCB 
 545:Drivers/CMSIS/Include/core_cm4.h **** #define SCB_SCR_SEVONPEND_Msk              (1UL << SCB_SCR_SEVONPEND_Pos)                 /*!< SCB 
 546:Drivers/CMSIS/Include/core_cm4.h **** 
 547:Drivers/CMSIS/Include/core_cm4.h **** #define SCB_SCR_SLEEPDEEP_Pos               2U                                            /*!< SCB 
 548:Drivers/CMSIS/Include/core_cm4.h **** #define SCB_SCR_SLEEPDEEP_Msk              (1UL << SCB_SCR_SLEEPDEEP_Pos)                 /*!< SCB 
 549:Drivers/CMSIS/Include/core_cm4.h **** 
 550:Drivers/CMSIS/Include/core_cm4.h **** #define SCB_SCR_SLEEPONEXIT_Pos             1U                                            /*!< SCB 
 551:Drivers/CMSIS/Include/core_cm4.h **** #define SCB_SCR_SLEEPONEXIT_Msk            (1UL << SCB_SCR_SLEEPONEXIT_Pos)               /*!< SCB 
 552:Drivers/CMSIS/Include/core_cm4.h **** 
 553:Drivers/CMSIS/Include/core_cm4.h **** /* SCB Configuration Control Register Definitions */
 554:Drivers/CMSIS/Include/core_cm4.h **** #define SCB_CCR_STKALIGN_Pos                9U                                            /*!< SCB 
 555:Drivers/CMSIS/Include/core_cm4.h **** #define SCB_CCR_STKALIGN_Msk               (1UL << SCB_CCR_STKALIGN_Pos)                  /*!< SCB 
 556:Drivers/CMSIS/Include/core_cm4.h **** 
 557:Drivers/CMSIS/Include/core_cm4.h **** #define SCB_CCR_BFHFNMIGN_Pos               8U                                            /*!< SCB 
 558:Drivers/CMSIS/Include/core_cm4.h **** #define SCB_CCR_BFHFNMIGN_Msk              (1UL << SCB_CCR_BFHFNMIGN_Pos)                 /*!< SCB 
 559:Drivers/CMSIS/Include/core_cm4.h **** 
 560:Drivers/CMSIS/Include/core_cm4.h **** #define SCB_CCR_DIV_0_TRP_Pos               4U                                            /*!< SCB 
 561:Drivers/CMSIS/Include/core_cm4.h **** #define SCB_CCR_DIV_0_TRP_Msk              (1UL << SCB_CCR_DIV_0_TRP_Pos)                 /*!< SCB 
 562:Drivers/CMSIS/Include/core_cm4.h **** 
 563:Drivers/CMSIS/Include/core_cm4.h **** #define SCB_CCR_UNALIGN_TRP_Pos             3U                                            /*!< SCB 
 564:Drivers/CMSIS/Include/core_cm4.h **** #define SCB_CCR_UNALIGN_TRP_Msk            (1UL << SCB_CCR_UNALIGN_TRP_Pos)               /*!< SCB 
 565:Drivers/CMSIS/Include/core_cm4.h **** 
 566:Drivers/CMSIS/Include/core_cm4.h **** #define SCB_CCR_USERSETMPEND_Pos            1U                                            /*!< SCB 
 567:Drivers/CMSIS/Include/core_cm4.h **** #define SCB_CCR_USERSETMPEND_Msk           (1UL << SCB_CCR_USERSETMPEND_Pos)              /*!< SCB 
 568:Drivers/CMSIS/Include/core_cm4.h **** 
 569:Drivers/CMSIS/Include/core_cm4.h **** #define SCB_CCR_NONBASETHRDENA_Pos          0U                                            /*!< SCB 
 570:Drivers/CMSIS/Include/core_cm4.h **** #define SCB_CCR_NONBASETHRDENA_Msk         (1UL /*<< SCB_CCR_NONBASETHRDENA_Pos*/)        /*!< SCB 
 571:Drivers/CMSIS/Include/core_cm4.h **** 
 572:Drivers/CMSIS/Include/core_cm4.h **** /* SCB System Handler Control and State Register Definitions */
 573:Drivers/CMSIS/Include/core_cm4.h **** #define SCB_SHCSR_USGFAULTENA_Pos          18U                                            /*!< SCB 
 574:Drivers/CMSIS/Include/core_cm4.h **** #define SCB_SHCSR_USGFAULTENA_Msk          (1UL << SCB_SHCSR_USGFAULTENA_Pos)             /*!< SCB 
 575:Drivers/CMSIS/Include/core_cm4.h **** 
 576:Drivers/CMSIS/Include/core_cm4.h **** #define SCB_SHCSR_BUSFAULTENA_Pos          17U                                            /*!< SCB 
 577:Drivers/CMSIS/Include/core_cm4.h **** #define SCB_SHCSR_BUSFAULTENA_Msk          (1UL << SCB_SHCSR_BUSFAULTENA_Pos)             /*!< SCB 
 578:Drivers/CMSIS/Include/core_cm4.h **** 
 579:Drivers/CMSIS/Include/core_cm4.h **** #define SCB_SHCSR_MEMFAULTENA_Pos          16U                                            /*!< SCB 
 580:Drivers/CMSIS/Include/core_cm4.h **** #define SCB_SHCSR_MEMFAULTENA_Msk          (1UL << SCB_SHCSR_MEMFAULTENA_Pos)             /*!< SCB 
 581:Drivers/CMSIS/Include/core_cm4.h **** 
 582:Drivers/CMSIS/Include/core_cm4.h **** #define SCB_SHCSR_SVCALLPENDED_Pos         15U                                            /*!< SCB 
 583:Drivers/CMSIS/Include/core_cm4.h **** #define SCB_SHCSR_SVCALLPENDED_Msk         (1UL << SCB_SHCSR_SVCALLPENDED_Pos)            /*!< SCB 
 584:Drivers/CMSIS/Include/core_cm4.h **** 
 585:Drivers/CMSIS/Include/core_cm4.h **** #define SCB_SHCSR_BUSFAULTPENDED_Pos       14U                                            /*!< SCB 
 586:Drivers/CMSIS/Include/core_cm4.h **** #define SCB_SHCSR_BUSFAULTPENDED_Msk       (1UL << SCB_SHCSR_BUSFAULTPENDED_Pos)          /*!< SCB 
 587:Drivers/CMSIS/Include/core_cm4.h **** 
 588:Drivers/CMSIS/Include/core_cm4.h **** #define SCB_SHCSR_MEMFAULTPENDED_Pos       13U                                            /*!< SCB 
 589:Drivers/CMSIS/Include/core_cm4.h **** #define SCB_SHCSR_MEMFAULTPENDED_Msk       (1UL << SCB_SHCSR_MEMFAULTPENDED_Pos)          /*!< SCB 
 590:Drivers/CMSIS/Include/core_cm4.h **** 
 591:Drivers/CMSIS/Include/core_cm4.h **** #define SCB_SHCSR_USGFAULTPENDED_Pos       12U                                            /*!< SCB 
 592:Drivers/CMSIS/Include/core_cm4.h **** #define SCB_SHCSR_USGFAULTPENDED_Msk       (1UL << SCB_SHCSR_USGFAULTPENDED_Pos)          /*!< SCB 
 593:Drivers/CMSIS/Include/core_cm4.h **** 
 594:Drivers/CMSIS/Include/core_cm4.h **** #define SCB_SHCSR_SYSTICKACT_Pos           11U                                            /*!< SCB 
ARM GAS  /tmp/cc8sKhx5.s 			page 53


 595:Drivers/CMSIS/Include/core_cm4.h **** #define SCB_SHCSR_SYSTICKACT_Msk           (1UL << SCB_SHCSR_SYSTICKACT_Pos)              /*!< SCB 
 596:Drivers/CMSIS/Include/core_cm4.h **** 
 597:Drivers/CMSIS/Include/core_cm4.h **** #define SCB_SHCSR_PENDSVACT_Pos            10U                                            /*!< SCB 
 598:Drivers/CMSIS/Include/core_cm4.h **** #define SCB_SHCSR_PENDSVACT_Msk            (1UL << SCB_SHCSR_PENDSVACT_Pos)               /*!< SCB 
 599:Drivers/CMSIS/Include/core_cm4.h **** 
 600:Drivers/CMSIS/Include/core_cm4.h **** #define SCB_SHCSR_MONITORACT_Pos            8U                                            /*!< SCB 
 601:Drivers/CMSIS/Include/core_cm4.h **** #define SCB_SHCSR_MONITORACT_Msk           (1UL << SCB_SHCSR_MONITORACT_Pos)              /*!< SCB 
 602:Drivers/CMSIS/Include/core_cm4.h **** 
 603:Drivers/CMSIS/Include/core_cm4.h **** #define SCB_SHCSR_SVCALLACT_Pos             7U                                            /*!< SCB 
 604:Drivers/CMSIS/Include/core_cm4.h **** #define SCB_SHCSR_SVCALLACT_Msk            (1UL << SCB_SHCSR_SVCALLACT_Pos)               /*!< SCB 
 605:Drivers/CMSIS/Include/core_cm4.h **** 
 606:Drivers/CMSIS/Include/core_cm4.h **** #define SCB_SHCSR_USGFAULTACT_Pos           3U                                            /*!< SCB 
 607:Drivers/CMSIS/Include/core_cm4.h **** #define SCB_SHCSR_USGFAULTACT_Msk          (1UL << SCB_SHCSR_USGFAULTACT_Pos)             /*!< SCB 
 608:Drivers/CMSIS/Include/core_cm4.h **** 
 609:Drivers/CMSIS/Include/core_cm4.h **** #define SCB_SHCSR_BUSFAULTACT_Pos           1U                                            /*!< SCB 
 610:Drivers/CMSIS/Include/core_cm4.h **** #define SCB_SHCSR_BUSFAULTACT_Msk          (1UL << SCB_SHCSR_BUSFAULTACT_Pos)             /*!< SCB 
 611:Drivers/CMSIS/Include/core_cm4.h **** 
 612:Drivers/CMSIS/Include/core_cm4.h **** #define SCB_SHCSR_MEMFAULTACT_Pos           0U                                            /*!< SCB 
 613:Drivers/CMSIS/Include/core_cm4.h **** #define SCB_SHCSR_MEMFAULTACT_Msk          (1UL /*<< SCB_SHCSR_MEMFAULTACT_Pos*/)         /*!< SCB 
 614:Drivers/CMSIS/Include/core_cm4.h **** 
 615:Drivers/CMSIS/Include/core_cm4.h **** /* SCB Configurable Fault Status Register Definitions */
 616:Drivers/CMSIS/Include/core_cm4.h **** #define SCB_CFSR_USGFAULTSR_Pos            16U                                            /*!< SCB 
 617:Drivers/CMSIS/Include/core_cm4.h **** #define SCB_CFSR_USGFAULTSR_Msk            (0xFFFFUL << SCB_CFSR_USGFAULTSR_Pos)          /*!< SCB 
 618:Drivers/CMSIS/Include/core_cm4.h **** 
 619:Drivers/CMSIS/Include/core_cm4.h **** #define SCB_CFSR_BUSFAULTSR_Pos             8U                                            /*!< SCB 
 620:Drivers/CMSIS/Include/core_cm4.h **** #define SCB_CFSR_BUSFAULTSR_Msk            (0xFFUL << SCB_CFSR_BUSFAULTSR_Pos)            /*!< SCB 
 621:Drivers/CMSIS/Include/core_cm4.h **** 
 622:Drivers/CMSIS/Include/core_cm4.h **** #define SCB_CFSR_MEMFAULTSR_Pos             0U                                            /*!< SCB 
 623:Drivers/CMSIS/Include/core_cm4.h **** #define SCB_CFSR_MEMFAULTSR_Msk            (0xFFUL /*<< SCB_CFSR_MEMFAULTSR_Pos*/)        /*!< SCB 
 624:Drivers/CMSIS/Include/core_cm4.h **** 
 625:Drivers/CMSIS/Include/core_cm4.h **** /* MemManage Fault Status Register (part of SCB Configurable Fault Status Register) */
 626:Drivers/CMSIS/Include/core_cm4.h **** #define SCB_CFSR_MMARVALID_Pos             (SCB_CFSR_MEMFAULTSR_Pos + 7U)                 /*!< SCB 
 627:Drivers/CMSIS/Include/core_cm4.h **** #define SCB_CFSR_MMARVALID_Msk             (1UL << SCB_CFSR_MMARVALID_Pos)                /*!< SCB 
 628:Drivers/CMSIS/Include/core_cm4.h **** 
 629:Drivers/CMSIS/Include/core_cm4.h **** #define SCB_CFSR_MLSPERR_Pos               (SCB_CFSR_MEMFAULTSR_Pos + 5U)                 /*!< SCB 
 630:Drivers/CMSIS/Include/core_cm4.h **** #define SCB_CFSR_MLSPERR_Msk               (1UL << SCB_CFSR_MLSPERR_Pos)                  /*!< SCB 
 631:Drivers/CMSIS/Include/core_cm4.h **** 
 632:Drivers/CMSIS/Include/core_cm4.h **** #define SCB_CFSR_MSTKERR_Pos               (SCB_CFSR_MEMFAULTSR_Pos + 4U)                 /*!< SCB 
 633:Drivers/CMSIS/Include/core_cm4.h **** #define SCB_CFSR_MSTKERR_Msk               (1UL << SCB_CFSR_MSTKERR_Pos)                  /*!< SCB 
 634:Drivers/CMSIS/Include/core_cm4.h **** 
 635:Drivers/CMSIS/Include/core_cm4.h **** #define SCB_CFSR_MUNSTKERR_Pos             (SCB_CFSR_MEMFAULTSR_Pos + 3U)                 /*!< SCB 
 636:Drivers/CMSIS/Include/core_cm4.h **** #define SCB_CFSR_MUNSTKERR_Msk             (1UL << SCB_CFSR_MUNSTKERR_Pos)                /*!< SCB 
 637:Drivers/CMSIS/Include/core_cm4.h **** 
 638:Drivers/CMSIS/Include/core_cm4.h **** #define SCB_CFSR_DACCVIOL_Pos              (SCB_CFSR_MEMFAULTSR_Pos + 1U)                 /*!< SCB 
 639:Drivers/CMSIS/Include/core_cm4.h **** #define SCB_CFSR_DACCVIOL_Msk              (1UL << SCB_CFSR_DACCVIOL_Pos)                 /*!< SCB 
 640:Drivers/CMSIS/Include/core_cm4.h **** 
 641:Drivers/CMSIS/Include/core_cm4.h **** #define SCB_CFSR_IACCVIOL_Pos              (SCB_CFSR_MEMFAULTSR_Pos + 0U)                 /*!< SCB 
 642:Drivers/CMSIS/Include/core_cm4.h **** #define SCB_CFSR_IACCVIOL_Msk              (1UL /*<< SCB_CFSR_IACCVIOL_Pos*/)             /*!< SCB 
 643:Drivers/CMSIS/Include/core_cm4.h **** 
 644:Drivers/CMSIS/Include/core_cm4.h **** /* BusFault Status Register (part of SCB Configurable Fault Status Register) */
 645:Drivers/CMSIS/Include/core_cm4.h **** #define SCB_CFSR_BFARVALID_Pos            (SCB_CFSR_BUSFAULTSR_Pos + 7U)                  /*!< SCB 
 646:Drivers/CMSIS/Include/core_cm4.h **** #define SCB_CFSR_BFARVALID_Msk            (1UL << SCB_CFSR_BFARVALID_Pos)                 /*!< SCB 
 647:Drivers/CMSIS/Include/core_cm4.h **** 
 648:Drivers/CMSIS/Include/core_cm4.h **** #define SCB_CFSR_LSPERR_Pos               (SCB_CFSR_BUSFAULTSR_Pos + 5U)                  /*!< SCB 
 649:Drivers/CMSIS/Include/core_cm4.h **** #define SCB_CFSR_LSPERR_Msk               (1UL << SCB_CFSR_LSPERR_Pos)                    /*!< SCB 
 650:Drivers/CMSIS/Include/core_cm4.h **** 
 651:Drivers/CMSIS/Include/core_cm4.h **** #define SCB_CFSR_STKERR_Pos               (SCB_CFSR_BUSFAULTSR_Pos + 4U)                  /*!< SCB 
ARM GAS  /tmp/cc8sKhx5.s 			page 54


 652:Drivers/CMSIS/Include/core_cm4.h **** #define SCB_CFSR_STKERR_Msk               (1UL << SCB_CFSR_STKERR_Pos)                    /*!< SCB 
 653:Drivers/CMSIS/Include/core_cm4.h **** 
 654:Drivers/CMSIS/Include/core_cm4.h **** #define SCB_CFSR_UNSTKERR_Pos             (SCB_CFSR_BUSFAULTSR_Pos + 3U)                  /*!< SCB 
 655:Drivers/CMSIS/Include/core_cm4.h **** #define SCB_CFSR_UNSTKERR_Msk             (1UL << SCB_CFSR_UNSTKERR_Pos)                  /*!< SCB 
 656:Drivers/CMSIS/Include/core_cm4.h **** 
 657:Drivers/CMSIS/Include/core_cm4.h **** #define SCB_CFSR_IMPRECISERR_Pos          (SCB_CFSR_BUSFAULTSR_Pos + 2U)                  /*!< SCB 
 658:Drivers/CMSIS/Include/core_cm4.h **** #define SCB_CFSR_IMPRECISERR_Msk          (1UL << SCB_CFSR_IMPRECISERR_Pos)               /*!< SCB 
 659:Drivers/CMSIS/Include/core_cm4.h **** 
 660:Drivers/CMSIS/Include/core_cm4.h **** #define SCB_CFSR_PRECISERR_Pos            (SCB_CFSR_BUSFAULTSR_Pos + 1U)                  /*!< SCB 
 661:Drivers/CMSIS/Include/core_cm4.h **** #define SCB_CFSR_PRECISERR_Msk            (1UL << SCB_CFSR_PRECISERR_Pos)                 /*!< SCB 
 662:Drivers/CMSIS/Include/core_cm4.h **** 
 663:Drivers/CMSIS/Include/core_cm4.h **** #define SCB_CFSR_IBUSERR_Pos              (SCB_CFSR_BUSFAULTSR_Pos + 0U)                  /*!< SCB 
 664:Drivers/CMSIS/Include/core_cm4.h **** #define SCB_CFSR_IBUSERR_Msk              (1UL << SCB_CFSR_IBUSERR_Pos)                   /*!< SCB 
 665:Drivers/CMSIS/Include/core_cm4.h **** 
 666:Drivers/CMSIS/Include/core_cm4.h **** /* UsageFault Status Register (part of SCB Configurable Fault Status Register) */
 667:Drivers/CMSIS/Include/core_cm4.h **** #define SCB_CFSR_DIVBYZERO_Pos            (SCB_CFSR_USGFAULTSR_Pos + 9U)                  /*!< SCB 
 668:Drivers/CMSIS/Include/core_cm4.h **** #define SCB_CFSR_DIVBYZERO_Msk            (1UL << SCB_CFSR_DIVBYZERO_Pos)                 /*!< SCB 
 669:Drivers/CMSIS/Include/core_cm4.h **** 
 670:Drivers/CMSIS/Include/core_cm4.h **** #define SCB_CFSR_UNALIGNED_Pos            (SCB_CFSR_USGFAULTSR_Pos + 8U)                  /*!< SCB 
 671:Drivers/CMSIS/Include/core_cm4.h **** #define SCB_CFSR_UNALIGNED_Msk            (1UL << SCB_CFSR_UNALIGNED_Pos)                 /*!< SCB 
 672:Drivers/CMSIS/Include/core_cm4.h **** 
 673:Drivers/CMSIS/Include/core_cm4.h **** #define SCB_CFSR_NOCP_Pos                 (SCB_CFSR_USGFAULTSR_Pos + 3U)                  /*!< SCB 
 674:Drivers/CMSIS/Include/core_cm4.h **** #define SCB_CFSR_NOCP_Msk                 (1UL << SCB_CFSR_NOCP_Pos)                      /*!< SCB 
 675:Drivers/CMSIS/Include/core_cm4.h **** 
 676:Drivers/CMSIS/Include/core_cm4.h **** #define SCB_CFSR_INVPC_Pos                (SCB_CFSR_USGFAULTSR_Pos + 2U)                  /*!< SCB 
 677:Drivers/CMSIS/Include/core_cm4.h **** #define SCB_CFSR_INVPC_Msk                (1UL << SCB_CFSR_INVPC_Pos)                     /*!< SCB 
 678:Drivers/CMSIS/Include/core_cm4.h **** 
 679:Drivers/CMSIS/Include/core_cm4.h **** #define SCB_CFSR_INVSTATE_Pos             (SCB_CFSR_USGFAULTSR_Pos + 1U)                  /*!< SCB 
 680:Drivers/CMSIS/Include/core_cm4.h **** #define SCB_CFSR_INVSTATE_Msk             (1UL << SCB_CFSR_INVSTATE_Pos)                  /*!< SCB 
 681:Drivers/CMSIS/Include/core_cm4.h **** 
 682:Drivers/CMSIS/Include/core_cm4.h **** #define SCB_CFSR_UNDEFINSTR_Pos           (SCB_CFSR_USGFAULTSR_Pos + 0U)                  /*!< SCB 
 683:Drivers/CMSIS/Include/core_cm4.h **** #define SCB_CFSR_UNDEFINSTR_Msk           (1UL << SCB_CFSR_UNDEFINSTR_Pos)                /*!< SCB 
 684:Drivers/CMSIS/Include/core_cm4.h **** 
 685:Drivers/CMSIS/Include/core_cm4.h **** /* SCB Hard Fault Status Register Definitions */
 686:Drivers/CMSIS/Include/core_cm4.h **** #define SCB_HFSR_DEBUGEVT_Pos              31U                                            /*!< SCB 
 687:Drivers/CMSIS/Include/core_cm4.h **** #define SCB_HFSR_DEBUGEVT_Msk              (1UL << SCB_HFSR_DEBUGEVT_Pos)                 /*!< SCB 
 688:Drivers/CMSIS/Include/core_cm4.h **** 
 689:Drivers/CMSIS/Include/core_cm4.h **** #define SCB_HFSR_FORCED_Pos                30U                                            /*!< SCB 
 690:Drivers/CMSIS/Include/core_cm4.h **** #define SCB_HFSR_FORCED_Msk                (1UL << SCB_HFSR_FORCED_Pos)                   /*!< SCB 
 691:Drivers/CMSIS/Include/core_cm4.h **** 
 692:Drivers/CMSIS/Include/core_cm4.h **** #define SCB_HFSR_VECTTBL_Pos                1U                                            /*!< SCB 
 693:Drivers/CMSIS/Include/core_cm4.h **** #define SCB_HFSR_VECTTBL_Msk               (1UL << SCB_HFSR_VECTTBL_Pos)                  /*!< SCB 
 694:Drivers/CMSIS/Include/core_cm4.h **** 
 695:Drivers/CMSIS/Include/core_cm4.h **** /* SCB Debug Fault Status Register Definitions */
 696:Drivers/CMSIS/Include/core_cm4.h **** #define SCB_DFSR_EXTERNAL_Pos               4U                                            /*!< SCB 
 697:Drivers/CMSIS/Include/core_cm4.h **** #define SCB_DFSR_EXTERNAL_Msk              (1UL << SCB_DFSR_EXTERNAL_Pos)                 /*!< SCB 
 698:Drivers/CMSIS/Include/core_cm4.h **** 
 699:Drivers/CMSIS/Include/core_cm4.h **** #define SCB_DFSR_VCATCH_Pos                 3U                                            /*!< SCB 
 700:Drivers/CMSIS/Include/core_cm4.h **** #define SCB_DFSR_VCATCH_Msk                (1UL << SCB_DFSR_VCATCH_Pos)                   /*!< SCB 
 701:Drivers/CMSIS/Include/core_cm4.h **** 
 702:Drivers/CMSIS/Include/core_cm4.h **** #define SCB_DFSR_DWTTRAP_Pos                2U                                            /*!< SCB 
 703:Drivers/CMSIS/Include/core_cm4.h **** #define SCB_DFSR_DWTTRAP_Msk               (1UL << SCB_DFSR_DWTTRAP_Pos)                  /*!< SCB 
 704:Drivers/CMSIS/Include/core_cm4.h **** 
 705:Drivers/CMSIS/Include/core_cm4.h **** #define SCB_DFSR_BKPT_Pos                   1U                                            /*!< SCB 
 706:Drivers/CMSIS/Include/core_cm4.h **** #define SCB_DFSR_BKPT_Msk                  (1UL << SCB_DFSR_BKPT_Pos)                     /*!< SCB 
 707:Drivers/CMSIS/Include/core_cm4.h **** 
 708:Drivers/CMSIS/Include/core_cm4.h **** #define SCB_DFSR_HALTED_Pos                 0U                                            /*!< SCB 
ARM GAS  /tmp/cc8sKhx5.s 			page 55


 709:Drivers/CMSIS/Include/core_cm4.h **** #define SCB_DFSR_HALTED_Msk                (1UL /*<< SCB_DFSR_HALTED_Pos*/)               /*!< SCB 
 710:Drivers/CMSIS/Include/core_cm4.h **** 
 711:Drivers/CMSIS/Include/core_cm4.h **** /*@} end of group CMSIS_SCB */
 712:Drivers/CMSIS/Include/core_cm4.h **** 
 713:Drivers/CMSIS/Include/core_cm4.h **** 
 714:Drivers/CMSIS/Include/core_cm4.h **** /**
 715:Drivers/CMSIS/Include/core_cm4.h ****   \ingroup  CMSIS_core_register
 716:Drivers/CMSIS/Include/core_cm4.h ****   \defgroup CMSIS_SCnSCB System Controls not in SCB (SCnSCB)
 717:Drivers/CMSIS/Include/core_cm4.h ****   \brief    Type definitions for the System Control and ID Register not in the SCB
 718:Drivers/CMSIS/Include/core_cm4.h ****   @{
 719:Drivers/CMSIS/Include/core_cm4.h ****  */
 720:Drivers/CMSIS/Include/core_cm4.h **** 
 721:Drivers/CMSIS/Include/core_cm4.h **** /**
 722:Drivers/CMSIS/Include/core_cm4.h ****   \brief  Structure type to access the System Control and ID Register not in the SCB.
 723:Drivers/CMSIS/Include/core_cm4.h ****  */
 724:Drivers/CMSIS/Include/core_cm4.h **** typedef struct
 725:Drivers/CMSIS/Include/core_cm4.h **** {
 726:Drivers/CMSIS/Include/core_cm4.h ****         uint32_t RESERVED0[1U];
 727:Drivers/CMSIS/Include/core_cm4.h ****   __IM  uint32_t ICTR;                   /*!< Offset: 0x004 (R/ )  Interrupt Controller Type Regist
 728:Drivers/CMSIS/Include/core_cm4.h ****   __IOM uint32_t ACTLR;                  /*!< Offset: 0x008 (R/W)  Auxiliary Control Register */
 729:Drivers/CMSIS/Include/core_cm4.h **** } SCnSCB_Type;
 730:Drivers/CMSIS/Include/core_cm4.h **** 
 731:Drivers/CMSIS/Include/core_cm4.h **** /* Interrupt Controller Type Register Definitions */
 732:Drivers/CMSIS/Include/core_cm4.h **** #define SCnSCB_ICTR_INTLINESNUM_Pos         0U                                         /*!< ICTR: I
 733:Drivers/CMSIS/Include/core_cm4.h **** #define SCnSCB_ICTR_INTLINESNUM_Msk        (0xFUL /*<< SCnSCB_ICTR_INTLINESNUM_Pos*/)  /*!< ICTR: I
 734:Drivers/CMSIS/Include/core_cm4.h **** 
 735:Drivers/CMSIS/Include/core_cm4.h **** /* Auxiliary Control Register Definitions */
 736:Drivers/CMSIS/Include/core_cm4.h **** #define SCnSCB_ACTLR_DISOOFP_Pos            9U                                         /*!< ACTLR: 
 737:Drivers/CMSIS/Include/core_cm4.h **** #define SCnSCB_ACTLR_DISOOFP_Msk           (1UL << SCnSCB_ACTLR_DISOOFP_Pos)           /*!< ACTLR: 
 738:Drivers/CMSIS/Include/core_cm4.h **** 
 739:Drivers/CMSIS/Include/core_cm4.h **** #define SCnSCB_ACTLR_DISFPCA_Pos            8U                                         /*!< ACTLR: 
 740:Drivers/CMSIS/Include/core_cm4.h **** #define SCnSCB_ACTLR_DISFPCA_Msk           (1UL << SCnSCB_ACTLR_DISFPCA_Pos)           /*!< ACTLR: 
 741:Drivers/CMSIS/Include/core_cm4.h **** 
 742:Drivers/CMSIS/Include/core_cm4.h **** #define SCnSCB_ACTLR_DISFOLD_Pos            2U                                         /*!< ACTLR: 
 743:Drivers/CMSIS/Include/core_cm4.h **** #define SCnSCB_ACTLR_DISFOLD_Msk           (1UL << SCnSCB_ACTLR_DISFOLD_Pos)           /*!< ACTLR: 
 744:Drivers/CMSIS/Include/core_cm4.h **** 
 745:Drivers/CMSIS/Include/core_cm4.h **** #define SCnSCB_ACTLR_DISDEFWBUF_Pos         1U                                         /*!< ACTLR: 
 746:Drivers/CMSIS/Include/core_cm4.h **** #define SCnSCB_ACTLR_DISDEFWBUF_Msk        (1UL << SCnSCB_ACTLR_DISDEFWBUF_Pos)        /*!< ACTLR: 
 747:Drivers/CMSIS/Include/core_cm4.h **** 
 748:Drivers/CMSIS/Include/core_cm4.h **** #define SCnSCB_ACTLR_DISMCYCINT_Pos         0U                                         /*!< ACTLR: 
 749:Drivers/CMSIS/Include/core_cm4.h **** #define SCnSCB_ACTLR_DISMCYCINT_Msk        (1UL /*<< SCnSCB_ACTLR_DISMCYCINT_Pos*/)    /*!< ACTLR: 
 750:Drivers/CMSIS/Include/core_cm4.h **** 
 751:Drivers/CMSIS/Include/core_cm4.h **** /*@} end of group CMSIS_SCnotSCB */
 752:Drivers/CMSIS/Include/core_cm4.h **** 
 753:Drivers/CMSIS/Include/core_cm4.h **** 
 754:Drivers/CMSIS/Include/core_cm4.h **** /**
 755:Drivers/CMSIS/Include/core_cm4.h ****   \ingroup  CMSIS_core_register
 756:Drivers/CMSIS/Include/core_cm4.h ****   \defgroup CMSIS_SysTick     System Tick Timer (SysTick)
 757:Drivers/CMSIS/Include/core_cm4.h ****   \brief    Type definitions for the System Timer Registers.
 758:Drivers/CMSIS/Include/core_cm4.h ****   @{
 759:Drivers/CMSIS/Include/core_cm4.h ****  */
 760:Drivers/CMSIS/Include/core_cm4.h **** 
 761:Drivers/CMSIS/Include/core_cm4.h **** /**
 762:Drivers/CMSIS/Include/core_cm4.h ****   \brief  Structure type to access the System Timer (SysTick).
 763:Drivers/CMSIS/Include/core_cm4.h ****  */
 764:Drivers/CMSIS/Include/core_cm4.h **** typedef struct
 765:Drivers/CMSIS/Include/core_cm4.h **** {
ARM GAS  /tmp/cc8sKhx5.s 			page 56


 766:Drivers/CMSIS/Include/core_cm4.h ****   __IOM uint32_t CTRL;                   /*!< Offset: 0x000 (R/W)  SysTick Control and Status Regis
 767:Drivers/CMSIS/Include/core_cm4.h ****   __IOM uint32_t LOAD;                   /*!< Offset: 0x004 (R/W)  SysTick Reload Value Register */
 768:Drivers/CMSIS/Include/core_cm4.h ****   __IOM uint32_t VAL;                    /*!< Offset: 0x008 (R/W)  SysTick Current Value Register *
 769:Drivers/CMSIS/Include/core_cm4.h ****   __IM  uint32_t CALIB;                  /*!< Offset: 0x00C (R/ )  SysTick Calibration Register */
 770:Drivers/CMSIS/Include/core_cm4.h **** } SysTick_Type;
 771:Drivers/CMSIS/Include/core_cm4.h **** 
 772:Drivers/CMSIS/Include/core_cm4.h **** /* SysTick Control / Status Register Definitions */
 773:Drivers/CMSIS/Include/core_cm4.h **** #define SysTick_CTRL_COUNTFLAG_Pos         16U                                            /*!< SysT
 774:Drivers/CMSIS/Include/core_cm4.h **** #define SysTick_CTRL_COUNTFLAG_Msk         (1UL << SysTick_CTRL_COUNTFLAG_Pos)            /*!< SysT
 775:Drivers/CMSIS/Include/core_cm4.h **** 
 776:Drivers/CMSIS/Include/core_cm4.h **** #define SysTick_CTRL_CLKSOURCE_Pos          2U                                            /*!< SysT
 777:Drivers/CMSIS/Include/core_cm4.h **** #define SysTick_CTRL_CLKSOURCE_Msk         (1UL << SysTick_CTRL_CLKSOURCE_Pos)            /*!< SysT
 778:Drivers/CMSIS/Include/core_cm4.h **** 
 779:Drivers/CMSIS/Include/core_cm4.h **** #define SysTick_CTRL_TICKINT_Pos            1U                                            /*!< SysT
 780:Drivers/CMSIS/Include/core_cm4.h **** #define SysTick_CTRL_TICKINT_Msk           (1UL << SysTick_CTRL_TICKINT_Pos)              /*!< SysT
 781:Drivers/CMSIS/Include/core_cm4.h **** 
 782:Drivers/CMSIS/Include/core_cm4.h **** #define SysTick_CTRL_ENABLE_Pos             0U                                            /*!< SysT
 783:Drivers/CMSIS/Include/core_cm4.h **** #define SysTick_CTRL_ENABLE_Msk            (1UL /*<< SysTick_CTRL_ENABLE_Pos*/)           /*!< SysT
 784:Drivers/CMSIS/Include/core_cm4.h **** 
 785:Drivers/CMSIS/Include/core_cm4.h **** /* SysTick Reload Register Definitions */
 786:Drivers/CMSIS/Include/core_cm4.h **** #define SysTick_LOAD_RELOAD_Pos             0U                                            /*!< SysT
 787:Drivers/CMSIS/Include/core_cm4.h **** #define SysTick_LOAD_RELOAD_Msk            (0xFFFFFFUL /*<< SysTick_LOAD_RELOAD_Pos*/)    /*!< SysT
 788:Drivers/CMSIS/Include/core_cm4.h **** 
 789:Drivers/CMSIS/Include/core_cm4.h **** /* SysTick Current Register Definitions */
 790:Drivers/CMSIS/Include/core_cm4.h **** #define SysTick_VAL_CURRENT_Pos             0U                                            /*!< SysT
 791:Drivers/CMSIS/Include/core_cm4.h **** #define SysTick_VAL_CURRENT_Msk            (0xFFFFFFUL /*<< SysTick_VAL_CURRENT_Pos*/)    /*!< SysT
 792:Drivers/CMSIS/Include/core_cm4.h **** 
 793:Drivers/CMSIS/Include/core_cm4.h **** /* SysTick Calibration Register Definitions */
 794:Drivers/CMSIS/Include/core_cm4.h **** #define SysTick_CALIB_NOREF_Pos            31U                                            /*!< SysT
 795:Drivers/CMSIS/Include/core_cm4.h **** #define SysTick_CALIB_NOREF_Msk            (1UL << SysTick_CALIB_NOREF_Pos)               /*!< SysT
 796:Drivers/CMSIS/Include/core_cm4.h **** 
 797:Drivers/CMSIS/Include/core_cm4.h **** #define SysTick_CALIB_SKEW_Pos             30U                                            /*!< SysT
 798:Drivers/CMSIS/Include/core_cm4.h **** #define SysTick_CALIB_SKEW_Msk             (1UL << SysTick_CALIB_SKEW_Pos)                /*!< SysT
 799:Drivers/CMSIS/Include/core_cm4.h **** 
 800:Drivers/CMSIS/Include/core_cm4.h **** #define SysTick_CALIB_TENMS_Pos             0U                                            /*!< SysT
 801:Drivers/CMSIS/Include/core_cm4.h **** #define SysTick_CALIB_TENMS_Msk            (0xFFFFFFUL /*<< SysTick_CALIB_TENMS_Pos*/)    /*!< SysT
 802:Drivers/CMSIS/Include/core_cm4.h **** 
 803:Drivers/CMSIS/Include/core_cm4.h **** /*@} end of group CMSIS_SysTick */
 804:Drivers/CMSIS/Include/core_cm4.h **** 
 805:Drivers/CMSIS/Include/core_cm4.h **** 
 806:Drivers/CMSIS/Include/core_cm4.h **** /**
 807:Drivers/CMSIS/Include/core_cm4.h ****   \ingroup  CMSIS_core_register
 808:Drivers/CMSIS/Include/core_cm4.h ****   \defgroup CMSIS_ITM     Instrumentation Trace Macrocell (ITM)
 809:Drivers/CMSIS/Include/core_cm4.h ****   \brief    Type definitions for the Instrumentation Trace Macrocell (ITM)
 810:Drivers/CMSIS/Include/core_cm4.h ****   @{
 811:Drivers/CMSIS/Include/core_cm4.h ****  */
 812:Drivers/CMSIS/Include/core_cm4.h **** 
 813:Drivers/CMSIS/Include/core_cm4.h **** /**
 814:Drivers/CMSIS/Include/core_cm4.h ****   \brief  Structure type to access the Instrumentation Trace Macrocell Register (ITM).
 815:Drivers/CMSIS/Include/core_cm4.h ****  */
 816:Drivers/CMSIS/Include/core_cm4.h **** typedef struct
 817:Drivers/CMSIS/Include/core_cm4.h **** {
 818:Drivers/CMSIS/Include/core_cm4.h ****   __OM  union
 819:Drivers/CMSIS/Include/core_cm4.h ****   {
 820:Drivers/CMSIS/Include/core_cm4.h ****     __OM  uint8_t    u8;                 /*!< Offset: 0x000 ( /W)  ITM Stimulus Port 8-bit */
 821:Drivers/CMSIS/Include/core_cm4.h ****     __OM  uint16_t   u16;                /*!< Offset: 0x000 ( /W)  ITM Stimulus Port 16-bit */
 822:Drivers/CMSIS/Include/core_cm4.h ****     __OM  uint32_t   u32;                /*!< Offset: 0x000 ( /W)  ITM Stimulus Port 32-bit */
ARM GAS  /tmp/cc8sKhx5.s 			page 57


 823:Drivers/CMSIS/Include/core_cm4.h ****   }  PORT [32U];                         /*!< Offset: 0x000 ( /W)  ITM Stimulus Port Registers */
 824:Drivers/CMSIS/Include/core_cm4.h ****         uint32_t RESERVED0[864U];
 825:Drivers/CMSIS/Include/core_cm4.h ****   __IOM uint32_t TER;                    /*!< Offset: 0xE00 (R/W)  ITM Trace Enable Register */
 826:Drivers/CMSIS/Include/core_cm4.h ****         uint32_t RESERVED1[15U];
 827:Drivers/CMSIS/Include/core_cm4.h ****   __IOM uint32_t TPR;                    /*!< Offset: 0xE40 (R/W)  ITM Trace Privilege Register */
 828:Drivers/CMSIS/Include/core_cm4.h ****         uint32_t RESERVED2[15U];
 829:Drivers/CMSIS/Include/core_cm4.h ****   __IOM uint32_t TCR;                    /*!< Offset: 0xE80 (R/W)  ITM Trace Control Register */
 830:Drivers/CMSIS/Include/core_cm4.h ****         uint32_t RESERVED3[32U];
 831:Drivers/CMSIS/Include/core_cm4.h ****         uint32_t RESERVED4[43U];
 832:Drivers/CMSIS/Include/core_cm4.h ****   __OM  uint32_t LAR;                    /*!< Offset: 0xFB0 ( /W)  ITM Lock Access Register */
 833:Drivers/CMSIS/Include/core_cm4.h ****   __IM  uint32_t LSR;                    /*!< Offset: 0xFB4 (R/ )  ITM Lock Status Register */
 834:Drivers/CMSIS/Include/core_cm4.h ****         uint32_t RESERVED5[6U];
 835:Drivers/CMSIS/Include/core_cm4.h ****   __IM  uint32_t PID4;                   /*!< Offset: 0xFD0 (R/ )  ITM Peripheral Identification Re
 836:Drivers/CMSIS/Include/core_cm4.h ****   __IM  uint32_t PID5;                   /*!< Offset: 0xFD4 (R/ )  ITM Peripheral Identification Re
 837:Drivers/CMSIS/Include/core_cm4.h ****   __IM  uint32_t PID6;                   /*!< Offset: 0xFD8 (R/ )  ITM Peripheral Identification Re
 838:Drivers/CMSIS/Include/core_cm4.h ****   __IM  uint32_t PID7;                   /*!< Offset: 0xFDC (R/ )  ITM Peripheral Identification Re
 839:Drivers/CMSIS/Include/core_cm4.h ****   __IM  uint32_t PID0;                   /*!< Offset: 0xFE0 (R/ )  ITM Peripheral Identification Re
 840:Drivers/CMSIS/Include/core_cm4.h ****   __IM  uint32_t PID1;                   /*!< Offset: 0xFE4 (R/ )  ITM Peripheral Identification Re
 841:Drivers/CMSIS/Include/core_cm4.h ****   __IM  uint32_t PID2;                   /*!< Offset: 0xFE8 (R/ )  ITM Peripheral Identification Re
 842:Drivers/CMSIS/Include/core_cm4.h ****   __IM  uint32_t PID3;                   /*!< Offset: 0xFEC (R/ )  ITM Peripheral Identification Re
 843:Drivers/CMSIS/Include/core_cm4.h ****   __IM  uint32_t CID0;                   /*!< Offset: 0xFF0 (R/ )  ITM Component  Identification Re
 844:Drivers/CMSIS/Include/core_cm4.h ****   __IM  uint32_t CID1;                   /*!< Offset: 0xFF4 (R/ )  ITM Component  Identification Re
 845:Drivers/CMSIS/Include/core_cm4.h ****   __IM  uint32_t CID2;                   /*!< Offset: 0xFF8 (R/ )  ITM Component  Identification Re
 846:Drivers/CMSIS/Include/core_cm4.h ****   __IM  uint32_t CID3;                   /*!< Offset: 0xFFC (R/ )  ITM Component  Identification Re
 847:Drivers/CMSIS/Include/core_cm4.h **** } ITM_Type;
 848:Drivers/CMSIS/Include/core_cm4.h **** 
 849:Drivers/CMSIS/Include/core_cm4.h **** /* ITM Trace Privilege Register Definitions */
 850:Drivers/CMSIS/Include/core_cm4.h **** #define ITM_TPR_PRIVMASK_Pos                0U                                            /*!< ITM 
 851:Drivers/CMSIS/Include/core_cm4.h **** #define ITM_TPR_PRIVMASK_Msk               (0xFFFFFFFFUL /*<< ITM_TPR_PRIVMASK_Pos*/)     /*!< ITM 
 852:Drivers/CMSIS/Include/core_cm4.h **** 
 853:Drivers/CMSIS/Include/core_cm4.h **** /* ITM Trace Control Register Definitions */
 854:Drivers/CMSIS/Include/core_cm4.h **** #define ITM_TCR_BUSY_Pos                   23U                                            /*!< ITM 
 855:Drivers/CMSIS/Include/core_cm4.h **** #define ITM_TCR_BUSY_Msk                   (1UL << ITM_TCR_BUSY_Pos)                      /*!< ITM 
 856:Drivers/CMSIS/Include/core_cm4.h **** 
 857:Drivers/CMSIS/Include/core_cm4.h **** #define ITM_TCR_TraceBusID_Pos             16U                                            /*!< ITM 
 858:Drivers/CMSIS/Include/core_cm4.h **** #define ITM_TCR_TraceBusID_Msk             (0x7FUL << ITM_TCR_TraceBusID_Pos)             /*!< ITM 
 859:Drivers/CMSIS/Include/core_cm4.h **** 
 860:Drivers/CMSIS/Include/core_cm4.h **** #define ITM_TCR_GTSFREQ_Pos                10U                                            /*!< ITM 
 861:Drivers/CMSIS/Include/core_cm4.h **** #define ITM_TCR_GTSFREQ_Msk                (3UL << ITM_TCR_GTSFREQ_Pos)                   /*!< ITM 
 862:Drivers/CMSIS/Include/core_cm4.h **** 
 863:Drivers/CMSIS/Include/core_cm4.h **** #define ITM_TCR_TSPrescale_Pos              8U                                            /*!< ITM 
 864:Drivers/CMSIS/Include/core_cm4.h **** #define ITM_TCR_TSPrescale_Msk             (3UL << ITM_TCR_TSPrescale_Pos)                /*!< ITM 
 865:Drivers/CMSIS/Include/core_cm4.h **** 
 866:Drivers/CMSIS/Include/core_cm4.h **** #define ITM_TCR_SWOENA_Pos                  4U                                            /*!< ITM 
 867:Drivers/CMSIS/Include/core_cm4.h **** #define ITM_TCR_SWOENA_Msk                 (1UL << ITM_TCR_SWOENA_Pos)                    /*!< ITM 
 868:Drivers/CMSIS/Include/core_cm4.h **** 
 869:Drivers/CMSIS/Include/core_cm4.h **** #define ITM_TCR_DWTENA_Pos                  3U                                            /*!< ITM 
 870:Drivers/CMSIS/Include/core_cm4.h **** #define ITM_TCR_DWTENA_Msk                 (1UL << ITM_TCR_DWTENA_Pos)                    /*!< ITM 
 871:Drivers/CMSIS/Include/core_cm4.h **** 
 872:Drivers/CMSIS/Include/core_cm4.h **** #define ITM_TCR_SYNCENA_Pos                 2U                                            /*!< ITM 
 873:Drivers/CMSIS/Include/core_cm4.h **** #define ITM_TCR_SYNCENA_Msk                (1UL << ITM_TCR_SYNCENA_Pos)                   /*!< ITM 
 874:Drivers/CMSIS/Include/core_cm4.h **** 
 875:Drivers/CMSIS/Include/core_cm4.h **** #define ITM_TCR_TSENA_Pos                   1U                                            /*!< ITM 
 876:Drivers/CMSIS/Include/core_cm4.h **** #define ITM_TCR_TSENA_Msk                  (1UL << ITM_TCR_TSENA_Pos)                     /*!< ITM 
 877:Drivers/CMSIS/Include/core_cm4.h **** 
 878:Drivers/CMSIS/Include/core_cm4.h **** #define ITM_TCR_ITMENA_Pos                  0U                                            /*!< ITM 
 879:Drivers/CMSIS/Include/core_cm4.h **** #define ITM_TCR_ITMENA_Msk                 (1UL /*<< ITM_TCR_ITMENA_Pos*/)                /*!< ITM 
ARM GAS  /tmp/cc8sKhx5.s 			page 58


 880:Drivers/CMSIS/Include/core_cm4.h **** 
 881:Drivers/CMSIS/Include/core_cm4.h **** /* ITM Lock Status Register Definitions */
 882:Drivers/CMSIS/Include/core_cm4.h **** #define ITM_LSR_ByteAcc_Pos                 2U                                            /*!< ITM 
 883:Drivers/CMSIS/Include/core_cm4.h **** #define ITM_LSR_ByteAcc_Msk                (1UL << ITM_LSR_ByteAcc_Pos)                   /*!< ITM 
 884:Drivers/CMSIS/Include/core_cm4.h **** 
 885:Drivers/CMSIS/Include/core_cm4.h **** #define ITM_LSR_Access_Pos                  1U                                            /*!< ITM 
 886:Drivers/CMSIS/Include/core_cm4.h **** #define ITM_LSR_Access_Msk                 (1UL << ITM_LSR_Access_Pos)                    /*!< ITM 
 887:Drivers/CMSIS/Include/core_cm4.h **** 
 888:Drivers/CMSIS/Include/core_cm4.h **** #define ITM_LSR_Present_Pos                 0U                                            /*!< ITM 
 889:Drivers/CMSIS/Include/core_cm4.h **** #define ITM_LSR_Present_Msk                (1UL /*<< ITM_LSR_Present_Pos*/)               /*!< ITM 
 890:Drivers/CMSIS/Include/core_cm4.h **** 
 891:Drivers/CMSIS/Include/core_cm4.h **** /*@}*/ /* end of group CMSIS_ITM */
 892:Drivers/CMSIS/Include/core_cm4.h **** 
 893:Drivers/CMSIS/Include/core_cm4.h **** 
 894:Drivers/CMSIS/Include/core_cm4.h **** /**
 895:Drivers/CMSIS/Include/core_cm4.h ****   \ingroup  CMSIS_core_register
 896:Drivers/CMSIS/Include/core_cm4.h ****   \defgroup CMSIS_DWT     Data Watchpoint and Trace (DWT)
 897:Drivers/CMSIS/Include/core_cm4.h ****   \brief    Type definitions for the Data Watchpoint and Trace (DWT)
 898:Drivers/CMSIS/Include/core_cm4.h ****   @{
 899:Drivers/CMSIS/Include/core_cm4.h ****  */
 900:Drivers/CMSIS/Include/core_cm4.h **** 
 901:Drivers/CMSIS/Include/core_cm4.h **** /**
 902:Drivers/CMSIS/Include/core_cm4.h ****   \brief  Structure type to access the Data Watchpoint and Trace Register (DWT).
 903:Drivers/CMSIS/Include/core_cm4.h ****  */
 904:Drivers/CMSIS/Include/core_cm4.h **** typedef struct
 905:Drivers/CMSIS/Include/core_cm4.h **** {
 906:Drivers/CMSIS/Include/core_cm4.h ****   __IOM uint32_t CTRL;                   /*!< Offset: 0x000 (R/W)  Control Register */
 907:Drivers/CMSIS/Include/core_cm4.h ****   __IOM uint32_t CYCCNT;                 /*!< Offset: 0x004 (R/W)  Cycle Count Register */
 908:Drivers/CMSIS/Include/core_cm4.h ****   __IOM uint32_t CPICNT;                 /*!< Offset: 0x008 (R/W)  CPI Count Register */
 909:Drivers/CMSIS/Include/core_cm4.h ****   __IOM uint32_t EXCCNT;                 /*!< Offset: 0x00C (R/W)  Exception Overhead Count Registe
 910:Drivers/CMSIS/Include/core_cm4.h ****   __IOM uint32_t SLEEPCNT;               /*!< Offset: 0x010 (R/W)  Sleep Count Register */
 911:Drivers/CMSIS/Include/core_cm4.h ****   __IOM uint32_t LSUCNT;                 /*!< Offset: 0x014 (R/W)  LSU Count Register */
 912:Drivers/CMSIS/Include/core_cm4.h ****   __IOM uint32_t FOLDCNT;                /*!< Offset: 0x018 (R/W)  Folded-instruction Count Registe
 913:Drivers/CMSIS/Include/core_cm4.h ****   __IM  uint32_t PCSR;                   /*!< Offset: 0x01C (R/ )  Program Counter Sample Register 
 914:Drivers/CMSIS/Include/core_cm4.h ****   __IOM uint32_t COMP0;                  /*!< Offset: 0x020 (R/W)  Comparator Register 0 */
 915:Drivers/CMSIS/Include/core_cm4.h ****   __IOM uint32_t MASK0;                  /*!< Offset: 0x024 (R/W)  Mask Register 0 */
 916:Drivers/CMSIS/Include/core_cm4.h ****   __IOM uint32_t FUNCTION0;              /*!< Offset: 0x028 (R/W)  Function Register 0 */
 917:Drivers/CMSIS/Include/core_cm4.h ****         uint32_t RESERVED0[1U];
 918:Drivers/CMSIS/Include/core_cm4.h ****   __IOM uint32_t COMP1;                  /*!< Offset: 0x030 (R/W)  Comparator Register 1 */
 919:Drivers/CMSIS/Include/core_cm4.h ****   __IOM uint32_t MASK1;                  /*!< Offset: 0x034 (R/W)  Mask Register 1 */
 920:Drivers/CMSIS/Include/core_cm4.h ****   __IOM uint32_t FUNCTION1;              /*!< Offset: 0x038 (R/W)  Function Register 1 */
 921:Drivers/CMSIS/Include/core_cm4.h ****         uint32_t RESERVED1[1U];
 922:Drivers/CMSIS/Include/core_cm4.h ****   __IOM uint32_t COMP2;                  /*!< Offset: 0x040 (R/W)  Comparator Register 2 */
 923:Drivers/CMSIS/Include/core_cm4.h ****   __IOM uint32_t MASK2;                  /*!< Offset: 0x044 (R/W)  Mask Register 2 */
 924:Drivers/CMSIS/Include/core_cm4.h ****   __IOM uint32_t FUNCTION2;              /*!< Offset: 0x048 (R/W)  Function Register 2 */
 925:Drivers/CMSIS/Include/core_cm4.h ****         uint32_t RESERVED2[1U];
 926:Drivers/CMSIS/Include/core_cm4.h ****   __IOM uint32_t COMP3;                  /*!< Offset: 0x050 (R/W)  Comparator Register 3 */
 927:Drivers/CMSIS/Include/core_cm4.h ****   __IOM uint32_t MASK3;                  /*!< Offset: 0x054 (R/W)  Mask Register 3 */
 928:Drivers/CMSIS/Include/core_cm4.h ****   __IOM uint32_t FUNCTION3;              /*!< Offset: 0x058 (R/W)  Function Register 3 */
 929:Drivers/CMSIS/Include/core_cm4.h **** } DWT_Type;
 930:Drivers/CMSIS/Include/core_cm4.h **** 
 931:Drivers/CMSIS/Include/core_cm4.h **** /* DWT Control Register Definitions */
 932:Drivers/CMSIS/Include/core_cm4.h **** #define DWT_CTRL_NUMCOMP_Pos               28U                                         /*!< DWT CTR
 933:Drivers/CMSIS/Include/core_cm4.h **** #define DWT_CTRL_NUMCOMP_Msk               (0xFUL << DWT_CTRL_NUMCOMP_Pos)             /*!< DWT CTR
 934:Drivers/CMSIS/Include/core_cm4.h **** 
 935:Drivers/CMSIS/Include/core_cm4.h **** #define DWT_CTRL_NOTRCPKT_Pos              27U                                         /*!< DWT CTR
 936:Drivers/CMSIS/Include/core_cm4.h **** #define DWT_CTRL_NOTRCPKT_Msk              (0x1UL << DWT_CTRL_NOTRCPKT_Pos)            /*!< DWT CTR
ARM GAS  /tmp/cc8sKhx5.s 			page 59


 937:Drivers/CMSIS/Include/core_cm4.h **** 
 938:Drivers/CMSIS/Include/core_cm4.h **** #define DWT_CTRL_NOEXTTRIG_Pos             26U                                         /*!< DWT CTR
 939:Drivers/CMSIS/Include/core_cm4.h **** #define DWT_CTRL_NOEXTTRIG_Msk             (0x1UL << DWT_CTRL_NOEXTTRIG_Pos)           /*!< DWT CTR
 940:Drivers/CMSIS/Include/core_cm4.h **** 
 941:Drivers/CMSIS/Include/core_cm4.h **** #define DWT_CTRL_NOCYCCNT_Pos              25U                                         /*!< DWT CTR
 942:Drivers/CMSIS/Include/core_cm4.h **** #define DWT_CTRL_NOCYCCNT_Msk              (0x1UL << DWT_CTRL_NOCYCCNT_Pos)            /*!< DWT CTR
 943:Drivers/CMSIS/Include/core_cm4.h **** 
 944:Drivers/CMSIS/Include/core_cm4.h **** #define DWT_CTRL_NOPRFCNT_Pos              24U                                         /*!< DWT CTR
 945:Drivers/CMSIS/Include/core_cm4.h **** #define DWT_CTRL_NOPRFCNT_Msk              (0x1UL << DWT_CTRL_NOPRFCNT_Pos)            /*!< DWT CTR
 946:Drivers/CMSIS/Include/core_cm4.h **** 
 947:Drivers/CMSIS/Include/core_cm4.h **** #define DWT_CTRL_CYCEVTENA_Pos             22U                                         /*!< DWT CTR
 948:Drivers/CMSIS/Include/core_cm4.h **** #define DWT_CTRL_CYCEVTENA_Msk             (0x1UL << DWT_CTRL_CYCEVTENA_Pos)           /*!< DWT CTR
 949:Drivers/CMSIS/Include/core_cm4.h **** 
 950:Drivers/CMSIS/Include/core_cm4.h **** #define DWT_CTRL_FOLDEVTENA_Pos            21U                                         /*!< DWT CTR
 951:Drivers/CMSIS/Include/core_cm4.h **** #define DWT_CTRL_FOLDEVTENA_Msk            (0x1UL << DWT_CTRL_FOLDEVTENA_Pos)          /*!< DWT CTR
 952:Drivers/CMSIS/Include/core_cm4.h **** 
 953:Drivers/CMSIS/Include/core_cm4.h **** #define DWT_CTRL_LSUEVTENA_Pos             20U                                         /*!< DWT CTR
 954:Drivers/CMSIS/Include/core_cm4.h **** #define DWT_CTRL_LSUEVTENA_Msk             (0x1UL << DWT_CTRL_LSUEVTENA_Pos)           /*!< DWT CTR
 955:Drivers/CMSIS/Include/core_cm4.h **** 
 956:Drivers/CMSIS/Include/core_cm4.h **** #define DWT_CTRL_SLEEPEVTENA_Pos           19U                                         /*!< DWT CTR
 957:Drivers/CMSIS/Include/core_cm4.h **** #define DWT_CTRL_SLEEPEVTENA_Msk           (0x1UL << DWT_CTRL_SLEEPEVTENA_Pos)         /*!< DWT CTR
 958:Drivers/CMSIS/Include/core_cm4.h **** 
 959:Drivers/CMSIS/Include/core_cm4.h **** #define DWT_CTRL_EXCEVTENA_Pos             18U                                         /*!< DWT CTR
 960:Drivers/CMSIS/Include/core_cm4.h **** #define DWT_CTRL_EXCEVTENA_Msk             (0x1UL << DWT_CTRL_EXCEVTENA_Pos)           /*!< DWT CTR
 961:Drivers/CMSIS/Include/core_cm4.h **** 
 962:Drivers/CMSIS/Include/core_cm4.h **** #define DWT_CTRL_CPIEVTENA_Pos             17U                                         /*!< DWT CTR
 963:Drivers/CMSIS/Include/core_cm4.h **** #define DWT_CTRL_CPIEVTENA_Msk             (0x1UL << DWT_CTRL_CPIEVTENA_Pos)           /*!< DWT CTR
 964:Drivers/CMSIS/Include/core_cm4.h **** 
 965:Drivers/CMSIS/Include/core_cm4.h **** #define DWT_CTRL_EXCTRCENA_Pos             16U                                         /*!< DWT CTR
 966:Drivers/CMSIS/Include/core_cm4.h **** #define DWT_CTRL_EXCTRCENA_Msk             (0x1UL << DWT_CTRL_EXCTRCENA_Pos)           /*!< DWT CTR
 967:Drivers/CMSIS/Include/core_cm4.h **** 
 968:Drivers/CMSIS/Include/core_cm4.h **** #define DWT_CTRL_PCSAMPLENA_Pos            12U                                         /*!< DWT CTR
 969:Drivers/CMSIS/Include/core_cm4.h **** #define DWT_CTRL_PCSAMPLENA_Msk            (0x1UL << DWT_CTRL_PCSAMPLENA_Pos)          /*!< DWT CTR
 970:Drivers/CMSIS/Include/core_cm4.h **** 
 971:Drivers/CMSIS/Include/core_cm4.h **** #define DWT_CTRL_SYNCTAP_Pos               10U                                         /*!< DWT CTR
 972:Drivers/CMSIS/Include/core_cm4.h **** #define DWT_CTRL_SYNCTAP_Msk               (0x3UL << DWT_CTRL_SYNCTAP_Pos)             /*!< DWT CTR
 973:Drivers/CMSIS/Include/core_cm4.h **** 
 974:Drivers/CMSIS/Include/core_cm4.h **** #define DWT_CTRL_CYCTAP_Pos                 9U                                         /*!< DWT CTR
 975:Drivers/CMSIS/Include/core_cm4.h **** #define DWT_CTRL_CYCTAP_Msk                (0x1UL << DWT_CTRL_CYCTAP_Pos)              /*!< DWT CTR
 976:Drivers/CMSIS/Include/core_cm4.h **** 
 977:Drivers/CMSIS/Include/core_cm4.h **** #define DWT_CTRL_POSTINIT_Pos               5U                                         /*!< DWT CTR
 978:Drivers/CMSIS/Include/core_cm4.h **** #define DWT_CTRL_POSTINIT_Msk              (0xFUL << DWT_CTRL_POSTINIT_Pos)            /*!< DWT CTR
 979:Drivers/CMSIS/Include/core_cm4.h **** 
 980:Drivers/CMSIS/Include/core_cm4.h **** #define DWT_CTRL_POSTPRESET_Pos             1U                                         /*!< DWT CTR
 981:Drivers/CMSIS/Include/core_cm4.h **** #define DWT_CTRL_POSTPRESET_Msk            (0xFUL << DWT_CTRL_POSTPRESET_Pos)          /*!< DWT CTR
 982:Drivers/CMSIS/Include/core_cm4.h **** 
 983:Drivers/CMSIS/Include/core_cm4.h **** #define DWT_CTRL_CYCCNTENA_Pos              0U                                         /*!< DWT CTR
 984:Drivers/CMSIS/Include/core_cm4.h **** #define DWT_CTRL_CYCCNTENA_Msk             (0x1UL /*<< DWT_CTRL_CYCCNTENA_Pos*/)       /*!< DWT CTR
 985:Drivers/CMSIS/Include/core_cm4.h **** 
 986:Drivers/CMSIS/Include/core_cm4.h **** /* DWT CPI Count Register Definitions */
 987:Drivers/CMSIS/Include/core_cm4.h **** #define DWT_CPICNT_CPICNT_Pos               0U                                         /*!< DWT CPI
 988:Drivers/CMSIS/Include/core_cm4.h **** #define DWT_CPICNT_CPICNT_Msk              (0xFFUL /*<< DWT_CPICNT_CPICNT_Pos*/)       /*!< DWT CPI
 989:Drivers/CMSIS/Include/core_cm4.h **** 
 990:Drivers/CMSIS/Include/core_cm4.h **** /* DWT Exception Overhead Count Register Definitions */
 991:Drivers/CMSIS/Include/core_cm4.h **** #define DWT_EXCCNT_EXCCNT_Pos               0U                                         /*!< DWT EXC
 992:Drivers/CMSIS/Include/core_cm4.h **** #define DWT_EXCCNT_EXCCNT_Msk              (0xFFUL /*<< DWT_EXCCNT_EXCCNT_Pos*/)       /*!< DWT EXC
 993:Drivers/CMSIS/Include/core_cm4.h **** 
ARM GAS  /tmp/cc8sKhx5.s 			page 60


 994:Drivers/CMSIS/Include/core_cm4.h **** /* DWT Sleep Count Register Definitions */
 995:Drivers/CMSIS/Include/core_cm4.h **** #define DWT_SLEEPCNT_SLEEPCNT_Pos           0U                                         /*!< DWT SLE
 996:Drivers/CMSIS/Include/core_cm4.h **** #define DWT_SLEEPCNT_SLEEPCNT_Msk          (0xFFUL /*<< DWT_SLEEPCNT_SLEEPCNT_Pos*/)   /*!< DWT SLE
 997:Drivers/CMSIS/Include/core_cm4.h **** 
 998:Drivers/CMSIS/Include/core_cm4.h **** /* DWT LSU Count Register Definitions */
 999:Drivers/CMSIS/Include/core_cm4.h **** #define DWT_LSUCNT_LSUCNT_Pos               0U                                         /*!< DWT LSU
1000:Drivers/CMSIS/Include/core_cm4.h **** #define DWT_LSUCNT_LSUCNT_Msk              (0xFFUL /*<< DWT_LSUCNT_LSUCNT_Pos*/)       /*!< DWT LSU
1001:Drivers/CMSIS/Include/core_cm4.h **** 
1002:Drivers/CMSIS/Include/core_cm4.h **** /* DWT Folded-instruction Count Register Definitions */
1003:Drivers/CMSIS/Include/core_cm4.h **** #define DWT_FOLDCNT_FOLDCNT_Pos             0U                                         /*!< DWT FOL
1004:Drivers/CMSIS/Include/core_cm4.h **** #define DWT_FOLDCNT_FOLDCNT_Msk            (0xFFUL /*<< DWT_FOLDCNT_FOLDCNT_Pos*/)     /*!< DWT FOL
1005:Drivers/CMSIS/Include/core_cm4.h **** 
1006:Drivers/CMSIS/Include/core_cm4.h **** /* DWT Comparator Mask Register Definitions */
1007:Drivers/CMSIS/Include/core_cm4.h **** #define DWT_MASK_MASK_Pos                   0U                                         /*!< DWT MAS
1008:Drivers/CMSIS/Include/core_cm4.h **** #define DWT_MASK_MASK_Msk                  (0x1FUL /*<< DWT_MASK_MASK_Pos*/)           /*!< DWT MAS
1009:Drivers/CMSIS/Include/core_cm4.h **** 
1010:Drivers/CMSIS/Include/core_cm4.h **** /* DWT Comparator Function Register Definitions */
1011:Drivers/CMSIS/Include/core_cm4.h **** #define DWT_FUNCTION_MATCHED_Pos           24U                                         /*!< DWT FUN
1012:Drivers/CMSIS/Include/core_cm4.h **** #define DWT_FUNCTION_MATCHED_Msk           (0x1UL << DWT_FUNCTION_MATCHED_Pos)         /*!< DWT FUN
1013:Drivers/CMSIS/Include/core_cm4.h **** 
1014:Drivers/CMSIS/Include/core_cm4.h **** #define DWT_FUNCTION_DATAVADDR1_Pos        16U                                         /*!< DWT FUN
1015:Drivers/CMSIS/Include/core_cm4.h **** #define DWT_FUNCTION_DATAVADDR1_Msk        (0xFUL << DWT_FUNCTION_DATAVADDR1_Pos)      /*!< DWT FUN
1016:Drivers/CMSIS/Include/core_cm4.h **** 
1017:Drivers/CMSIS/Include/core_cm4.h **** #define DWT_FUNCTION_DATAVADDR0_Pos        12U                                         /*!< DWT FUN
1018:Drivers/CMSIS/Include/core_cm4.h **** #define DWT_FUNCTION_DATAVADDR0_Msk        (0xFUL << DWT_FUNCTION_DATAVADDR0_Pos)      /*!< DWT FUN
1019:Drivers/CMSIS/Include/core_cm4.h **** 
1020:Drivers/CMSIS/Include/core_cm4.h **** #define DWT_FUNCTION_DATAVSIZE_Pos         10U                                         /*!< DWT FUN
1021:Drivers/CMSIS/Include/core_cm4.h **** #define DWT_FUNCTION_DATAVSIZE_Msk         (0x3UL << DWT_FUNCTION_DATAVSIZE_Pos)       /*!< DWT FUN
1022:Drivers/CMSIS/Include/core_cm4.h **** 
1023:Drivers/CMSIS/Include/core_cm4.h **** #define DWT_FUNCTION_LNK1ENA_Pos            9U                                         /*!< DWT FUN
1024:Drivers/CMSIS/Include/core_cm4.h **** #define DWT_FUNCTION_LNK1ENA_Msk           (0x1UL << DWT_FUNCTION_LNK1ENA_Pos)         /*!< DWT FUN
1025:Drivers/CMSIS/Include/core_cm4.h **** 
1026:Drivers/CMSIS/Include/core_cm4.h **** #define DWT_FUNCTION_DATAVMATCH_Pos         8U                                         /*!< DWT FUN
1027:Drivers/CMSIS/Include/core_cm4.h **** #define DWT_FUNCTION_DATAVMATCH_Msk        (0x1UL << DWT_FUNCTION_DATAVMATCH_Pos)      /*!< DWT FUN
1028:Drivers/CMSIS/Include/core_cm4.h **** 
1029:Drivers/CMSIS/Include/core_cm4.h **** #define DWT_FUNCTION_CYCMATCH_Pos           7U                                         /*!< DWT FUN
1030:Drivers/CMSIS/Include/core_cm4.h **** #define DWT_FUNCTION_CYCMATCH_Msk          (0x1UL << DWT_FUNCTION_CYCMATCH_Pos)        /*!< DWT FUN
1031:Drivers/CMSIS/Include/core_cm4.h **** 
1032:Drivers/CMSIS/Include/core_cm4.h **** #define DWT_FUNCTION_EMITRANGE_Pos          5U                                         /*!< DWT FUN
1033:Drivers/CMSIS/Include/core_cm4.h **** #define DWT_FUNCTION_EMITRANGE_Msk         (0x1UL << DWT_FUNCTION_EMITRANGE_Pos)       /*!< DWT FUN
1034:Drivers/CMSIS/Include/core_cm4.h **** 
1035:Drivers/CMSIS/Include/core_cm4.h **** #define DWT_FUNCTION_FUNCTION_Pos           0U                                         /*!< DWT FUN
1036:Drivers/CMSIS/Include/core_cm4.h **** #define DWT_FUNCTION_FUNCTION_Msk          (0xFUL /*<< DWT_FUNCTION_FUNCTION_Pos*/)    /*!< DWT FUN
1037:Drivers/CMSIS/Include/core_cm4.h **** 
1038:Drivers/CMSIS/Include/core_cm4.h **** /*@}*/ /* end of group CMSIS_DWT */
1039:Drivers/CMSIS/Include/core_cm4.h **** 
1040:Drivers/CMSIS/Include/core_cm4.h **** 
1041:Drivers/CMSIS/Include/core_cm4.h **** /**
1042:Drivers/CMSIS/Include/core_cm4.h ****   \ingroup  CMSIS_core_register
1043:Drivers/CMSIS/Include/core_cm4.h ****   \defgroup CMSIS_TPI     Trace Port Interface (TPI)
1044:Drivers/CMSIS/Include/core_cm4.h ****   \brief    Type definitions for the Trace Port Interface (TPI)
1045:Drivers/CMSIS/Include/core_cm4.h ****   @{
1046:Drivers/CMSIS/Include/core_cm4.h ****  */
1047:Drivers/CMSIS/Include/core_cm4.h **** 
1048:Drivers/CMSIS/Include/core_cm4.h **** /**
1049:Drivers/CMSIS/Include/core_cm4.h ****   \brief  Structure type to access the Trace Port Interface Register (TPI).
1050:Drivers/CMSIS/Include/core_cm4.h ****  */
ARM GAS  /tmp/cc8sKhx5.s 			page 61


1051:Drivers/CMSIS/Include/core_cm4.h **** typedef struct
1052:Drivers/CMSIS/Include/core_cm4.h **** {
1053:Drivers/CMSIS/Include/core_cm4.h ****   __IM  uint32_t SSPSR;                  /*!< Offset: 0x000 (R/ )  Supported Parallel Port Size Reg
1054:Drivers/CMSIS/Include/core_cm4.h ****   __IOM uint32_t CSPSR;                  /*!< Offset: 0x004 (R/W)  Current Parallel Port Size Regis
1055:Drivers/CMSIS/Include/core_cm4.h ****         uint32_t RESERVED0[2U];
1056:Drivers/CMSIS/Include/core_cm4.h ****   __IOM uint32_t ACPR;                   /*!< Offset: 0x010 (R/W)  Asynchronous Clock Prescaler Reg
1057:Drivers/CMSIS/Include/core_cm4.h ****         uint32_t RESERVED1[55U];
1058:Drivers/CMSIS/Include/core_cm4.h ****   __IOM uint32_t SPPR;                   /*!< Offset: 0x0F0 (R/W)  Selected Pin Protocol Register *
1059:Drivers/CMSIS/Include/core_cm4.h ****         uint32_t RESERVED2[131U];
1060:Drivers/CMSIS/Include/core_cm4.h ****   __IM  uint32_t FFSR;                   /*!< Offset: 0x300 (R/ )  Formatter and Flush Status Regis
1061:Drivers/CMSIS/Include/core_cm4.h ****   __IOM uint32_t FFCR;                   /*!< Offset: 0x304 (R/W)  Formatter and Flush Control Regi
1062:Drivers/CMSIS/Include/core_cm4.h ****   __IM  uint32_t FSCR;                   /*!< Offset: 0x308 (R/ )  Formatter Synchronization Counte
1063:Drivers/CMSIS/Include/core_cm4.h ****         uint32_t RESERVED3[759U];
1064:Drivers/CMSIS/Include/core_cm4.h ****   __IM  uint32_t TRIGGER;                /*!< Offset: 0xEE8 (R/ )  TRIGGER Register */
1065:Drivers/CMSIS/Include/core_cm4.h ****   __IM  uint32_t FIFO0;                  /*!< Offset: 0xEEC (R/ )  Integration ETM Data */
1066:Drivers/CMSIS/Include/core_cm4.h ****   __IM  uint32_t ITATBCTR2;              /*!< Offset: 0xEF0 (R/ )  ITATBCTR2 */
1067:Drivers/CMSIS/Include/core_cm4.h ****         uint32_t RESERVED4[1U];
1068:Drivers/CMSIS/Include/core_cm4.h ****   __IM  uint32_t ITATBCTR0;              /*!< Offset: 0xEF8 (R/ )  ITATBCTR0 */
1069:Drivers/CMSIS/Include/core_cm4.h ****   __IM  uint32_t FIFO1;                  /*!< Offset: 0xEFC (R/ )  Integration ITM Data */
1070:Drivers/CMSIS/Include/core_cm4.h ****   __IOM uint32_t ITCTRL;                 /*!< Offset: 0xF00 (R/W)  Integration Mode Control */
1071:Drivers/CMSIS/Include/core_cm4.h ****         uint32_t RESERVED5[39U];
1072:Drivers/CMSIS/Include/core_cm4.h ****   __IOM uint32_t CLAIMSET;               /*!< Offset: 0xFA0 (R/W)  Claim tag set */
1073:Drivers/CMSIS/Include/core_cm4.h ****   __IOM uint32_t CLAIMCLR;               /*!< Offset: 0xFA4 (R/W)  Claim tag clear */
1074:Drivers/CMSIS/Include/core_cm4.h ****         uint32_t RESERVED7[8U];
1075:Drivers/CMSIS/Include/core_cm4.h ****   __IM  uint32_t DEVID;                  /*!< Offset: 0xFC8 (R/ )  TPIU_DEVID */
1076:Drivers/CMSIS/Include/core_cm4.h ****   __IM  uint32_t DEVTYPE;                /*!< Offset: 0xFCC (R/ )  TPIU_DEVTYPE */
1077:Drivers/CMSIS/Include/core_cm4.h **** } TPI_Type;
1078:Drivers/CMSIS/Include/core_cm4.h **** 
1079:Drivers/CMSIS/Include/core_cm4.h **** /* TPI Asynchronous Clock Prescaler Register Definitions */
1080:Drivers/CMSIS/Include/core_cm4.h **** #define TPI_ACPR_PRESCALER_Pos              0U                                         /*!< TPI ACP
1081:Drivers/CMSIS/Include/core_cm4.h **** #define TPI_ACPR_PRESCALER_Msk             (0x1FFFUL /*<< TPI_ACPR_PRESCALER_Pos*/)    /*!< TPI ACP
1082:Drivers/CMSIS/Include/core_cm4.h **** 
1083:Drivers/CMSIS/Include/core_cm4.h **** /* TPI Selected Pin Protocol Register Definitions */
1084:Drivers/CMSIS/Include/core_cm4.h **** #define TPI_SPPR_TXMODE_Pos                 0U                                         /*!< TPI SPP
1085:Drivers/CMSIS/Include/core_cm4.h **** #define TPI_SPPR_TXMODE_Msk                (0x3UL /*<< TPI_SPPR_TXMODE_Pos*/)          /*!< TPI SPP
1086:Drivers/CMSIS/Include/core_cm4.h **** 
1087:Drivers/CMSIS/Include/core_cm4.h **** /* TPI Formatter and Flush Status Register Definitions */
1088:Drivers/CMSIS/Include/core_cm4.h **** #define TPI_FFSR_FtNonStop_Pos              3U                                         /*!< TPI FFS
1089:Drivers/CMSIS/Include/core_cm4.h **** #define TPI_FFSR_FtNonStop_Msk             (0x1UL << TPI_FFSR_FtNonStop_Pos)           /*!< TPI FFS
1090:Drivers/CMSIS/Include/core_cm4.h **** 
1091:Drivers/CMSIS/Include/core_cm4.h **** #define TPI_FFSR_TCPresent_Pos              2U                                         /*!< TPI FFS
1092:Drivers/CMSIS/Include/core_cm4.h **** #define TPI_FFSR_TCPresent_Msk             (0x1UL << TPI_FFSR_TCPresent_Pos)           /*!< TPI FFS
1093:Drivers/CMSIS/Include/core_cm4.h **** 
1094:Drivers/CMSIS/Include/core_cm4.h **** #define TPI_FFSR_FtStopped_Pos              1U                                         /*!< TPI FFS
1095:Drivers/CMSIS/Include/core_cm4.h **** #define TPI_FFSR_FtStopped_Msk             (0x1UL << TPI_FFSR_FtStopped_Pos)           /*!< TPI FFS
1096:Drivers/CMSIS/Include/core_cm4.h **** 
1097:Drivers/CMSIS/Include/core_cm4.h **** #define TPI_FFSR_FlInProg_Pos               0U                                         /*!< TPI FFS
1098:Drivers/CMSIS/Include/core_cm4.h **** #define TPI_FFSR_FlInProg_Msk              (0x1UL /*<< TPI_FFSR_FlInProg_Pos*/)        /*!< TPI FFS
1099:Drivers/CMSIS/Include/core_cm4.h **** 
1100:Drivers/CMSIS/Include/core_cm4.h **** /* TPI Formatter and Flush Control Register Definitions */
1101:Drivers/CMSIS/Include/core_cm4.h **** #define TPI_FFCR_TrigIn_Pos                 8U                                         /*!< TPI FFC
1102:Drivers/CMSIS/Include/core_cm4.h **** #define TPI_FFCR_TrigIn_Msk                (0x1UL << TPI_FFCR_TrigIn_Pos)              /*!< TPI FFC
1103:Drivers/CMSIS/Include/core_cm4.h **** 
1104:Drivers/CMSIS/Include/core_cm4.h **** #define TPI_FFCR_EnFCont_Pos                1U                                         /*!< TPI FFC
1105:Drivers/CMSIS/Include/core_cm4.h **** #define TPI_FFCR_EnFCont_Msk               (0x1UL << TPI_FFCR_EnFCont_Pos)             /*!< TPI FFC
1106:Drivers/CMSIS/Include/core_cm4.h **** 
1107:Drivers/CMSIS/Include/core_cm4.h **** /* TPI TRIGGER Register Definitions */
ARM GAS  /tmp/cc8sKhx5.s 			page 62


1108:Drivers/CMSIS/Include/core_cm4.h **** #define TPI_TRIGGER_TRIGGER_Pos             0U                                         /*!< TPI TRI
1109:Drivers/CMSIS/Include/core_cm4.h **** #define TPI_TRIGGER_TRIGGER_Msk            (0x1UL /*<< TPI_TRIGGER_TRIGGER_Pos*/)      /*!< TPI TRI
1110:Drivers/CMSIS/Include/core_cm4.h **** 
1111:Drivers/CMSIS/Include/core_cm4.h **** /* TPI Integration ETM Data Register Definitions (FIFO0) */
1112:Drivers/CMSIS/Include/core_cm4.h **** #define TPI_FIFO0_ITM_ATVALID_Pos          29U                                         /*!< TPI FIF
1113:Drivers/CMSIS/Include/core_cm4.h **** #define TPI_FIFO0_ITM_ATVALID_Msk          (0x1UL << TPI_FIFO0_ITM_ATVALID_Pos)        /*!< TPI FIF
1114:Drivers/CMSIS/Include/core_cm4.h **** 
1115:Drivers/CMSIS/Include/core_cm4.h **** #define TPI_FIFO0_ITM_bytecount_Pos        27U                                         /*!< TPI FIF
1116:Drivers/CMSIS/Include/core_cm4.h **** #define TPI_FIFO0_ITM_bytecount_Msk        (0x3UL << TPI_FIFO0_ITM_bytecount_Pos)      /*!< TPI FIF
1117:Drivers/CMSIS/Include/core_cm4.h **** 
1118:Drivers/CMSIS/Include/core_cm4.h **** #define TPI_FIFO0_ETM_ATVALID_Pos          26U                                         /*!< TPI FIF
1119:Drivers/CMSIS/Include/core_cm4.h **** #define TPI_FIFO0_ETM_ATVALID_Msk          (0x1UL << TPI_FIFO0_ETM_ATVALID_Pos)        /*!< TPI FIF
1120:Drivers/CMSIS/Include/core_cm4.h **** 
1121:Drivers/CMSIS/Include/core_cm4.h **** #define TPI_FIFO0_ETM_bytecount_Pos        24U                                         /*!< TPI FIF
1122:Drivers/CMSIS/Include/core_cm4.h **** #define TPI_FIFO0_ETM_bytecount_Msk        (0x3UL << TPI_FIFO0_ETM_bytecount_Pos)      /*!< TPI FIF
1123:Drivers/CMSIS/Include/core_cm4.h **** 
1124:Drivers/CMSIS/Include/core_cm4.h **** #define TPI_FIFO0_ETM2_Pos                 16U                                         /*!< TPI FIF
1125:Drivers/CMSIS/Include/core_cm4.h **** #define TPI_FIFO0_ETM2_Msk                 (0xFFUL << TPI_FIFO0_ETM2_Pos)              /*!< TPI FIF
1126:Drivers/CMSIS/Include/core_cm4.h **** 
1127:Drivers/CMSIS/Include/core_cm4.h **** #define TPI_FIFO0_ETM1_Pos                  8U                                         /*!< TPI FIF
1128:Drivers/CMSIS/Include/core_cm4.h **** #define TPI_FIFO0_ETM1_Msk                 (0xFFUL << TPI_FIFO0_ETM1_Pos)              /*!< TPI FIF
1129:Drivers/CMSIS/Include/core_cm4.h **** 
1130:Drivers/CMSIS/Include/core_cm4.h **** #define TPI_FIFO0_ETM0_Pos                  0U                                         /*!< TPI FIF
1131:Drivers/CMSIS/Include/core_cm4.h **** #define TPI_FIFO0_ETM0_Msk                 (0xFFUL /*<< TPI_FIFO0_ETM0_Pos*/)          /*!< TPI FIF
1132:Drivers/CMSIS/Include/core_cm4.h **** 
1133:Drivers/CMSIS/Include/core_cm4.h **** /* TPI ITATBCTR2 Register Definitions */
1134:Drivers/CMSIS/Include/core_cm4.h **** #define TPI_ITATBCTR2_ATREADY2_Pos          0U                                         /*!< TPI ITA
1135:Drivers/CMSIS/Include/core_cm4.h **** #define TPI_ITATBCTR2_ATREADY2_Msk         (0x1UL /*<< TPI_ITATBCTR2_ATREADY2_Pos*/)   /*!< TPI ITA
1136:Drivers/CMSIS/Include/core_cm4.h **** 
1137:Drivers/CMSIS/Include/core_cm4.h **** #define TPI_ITATBCTR2_ATREADY1_Pos          0U                                         /*!< TPI ITA
1138:Drivers/CMSIS/Include/core_cm4.h **** #define TPI_ITATBCTR2_ATREADY1_Msk         (0x1UL /*<< TPI_ITATBCTR2_ATREADY1_Pos*/)   /*!< TPI ITA
1139:Drivers/CMSIS/Include/core_cm4.h **** 
1140:Drivers/CMSIS/Include/core_cm4.h **** /* TPI Integration ITM Data Register Definitions (FIFO1) */
1141:Drivers/CMSIS/Include/core_cm4.h **** #define TPI_FIFO1_ITM_ATVALID_Pos          29U                                         /*!< TPI FIF
1142:Drivers/CMSIS/Include/core_cm4.h **** #define TPI_FIFO1_ITM_ATVALID_Msk          (0x1UL << TPI_FIFO1_ITM_ATVALID_Pos)        /*!< TPI FIF
1143:Drivers/CMSIS/Include/core_cm4.h **** 
1144:Drivers/CMSIS/Include/core_cm4.h **** #define TPI_FIFO1_ITM_bytecount_Pos        27U                                         /*!< TPI FIF
1145:Drivers/CMSIS/Include/core_cm4.h **** #define TPI_FIFO1_ITM_bytecount_Msk        (0x3UL << TPI_FIFO1_ITM_bytecount_Pos)      /*!< TPI FIF
1146:Drivers/CMSIS/Include/core_cm4.h **** 
1147:Drivers/CMSIS/Include/core_cm4.h **** #define TPI_FIFO1_ETM_ATVALID_Pos          26U                                         /*!< TPI FIF
1148:Drivers/CMSIS/Include/core_cm4.h **** #define TPI_FIFO1_ETM_ATVALID_Msk          (0x1UL << TPI_FIFO1_ETM_ATVALID_Pos)        /*!< TPI FIF
1149:Drivers/CMSIS/Include/core_cm4.h **** 
1150:Drivers/CMSIS/Include/core_cm4.h **** #define TPI_FIFO1_ETM_bytecount_Pos        24U                                         /*!< TPI FIF
1151:Drivers/CMSIS/Include/core_cm4.h **** #define TPI_FIFO1_ETM_bytecount_Msk        (0x3UL << TPI_FIFO1_ETM_bytecount_Pos)      /*!< TPI FIF
1152:Drivers/CMSIS/Include/core_cm4.h **** 
1153:Drivers/CMSIS/Include/core_cm4.h **** #define TPI_FIFO1_ITM2_Pos                 16U                                         /*!< TPI FIF
1154:Drivers/CMSIS/Include/core_cm4.h **** #define TPI_FIFO1_ITM2_Msk                 (0xFFUL << TPI_FIFO1_ITM2_Pos)              /*!< TPI FIF
1155:Drivers/CMSIS/Include/core_cm4.h **** 
1156:Drivers/CMSIS/Include/core_cm4.h **** #define TPI_FIFO1_ITM1_Pos                  8U                                         /*!< TPI FIF
1157:Drivers/CMSIS/Include/core_cm4.h **** #define TPI_FIFO1_ITM1_Msk                 (0xFFUL << TPI_FIFO1_ITM1_Pos)              /*!< TPI FIF
1158:Drivers/CMSIS/Include/core_cm4.h **** 
1159:Drivers/CMSIS/Include/core_cm4.h **** #define TPI_FIFO1_ITM0_Pos                  0U                                         /*!< TPI FIF
1160:Drivers/CMSIS/Include/core_cm4.h **** #define TPI_FIFO1_ITM0_Msk                 (0xFFUL /*<< TPI_FIFO1_ITM0_Pos*/)          /*!< TPI FIF
1161:Drivers/CMSIS/Include/core_cm4.h **** 
1162:Drivers/CMSIS/Include/core_cm4.h **** /* TPI ITATBCTR0 Register Definitions */
1163:Drivers/CMSIS/Include/core_cm4.h **** #define TPI_ITATBCTR0_ATREADY2_Pos          0U                                         /*!< TPI ITA
1164:Drivers/CMSIS/Include/core_cm4.h **** #define TPI_ITATBCTR0_ATREADY2_Msk         (0x1UL /*<< TPI_ITATBCTR0_ATREADY2_Pos*/)   /*!< TPI ITA
ARM GAS  /tmp/cc8sKhx5.s 			page 63


1165:Drivers/CMSIS/Include/core_cm4.h **** 
1166:Drivers/CMSIS/Include/core_cm4.h **** #define TPI_ITATBCTR0_ATREADY1_Pos          0U                                         /*!< TPI ITA
1167:Drivers/CMSIS/Include/core_cm4.h **** #define TPI_ITATBCTR0_ATREADY1_Msk         (0x1UL /*<< TPI_ITATBCTR0_ATREADY1_Pos*/)   /*!< TPI ITA
1168:Drivers/CMSIS/Include/core_cm4.h **** 
1169:Drivers/CMSIS/Include/core_cm4.h **** /* TPI Integration Mode Control Register Definitions */
1170:Drivers/CMSIS/Include/core_cm4.h **** #define TPI_ITCTRL_Mode_Pos                 0U                                         /*!< TPI ITC
1171:Drivers/CMSIS/Include/core_cm4.h **** #define TPI_ITCTRL_Mode_Msk                (0x3UL /*<< TPI_ITCTRL_Mode_Pos*/)          /*!< TPI ITC
1172:Drivers/CMSIS/Include/core_cm4.h **** 
1173:Drivers/CMSIS/Include/core_cm4.h **** /* TPI DEVID Register Definitions */
1174:Drivers/CMSIS/Include/core_cm4.h **** #define TPI_DEVID_NRZVALID_Pos             11U                                         /*!< TPI DEV
1175:Drivers/CMSIS/Include/core_cm4.h **** #define TPI_DEVID_NRZVALID_Msk             (0x1UL << TPI_DEVID_NRZVALID_Pos)           /*!< TPI DEV
1176:Drivers/CMSIS/Include/core_cm4.h **** 
1177:Drivers/CMSIS/Include/core_cm4.h **** #define TPI_DEVID_MANCVALID_Pos            10U                                         /*!< TPI DEV
1178:Drivers/CMSIS/Include/core_cm4.h **** #define TPI_DEVID_MANCVALID_Msk            (0x1UL << TPI_DEVID_MANCVALID_Pos)          /*!< TPI DEV
1179:Drivers/CMSIS/Include/core_cm4.h **** 
1180:Drivers/CMSIS/Include/core_cm4.h **** #define TPI_DEVID_PTINVALID_Pos             9U                                         /*!< TPI DEV
1181:Drivers/CMSIS/Include/core_cm4.h **** #define TPI_DEVID_PTINVALID_Msk            (0x1UL << TPI_DEVID_PTINVALID_Pos)          /*!< TPI DEV
1182:Drivers/CMSIS/Include/core_cm4.h **** 
1183:Drivers/CMSIS/Include/core_cm4.h **** #define TPI_DEVID_MinBufSz_Pos              6U                                         /*!< TPI DEV
1184:Drivers/CMSIS/Include/core_cm4.h **** #define TPI_DEVID_MinBufSz_Msk             (0x7UL << TPI_DEVID_MinBufSz_Pos)           /*!< TPI DEV
1185:Drivers/CMSIS/Include/core_cm4.h **** 
1186:Drivers/CMSIS/Include/core_cm4.h **** #define TPI_DEVID_AsynClkIn_Pos             5U                                         /*!< TPI DEV
1187:Drivers/CMSIS/Include/core_cm4.h **** #define TPI_DEVID_AsynClkIn_Msk            (0x1UL << TPI_DEVID_AsynClkIn_Pos)          /*!< TPI DEV
1188:Drivers/CMSIS/Include/core_cm4.h **** 
1189:Drivers/CMSIS/Include/core_cm4.h **** #define TPI_DEVID_NrTraceInput_Pos          0U                                         /*!< TPI DEV
1190:Drivers/CMSIS/Include/core_cm4.h **** #define TPI_DEVID_NrTraceInput_Msk         (0x1FUL /*<< TPI_DEVID_NrTraceInput_Pos*/)  /*!< TPI DEV
1191:Drivers/CMSIS/Include/core_cm4.h **** 
1192:Drivers/CMSIS/Include/core_cm4.h **** /* TPI DEVTYPE Register Definitions */
1193:Drivers/CMSIS/Include/core_cm4.h **** #define TPI_DEVTYPE_SubType_Pos             4U                                         /*!< TPI DEV
1194:Drivers/CMSIS/Include/core_cm4.h **** #define TPI_DEVTYPE_SubType_Msk            (0xFUL /*<< TPI_DEVTYPE_SubType_Pos*/)      /*!< TPI DEV
1195:Drivers/CMSIS/Include/core_cm4.h **** 
1196:Drivers/CMSIS/Include/core_cm4.h **** #define TPI_DEVTYPE_MajorType_Pos           0U                                         /*!< TPI DEV
1197:Drivers/CMSIS/Include/core_cm4.h **** #define TPI_DEVTYPE_MajorType_Msk          (0xFUL << TPI_DEVTYPE_MajorType_Pos)        /*!< TPI DEV
1198:Drivers/CMSIS/Include/core_cm4.h **** 
1199:Drivers/CMSIS/Include/core_cm4.h **** /*@}*/ /* end of group CMSIS_TPI */
1200:Drivers/CMSIS/Include/core_cm4.h **** 
1201:Drivers/CMSIS/Include/core_cm4.h **** 
1202:Drivers/CMSIS/Include/core_cm4.h **** #if defined (__MPU_PRESENT) && (__MPU_PRESENT == 1U)
1203:Drivers/CMSIS/Include/core_cm4.h **** /**
1204:Drivers/CMSIS/Include/core_cm4.h ****   \ingroup  CMSIS_core_register
1205:Drivers/CMSIS/Include/core_cm4.h ****   \defgroup CMSIS_MPU     Memory Protection Unit (MPU)
1206:Drivers/CMSIS/Include/core_cm4.h ****   \brief    Type definitions for the Memory Protection Unit (MPU)
1207:Drivers/CMSIS/Include/core_cm4.h ****   @{
1208:Drivers/CMSIS/Include/core_cm4.h ****  */
1209:Drivers/CMSIS/Include/core_cm4.h **** 
1210:Drivers/CMSIS/Include/core_cm4.h **** /**
1211:Drivers/CMSIS/Include/core_cm4.h ****   \brief  Structure type to access the Memory Protection Unit (MPU).
1212:Drivers/CMSIS/Include/core_cm4.h ****  */
1213:Drivers/CMSIS/Include/core_cm4.h **** typedef struct
1214:Drivers/CMSIS/Include/core_cm4.h **** {
1215:Drivers/CMSIS/Include/core_cm4.h ****   __IM  uint32_t TYPE;                   /*!< Offset: 0x000 (R/ )  MPU Type Register */
1216:Drivers/CMSIS/Include/core_cm4.h ****   __IOM uint32_t CTRL;                   /*!< Offset: 0x004 (R/W)  MPU Control Register */
1217:Drivers/CMSIS/Include/core_cm4.h ****   __IOM uint32_t RNR;                    /*!< Offset: 0x008 (R/W)  MPU Region RNRber Register */
1218:Drivers/CMSIS/Include/core_cm4.h ****   __IOM uint32_t RBAR;                   /*!< Offset: 0x00C (R/W)  MPU Region Base Address Register
1219:Drivers/CMSIS/Include/core_cm4.h ****   __IOM uint32_t RASR;                   /*!< Offset: 0x010 (R/W)  MPU Region Attribute and Size Re
1220:Drivers/CMSIS/Include/core_cm4.h ****   __IOM uint32_t RBAR_A1;                /*!< Offset: 0x014 (R/W)  MPU Alias 1 Region Base Address 
1221:Drivers/CMSIS/Include/core_cm4.h ****   __IOM uint32_t RASR_A1;                /*!< Offset: 0x018 (R/W)  MPU Alias 1 Region Attribute and
ARM GAS  /tmp/cc8sKhx5.s 			page 64


1222:Drivers/CMSIS/Include/core_cm4.h ****   __IOM uint32_t RBAR_A2;                /*!< Offset: 0x01C (R/W)  MPU Alias 2 Region Base Address 
1223:Drivers/CMSIS/Include/core_cm4.h ****   __IOM uint32_t RASR_A2;                /*!< Offset: 0x020 (R/W)  MPU Alias 2 Region Attribute and
1224:Drivers/CMSIS/Include/core_cm4.h ****   __IOM uint32_t RBAR_A3;                /*!< Offset: 0x024 (R/W)  MPU Alias 3 Region Base Address 
1225:Drivers/CMSIS/Include/core_cm4.h ****   __IOM uint32_t RASR_A3;                /*!< Offset: 0x028 (R/W)  MPU Alias 3 Region Attribute and
1226:Drivers/CMSIS/Include/core_cm4.h **** } MPU_Type;
1227:Drivers/CMSIS/Include/core_cm4.h **** 
1228:Drivers/CMSIS/Include/core_cm4.h **** #define MPU_TYPE_RALIASES                  4U
1229:Drivers/CMSIS/Include/core_cm4.h **** 
1230:Drivers/CMSIS/Include/core_cm4.h **** /* MPU Type Register Definitions */
1231:Drivers/CMSIS/Include/core_cm4.h **** #define MPU_TYPE_IREGION_Pos               16U                                            /*!< MPU 
1232:Drivers/CMSIS/Include/core_cm4.h **** #define MPU_TYPE_IREGION_Msk               (0xFFUL << MPU_TYPE_IREGION_Pos)               /*!< MPU 
1233:Drivers/CMSIS/Include/core_cm4.h **** 
1234:Drivers/CMSIS/Include/core_cm4.h **** #define MPU_TYPE_DREGION_Pos                8U                                            /*!< MPU 
1235:Drivers/CMSIS/Include/core_cm4.h **** #define MPU_TYPE_DREGION_Msk               (0xFFUL << MPU_TYPE_DREGION_Pos)               /*!< MPU 
1236:Drivers/CMSIS/Include/core_cm4.h **** 
1237:Drivers/CMSIS/Include/core_cm4.h **** #define MPU_TYPE_SEPARATE_Pos               0U                                            /*!< MPU 
1238:Drivers/CMSIS/Include/core_cm4.h **** #define MPU_TYPE_SEPARATE_Msk              (1UL /*<< MPU_TYPE_SEPARATE_Pos*/)             /*!< MPU 
1239:Drivers/CMSIS/Include/core_cm4.h **** 
1240:Drivers/CMSIS/Include/core_cm4.h **** /* MPU Control Register Definitions */
1241:Drivers/CMSIS/Include/core_cm4.h **** #define MPU_CTRL_PRIVDEFENA_Pos             2U                                            /*!< MPU 
1242:Drivers/CMSIS/Include/core_cm4.h **** #define MPU_CTRL_PRIVDEFENA_Msk            (1UL << MPU_CTRL_PRIVDEFENA_Pos)               /*!< MPU 
1243:Drivers/CMSIS/Include/core_cm4.h **** 
1244:Drivers/CMSIS/Include/core_cm4.h **** #define MPU_CTRL_HFNMIENA_Pos               1U                                            /*!< MPU 
1245:Drivers/CMSIS/Include/core_cm4.h **** #define MPU_CTRL_HFNMIENA_Msk              (1UL << MPU_CTRL_HFNMIENA_Pos)                 /*!< MPU 
1246:Drivers/CMSIS/Include/core_cm4.h **** 
1247:Drivers/CMSIS/Include/core_cm4.h **** #define MPU_CTRL_ENABLE_Pos                 0U                                            /*!< MPU 
1248:Drivers/CMSIS/Include/core_cm4.h **** #define MPU_CTRL_ENABLE_Msk                (1UL /*<< MPU_CTRL_ENABLE_Pos*/)               /*!< MPU 
1249:Drivers/CMSIS/Include/core_cm4.h **** 
1250:Drivers/CMSIS/Include/core_cm4.h **** /* MPU Region Number Register Definitions */
1251:Drivers/CMSIS/Include/core_cm4.h **** #define MPU_RNR_REGION_Pos                  0U                                            /*!< MPU 
1252:Drivers/CMSIS/Include/core_cm4.h **** #define MPU_RNR_REGION_Msk                 (0xFFUL /*<< MPU_RNR_REGION_Pos*/)             /*!< MPU 
1253:Drivers/CMSIS/Include/core_cm4.h **** 
1254:Drivers/CMSIS/Include/core_cm4.h **** /* MPU Region Base Address Register Definitions */
1255:Drivers/CMSIS/Include/core_cm4.h **** #define MPU_RBAR_ADDR_Pos                   5U                                            /*!< MPU 
1256:Drivers/CMSIS/Include/core_cm4.h **** #define MPU_RBAR_ADDR_Msk                  (0x7FFFFFFUL << MPU_RBAR_ADDR_Pos)             /*!< MPU 
1257:Drivers/CMSIS/Include/core_cm4.h **** 
1258:Drivers/CMSIS/Include/core_cm4.h **** #define MPU_RBAR_VALID_Pos                  4U                                            /*!< MPU 
1259:Drivers/CMSIS/Include/core_cm4.h **** #define MPU_RBAR_VALID_Msk                 (1UL << MPU_RBAR_VALID_Pos)                    /*!< MPU 
1260:Drivers/CMSIS/Include/core_cm4.h **** 
1261:Drivers/CMSIS/Include/core_cm4.h **** #define MPU_RBAR_REGION_Pos                 0U                                            /*!< MPU 
1262:Drivers/CMSIS/Include/core_cm4.h **** #define MPU_RBAR_REGION_Msk                (0xFUL /*<< MPU_RBAR_REGION_Pos*/)             /*!< MPU 
1263:Drivers/CMSIS/Include/core_cm4.h **** 
1264:Drivers/CMSIS/Include/core_cm4.h **** /* MPU Region Attribute and Size Register Definitions */
1265:Drivers/CMSIS/Include/core_cm4.h **** #define MPU_RASR_ATTRS_Pos                 16U                                            /*!< MPU 
1266:Drivers/CMSIS/Include/core_cm4.h **** #define MPU_RASR_ATTRS_Msk                 (0xFFFFUL << MPU_RASR_ATTRS_Pos)               /*!< MPU 
1267:Drivers/CMSIS/Include/core_cm4.h **** 
1268:Drivers/CMSIS/Include/core_cm4.h **** #define MPU_RASR_XN_Pos                    28U                                            /*!< MPU 
1269:Drivers/CMSIS/Include/core_cm4.h **** #define MPU_RASR_XN_Msk                    (1UL << MPU_RASR_XN_Pos)                       /*!< MPU 
1270:Drivers/CMSIS/Include/core_cm4.h **** 
1271:Drivers/CMSIS/Include/core_cm4.h **** #define MPU_RASR_AP_Pos                    24U                                            /*!< MPU 
1272:Drivers/CMSIS/Include/core_cm4.h **** #define MPU_RASR_AP_Msk                    (0x7UL << MPU_RASR_AP_Pos)                     /*!< MPU 
1273:Drivers/CMSIS/Include/core_cm4.h **** 
1274:Drivers/CMSIS/Include/core_cm4.h **** #define MPU_RASR_TEX_Pos                   19U                                            /*!< MPU 
1275:Drivers/CMSIS/Include/core_cm4.h **** #define MPU_RASR_TEX_Msk                   (0x7UL << MPU_RASR_TEX_Pos)                    /*!< MPU 
1276:Drivers/CMSIS/Include/core_cm4.h **** 
1277:Drivers/CMSIS/Include/core_cm4.h **** #define MPU_RASR_S_Pos                     18U                                            /*!< MPU 
1278:Drivers/CMSIS/Include/core_cm4.h **** #define MPU_RASR_S_Msk                     (1UL << MPU_RASR_S_Pos)                        /*!< MPU 
ARM GAS  /tmp/cc8sKhx5.s 			page 65


1279:Drivers/CMSIS/Include/core_cm4.h **** 
1280:Drivers/CMSIS/Include/core_cm4.h **** #define MPU_RASR_C_Pos                     17U                                            /*!< MPU 
1281:Drivers/CMSIS/Include/core_cm4.h **** #define MPU_RASR_C_Msk                     (1UL << MPU_RASR_C_Pos)                        /*!< MPU 
1282:Drivers/CMSIS/Include/core_cm4.h **** 
1283:Drivers/CMSIS/Include/core_cm4.h **** #define MPU_RASR_B_Pos                     16U                                            /*!< MPU 
1284:Drivers/CMSIS/Include/core_cm4.h **** #define MPU_RASR_B_Msk                     (1UL << MPU_RASR_B_Pos)                        /*!< MPU 
1285:Drivers/CMSIS/Include/core_cm4.h **** 
1286:Drivers/CMSIS/Include/core_cm4.h **** #define MPU_RASR_SRD_Pos                    8U                                            /*!< MPU 
1287:Drivers/CMSIS/Include/core_cm4.h **** #define MPU_RASR_SRD_Msk                   (0xFFUL << MPU_RASR_SRD_Pos)                   /*!< MPU 
1288:Drivers/CMSIS/Include/core_cm4.h **** 
1289:Drivers/CMSIS/Include/core_cm4.h **** #define MPU_RASR_SIZE_Pos                   1U                                            /*!< MPU 
1290:Drivers/CMSIS/Include/core_cm4.h **** #define MPU_RASR_SIZE_Msk                  (0x1FUL << MPU_RASR_SIZE_Pos)                  /*!< MPU 
1291:Drivers/CMSIS/Include/core_cm4.h **** 
1292:Drivers/CMSIS/Include/core_cm4.h **** #define MPU_RASR_ENABLE_Pos                 0U                                            /*!< MPU 
1293:Drivers/CMSIS/Include/core_cm4.h **** #define MPU_RASR_ENABLE_Msk                (1UL /*<< MPU_RASR_ENABLE_Pos*/)               /*!< MPU 
1294:Drivers/CMSIS/Include/core_cm4.h **** 
1295:Drivers/CMSIS/Include/core_cm4.h **** /*@} end of group CMSIS_MPU */
1296:Drivers/CMSIS/Include/core_cm4.h **** #endif /* defined (__MPU_PRESENT) && (__MPU_PRESENT == 1U) */
1297:Drivers/CMSIS/Include/core_cm4.h **** 
1298:Drivers/CMSIS/Include/core_cm4.h **** 
1299:Drivers/CMSIS/Include/core_cm4.h **** /**
1300:Drivers/CMSIS/Include/core_cm4.h ****   \ingroup  CMSIS_core_register
1301:Drivers/CMSIS/Include/core_cm4.h ****   \defgroup CMSIS_FPU     Floating Point Unit (FPU)
1302:Drivers/CMSIS/Include/core_cm4.h ****   \brief    Type definitions for the Floating Point Unit (FPU)
1303:Drivers/CMSIS/Include/core_cm4.h ****   @{
1304:Drivers/CMSIS/Include/core_cm4.h ****  */
1305:Drivers/CMSIS/Include/core_cm4.h **** 
1306:Drivers/CMSIS/Include/core_cm4.h **** /**
1307:Drivers/CMSIS/Include/core_cm4.h ****   \brief  Structure type to access the Floating Point Unit (FPU).
1308:Drivers/CMSIS/Include/core_cm4.h ****  */
1309:Drivers/CMSIS/Include/core_cm4.h **** typedef struct
1310:Drivers/CMSIS/Include/core_cm4.h **** {
1311:Drivers/CMSIS/Include/core_cm4.h ****         uint32_t RESERVED0[1U];
1312:Drivers/CMSIS/Include/core_cm4.h ****   __IOM uint32_t FPCCR;                  /*!< Offset: 0x004 (R/W)  Floating-Point Context Control R
1313:Drivers/CMSIS/Include/core_cm4.h ****   __IOM uint32_t FPCAR;                  /*!< Offset: 0x008 (R/W)  Floating-Point Context Address R
1314:Drivers/CMSIS/Include/core_cm4.h ****   __IOM uint32_t FPDSCR;                 /*!< Offset: 0x00C (R/W)  Floating-Point Default Status Co
1315:Drivers/CMSIS/Include/core_cm4.h ****   __IM  uint32_t MVFR0;                  /*!< Offset: 0x010 (R/ )  Media and FP Feature Register 0 
1316:Drivers/CMSIS/Include/core_cm4.h ****   __IM  uint32_t MVFR1;                  /*!< Offset: 0x014 (R/ )  Media and FP Feature Register 1 
1317:Drivers/CMSIS/Include/core_cm4.h ****   __IM  uint32_t MVFR2;                  /*!< Offset: 0x018 (R/ )  Media and FP Feature Register 2 
1318:Drivers/CMSIS/Include/core_cm4.h **** } FPU_Type;
1319:Drivers/CMSIS/Include/core_cm4.h **** 
1320:Drivers/CMSIS/Include/core_cm4.h **** /* Floating-Point Context Control Register Definitions */
1321:Drivers/CMSIS/Include/core_cm4.h **** #define FPU_FPCCR_ASPEN_Pos                31U                                            /*!< FPCC
1322:Drivers/CMSIS/Include/core_cm4.h **** #define FPU_FPCCR_ASPEN_Msk                (1UL << FPU_FPCCR_ASPEN_Pos)                   /*!< FPCC
1323:Drivers/CMSIS/Include/core_cm4.h **** 
1324:Drivers/CMSIS/Include/core_cm4.h **** #define FPU_FPCCR_LSPEN_Pos                30U                                            /*!< FPCC
1325:Drivers/CMSIS/Include/core_cm4.h **** #define FPU_FPCCR_LSPEN_Msk                (1UL << FPU_FPCCR_LSPEN_Pos)                   /*!< FPCC
1326:Drivers/CMSIS/Include/core_cm4.h **** 
1327:Drivers/CMSIS/Include/core_cm4.h **** #define FPU_FPCCR_MONRDY_Pos                8U                                            /*!< FPCC
1328:Drivers/CMSIS/Include/core_cm4.h **** #define FPU_FPCCR_MONRDY_Msk               (1UL << FPU_FPCCR_MONRDY_Pos)                  /*!< FPCC
1329:Drivers/CMSIS/Include/core_cm4.h **** 
1330:Drivers/CMSIS/Include/core_cm4.h **** #define FPU_FPCCR_BFRDY_Pos                 6U                                            /*!< FPCC
1331:Drivers/CMSIS/Include/core_cm4.h **** #define FPU_FPCCR_BFRDY_Msk                (1UL << FPU_FPCCR_BFRDY_Pos)                   /*!< FPCC
1332:Drivers/CMSIS/Include/core_cm4.h **** 
1333:Drivers/CMSIS/Include/core_cm4.h **** #define FPU_FPCCR_MMRDY_Pos                 5U                                            /*!< FPCC
1334:Drivers/CMSIS/Include/core_cm4.h **** #define FPU_FPCCR_MMRDY_Msk                (1UL << FPU_FPCCR_MMRDY_Pos)                   /*!< FPCC
1335:Drivers/CMSIS/Include/core_cm4.h **** 
ARM GAS  /tmp/cc8sKhx5.s 			page 66


1336:Drivers/CMSIS/Include/core_cm4.h **** #define FPU_FPCCR_HFRDY_Pos                 4U                                            /*!< FPCC
1337:Drivers/CMSIS/Include/core_cm4.h **** #define FPU_FPCCR_HFRDY_Msk                (1UL << FPU_FPCCR_HFRDY_Pos)                   /*!< FPCC
1338:Drivers/CMSIS/Include/core_cm4.h **** 
1339:Drivers/CMSIS/Include/core_cm4.h **** #define FPU_FPCCR_THREAD_Pos                3U                                            /*!< FPCC
1340:Drivers/CMSIS/Include/core_cm4.h **** #define FPU_FPCCR_THREAD_Msk               (1UL << FPU_FPCCR_THREAD_Pos)                  /*!< FPCC
1341:Drivers/CMSIS/Include/core_cm4.h **** 
1342:Drivers/CMSIS/Include/core_cm4.h **** #define FPU_FPCCR_USER_Pos                  1U                                            /*!< FPCC
1343:Drivers/CMSIS/Include/core_cm4.h **** #define FPU_FPCCR_USER_Msk                 (1UL << FPU_FPCCR_USER_Pos)                    /*!< FPCC
1344:Drivers/CMSIS/Include/core_cm4.h **** 
1345:Drivers/CMSIS/Include/core_cm4.h **** #define FPU_FPCCR_LSPACT_Pos                0U                                            /*!< FPCC
1346:Drivers/CMSIS/Include/core_cm4.h **** #define FPU_FPCCR_LSPACT_Msk               (1UL /*<< FPU_FPCCR_LSPACT_Pos*/)              /*!< FPCC
1347:Drivers/CMSIS/Include/core_cm4.h **** 
1348:Drivers/CMSIS/Include/core_cm4.h **** /* Floating-Point Context Address Register Definitions */
1349:Drivers/CMSIS/Include/core_cm4.h **** #define FPU_FPCAR_ADDRESS_Pos               3U                                            /*!< FPCA
1350:Drivers/CMSIS/Include/core_cm4.h **** #define FPU_FPCAR_ADDRESS_Msk              (0x1FFFFFFFUL << FPU_FPCAR_ADDRESS_Pos)        /*!< FPCA
1351:Drivers/CMSIS/Include/core_cm4.h **** 
