ARM GAS  /tmp/ccM1WDwE.s 			page 1


   1              		.cpu cortex-m4
   2              		.arch armv7e-m
   3              		.fpu fpv4-sp-d16
   4              		.eabi_attribute 27, 1
   5              		.eabi_attribute 28, 1
   6              		.eabi_attribute 20, 1
   7              		.eabi_attribute 21, 1
   8              		.eabi_attribute 23, 3
   9              		.eabi_attribute 24, 1
  10              		.eabi_attribute 25, 1
  11              		.eabi_attribute 26, 1
  12              		.eabi_attribute 30, 2
  13              		.eabi_attribute 34, 1
  14              		.eabi_attribute 18, 4
  15              		.file	"main.c"
  16              		.text
  17              	.Ltext0:
  18              		.cfi_sections	.debug_frame
  19              		.file 1 "src/main.c"
  20              		.section	.text.startup.main,"ax",%progbits
  21              		.align	1
  22              		.p2align 2,,3
  23              		.global	main
  24              		.syntax unified
  25              		.thumb
  26              		.thumb_func
  28              	main:
  29              	.LFB138:
   1:src/main.c    **** #include "stm32f4xx.h"
   2:src/main.c    **** #include "usb_device.h"
   3:src/main.c    **** #include <SWO_debug.h>
   4:src/main.c    **** #include <graphics.h>
   5:src/main.c    **** #include <led_player.h>
   6:src/main.c    **** #include <audio.h>
   7:src/main.c    **** 
   8:src/main.c    **** void SystemClock_Config(void);
   9:src/main.c    **** 
  10:src/main.c    **** int main(void){
  30              		.loc 1 10 15 view -0
  31              		.cfi_startproc
  32              		@ Volatile: function does not return.
  33              		@ args = 0, pretend = 0, frame = 0
  34              		@ frame_needed = 0, uses_anonymous_args = 0
  11:src/main.c    ****     HAL_Init();
  35              		.loc 1 11 5 view .LVU1
  10:src/main.c    ****     HAL_Init();
  36              		.loc 1 10 15 is_stmt 0 view .LVU2
  37 0000 08B5     		push	{r3, lr}
  38              	.LCFI0:
  39              		.cfi_def_cfa_offset 8
  40              		.cfi_offset 3, -8
  41              		.cfi_offset 14, -4
  42              		.loc 1 11 5 view .LVU3
  43 0002 FFF7FEFF 		bl	HAL_Init
  44              	.LVL0:
  12:src/main.c    ****     SystemClock_Config();
  45              		.loc 1 12 5 is_stmt 1 view .LVU4
ARM GAS  /tmp/ccM1WDwE.s 			page 2


  46 0006 FFF7FEFF 		bl	SystemClock_Config
  47              	.LVL1:
  13:src/main.c    **** 
  14:src/main.c    ****     RCC->AHB1ENR |= RCC_AHB1ENR_GPIOCEN | RCC_AHB1ENR_GPIOHEN | RCC_AHB1ENR_GPIOAEN;
  48              		.loc 1 14 5 view .LVU5
  49              		.loc 1 14 8 is_stmt 0 view .LVU6
  50 000a 0D49     		ldr	r1, .L5
  15:src/main.c    ****     GPIOC->MODER = (GPIOC->MODER & ~GPIO_MODER_MODER13) | (0b01 << GPIO_MODER_MODER13_Pos);
  51              		.loc 1 15 26 view .LVU7
  52 000c 0D4A     		ldr	r2, .L5+4
  14:src/main.c    ****     GPIOC->MODER = (GPIOC->MODER & ~GPIO_MODER_MODER13) | (0b01 << GPIO_MODER_MODER13_Pos);
  53              		.loc 1 14 8 view .LVU8
  54 000e 0B6B     		ldr	r3, [r1, #48]
  14:src/main.c    ****     GPIOC->MODER = (GPIOC->MODER & ~GPIO_MODER_MODER13) | (0b01 << GPIO_MODER_MODER13_Pos);
  55              		.loc 1 14 18 view .LVU9
  56 0010 43F08503 		orr	r3, r3, #133
  57 0014 0B63     		str	r3, [r1, #48]
  58              		.loc 1 15 5 is_stmt 1 view .LVU10
  59              		.loc 1 15 26 is_stmt 0 view .LVU11
  60 0016 1368     		ldr	r3, [r2]
  61              		.loc 1 15 34 view .LVU12
  62 0018 23F04063 		bic	r3, r3, #201326592
  63              		.loc 1 15 57 view .LVU13
  64 001c 43F08063 		orr	r3, r3, #67108864
  65              		.loc 1 15 18 view .LVU14
  66 0020 1360     		str	r3, [r2]
  16:src/main.c    **** 
  17:src/main.c    ****     MX_USB_DEVICE_Init();
  67              		.loc 1 17 5 is_stmt 1 view .LVU15
  68 0022 FFF7FEFF 		bl	MX_USB_DEVICE_Init
  69              	.LVL2:
  18:src/main.c    ****     led_player_init();
  70              		.loc 1 18 5 view .LVU16
  71 0026 FFF7FEFF 		bl	led_player_init
  72              	.LVL3:
  19:src/main.c    ****     audio_init();
  73              		.loc 1 19 5 view .LVU17
  74 002a FFF7FEFF 		bl	audio_init
  75              	.LVL4:
  20:src/main.c    ****     graphics_init();
  76              		.loc 1 20 5 view .LVU18
  77 002e FFF7FEFF 		bl	graphics_init
  78              	.LVL5:
  79              	.L2:
  21:src/main.c    **** 
  22:src/main.c    ****     while(1){
  80              		.loc 1 22 5 view .LVU19
  23:src/main.c    ****         audio_update();
  81              		.loc 1 23 9 view .LVU20
  82 0032 FFF7FEFF 		bl	audio_update
  83              	.LVL6:
  24:src/main.c    ****         led_player_update();
  84              		.loc 1 24 9 view .LVU21
  85 0036 FFF7FEFF 		bl	led_player_update
  86              	.LVL7:
  25:src/main.c    ****         graphics_update();
  87              		.loc 1 25 9 discriminator 1 view .LVU22
ARM GAS  /tmp/ccM1WDwE.s 			page 3


  88 003a FFF7FEFF 		bl	graphics_update
  89              	.LVL8:
  22:src/main.c    ****         audio_update();
  90              		.loc 1 22 10 view .LVU23
  91 003e F8E7     		b	.L2
  92              	.L6:
  93              		.align	2
  94              	.L5:
  95 0040 00380240 		.word	1073887232
  96 0044 00080240 		.word	1073874944
  97              		.cfi_endproc
  98              	.LFE138:
 100              		.section	.text.USB_MIDI_dout,"ax",%progbits
 101              		.align	1
 102              		.p2align 2,,3
 103              		.global	USB_MIDI_dout
 104              		.syntax unified
 105              		.thumb
 106              		.thumb_func
 108              	USB_MIDI_dout:
 109              	.LVL9:
 110              	.LFB139:
  26:src/main.c    ****     }
  27:src/main.c    **** }
  28:src/main.c    **** 
  29:src/main.c    **** void USB_MIDI_dout(MIDIMesg *data){
 111              		.loc 1 29 35 view -0
 112              		.cfi_startproc
 113              		@ args = 0, pretend = 0, frame = 0
 114              		@ frame_needed = 0, uses_anonymous_args = 0
  30:src/main.c    ****     switch(data->cmd & 0xf0){
 115              		.loc 1 30 5 view .LVU25
  29:src/main.c    ****     switch(data->cmd & 0xf0){
 116              		.loc 1 29 35 is_stmt 0 view .LVU26
 117 0000 10B5     		push	{r4, lr}
 118              	.LCFI1:
 119              		.cfi_def_cfa_offset 8
 120              		.cfi_offset 4, -8
 121              		.cfi_offset 14, -4
  29:src/main.c    ****     switch(data->cmd & 0xf0){
 122              		.loc 1 29 35 view .LVU27
 123 0002 0446     		mov	r4, r0
 124              		.loc 1 30 16 view .LVU28
 125 0004 0078     		ldrb	r0, [r0]	@ zero_extendqisi2
 126              	.LVL10:
 127              		.loc 1 30 16 view .LVU29
 128 0006 00F0F003 		and	r3, r0, #240
 129              		.loc 1 30 5 view .LVU30
 130 000a 902B     		cmp	r3, #144
 131 000c 13D0     		beq	.L8
 132 000e B02B     		cmp	r3, #176
 133 0010 02D0     		beq	.L9
 134 0012 802B     		cmp	r3, #128
 135 0014 1ED0     		beq	.L10
  31:src/main.c    ****         case 0x90:
  32:src/main.c    ****             if(data->arg2 == 0){
  33:src/main.c    ****                 audio_stop_note(data->cmd & 0x0f, data->arg1);
ARM GAS  /tmp/ccM1WDwE.s 			page 4


  34:src/main.c    ****                 led_player_note_off(data->cmd & 0x0f, data->arg1);
  35:src/main.c    ****             }
  36:src/main.c    ****             else {
  37:src/main.c    ****                 audio_play_note(data->cmd & 0x0f, data->arg1, data->arg2);
  38:src/main.c    ****                 led_player_note_on(data->cmd & 0x0f, data->arg1, data->arg2);
  39:src/main.c    ****             }
  40:src/main.c    ****             break;
  41:src/main.c    ****         case 0x80:
  42:src/main.c    ****             audio_stop_note(data->cmd & 0x0f, data->arg1);
  43:src/main.c    ****             led_player_note_off(data->cmd & 0x0f, data->arg1);
  44:src/main.c    ****             break;
  45:src/main.c    ****         case 0xB0:
  46:src/main.c    ****             audio_handle_cc(data->cmd & 0x0f, data->arg1, data->arg2);
  47:src/main.c    ****             led_player_handle_cc(data->cmd & 0x0f, data->arg1, data->arg2);
  48:src/main.c    ****             break;
  49:src/main.c    ****     }
  50:src/main.c    **** }
 136              		.loc 1 50 1 view .LVU31
 137 0016 10BD     		pop	{r4, pc}
 138              	.LVL11:
 139              	.L9:
  46:src/main.c    ****             led_player_handle_cc(data->cmd & 0x0f, data->arg1, data->arg2);
 140              		.loc 1 46 13 is_stmt 1 view .LVU32
 141 0018 A278     		ldrb	r2, [r4, #2]	@ zero_extendqisi2
 142 001a 6178     		ldrb	r1, [r4, #1]	@ zero_extendqisi2
 143 001c 00F00F00 		and	r0, r0, #15
 144 0020 FFF7FEFF 		bl	audio_handle_cc
 145              	.LVL12:
  47:src/main.c    ****             break;
 146              		.loc 1 47 13 view .LVU33
 147 0024 2078     		ldrb	r0, [r4]	@ zero_extendqisi2
 148 0026 A278     		ldrb	r2, [r4, #2]	@ zero_extendqisi2
 149 0028 6178     		ldrb	r1, [r4, #1]	@ zero_extendqisi2
 150 002a 00F00F00 		and	r0, r0, #15
 151              		.loc 1 50 1 is_stmt 0 view .LVU34
 152 002e BDE81040 		pop	{r4, lr}
 153              	.LCFI2:
 154              		.cfi_remember_state
 155              		.cfi_restore 14
 156              		.cfi_restore 4
 157              		.cfi_def_cfa_offset 0
 158              	.LVL13:
  47:src/main.c    ****             break;
 159              		.loc 1 47 13 view .LVU35
 160 0032 FFF7FEBF 		b	led_player_handle_cc
 161              	.LVL14:
 162              	.L8:
 163              	.LCFI3:
 164              		.cfi_restore_state
  32:src/main.c    ****                 audio_stop_note(data->cmd & 0x0f, data->arg1);
 165              		.loc 1 32 13 is_stmt 1 view .LVU36
  32:src/main.c    ****                 audio_stop_note(data->cmd & 0x0f, data->arg1);
 166              		.loc 1 32 20 is_stmt 0 view .LVU37
 167 0036 A278     		ldrb	r2, [r4, #2]	@ zero_extendqisi2
  33:src/main.c    ****                 led_player_note_off(data->cmd & 0x0f, data->arg1);
 168              		.loc 1 33 17 view .LVU38
 169 0038 6178     		ldrb	r1, [r4, #1]	@ zero_extendqisi2
ARM GAS  /tmp/ccM1WDwE.s 			page 5


 170 003a 00F00F00 		and	r0, r0, #15
  32:src/main.c    ****                 audio_stop_note(data->cmd & 0x0f, data->arg1);
 171              		.loc 1 32 15 view .LVU39
 172 003e 6AB9     		cbnz	r2, .L12
 173              	.L15:
  42:src/main.c    ****             led_player_note_off(data->cmd & 0x0f, data->arg1);
 174              		.loc 1 42 13 view .LVU40
 175 0040 FFF7FEFF 		bl	audio_stop_note
 176              	.LVL15:
  43:src/main.c    ****             break;
 177              		.loc 1 43 13 is_stmt 1 view .LVU41
 178 0044 2078     		ldrb	r0, [r4]	@ zero_extendqisi2
 179 0046 6178     		ldrb	r1, [r4, #1]	@ zero_extendqisi2
 180 0048 00F00F00 		and	r0, r0, #15
 181              		.loc 1 50 1 is_stmt 0 view .LVU42
 182 004c BDE81040 		pop	{r4, lr}
 183              	.LCFI4:
 184              		.cfi_remember_state
 185              		.cfi_restore 14
 186              		.cfi_restore 4
 187              		.cfi_def_cfa_offset 0
 188              	.LVL16:
  43:src/main.c    ****             break;
 189              		.loc 1 43 13 view .LVU43
 190 0050 FFF7FEBF 		b	led_player_note_off
 191              	.LVL17:
 192              	.L10:
 193              	.LCFI5:
 194              		.cfi_restore_state
  42:src/main.c    ****             led_player_note_off(data->cmd & 0x0f, data->arg1);
 195              		.loc 1 42 13 is_stmt 1 view .LVU44
 196 0054 6178     		ldrb	r1, [r4, #1]	@ zero_extendqisi2
 197 0056 00F00F00 		and	r0, r0, #15
 198 005a F1E7     		b	.L15
 199              	.L12:
  37:src/main.c    ****                 led_player_note_on(data->cmd & 0x0f, data->arg1, data->arg2);
 200              		.loc 1 37 17 view .LVU45
 201 005c FFF7FEFF 		bl	audio_play_note
 202              	.LVL18:
  38:src/main.c    ****             }
 203              		.loc 1 38 17 view .LVU46
 204 0060 2078     		ldrb	r0, [r4]	@ zero_extendqisi2
 205 0062 A278     		ldrb	r2, [r4, #2]	@ zero_extendqisi2
 206 0064 6178     		ldrb	r1, [r4, #1]	@ zero_extendqisi2
 207 0066 00F00F00 		and	r0, r0, #15
 208              		.loc 1 50 1 is_stmt 0 view .LVU47
 209 006a BDE81040 		pop	{r4, lr}
 210              	.LCFI6:
 211              		.cfi_restore 14
 212              		.cfi_restore 4
 213              		.cfi_def_cfa_offset 0
 214              	.LVL19:
  38:src/main.c    ****             }
 215              		.loc 1 38 17 view .LVU48
 216 006e FFF7FEBF 		b	led_player_note_on
 217              	.LVL20:
 218              		.cfi_endproc
ARM GAS  /tmp/ccM1WDwE.s 			page 6


 219              	.LFE139:
 221 0072 00BF     		.section	.text.MIDI_sysex_decode,"ax",%progbits
 222              		.align	1
 223              		.p2align 2,,3
 224              		.global	MIDI_sysex_decode
 225              		.syntax unified
 226              		.thumb
 227              		.thumb_func
 229              	MIDI_sysex_decode:
 230              	.LVL21:
 231              	.LFB140:
  51:src/main.c    **** 
  52:src/main.c    **** //Unpack the 7 bit values
  53:src/main.c    **** void MIDI_sysex_decode(uint8_t *buf, uint16_t *cursor, uint8_t data){
 232              		.loc 1 53 69 is_stmt 1 view -0
 233              		.cfi_startproc
 234              		@ args = 0, pretend = 0, frame = 0
 235              		@ frame_needed = 0, uses_anonymous_args = 0
  54:src/main.c    ****     for(uint8_t i = 0; i != 7; i++){
 236              		.loc 1 54 5 view .LVU50
 237              	.LBB7:
 238              		.loc 1 54 9 view .LVU51
 239              		.loc 1 54 26 discriminator 1 view .LVU52
 240              	.LBB8:
  55:src/main.c    ****         uint8_t *dest = buf + (*cursor) / 8;
 241              		.loc 1 55 32 is_stmt 0 view .LVU53
 242 0000 0B88     		ldrh	r3, [r1]
 243              		.loc 1 55 9 is_stmt 1 view .LVU54
 244              	.LBE8:
 245              	.LBE7:
  53:src/main.c    ****     for(uint8_t i = 0; i != 7; i++){
 246              		.loc 1 53 69 is_stmt 0 view .LVU55
 247 0002 10B5     		push	{r4, lr}
 248              	.LCFI7:
 249              		.cfi_def_cfa_offset 8
 250              		.cfi_offset 4, -8
 251              		.cfi_offset 14, -4
 252              	.LBB16:
 253              	.LBB9:
 254              		.loc 1 55 41 view .LVU56
 255 0004 4FEAD30E 		lsr	lr, r3, #3
 256              	.LVL22:
  56:src/main.c    ****         uint8_t bit_idx = (*cursor) & 0x07;
 257              		.loc 1 56 9 is_stmt 1 view .LVU57
  57:src/main.c    ****         uint8_t bit = (data >> i) & 0x01;
 258              		.loc 1 57 9 view .LVU58
  58:src/main.c    ****         *dest |= bit << bit_idx;
 259              		.loc 1 58 9 view .LVU59
 260              		.loc 1 58 22 is_stmt 0 view .LVU60
 261 0008 03F0070C 		and	ip, r3, #7
 262              		.loc 1 58 15 view .LVU61
 263 000c 10F80E40 		ldrb	r4, [r0, lr]	@ zero_extendqisi2
 264              		.loc 1 58 22 view .LVU62
 265 0010 02F00103 		and	r3, r2, #1
 266              	.LVL23:
 267              		.loc 1 58 22 view .LVU63
 268 0014 03FA0CF3 		lsl	r3, r3, ip
ARM GAS  /tmp/ccM1WDwE.s 			page 7


 269              		.loc 1 58 15 view .LVU64
 270 0018 2343     		orrs	r3, r3, r4
 271 001a 00F80E30 		strb	r3, [r0, lr]
 272              	.LVL24:
  59:src/main.c    ****         (*cursor)++;
 273              		.loc 1 59 9 is_stmt 1 view .LVU65
 274              		.loc 1 59 18 is_stmt 0 view .LVU66
 275 001e 0B88     		ldrh	r3, [r1]
 276 0020 0133     		adds	r3, r3, #1
 277 0022 9BB2     		uxth	r3, r3
  55:src/main.c    ****         uint8_t bit_idx = (*cursor) & 0x07;
 278              		.loc 1 55 41 view .LVU67
 279 0024 4FEAD30E 		lsr	lr, r3, #3
 280              	.LVL25:
 281              		.loc 1 59 18 view .LVU68
 282 0028 0B80     		strh	r3, [r1]	@ movhi
 283              	.LBE9:
  54:src/main.c    ****         uint8_t *dest = buf + (*cursor) / 8;
 284              		.loc 1 54 33 is_stmt 1 discriminator 3 view .LVU69
 285              	.LVL26:
  54:src/main.c    ****         uint8_t *dest = buf + (*cursor) / 8;
 286              		.loc 1 54 26 discriminator 1 view .LVU70
 287              	.LBB10:
  55:src/main.c    ****         uint8_t bit_idx = (*cursor) & 0x07;
 288              		.loc 1 55 9 view .LVU71
  56:src/main.c    ****         uint8_t bit = (data >> i) & 0x01;
 289              		.loc 1 56 9 view .LVU72
  57:src/main.c    ****         *dest |= bit << bit_idx;
 290              		.loc 1 57 9 view .LVU73
  58:src/main.c    ****         (*cursor)++;
 291              		.loc 1 58 9 view .LVU74
  58:src/main.c    ****         (*cursor)++;
 292              		.loc 1 58 15 is_stmt 0 view .LVU75
 293 002a 10F80E40 		ldrb	r4, [r0, lr]	@ zero_extendqisi2
  58:src/main.c    ****         (*cursor)++;
 294              		.loc 1 58 22 view .LVU76
 295 002e C2F3400C 		ubfx	ip, r2, #1, #1
 296 0032 03F00703 		and	r3, r3, #7
 297              	.LVL27:
  58:src/main.c    ****         (*cursor)++;
 298              		.loc 1 58 22 view .LVU77
 299 0036 0CFA03F3 		lsl	r3, ip, r3
  58:src/main.c    ****         (*cursor)++;
 300              		.loc 1 58 15 view .LVU78
 301 003a 2343     		orrs	r3, r3, r4
 302 003c 00F80E30 		strb	r3, [r0, lr]
 303              	.LVL28:
 304              		.loc 1 59 9 is_stmt 1 view .LVU79
 305              		.loc 1 59 18 is_stmt 0 view .LVU80
 306 0040 0B88     		ldrh	r3, [r1]
 307 0042 0133     		adds	r3, r3, #1
 308 0044 9BB2     		uxth	r3, r3
  55:src/main.c    ****         uint8_t bit_idx = (*cursor) & 0x07;
 309              		.loc 1 55 41 view .LVU81
 310 0046 4FEAD30E 		lsr	lr, r3, #3
 311              	.LVL29:
 312              		.loc 1 59 18 view .LVU82
ARM GAS  /tmp/ccM1WDwE.s 			page 8


 313 004a 0B80     		strh	r3, [r1]	@ movhi
 314              	.LBE10:
  54:src/main.c    ****         uint8_t *dest = buf + (*cursor) / 8;
 315              		.loc 1 54 33 is_stmt 1 discriminator 3 view .LVU83
 316              	.LVL30:
  54:src/main.c    ****         uint8_t *dest = buf + (*cursor) / 8;
 317              		.loc 1 54 26 discriminator 1 view .LVU84
 318              	.LBB11:
  55:src/main.c    ****         uint8_t bit_idx = (*cursor) & 0x07;
 319              		.loc 1 55 9 view .LVU85
  56:src/main.c    ****         uint8_t bit = (data >> i) & 0x01;
 320              		.loc 1 56 9 view .LVU86
  57:src/main.c    ****         *dest |= bit << bit_idx;
 321              		.loc 1 57 9 view .LVU87
  58:src/main.c    ****         (*cursor)++;
 322              		.loc 1 58 9 view .LVU88
  58:src/main.c    ****         (*cursor)++;
 323              		.loc 1 58 15 is_stmt 0 view .LVU89
 324 004c 10F80E40 		ldrb	r4, [r0, lr]	@ zero_extendqisi2
  58:src/main.c    ****         (*cursor)++;
 325              		.loc 1 58 22 view .LVU90
 326 0050 C2F3800C 		ubfx	ip, r2, #2, #1
 327 0054 03F00703 		and	r3, r3, #7
 328              	.LVL31:
  58:src/main.c    ****         (*cursor)++;
 329              		.loc 1 58 22 view .LVU91
 330 0058 0CFA03F3 		lsl	r3, ip, r3
  58:src/main.c    ****         (*cursor)++;
 331              		.loc 1 58 15 view .LVU92
 332 005c 2343     		orrs	r3, r3, r4
 333 005e 00F80E30 		strb	r3, [r0, lr]
 334              	.LVL32:
 335              		.loc 1 59 9 is_stmt 1 view .LVU93
 336              		.loc 1 59 18 is_stmt 0 view .LVU94
 337 0062 0B88     		ldrh	r3, [r1]
 338 0064 0133     		adds	r3, r3, #1
 339 0066 9BB2     		uxth	r3, r3
  55:src/main.c    ****         uint8_t bit_idx = (*cursor) & 0x07;
 340              		.loc 1 55 41 view .LVU95
 341 0068 4FEAD30E 		lsr	lr, r3, #3
 342              	.LVL33:
 343              		.loc 1 59 18 view .LVU96
 344 006c 0B80     		strh	r3, [r1]	@ movhi
 345              	.LBE11:
  54:src/main.c    ****         uint8_t *dest = buf + (*cursor) / 8;
 346              		.loc 1 54 33 is_stmt 1 discriminator 3 view .LVU97
 347              	.LVL34:
  54:src/main.c    ****         uint8_t *dest = buf + (*cursor) / 8;
 348              		.loc 1 54 26 discriminator 1 view .LVU98
 349              	.LBB12:
  55:src/main.c    ****         uint8_t bit_idx = (*cursor) & 0x07;
 350              		.loc 1 55 9 view .LVU99
  56:src/main.c    ****         uint8_t bit = (data >> i) & 0x01;
 351              		.loc 1 56 9 view .LVU100
  57:src/main.c    ****         *dest |= bit << bit_idx;
 352              		.loc 1 57 9 view .LVU101
  58:src/main.c    ****         (*cursor)++;
ARM GAS  /tmp/ccM1WDwE.s 			page 9


 353              		.loc 1 58 9 view .LVU102
  58:src/main.c    ****         (*cursor)++;
 354              		.loc 1 58 15 is_stmt 0 view .LVU103
 355 006e 10F80E40 		ldrb	r4, [r0, lr]	@ zero_extendqisi2
  58:src/main.c    ****         (*cursor)++;
 356              		.loc 1 58 22 view .LVU104
 357 0072 C2F3C00C 		ubfx	ip, r2, #3, #1
 358 0076 03F00703 		and	r3, r3, #7
 359              	.LVL35:
  58:src/main.c    ****         (*cursor)++;
 360              		.loc 1 58 22 view .LVU105
 361 007a 0CFA03F3 		lsl	r3, ip, r3
  58:src/main.c    ****         (*cursor)++;
 362              		.loc 1 58 15 view .LVU106
 363 007e 2343     		orrs	r3, r3, r4
 364 0080 00F80E30 		strb	r3, [r0, lr]
 365              	.LVL36:
 366              		.loc 1 59 9 is_stmt 1 view .LVU107
 367              		.loc 1 59 18 is_stmt 0 view .LVU108
 368 0084 0B88     		ldrh	r3, [r1]
 369 0086 0133     		adds	r3, r3, #1
 370 0088 9BB2     		uxth	r3, r3
  55:src/main.c    ****         uint8_t bit_idx = (*cursor) & 0x07;
 371              		.loc 1 55 41 view .LVU109
 372 008a 4FEAD30E 		lsr	lr, r3, #3
 373              	.LVL37:
 374              		.loc 1 59 18 view .LVU110
 375 008e 0B80     		strh	r3, [r1]	@ movhi
 376              	.LBE12:
  54:src/main.c    ****         uint8_t *dest = buf + (*cursor) / 8;
 377              		.loc 1 54 33 is_stmt 1 discriminator 3 view .LVU111
 378              	.LVL38:
  54:src/main.c    ****         uint8_t *dest = buf + (*cursor) / 8;
 379              		.loc 1 54 26 discriminator 1 view .LVU112
 380              	.LBB13:
  55:src/main.c    ****         uint8_t bit_idx = (*cursor) & 0x07;
 381              		.loc 1 55 9 view .LVU113
  56:src/main.c    ****         uint8_t bit = (data >> i) & 0x01;
 382              		.loc 1 56 9 view .LVU114
  57:src/main.c    ****         *dest |= bit << bit_idx;
 383              		.loc 1 57 9 view .LVU115
  58:src/main.c    ****         (*cursor)++;
 384              		.loc 1 58 9 view .LVU116
  58:src/main.c    ****         (*cursor)++;
 385              		.loc 1 58 15 is_stmt 0 view .LVU117
 386 0090 10F80E40 		ldrb	r4, [r0, lr]	@ zero_extendqisi2
  58:src/main.c    ****         (*cursor)++;
 387              		.loc 1 58 22 view .LVU118
 388 0094 C2F3001C 		ubfx	ip, r2, #4, #1
 389 0098 03F00703 		and	r3, r3, #7
 390              	.LVL39:
  58:src/main.c    ****         (*cursor)++;
 391              		.loc 1 58 22 view .LVU119
 392 009c 0CFA03F3 		lsl	r3, ip, r3
  58:src/main.c    ****         (*cursor)++;
 393              		.loc 1 58 15 view .LVU120
 394 00a0 2343     		orrs	r3, r3, r4
ARM GAS  /tmp/ccM1WDwE.s 			page 10


 395 00a2 00F80E30 		strb	r3, [r0, lr]
 396              	.LVL40:
 397              		.loc 1 59 9 is_stmt 1 view .LVU121
 398              		.loc 1 59 18 is_stmt 0 view .LVU122
 399 00a6 0B88     		ldrh	r3, [r1]
 400 00a8 0133     		adds	r3, r3, #1
 401 00aa 9BB2     		uxth	r3, r3
  55:src/main.c    ****         uint8_t bit_idx = (*cursor) & 0x07;
 402              		.loc 1 55 41 view .LVU123
 403 00ac 4FEAD30E 		lsr	lr, r3, #3
 404              	.LVL41:
 405              		.loc 1 59 18 view .LVU124
 406 00b0 0B80     		strh	r3, [r1]	@ movhi
 407              	.LBE13:
  54:src/main.c    ****         uint8_t *dest = buf + (*cursor) / 8;
 408              		.loc 1 54 33 is_stmt 1 discriminator 3 view .LVU125
 409              	.LVL42:
  54:src/main.c    ****         uint8_t *dest = buf + (*cursor) / 8;
 410              		.loc 1 54 26 discriminator 1 view .LVU126
 411              	.LBB14:
  55:src/main.c    ****         uint8_t bit_idx = (*cursor) & 0x07;
 412              		.loc 1 55 9 view .LVU127
  56:src/main.c    ****         uint8_t bit = (data >> i) & 0x01;
 413              		.loc 1 56 9 view .LVU128
  57:src/main.c    ****         *dest |= bit << bit_idx;
 414              		.loc 1 57 9 view .LVU129
  58:src/main.c    ****         (*cursor)++;
 415              		.loc 1 58 9 view .LVU130
  58:src/main.c    ****         (*cursor)++;
 416              		.loc 1 58 15 is_stmt 0 view .LVU131
 417 00b2 10F80E40 		ldrb	r4, [r0, lr]	@ zero_extendqisi2
  58:src/main.c    ****         (*cursor)++;
 418              		.loc 1 58 22 view .LVU132
 419 00b6 C2F3401C 		ubfx	ip, r2, #5, #1
 420 00ba 03F00703 		and	r3, r3, #7
 421              	.LVL43:
  58:src/main.c    ****         (*cursor)++;
 422              		.loc 1 58 22 view .LVU133
 423 00be 0CFA03F3 		lsl	r3, ip, r3
  58:src/main.c    ****         (*cursor)++;
 424              		.loc 1 58 15 view .LVU134
 425 00c2 2343     		orrs	r3, r3, r4
 426 00c4 00F80E30 		strb	r3, [r0, lr]
 427              	.LVL44:
 428              		.loc 1 59 9 is_stmt 1 view .LVU135
 429              		.loc 1 59 18 is_stmt 0 view .LVU136
 430 00c8 0B88     		ldrh	r3, [r1]
 431 00ca 0133     		adds	r3, r3, #1
 432 00cc 9BB2     		uxth	r3, r3
  55:src/main.c    ****         uint8_t bit_idx = (*cursor) & 0x07;
 433              		.loc 1 55 41 view .LVU137
 434 00ce 4FEAD30C 		lsr	ip, r3, #3
 435              		.loc 1 59 18 view .LVU138
 436 00d2 0B80     		strh	r3, [r1]	@ movhi
 437              	.LBE14:
  54:src/main.c    ****         uint8_t *dest = buf + (*cursor) / 8;
 438              		.loc 1 54 33 is_stmt 1 discriminator 3 view .LVU139
ARM GAS  /tmp/ccM1WDwE.s 			page 11


 439              	.LVL45:
  54:src/main.c    ****         uint8_t *dest = buf + (*cursor) / 8;
 440              		.loc 1 54 26 discriminator 1 view .LVU140
 441              	.LBB15:
  55:src/main.c    ****         uint8_t bit_idx = (*cursor) & 0x07;
 442              		.loc 1 55 9 view .LVU141
  56:src/main.c    ****         uint8_t bit = (data >> i) & 0x01;
 443              		.loc 1 56 9 view .LVU142
  57:src/main.c    ****         *dest |= bit << bit_idx;
 444              		.loc 1 57 9 view .LVU143
  58:src/main.c    ****         (*cursor)++;
 445              		.loc 1 58 9 view .LVU144
  58:src/main.c    ****         (*cursor)++;
 446              		.loc 1 58 22 is_stmt 0 view .LVU145
 447 00d4 C2F38012 		ubfx	r2, r2, #6, #1
 448              	.LVL46:
  58:src/main.c    ****         (*cursor)++;
 449              		.loc 1 58 22 view .LVU146
 450 00d8 03F00703 		and	r3, r3, #7
 451              	.LVL47:
  58:src/main.c    ****         (*cursor)++;
 452              		.loc 1 58 22 view .LVU147
 453 00dc 9A40     		lsls	r2, r2, r3
  58:src/main.c    ****         (*cursor)++;
 454              		.loc 1 58 15 view .LVU148
 455 00de 10F80C30 		ldrb	r3, [r0, ip]	@ zero_extendqisi2
 456 00e2 1A43     		orrs	r2, r2, r3
 457 00e4 00F80C20 		strb	r2, [r0, ip]
 458              	.LVL48:
 459              		.loc 1 59 9 is_stmt 1 view .LVU149
 460              		.loc 1 59 18 is_stmt 0 view .LVU150
 461 00e8 0B88     		ldrh	r3, [r1]
 462 00ea 0133     		adds	r3, r3, #1
 463 00ec 0B80     		strh	r3, [r1]	@ movhi
 464              	.LBE15:
  54:src/main.c    ****         uint8_t *dest = buf + (*cursor) / 8;
 465              		.loc 1 54 33 is_stmt 1 discriminator 3 view .LVU151
 466              	.LVL49:
  54:src/main.c    ****         uint8_t *dest = buf + (*cursor) / 8;
 467              		.loc 1 54 26 discriminator 1 view .LVU152
 468              	.LBE16:
  60:src/main.c    ****     }
  61:src/main.c    **** }
 469              		.loc 1 61 1 is_stmt 0 view .LVU153
 470 00ee 10BD     		pop	{r4, pc}
 471              		.cfi_endproc
 472              	.LFE140:
 474              		.section	.text.USB_MIDI_sysex,"ax",%progbits
 475              		.align	1
 476              		.p2align 2,,3
 477              		.global	USB_MIDI_sysex
 478              		.syntax unified
 479              		.thumb
 480              		.thumb_func
 482              	USB_MIDI_sysex:
 483              	.LVL50:
 484              	.LFB141:
ARM GAS  /tmp/ccM1WDwE.s 			page 12


  62:src/main.c    **** 
  63:src/main.c    **** void USB_MIDI_sysex(uint8_t *data, uint16_t size){
 485              		.loc 1 63 50 is_stmt 1 view -0
 486              		.cfi_startproc
 487              		@ args = 0, pretend = 0, frame = 32
 488              		@ frame_needed = 0, uses_anonymous_args = 0
  64:src/main.c    ****     uint8_t buf[16];
 489              		.loc 1 64 5 view .LVU155
  65:src/main.c    ****     uint8_t channel_op, slider;
 490              		.loc 1 65 5 view .LVU156
  66:src/main.c    ****     uint16_t cursor = 0;
 491              		.loc 1 66 5 view .LVU157
  67:src/main.c    **** 
  68:src/main.c    ****     data++;
 492              		.loc 1 68 5 view .LVU158
  69:src/main.c    ****     size--;
  70:src/main.c    **** 
  71:src/main.c    ****     if(size < 4)return;
 493              		.loc 1 71 7 is_stmt 0 view .LVU159
 494 0000 4B1E     		subs	r3, r1, #1
 495              	.LVL51:
  69:src/main.c    ****     size--;
 496              		.loc 1 69 5 is_stmt 1 view .LVU160
 497              		.loc 1 71 5 view .LVU161
 498              		.loc 1 71 7 is_stmt 0 view .LVU162
 499 0002 032B     		cmp	r3, #3
 500 0004 05D9     		bls	.L36
  72:src/main.c    ****     if(*(uint16_t *)data != *(uint16_t *)"TH")return;
 501              		.loc 1 72 5 is_stmt 1 view .LVU163
 502              		.loc 1 72 7 is_stmt 0 view .LVU164
 503 0006 B0F80120 		ldrh	r2, [r0, #1]
 504 000a 44F65403 		movw	r3, #18516
 505 000e 9A42     		cmp	r2, r3
 506 0010 00D0     		beq	.L40
 507              	.L36:
 508 0012 7047     		bx	lr
 509              	.L40:
  73:src/main.c    ****     memset(buf, 0, 16);
 510              		.loc 1 73 5 is_stmt 1 view .LVU165
  63:src/main.c    ****     uint8_t buf[16];
 511              		.loc 1 63 50 is_stmt 0 view .LVU166
 512 0014 2DE9F04F 		push	{r4, r5, r6, r7, r8, r9, r10, fp, lr}
 513              	.LCFI8:
 514              		.cfi_def_cfa_offset 36
 515              		.cfi_offset 4, -36
 516              		.cfi_offset 5, -32
 517              		.cfi_offset 6, -28
 518              		.cfi_offset 7, -24
 519              		.cfi_offset 8, -20
 520              		.cfi_offset 9, -16
 521              		.cfi_offset 10, -12
 522              		.cfi_offset 11, -8
 523              		.cfi_offset 14, -4
  74:src/main.c    ****     data += 2;
  75:src/main.c    ****     size -= 2;
  76:src/main.c    ****     channel_op = data[0];
  77:src/main.c    ****     slider = data[1];
ARM GAS  /tmp/ccM1WDwE.s 			page 13


  78:src/main.c    ****     data += 2;
  79:src/main.c    ****     size -= 2;
 524              		.loc 1 79 10 view .LVU167
 525 0018 0539     		subs	r1, r1, #5
 526              	.LVL52:
  63:src/main.c    ****     uint8_t buf[16];
 527              		.loc 1 63 50 view .LVU168
 528 001a 89B0     		sub	sp, sp, #36
 529              	.LCFI9:
 530              		.cfi_def_cfa_offset 72
  73:src/main.c    ****     data += 2;
 531              		.loc 1 73 5 view .LVU169
 532 001c 0022     		movs	r2, #0
 533              		.loc 1 79 10 view .LVU170
 534 001e 8BB2     		uxth	r3, r1
  73:src/main.c    ****     data += 2;
 535              		.loc 1 73 5 view .LVU171
 536 0020 CDE90422 		strd	r2, r2, [sp, #16]
 537 0024 CDE90622 		strd	r2, r2, [sp, #24]
  74:src/main.c    ****     data += 2;
 538              		.loc 1 74 5 is_stmt 1 view .LVU172
 539              	.LVL53:
  75:src/main.c    ****     channel_op = data[0];
 540              		.loc 1 75 5 view .LVU173
  76:src/main.c    ****     slider = data[1];
 541              		.loc 1 76 5 view .LVU174
  76:src/main.c    ****     slider = data[1];
 542              		.loc 1 76 16 is_stmt 0 view .LVU175
 543 0028 90F80390 		ldrb	r9, [r0, #3]	@ zero_extendqisi2
 544              	.LVL54:
  77:src/main.c    ****     data += 2;
 545              		.loc 1 77 5 is_stmt 1 view .LVU176
  77:src/main.c    ****     data += 2;
 546              		.loc 1 77 12 is_stmt 0 view .LVU177
 547 002c 90F80480 		ldrb	r8, [r0, #4]	@ zero_extendqisi2
 548              	.LVL55:
  78:src/main.c    ****     size -= 2;
 549              		.loc 1 78 5 is_stmt 1 view .LVU178
 550              		.loc 1 79 5 view .LVU179
  80:src/main.c    **** 
  81:src/main.c    ****     for(uint8_t i = 0; i != size; i++){
 551              		.loc 1 81 5 view .LVU180
 552              	.LBB17:
 553              		.loc 1 81 9 view .LVU181
 554              		.loc 1 81 26 discriminator 1 view .LVU182
 555              	.LBE17:
  79:src/main.c    **** 
 556              		.loc 1 79 10 is_stmt 0 view .LVU183
 557 0030 0193     		str	r3, [sp, #4]
 558              	.LBB36:
 559              		.loc 1 81 26 discriminator 1 view .LVU184
 560 0032 002B     		cmp	r3, #0
 561 0034 00F09A80 		beq	.L20
 562              		.loc 1 81 17 view .LVU185
 563 0038 CDE90298 		strd	r9, r8, [sp, #8]
 564              		.loc 1 81 26 discriminator 1 view .LVU186
 565 003c 0627     		movs	r7, #6
ARM GAS  /tmp/ccM1WDwE.s 			page 14


 566 003e 0526     		movs	r6, #5
 567 0040 0425     		movs	r5, #4
 568 0042 0324     		movs	r4, #3
 569 0044 4FF0020E 		mov	lr, #2
 570 0048 4FF0010C 		mov	ip, #1
 571              		.loc 1 81 17 view .LVU187
 572 004c 1146     		mov	r1, r2
 573 004e 84E0     		b	.L21
 574              	.LVL56:
 575              	.L41:
 576              	.LBB18:
 577              	.LBB19:
 578              	.LBB20:
  55:src/main.c    ****         uint8_t bit_idx = (*cursor) & 0x07;
 579              		.loc 1 55 41 view .LVU188
 580 0050 4FEAD209 		lsr	r9, r2, #3
 581              	.LVL57:
  56:src/main.c    ****         uint8_t bit = (data >> i) & 0x01;
 582              		.loc 1 56 9 is_stmt 1 view .LVU189
  57:src/main.c    ****         *dest |= bit << bit_idx;
 583              		.loc 1 57 9 view .LVU190
  58:src/main.c    ****         (*cursor)++;
 584              		.loc 1 58 9 view .LVU191
  58:src/main.c    ****         (*cursor)++;
 585              		.loc 1 58 15 is_stmt 0 view .LVU192
 586 0054 0DF11008 		add	r8, sp, #16
  58:src/main.c    ****         (*cursor)++;
 587              		.loc 1 58 22 view .LVU193
 588 0058 02F0070B 		and	fp, r2, #7
  58:src/main.c    ****         (*cursor)++;
 589              		.loc 1 58 15 view .LVU194
 590 005c 18F809A0 		ldrb	r10, [r8, r9]	@ zero_extendqisi2
  58:src/main.c    ****         (*cursor)++;
 591              		.loc 1 58 22 view .LVU195
 592 0060 03F00108 		and	r8, r3, #1
 593 0064 08FA0BF8 		lsl	r8, r8, fp
  58:src/main.c    ****         (*cursor)++;
 594              		.loc 1 58 15 view .LVU196
 595 0068 48EA0A08 		orr	r8, r8, r10
 596 006c 0DF1100A 		add	r10, sp, #16
  58:src/main.c    ****         (*cursor)++;
 597              		.loc 1 58 22 view .LVU197
 598 0070 0CF0070B 		and	fp, ip, #7
  58:src/main.c    ****         (*cursor)++;
 599              		.loc 1 58 15 view .LVU198
 600 0074 0AF80980 		strb	r8, [r10, r9]
  59:src/main.c    ****     }
 601              		.loc 1 59 9 is_stmt 1 view .LVU199
 602              	.LVL58:
  59:src/main.c    ****     }
 603              		.loc 1 59 9 is_stmt 0 view .LVU200
 604              	.LBE20:
  54:src/main.c    ****         uint8_t *dest = buf + (*cursor) / 8;
 605              		.loc 1 54 33 is_stmt 1 discriminator 3 view .LVU201
  54:src/main.c    ****         uint8_t *dest = buf + (*cursor) / 8;
 606              		.loc 1 54 26 discriminator 1 view .LVU202
 607              	.LBB21:
ARM GAS  /tmp/ccM1WDwE.s 			page 15


  55:src/main.c    ****         uint8_t bit_idx = (*cursor) & 0x07;
 608              		.loc 1 55 9 view .LVU203
  55:src/main.c    ****         uint8_t bit_idx = (*cursor) & 0x07;
 609              		.loc 1 55 41 is_stmt 0 view .LVU204
 610 0078 4FEADC09 		lsr	r9, ip, #3
 611              	.LVL59:
  56:src/main.c    ****         uint8_t bit = (data >> i) & 0x01;
 612              		.loc 1 56 9 is_stmt 1 view .LVU205
  57:src/main.c    ****         *dest |= bit << bit_idx;
 613              		.loc 1 57 9 view .LVU206
  58:src/main.c    ****         (*cursor)++;
 614              		.loc 1 58 9 view .LVU207
  58:src/main.c    ****         (*cursor)++;
 615              		.loc 1 58 22 is_stmt 0 view .LVU208
 616 007c C3F34008 		ubfx	r8, r3, #1, #1
  58:src/main.c    ****         (*cursor)++;
 617              		.loc 1 58 15 view .LVU209
 618 0080 1AF809A0 		ldrb	r10, [r10, r9]	@ zero_extendqisi2
  58:src/main.c    ****         (*cursor)++;
 619              		.loc 1 58 22 view .LVU210
 620 0084 08FA0BF8 		lsl	r8, r8, fp
  58:src/main.c    ****         (*cursor)++;
 621              		.loc 1 58 15 view .LVU211
 622 0088 48EA0A08 		orr	r8, r8, r10
 623 008c 0DF1100A 		add	r10, sp, #16
  58:src/main.c    ****         (*cursor)++;
 624              		.loc 1 58 22 view .LVU212
 625 0090 0EF0070B 		and	fp, lr, #7
  58:src/main.c    ****         (*cursor)++;
 626              		.loc 1 58 15 view .LVU213
 627 0094 0AF80980 		strb	r8, [r10, r9]
  59:src/main.c    ****     }
 628              		.loc 1 59 9 is_stmt 1 view .LVU214
 629              	.LVL60:
  59:src/main.c    ****     }
 630              		.loc 1 59 9 is_stmt 0 view .LVU215
 631              	.LBE21:
  54:src/main.c    ****         uint8_t *dest = buf + (*cursor) / 8;
 632              		.loc 1 54 33 is_stmt 1 discriminator 3 view .LVU216
  54:src/main.c    ****         uint8_t *dest = buf + (*cursor) / 8;
 633              		.loc 1 54 26 discriminator 1 view .LVU217
 634              	.LBB22:
  55:src/main.c    ****         uint8_t bit_idx = (*cursor) & 0x07;
 635              		.loc 1 55 9 view .LVU218
  55:src/main.c    ****         uint8_t bit_idx = (*cursor) & 0x07;
 636              		.loc 1 55 41 is_stmt 0 view .LVU219
 637 0098 4FEADE09 		lsr	r9, lr, #3
 638              	.LVL61:
  56:src/main.c    ****         uint8_t bit = (data >> i) & 0x01;
 639              		.loc 1 56 9 is_stmt 1 view .LVU220
  57:src/main.c    ****         *dest |= bit << bit_idx;
 640              		.loc 1 57 9 view .LVU221
  58:src/main.c    ****         (*cursor)++;
 641              		.loc 1 58 9 view .LVU222
  58:src/main.c    ****         (*cursor)++;
 642              		.loc 1 58 22 is_stmt 0 view .LVU223
 643 009c C3F38008 		ubfx	r8, r3, #2, #1
ARM GAS  /tmp/ccM1WDwE.s 			page 16


  58:src/main.c    ****         (*cursor)++;
 644              		.loc 1 58 15 view .LVU224
 645 00a0 1AF809A0 		ldrb	r10, [r10, r9]	@ zero_extendqisi2
  58:src/main.c    ****         (*cursor)++;
 646              		.loc 1 58 22 view .LVU225
 647 00a4 08FA0BF8 		lsl	r8, r8, fp
  58:src/main.c    ****         (*cursor)++;
 648              		.loc 1 58 15 view .LVU226
 649 00a8 48EA0A08 		orr	r8, r8, r10
 650 00ac 0DF1100A 		add	r10, sp, #16
  58:src/main.c    ****         (*cursor)++;
 651              		.loc 1 58 22 view .LVU227
 652 00b0 04F0070B 		and	fp, r4, #7
  58:src/main.c    ****         (*cursor)++;
 653              		.loc 1 58 15 view .LVU228
 654 00b4 0AF80980 		strb	r8, [r10, r9]
  59:src/main.c    ****     }
 655              		.loc 1 59 9 is_stmt 1 view .LVU229
 656              	.LVL62:
  59:src/main.c    ****     }
 657              		.loc 1 59 9 is_stmt 0 view .LVU230
 658              	.LBE22:
  54:src/main.c    ****         uint8_t *dest = buf + (*cursor) / 8;
 659              		.loc 1 54 33 is_stmt 1 discriminator 3 view .LVU231
  54:src/main.c    ****         uint8_t *dest = buf + (*cursor) / 8;
 660              		.loc 1 54 26 discriminator 1 view .LVU232
 661              	.LBB23:
  55:src/main.c    ****         uint8_t bit_idx = (*cursor) & 0x07;
 662              		.loc 1 55 9 view .LVU233
  55:src/main.c    ****         uint8_t bit_idx = (*cursor) & 0x07;
 663              		.loc 1 55 41 is_stmt 0 view .LVU234
 664 00b8 4FEAD409 		lsr	r9, r4, #3
 665              	.LVL63:
  56:src/main.c    ****         uint8_t bit = (data >> i) & 0x01;
 666              		.loc 1 56 9 is_stmt 1 view .LVU235
  57:src/main.c    ****         *dest |= bit << bit_idx;
 667              		.loc 1 57 9 view .LVU236
  58:src/main.c    ****         (*cursor)++;
 668              		.loc 1 58 9 view .LVU237
  58:src/main.c    ****         (*cursor)++;
 669              		.loc 1 58 22 is_stmt 0 view .LVU238
 670 00bc C3F3C008 		ubfx	r8, r3, #3, #1
  58:src/main.c    ****         (*cursor)++;
 671              		.loc 1 58 15 view .LVU239
 672 00c0 1AF809A0 		ldrb	r10, [r10, r9]	@ zero_extendqisi2
  58:src/main.c    ****         (*cursor)++;
 673              		.loc 1 58 22 view .LVU240
 674 00c4 08FA0BF8 		lsl	r8, r8, fp
  58:src/main.c    ****         (*cursor)++;
 675              		.loc 1 58 15 view .LVU241
 676 00c8 48EA0A08 		orr	r8, r8, r10
 677 00cc 0DF1100A 		add	r10, sp, #16
  58:src/main.c    ****         (*cursor)++;
 678              		.loc 1 58 22 view .LVU242
 679 00d0 05F0070B 		and	fp, r5, #7
  58:src/main.c    ****         (*cursor)++;
 680              		.loc 1 58 15 view .LVU243
ARM GAS  /tmp/ccM1WDwE.s 			page 17


 681 00d4 0AF80980 		strb	r8, [r10, r9]
  59:src/main.c    ****     }
 682              		.loc 1 59 9 is_stmt 1 view .LVU244
 683              	.LVL64:
  59:src/main.c    ****     }
 684              		.loc 1 59 9 is_stmt 0 view .LVU245
 685              	.LBE23:
  54:src/main.c    ****         uint8_t *dest = buf + (*cursor) / 8;
 686              		.loc 1 54 33 is_stmt 1 discriminator 3 view .LVU246
  54:src/main.c    ****         uint8_t *dest = buf + (*cursor) / 8;
 687              		.loc 1 54 26 discriminator 1 view .LVU247
 688              	.LBB24:
  55:src/main.c    ****         uint8_t bit_idx = (*cursor) & 0x07;
 689              		.loc 1 55 9 view .LVU248
  55:src/main.c    ****         uint8_t bit_idx = (*cursor) & 0x07;
 690              		.loc 1 55 41 is_stmt 0 view .LVU249
 691 00d8 4FEAD509 		lsr	r9, r5, #3
 692              	.LVL65:
  56:src/main.c    ****         uint8_t bit = (data >> i) & 0x01;
 693              		.loc 1 56 9 is_stmt 1 view .LVU250
  57:src/main.c    ****         *dest |= bit << bit_idx;
 694              		.loc 1 57 9 view .LVU251
  58:src/main.c    ****         (*cursor)++;
 695              		.loc 1 58 9 view .LVU252
  58:src/main.c    ****         (*cursor)++;
 696              		.loc 1 58 22 is_stmt 0 view .LVU253
 697 00dc C3F30018 		ubfx	r8, r3, #4, #1
  58:src/main.c    ****         (*cursor)++;
 698              		.loc 1 58 15 view .LVU254
 699 00e0 1AF809A0 		ldrb	r10, [r10, r9]	@ zero_extendqisi2
  58:src/main.c    ****         (*cursor)++;
 700              		.loc 1 58 22 view .LVU255
 701 00e4 08FA0BF8 		lsl	r8, r8, fp
  58:src/main.c    ****         (*cursor)++;
 702              		.loc 1 58 15 view .LVU256
 703 00e8 48EA0A08 		orr	r8, r8, r10
 704 00ec 0DF1100A 		add	r10, sp, #16
  58:src/main.c    ****         (*cursor)++;
 705              		.loc 1 58 22 view .LVU257
 706 00f0 06F0070B 		and	fp, r6, #7
  58:src/main.c    ****         (*cursor)++;
 707              		.loc 1 58 15 view .LVU258
 708 00f4 0AF80980 		strb	r8, [r10, r9]
  59:src/main.c    ****     }
 709              		.loc 1 59 9 is_stmt 1 view .LVU259
 710              	.LVL66:
  59:src/main.c    ****     }
 711              		.loc 1 59 9 is_stmt 0 view .LVU260
 712              	.LBE24:
  54:src/main.c    ****         uint8_t *dest = buf + (*cursor) / 8;
 713              		.loc 1 54 33 is_stmt 1 discriminator 3 view .LVU261
  54:src/main.c    ****         uint8_t *dest = buf + (*cursor) / 8;
 714              		.loc 1 54 26 discriminator 1 view .LVU262
 715              	.LBB25:
  55:src/main.c    ****         uint8_t bit_idx = (*cursor) & 0x07;
 716              		.loc 1 55 9 view .LVU263
  55:src/main.c    ****         uint8_t bit_idx = (*cursor) & 0x07;
ARM GAS  /tmp/ccM1WDwE.s 			page 18


 717              		.loc 1 55 41 is_stmt 0 view .LVU264
 718 00f8 4FEAD609 		lsr	r9, r6, #3
 719              	.LVL67:
  56:src/main.c    ****         uint8_t bit = (data >> i) & 0x01;
 720              		.loc 1 56 9 is_stmt 1 view .LVU265
  57:src/main.c    ****         *dest |= bit << bit_idx;
 721              		.loc 1 57 9 view .LVU266
  58:src/main.c    ****         (*cursor)++;
 722              		.loc 1 58 9 view .LVU267
  58:src/main.c    ****         (*cursor)++;
 723              		.loc 1 58 22 is_stmt 0 view .LVU268
 724 00fc C3F34018 		ubfx	r8, r3, #5, #1
  58:src/main.c    ****         (*cursor)++;
 725              		.loc 1 58 15 view .LVU269
 726 0100 1AF809A0 		ldrb	r10, [r10, r9]	@ zero_extendqisi2
  58:src/main.c    ****         (*cursor)++;
 727              		.loc 1 58 22 view .LVU270
 728 0104 08FA0BF8 		lsl	r8, r8, fp
  58:src/main.c    ****         (*cursor)++;
 729              		.loc 1 58 15 view .LVU271
 730 0108 48EA0A08 		orr	r8, r8, r10
 731 010c 0DF1100A 		add	r10, sp, #16
  58:src/main.c    ****         (*cursor)++;
 732              		.loc 1 58 22 view .LVU272
 733 0110 C3F38013 		ubfx	r3, r3, #6, #1
 734              	.LVL68:
  58:src/main.c    ****         (*cursor)++;
 735              		.loc 1 58 15 view .LVU273
 736 0114 0AF80980 		strb	r8, [r10, r9]
  59:src/main.c    ****     }
 737              		.loc 1 59 9 is_stmt 1 view .LVU274
 738              	.LVL69:
  59:src/main.c    ****     }
 739              		.loc 1 59 9 is_stmt 0 view .LVU275
 740              	.LBE25:
  54:src/main.c    ****         uint8_t *dest = buf + (*cursor) / 8;
 741              		.loc 1 54 33 is_stmt 1 discriminator 3 view .LVU276
  54:src/main.c    ****         uint8_t *dest = buf + (*cursor) / 8;
 742              		.loc 1 54 26 discriminator 1 view .LVU277
 743              	.LBB26:
  55:src/main.c    ****         uint8_t bit_idx = (*cursor) & 0x07;
 744              		.loc 1 55 9 view .LVU278
  55:src/main.c    ****         uint8_t bit_idx = (*cursor) & 0x07;
 745              		.loc 1 55 41 is_stmt 0 view .LVU279
 746 0118 4FEAD708 		lsr	r8, r7, #3
 747              	.LVL70:
  56:src/main.c    ****         uint8_t bit = (data >> i) & 0x01;
 748              		.loc 1 56 9 is_stmt 1 view .LVU280
  57:src/main.c    ****         *dest |= bit << bit_idx;
 749              		.loc 1 57 9 view .LVU281
  58:src/main.c    ****         (*cursor)++;
 750              		.loc 1 58 9 view .LVU282
  58:src/main.c    ****         (*cursor)++;
 751              		.loc 1 58 22 is_stmt 0 view .LVU283
 752 011c 07F00709 		and	r9, r7, #7
 753 0120 03FA09F3 		lsl	r3, r3, r9
  58:src/main.c    ****         (*cursor)++;
ARM GAS  /tmp/ccM1WDwE.s 			page 19


 754              		.loc 1 58 15 view .LVU284
 755 0124 1AF80890 		ldrb	r9, [r10, r8]	@ zero_extendqisi2
 756 0128 43EA0903 		orr	r3, r3, r9
 757 012c 0AF80830 		strb	r3, [r10, r8]
  59:src/main.c    ****     }
 758              		.loc 1 59 9 is_stmt 1 view .LVU285
 759              	.LBE26:
 760              	.LBE19:
 761              	.LBE18:
 762              		.loc 1 81 26 is_stmt 0 discriminator 1 view .LVU286
 763 0130 019B     		ldr	r3, [sp, #4]
 764              	.LBB33:
 765              	.LBB30:
 766              	.LBB27:
  59:src/main.c    ****     }
 767              		.loc 1 59 18 view .LVU287
 768 0132 0732     		adds	r2, r2, #7
 769              	.LBE27:
 770              	.LBE30:
 771              	.LBE33:
 772              		.loc 1 81 26 discriminator 1 view .LVU288
 773 0134 0CF1070C 		add	ip, ip, #7
 774 0138 0EF1070E 		add	lr, lr, #7
 775 013c 0734     		adds	r4, r4, #7
 776 013e 0735     		adds	r5, r5, #7
 777 0140 0736     		adds	r6, r6, #7
 778 0142 0737     		adds	r7, r7, #7
 779              	.LVL71:
 780              		.loc 1 81 26 discriminator 1 view .LVU289
 781 0144 9942     		cmp	r1, r3
 782              	.LBB34:
 783              	.LBB31:
 784              	.LBB28:
  59:src/main.c    ****     }
 785              		.loc 1 59 18 view .LVU290
 786 0146 92B2     		uxth	r2, r2
 787              	.LVL72:
  59:src/main.c    ****     }
 788              		.loc 1 59 18 view .LVU291
 789              	.LBE28:
  54:src/main.c    ****         uint8_t *dest = buf + (*cursor) / 8;
 790              		.loc 1 54 33 is_stmt 1 discriminator 3 view .LVU292
  54:src/main.c    ****         uint8_t *dest = buf + (*cursor) / 8;
 791              		.loc 1 54 26 discriminator 1 view .LVU293
  54:src/main.c    ****         uint8_t *dest = buf + (*cursor) / 8;
 792              		.loc 1 54 26 is_stmt 0 discriminator 1 view .LVU294
 793              	.LBE31:
 794              	.LBE34:
 795              		.loc 1 81 36 is_stmt 1 discriminator 2 view .LVU295
 796              		.loc 1 81 26 discriminator 1 view .LVU296
 797 0148 1FFA8CFC 		uxth	ip, ip
 798 014c 1FFA8EFE 		uxth	lr, lr
 799 0150 A4B2     		uxth	r4, r4
 800 0152 ADB2     		uxth	r5, r5
 801 0154 B6B2     		uxth	r6, r6
 802 0156 BFB2     		uxth	r7, r7
 803 0158 06D0     		beq	.L34
ARM GAS  /tmp/ccM1WDwE.s 			page 20


 804              	.LVL73:
 805              	.L21:
  82:src/main.c    ****         if(data[i] == 0xF7)break;
 806              		.loc 1 82 9 view .LVU297
 807              	.LBB35:
 808              	.LBB32:
  54:src/main.c    ****         uint8_t *dest = buf + (*cursor) / 8;
 809              		.loc 1 54 26 discriminator 1 view .LVU298
 810              	.LBB29:
  55:src/main.c    ****         uint8_t bit_idx = (*cursor) & 0x07;
 811              		.loc 1 55 9 view .LVU299
 812              	.LBE29:
 813              	.LBE32:
 814              	.LBE35:
 815              		.loc 1 82 16 is_stmt 0 view .LVU300
 816 015a 4318     		adds	r3, r0, r1
  81:src/main.c    ****         if(data[i] == 0xF7)break;
 817              		.loc 1 81 36 discriminator 2 view .LVU301
 818 015c 0131     		adds	r1, r1, #1
 819              	.LVL74:
 820              		.loc 1 82 16 view .LVU302
 821 015e 5B79     		ldrb	r3, [r3, #5]	@ zero_extendqisi2
 822              		.loc 1 82 11 view .LVU303
 823 0160 F72B     		cmp	r3, #247
  81:src/main.c    ****         if(data[i] == 0xF7)break;
 824              		.loc 1 81 36 discriminator 2 view .LVU304
 825 0162 C9B2     		uxtb	r1, r1
 826              	.LVL75:
 827              		.loc 1 82 11 view .LVU305
 828 0164 7FF474AF 		bne	.L41
 829              	.LVL76:
 830              	.L34:
 831              		.loc 1 82 11 view .LVU306
 832 0168 DDE90298 		ldrd	r9, r8, [sp, #8]
 833              	.LVL77:
 834              	.L20:
 835              		.loc 1 82 11 view .LVU307
 836              	.LBE36:
  83:src/main.c    ****         MIDI_sysex_decode(buf, &cursor, data[i]);
  84:src/main.c    ****     }
  85:src/main.c    **** 
  86:src/main.c    ****     uint8_t target = channel_op & 0x01;
 837              		.loc 1 86 5 is_stmt 1 view .LVU308
  87:src/main.c    ****     uint8_t channel = channel_op >> 1;
 838              		.loc 1 87 13 is_stmt 0 view .LVU309
 839 016c 4FEA5900 		lsr	r0, r9, #1
 840              	.LVL78:
  88:src/main.c    **** 
  89:src/main.c    ****     if(channel == 9){
 841              		.loc 1 89 7 view .LVU310
 842 0170 0928     		cmp	r0, #9
  86:src/main.c    ****     uint8_t channel = channel_op >> 1;
 843              		.loc 1 86 13 view .LVU311
 844 0172 09F00101 		and	r1, r9, #1
 845              	.LVL79:
  87:src/main.c    ****     uint8_t channel = channel_op >> 1;
 846              		.loc 1 87 5 is_stmt 1 view .LVU312
ARM GAS  /tmp/ccM1WDwE.s 			page 21


 847              		.loc 1 89 5 view .LVU313
 848              		.loc 1 89 7 is_stmt 0 view .LVU314
 849 0176 16D0     		beq	.L42
  90:src/main.c    ****         switch(slider){
  91:src/main.c    ****             case 0:
  92:src/main.c    ****                 audio_update_perc((PercSetting)slider, *(float *)buf);
  93:src/main.c    ****                 break;
  94:src/main.c    ****         }
  95:src/main.c    ****         return;
  96:src/main.c    ****     }
  97:src/main.c    ****     switch(slider){
 850              		.loc 1 97 5 is_stmt 1 view .LVU315
 851 0178 B8F1050F 		cmp	r8, #5
 852 017c 07D8     		bhi	.L43
  98:src/main.c    ****         case 0 ... 5:
  99:src/main.c    ****             audio_update_patch(channel, target, (AudioSetting)slider, *(float *)buf);
 853              		.loc 1 99 13 view .LVU316
 854 017e 9DED040A 		vldr.32	s0, [sp, #16]
 855 0182 4246     		mov	r2, r8
 856              	.L39:
 100:src/main.c    ****             break;
 101:src/main.c    ****         case 6:
 102:src/main.c    ****             audio_update_patch(channel, target, (AudioSetting)slider, *(int *)buf);
 103:src/main.c    ****             break;
 104:src/main.c    ****     }
 105:src/main.c    **** }
 857              		.loc 1 105 1 is_stmt 0 view .LVU317
 858 0184 09B0     		add	sp, sp, #36
 859              	.LCFI10:
 860              		.cfi_remember_state
 861              		.cfi_def_cfa_offset 36
 862              		@ sp needed
 863 0186 BDE8F04F 		pop	{r4, r5, r6, r7, r8, r9, r10, fp, lr}
 864              	.LCFI11:
 865              		.cfi_restore 14
 866              		.cfi_restore 11
 867              		.cfi_restore 10
 868              		.cfi_restore 9
 869              		.cfi_restore 8
 870              		.cfi_restore 7
 871              		.cfi_restore 6
 872              		.cfi_restore 5
 873              		.cfi_restore 4
 874              		.cfi_def_cfa_offset 0
 875              	.LVL80:
 102:src/main.c    ****             break;
 876              		.loc 1 102 13 view .LVU318
 877 018a FFF7FEBF 		b	audio_update_patch
 878              	.LVL81:
 879              	.L43:
 880              	.LCFI12:
 881              		.cfi_restore_state
  97:src/main.c    ****         case 0 ... 5:
 882              		.loc 1 97 5 view .LVU319
 883 018e B8F1060F 		cmp	r8, #6
 884 0192 05D1     		bne	.L18
 102:src/main.c    ****             break;
ARM GAS  /tmp/ccM1WDwE.s 			page 22


 885              		.loc 1 102 13 is_stmt 1 view .LVU320
 886 0194 DDED047A 		vldr.32	s15, [sp, #16]	@ int
 887 0198 4246     		mov	r2, r8
 888 019a B8EEE70A 		vcvt.f32.s32	s0, s15
 889 019e F1E7     		b	.L39
 890              	.L18:
 891              		.loc 1 105 1 is_stmt 0 view .LVU321
 892 01a0 09B0     		add	sp, sp, #36
 893              	.LCFI13:
 894              		.cfi_remember_state
 895              		.cfi_def_cfa_offset 36
 896              		@ sp needed
 897 01a2 BDE8F08F 		pop	{r4, r5, r6, r7, r8, r9, r10, fp, pc}
 898              	.LVL82:
 899              	.L42:
 900              	.LCFI14:
 901              		.cfi_restore_state
  90:src/main.c    ****             case 0:
 902              		.loc 1 90 9 is_stmt 1 view .LVU322
 903 01a6 B8F1000F 		cmp	r8, #0
 904 01aa F9D1     		bne	.L18
  92:src/main.c    ****                 break;
 905              		.loc 1 92 17 view .LVU323
 906 01ac 9DED040A 		vldr.32	s0, [sp, #16]
 907 01b0 4046     		mov	r0, r8
 908              	.LVL83:
 909              		.loc 1 105 1 is_stmt 0 view .LVU324
 910 01b2 09B0     		add	sp, sp, #36
 911              	.LCFI15:
 912              		.cfi_def_cfa_offset 36
 913              		@ sp needed
 914 01b4 BDE8F04F 		pop	{r4, r5, r6, r7, r8, r9, r10, fp, lr}
 915              	.LCFI16:
 916              		.cfi_restore 14
 917              		.cfi_restore 11
 918              		.cfi_restore 10
 919              		.cfi_restore 9
 920              		.cfi_restore 8
 921              		.cfi_restore 7
 922              		.cfi_restore 6
 923              		.cfi_restore 5
 924              		.cfi_restore 4
 925              		.cfi_def_cfa_offset 0
 926              	.LVL84:
  92:src/main.c    ****                 break;
 927              		.loc 1 92 17 view .LVU325
 928 01b8 FFF7FEBF 		b	audio_update_perc
 929              	.LVL85:
  92:src/main.c    ****                 break;
 930              		.loc 1 92 17 view .LVU326
 931              		.cfi_endproc
 932              	.LFE141:
 934              		.text
 935              	.Letext0:
 936              		.file 2 "/usr/arm-none-eabi/include/machine/_default_types.h"
 937              		.file 3 "/usr/arm-none-eabi/include/sys/_stdint.h"
 938              		.file 4 "Drivers/CMSIS/Device/ST/STM32F4xx/Include/stm32f411xe.h"
ARM GAS  /tmp/ccM1WDwE.s 			page 23


 939              		.file 5 "/usr/lib/gcc/arm-none-eabi/13.2.0/include/stddef.h"
 940              		.file 6 "Drivers/STM32F4xx_HAL_Driver/Inc/stm32f4xx_hal_def.h"
 941              		.file 7 "Middlewares/ST/STM32_USB_Device_Library/Class/CustomHID/Inc/usbd_customhid.h"
 942              		.file 8 "src/audio.h"
 943              		.file 9 "src/led_player.h"
 944              		.file 10 "src/ssd1306/graphics.h"
 945              		.file 11 "USB_DEVICE/App/usb_device.h"
 946              		.file 12 "/usr/arm-none-eabi/include/string.h"
 947              		.file 13 "Drivers/STM32F4xx_HAL_Driver/Inc/stm32f4xx_hal.h"
ARM GAS  /tmp/ccM1WDwE.s 			page 24

