ARM GAS  /tmp/ccufBkQM.s 			page 1


   1              		.cpu cortex-m4
   2              		.arch armv7e-m
   3              		.fpu fpv4-sp-d16
   4              		.eabi_attribute 27, 1
   5              		.eabi_attribute 28, 1
   6              		.eabi_attribute 20, 1
   7              		.eabi_attribute 21, 1
   8              		.eabi_attribute 23, 3
   9              		.eabi_attribute 24, 1
  10              		.eabi_attribute 25, 1
  11              		.eabi_attribute 26, 1
  12              		.eabi_attribute 30, 2
  13              		.eabi_attribute 34, 1
  14              		.eabi_attribute 18, 4
  15              		.file	"stm32f4xx_ll_exti.c"
  16              		.text
  17              	.Ltext0:
  18              		.cfi_sections	.debug_frame
  19              		.file 1 "Drivers/STM32F4xx_HAL_Driver/Src/stm32f4xx_ll_exti.c"
  20              		.section	.text.LL_EXTI_DeInit,"ax",%progbits
  21              		.align	1
  22              		.p2align 2,,3
  23              		.global	LL_EXTI_DeInit
  24              		.syntax unified
  25              		.thumb
  26              		.thumb_func
  28              	LL_EXTI_DeInit:
  29              	.LFB150:
   1:Drivers/STM32F4xx_HAL_Driver/Src/stm32f4xx_ll_exti.c **** /**
   2:Drivers/STM32F4xx_HAL_Driver/Src/stm32f4xx_ll_exti.c ****   ******************************************************************************
   3:Drivers/STM32F4xx_HAL_Driver/Src/stm32f4xx_ll_exti.c ****   * @file    stm32f4xx_ll_exti.c
   4:Drivers/STM32F4xx_HAL_Driver/Src/stm32f4xx_ll_exti.c ****   * @author  MCD Application Team
   5:Drivers/STM32F4xx_HAL_Driver/Src/stm32f4xx_ll_exti.c ****   * @brief   EXTI LL module driver.
   6:Drivers/STM32F4xx_HAL_Driver/Src/stm32f4xx_ll_exti.c ****   ******************************************************************************
   7:Drivers/STM32F4xx_HAL_Driver/Src/stm32f4xx_ll_exti.c ****   * @attention
   8:Drivers/STM32F4xx_HAL_Driver/Src/stm32f4xx_ll_exti.c ****   *
   9:Drivers/STM32F4xx_HAL_Driver/Src/stm32f4xx_ll_exti.c ****   * Copyright (c) 2016 STMicroelectronics.
  10:Drivers/STM32F4xx_HAL_Driver/Src/stm32f4xx_ll_exti.c ****   * All rights reserved.
  11:Drivers/STM32F4xx_HAL_Driver/Src/stm32f4xx_ll_exti.c ****   *
  12:Drivers/STM32F4xx_HAL_Driver/Src/stm32f4xx_ll_exti.c ****   * This software is licensed under terms that can be found in the LICENSE file
  13:Drivers/STM32F4xx_HAL_Driver/Src/stm32f4xx_ll_exti.c ****   * in the root directory of this software component.
  14:Drivers/STM32F4xx_HAL_Driver/Src/stm32f4xx_ll_exti.c ****   * If no LICENSE file comes with this software, it is provided AS-IS.Clause
  15:Drivers/STM32F4xx_HAL_Driver/Src/stm32f4xx_ll_exti.c ****   *
  16:Drivers/STM32F4xx_HAL_Driver/Src/stm32f4xx_ll_exti.c ****   ******************************************************************************
  17:Drivers/STM32F4xx_HAL_Driver/Src/stm32f4xx_ll_exti.c ****   */
  18:Drivers/STM32F4xx_HAL_Driver/Src/stm32f4xx_ll_exti.c **** #if defined(USE_FULL_LL_DRIVER)
  19:Drivers/STM32F4xx_HAL_Driver/Src/stm32f4xx_ll_exti.c **** 
  20:Drivers/STM32F4xx_HAL_Driver/Src/stm32f4xx_ll_exti.c **** /* Includes ------------------------------------------------------------------*/
  21:Drivers/STM32F4xx_HAL_Driver/Src/stm32f4xx_ll_exti.c **** #include "stm32f4xx_ll_exti.h"
  22:Drivers/STM32F4xx_HAL_Driver/Src/stm32f4xx_ll_exti.c **** #ifdef  USE_FULL_ASSERT
  23:Drivers/STM32F4xx_HAL_Driver/Src/stm32f4xx_ll_exti.c **** #include "stm32_assert.h"
  24:Drivers/STM32F4xx_HAL_Driver/Src/stm32f4xx_ll_exti.c **** #else
  25:Drivers/STM32F4xx_HAL_Driver/Src/stm32f4xx_ll_exti.c **** #define assert_param(expr) ((void)0U)
  26:Drivers/STM32F4xx_HAL_Driver/Src/stm32f4xx_ll_exti.c **** #endif
  27:Drivers/STM32F4xx_HAL_Driver/Src/stm32f4xx_ll_exti.c **** 
  28:Drivers/STM32F4xx_HAL_Driver/Src/stm32f4xx_ll_exti.c **** /** @addtogroup STM32F4xx_LL_Driver
  29:Drivers/STM32F4xx_HAL_Driver/Src/stm32f4xx_ll_exti.c ****   * @{
ARM GAS  /tmp/ccufBkQM.s 			page 2


  30:Drivers/STM32F4xx_HAL_Driver/Src/stm32f4xx_ll_exti.c ****   */
  31:Drivers/STM32F4xx_HAL_Driver/Src/stm32f4xx_ll_exti.c **** 
  32:Drivers/STM32F4xx_HAL_Driver/Src/stm32f4xx_ll_exti.c **** #if defined (EXTI)
  33:Drivers/STM32F4xx_HAL_Driver/Src/stm32f4xx_ll_exti.c **** 
  34:Drivers/STM32F4xx_HAL_Driver/Src/stm32f4xx_ll_exti.c **** /** @defgroup EXTI_LL EXTI
  35:Drivers/STM32F4xx_HAL_Driver/Src/stm32f4xx_ll_exti.c ****   * @{
  36:Drivers/STM32F4xx_HAL_Driver/Src/stm32f4xx_ll_exti.c ****   */
  37:Drivers/STM32F4xx_HAL_Driver/Src/stm32f4xx_ll_exti.c **** 
  38:Drivers/STM32F4xx_HAL_Driver/Src/stm32f4xx_ll_exti.c **** /* Private types -------------------------------------------------------------*/
  39:Drivers/STM32F4xx_HAL_Driver/Src/stm32f4xx_ll_exti.c **** /* Private variables ---------------------------------------------------------*/
  40:Drivers/STM32F4xx_HAL_Driver/Src/stm32f4xx_ll_exti.c **** /* Private constants ---------------------------------------------------------*/
  41:Drivers/STM32F4xx_HAL_Driver/Src/stm32f4xx_ll_exti.c **** /* Private macros ------------------------------------------------------------*/
  42:Drivers/STM32F4xx_HAL_Driver/Src/stm32f4xx_ll_exti.c **** /** @addtogroup EXTI_LL_Private_Macros
  43:Drivers/STM32F4xx_HAL_Driver/Src/stm32f4xx_ll_exti.c ****   * @{
  44:Drivers/STM32F4xx_HAL_Driver/Src/stm32f4xx_ll_exti.c ****   */
  45:Drivers/STM32F4xx_HAL_Driver/Src/stm32f4xx_ll_exti.c **** 
  46:Drivers/STM32F4xx_HAL_Driver/Src/stm32f4xx_ll_exti.c **** #define IS_LL_EXTI_LINE_0_31(__VALUE__)              (((__VALUE__) & ~LL_EXTI_LINE_ALL_0_31) == 0x0
  47:Drivers/STM32F4xx_HAL_Driver/Src/stm32f4xx_ll_exti.c **** 
  48:Drivers/STM32F4xx_HAL_Driver/Src/stm32f4xx_ll_exti.c **** #define IS_LL_EXTI_MODE(__VALUE__)                   (((__VALUE__) == LL_EXTI_MODE_IT)            \
  49:Drivers/STM32F4xx_HAL_Driver/Src/stm32f4xx_ll_exti.c ****                                                    || ((__VALUE__) == LL_EXTI_MODE_EVENT)         \
  50:Drivers/STM32F4xx_HAL_Driver/Src/stm32f4xx_ll_exti.c ****                                                    || ((__VALUE__) == LL_EXTI_MODE_IT_EVENT))
  51:Drivers/STM32F4xx_HAL_Driver/Src/stm32f4xx_ll_exti.c **** 
  52:Drivers/STM32F4xx_HAL_Driver/Src/stm32f4xx_ll_exti.c **** 
  53:Drivers/STM32F4xx_HAL_Driver/Src/stm32f4xx_ll_exti.c **** #define IS_LL_EXTI_TRIGGER(__VALUE__)                (((__VALUE__) == LL_EXTI_TRIGGER_NONE)       \
  54:Drivers/STM32F4xx_HAL_Driver/Src/stm32f4xx_ll_exti.c ****                                                    || ((__VALUE__) == LL_EXTI_TRIGGER_RISING)     \
  55:Drivers/STM32F4xx_HAL_Driver/Src/stm32f4xx_ll_exti.c ****                                                    || ((__VALUE__) == LL_EXTI_TRIGGER_FALLING)    \
  56:Drivers/STM32F4xx_HAL_Driver/Src/stm32f4xx_ll_exti.c ****                                                    || ((__VALUE__) == LL_EXTI_TRIGGER_RISING_FALLIN
  57:Drivers/STM32F4xx_HAL_Driver/Src/stm32f4xx_ll_exti.c **** 
  58:Drivers/STM32F4xx_HAL_Driver/Src/stm32f4xx_ll_exti.c **** /**
  59:Drivers/STM32F4xx_HAL_Driver/Src/stm32f4xx_ll_exti.c ****   * @}
  60:Drivers/STM32F4xx_HAL_Driver/Src/stm32f4xx_ll_exti.c ****   */
  61:Drivers/STM32F4xx_HAL_Driver/Src/stm32f4xx_ll_exti.c **** 
  62:Drivers/STM32F4xx_HAL_Driver/Src/stm32f4xx_ll_exti.c **** /* Private function prototypes -----------------------------------------------*/
  63:Drivers/STM32F4xx_HAL_Driver/Src/stm32f4xx_ll_exti.c **** 
  64:Drivers/STM32F4xx_HAL_Driver/Src/stm32f4xx_ll_exti.c **** /* Exported functions --------------------------------------------------------*/
  65:Drivers/STM32F4xx_HAL_Driver/Src/stm32f4xx_ll_exti.c **** /** @addtogroup EXTI_LL_Exported_Functions
  66:Drivers/STM32F4xx_HAL_Driver/Src/stm32f4xx_ll_exti.c ****   * @{
  67:Drivers/STM32F4xx_HAL_Driver/Src/stm32f4xx_ll_exti.c ****   */
  68:Drivers/STM32F4xx_HAL_Driver/Src/stm32f4xx_ll_exti.c **** 
  69:Drivers/STM32F4xx_HAL_Driver/Src/stm32f4xx_ll_exti.c **** /** @addtogroup EXTI_LL_EF_Init
  70:Drivers/STM32F4xx_HAL_Driver/Src/stm32f4xx_ll_exti.c ****   * @{
  71:Drivers/STM32F4xx_HAL_Driver/Src/stm32f4xx_ll_exti.c ****   */
  72:Drivers/STM32F4xx_HAL_Driver/Src/stm32f4xx_ll_exti.c **** 
  73:Drivers/STM32F4xx_HAL_Driver/Src/stm32f4xx_ll_exti.c **** /**
  74:Drivers/STM32F4xx_HAL_Driver/Src/stm32f4xx_ll_exti.c ****   * @brief  De-initialize the EXTI registers to their default reset values.
  75:Drivers/STM32F4xx_HAL_Driver/Src/stm32f4xx_ll_exti.c ****   * @retval An ErrorStatus enumeration value:
  76:Drivers/STM32F4xx_HAL_Driver/Src/stm32f4xx_ll_exti.c ****   *          - SUCCESS: EXTI registers are de-initialized
  77:Drivers/STM32F4xx_HAL_Driver/Src/stm32f4xx_ll_exti.c ****   *          - ERROR: not applicable
  78:Drivers/STM32F4xx_HAL_Driver/Src/stm32f4xx_ll_exti.c ****   */
  79:Drivers/STM32F4xx_HAL_Driver/Src/stm32f4xx_ll_exti.c **** uint32_t LL_EXTI_DeInit(void)
  80:Drivers/STM32F4xx_HAL_Driver/Src/stm32f4xx_ll_exti.c **** {
  30              		.loc 1 80 1 view -0
  31              		.cfi_startproc
  32              		@ args = 0, pretend = 0, frame = 0
  33              		@ frame_needed = 0, uses_anonymous_args = 0
  34              		@ link register save eliminated.
  81:Drivers/STM32F4xx_HAL_Driver/Src/stm32f4xx_ll_exti.c ****   /* Interrupt mask register set to default reset values */
ARM GAS  /tmp/ccufBkQM.s 			page 3


  82:Drivers/STM32F4xx_HAL_Driver/Src/stm32f4xx_ll_exti.c ****   LL_EXTI_WriteReg(IMR,   0x00000000U);
  35              		.loc 1 82 3 view .LVU1
  36 0000 054B     		ldr	r3, .L3
  37 0002 0020     		movs	r0, #0
  83:Drivers/STM32F4xx_HAL_Driver/Src/stm32f4xx_ll_exti.c ****   /* Event mask register set to default reset values */
  84:Drivers/STM32F4xx_HAL_Driver/Src/stm32f4xx_ll_exti.c ****   LL_EXTI_WriteReg(EMR,   0x00000000U);
  85:Drivers/STM32F4xx_HAL_Driver/Src/stm32f4xx_ll_exti.c ****   /* Rising Trigger selection register set to default reset values */
  86:Drivers/STM32F4xx_HAL_Driver/Src/stm32f4xx_ll_exti.c ****   LL_EXTI_WriteReg(RTSR,  0x00000000U);
  87:Drivers/STM32F4xx_HAL_Driver/Src/stm32f4xx_ll_exti.c ****   /* Falling Trigger selection register set to default reset values */
  88:Drivers/STM32F4xx_HAL_Driver/Src/stm32f4xx_ll_exti.c ****   LL_EXTI_WriteReg(FTSR,  0x00000000U);
  89:Drivers/STM32F4xx_HAL_Driver/Src/stm32f4xx_ll_exti.c ****   /* Software interrupt event register set to default reset values */
  90:Drivers/STM32F4xx_HAL_Driver/Src/stm32f4xx_ll_exti.c ****   LL_EXTI_WriteReg(SWIER, 0x00000000U);
  91:Drivers/STM32F4xx_HAL_Driver/Src/stm32f4xx_ll_exti.c ****   /* Pending register set to default reset values */
  92:Drivers/STM32F4xx_HAL_Driver/Src/stm32f4xx_ll_exti.c ****   LL_EXTI_WriteReg(PR,    0x00FFFFFFU);
  38              		.loc 1 92 3 is_stmt 0 view .LVU2
  39 0004 6FF07F42 		mvn	r2, #-16777216
  82:Drivers/STM32F4xx_HAL_Driver/Src/stm32f4xx_ll_exti.c ****   /* Event mask register set to default reset values */
  40              		.loc 1 82 3 view .LVU3
  41 0008 1860     		str	r0, [r3]
  84:Drivers/STM32F4xx_HAL_Driver/Src/stm32f4xx_ll_exti.c ****   /* Rising Trigger selection register set to default reset values */
  42              		.loc 1 84 3 is_stmt 1 view .LVU4
  43 000a 5860     		str	r0, [r3, #4]
  86:Drivers/STM32F4xx_HAL_Driver/Src/stm32f4xx_ll_exti.c ****   /* Falling Trigger selection register set to default reset values */
  44              		.loc 1 86 3 view .LVU5
  45 000c 9860     		str	r0, [r3, #8]
  88:Drivers/STM32F4xx_HAL_Driver/Src/stm32f4xx_ll_exti.c ****   /* Software interrupt event register set to default reset values */
  46              		.loc 1 88 3 view .LVU6
  47 000e D860     		str	r0, [r3, #12]
  90:Drivers/STM32F4xx_HAL_Driver/Src/stm32f4xx_ll_exti.c ****   /* Pending register set to default reset values */
  48              		.loc 1 90 3 view .LVU7
  49 0010 1861     		str	r0, [r3, #16]
  50              		.loc 1 92 3 view .LVU8
  51 0012 5A61     		str	r2, [r3, #20]
  93:Drivers/STM32F4xx_HAL_Driver/Src/stm32f4xx_ll_exti.c **** 
  94:Drivers/STM32F4xx_HAL_Driver/Src/stm32f4xx_ll_exti.c ****   return SUCCESS;
  52              		.loc 1 94 3 view .LVU9
  95:Drivers/STM32F4xx_HAL_Driver/Src/stm32f4xx_ll_exti.c **** }
  53              		.loc 1 95 1 is_stmt 0 view .LVU10
  54 0014 7047     		bx	lr
  55              	.L4:
  56 0016 00BF     		.align	2
  57              	.L3:
  58 0018 003C0140 		.word	1073822720
  59              		.cfi_endproc
  60              	.LFE150:
  62              		.section	.text.LL_EXTI_Init,"ax",%progbits
  63              		.align	1
  64              		.p2align 2,,3
  65              		.global	LL_EXTI_Init
  66              		.syntax unified
  67              		.thumb
  68              		.thumb_func
  70              	LL_EXTI_Init:
  71              	.LVL0:
  72              	.LFB151:
  96:Drivers/STM32F4xx_HAL_Driver/Src/stm32f4xx_ll_exti.c **** 
  97:Drivers/STM32F4xx_HAL_Driver/Src/stm32f4xx_ll_exti.c **** /**
ARM GAS  /tmp/ccufBkQM.s 			page 4


  98:Drivers/STM32F4xx_HAL_Driver/Src/stm32f4xx_ll_exti.c ****   * @brief  Initialize the EXTI registers according to the specified parameters in EXTI_InitStruct.
  99:Drivers/STM32F4xx_HAL_Driver/Src/stm32f4xx_ll_exti.c ****   * @param  EXTI_InitStruct pointer to a @ref LL_EXTI_InitTypeDef structure.
 100:Drivers/STM32F4xx_HAL_Driver/Src/stm32f4xx_ll_exti.c ****   * @retval An ErrorStatus enumeration value:
 101:Drivers/STM32F4xx_HAL_Driver/Src/stm32f4xx_ll_exti.c ****   *          - SUCCESS: EXTI registers are initialized
 102:Drivers/STM32F4xx_HAL_Driver/Src/stm32f4xx_ll_exti.c ****   *          - ERROR: not applicable
 103:Drivers/STM32F4xx_HAL_Driver/Src/stm32f4xx_ll_exti.c ****   */
 104:Drivers/STM32F4xx_HAL_Driver/Src/stm32f4xx_ll_exti.c **** uint32_t LL_EXTI_Init(LL_EXTI_InitTypeDef *EXTI_InitStruct)
 105:Drivers/STM32F4xx_HAL_Driver/Src/stm32f4xx_ll_exti.c **** {
  73              		.loc 1 105 1 is_stmt 1 view -0
  74              		.cfi_startproc
  75              		@ args = 0, pretend = 0, frame = 0
  76              		@ frame_needed = 0, uses_anonymous_args = 0
  77              		@ link register save eliminated.
 106:Drivers/STM32F4xx_HAL_Driver/Src/stm32f4xx_ll_exti.c ****   ErrorStatus status = SUCCESS;
  78              		.loc 1 106 3 view .LVU12
 107:Drivers/STM32F4xx_HAL_Driver/Src/stm32f4xx_ll_exti.c ****   /* Check the parameters */
 108:Drivers/STM32F4xx_HAL_Driver/Src/stm32f4xx_ll_exti.c ****   assert_param(IS_LL_EXTI_LINE_0_31(EXTI_InitStruct->Line_0_31));
  79              		.loc 1 108 3 view .LVU13
 109:Drivers/STM32F4xx_HAL_Driver/Src/stm32f4xx_ll_exti.c ****   assert_param(IS_FUNCTIONAL_STATE(EXTI_InitStruct->LineCommand));
  80              		.loc 1 109 3 view .LVU14
 110:Drivers/STM32F4xx_HAL_Driver/Src/stm32f4xx_ll_exti.c ****   assert_param(IS_LL_EXTI_MODE(EXTI_InitStruct->Mode));
  81              		.loc 1 110 3 view .LVU15
 111:Drivers/STM32F4xx_HAL_Driver/Src/stm32f4xx_ll_exti.c **** 
 112:Drivers/STM32F4xx_HAL_Driver/Src/stm32f4xx_ll_exti.c ****   /* ENABLE LineCommand */
 113:Drivers/STM32F4xx_HAL_Driver/Src/stm32f4xx_ll_exti.c ****   if (EXTI_InitStruct->LineCommand != DISABLE)
  82              		.loc 1 113 3 view .LVU16
  83              		.loc 1 113 6 is_stmt 0 view .LVU17
  84 0000 0279     		ldrb	r2, [r0, #4]	@ zero_extendqisi2
 114:Drivers/STM32F4xx_HAL_Driver/Src/stm32f4xx_ll_exti.c ****   {
 115:Drivers/STM32F4xx_HAL_Driver/Src/stm32f4xx_ll_exti.c ****     assert_param(IS_LL_EXTI_TRIGGER(EXTI_InitStruct->Trigger));
 116:Drivers/STM32F4xx_HAL_Driver/Src/stm32f4xx_ll_exti.c **** 
 117:Drivers/STM32F4xx_HAL_Driver/Src/stm32f4xx_ll_exti.c ****     /* Configure EXTI Lines in range from 0 to 31 */
 118:Drivers/STM32F4xx_HAL_Driver/Src/stm32f4xx_ll_exti.c ****     if (EXTI_InitStruct->Line_0_31 != LL_EXTI_LINE_NONE)
  85              		.loc 1 118 24 view .LVU18
  86 0002 0168     		ldr	r1, [r0]
 105:Drivers/STM32F4xx_HAL_Driver/Src/stm32f4xx_ll_exti.c ****   ErrorStatus status = SUCCESS;
  87              		.loc 1 105 1 view .LVU19
  88 0004 0346     		mov	r3, r0
 113:Drivers/STM32F4xx_HAL_Driver/Src/stm32f4xx_ll_exti.c ****   {
  89              		.loc 1 113 6 view .LVU20
  90 0006 CAB1     		cbz	r2, .L6
 115:Drivers/STM32F4xx_HAL_Driver/Src/stm32f4xx_ll_exti.c **** 
  91              		.loc 1 115 5 is_stmt 1 view .LVU21
  92              		.loc 1 118 5 view .LVU22
  93              		.loc 1 118 8 is_stmt 0 view .LVU23
  94 0008 09B3     		cbz	r1, .L16
 119:Drivers/STM32F4xx_HAL_Driver/Src/stm32f4xx_ll_exti.c ****     {
 120:Drivers/STM32F4xx_HAL_Driver/Src/stm32f4xx_ll_exti.c ****       switch (EXTI_InitStruct->Mode)
  95              		.loc 1 120 7 is_stmt 1 view .LVU24
  96              		.loc 1 120 30 is_stmt 0 view .LVU25
  97 000a 4279     		ldrb	r2, [r0, #5]	@ zero_extendqisi2
  98              		.loc 1 120 7 view .LVU26
  99 000c 012A     		cmp	r2, #1
 100 000e 20D0     		beq	.L9
 101 0010 022A     		cmp	r2, #2
 102 0012 29D0     		beq	.L10
 103 0014 32BB     		cbnz	r2, .L17
ARM GAS  /tmp/ccufBkQM.s 			page 5


 121:Drivers/STM32F4xx_HAL_Driver/Src/stm32f4xx_ll_exti.c ****       {
 122:Drivers/STM32F4xx_HAL_Driver/Src/stm32f4xx_ll_exti.c ****         case LL_EXTI_MODE_IT:
 123:Drivers/STM32F4xx_HAL_Driver/Src/stm32f4xx_ll_exti.c ****           /* First Disable Event on provided Lines */
 124:Drivers/STM32F4xx_HAL_Driver/Src/stm32f4xx_ll_exti.c ****           LL_EXTI_DisableEvent_0_31(EXTI_InitStruct->Line_0_31);
 104              		.loc 1 124 11 is_stmt 1 view .LVU27
 105              	.LVL1:
 106              	.LBB30:
 107              	.LBI30:
 108              		.file 2 "Drivers/STM32F4xx_HAL_Driver/Inc/stm32f4xx_ll_exti.h"
   1:Drivers/STM32F4xx_HAL_Driver/Inc/stm32f4xx_ll_exti.h **** /**
   2:Drivers/STM32F4xx_HAL_Driver/Inc/stm32f4xx_ll_exti.h ****   ******************************************************************************
   3:Drivers/STM32F4xx_HAL_Driver/Inc/stm32f4xx_ll_exti.h ****   * @file    stm32f4xx_ll_exti.h
   4:Drivers/STM32F4xx_HAL_Driver/Inc/stm32f4xx_ll_exti.h ****   * @author  MCD Application Team
   5:Drivers/STM32F4xx_HAL_Driver/Inc/stm32f4xx_ll_exti.h ****   * @brief   Header file of EXTI LL module.
   6:Drivers/STM32F4xx_HAL_Driver/Inc/stm32f4xx_ll_exti.h ****   ******************************************************************************
   7:Drivers/STM32F4xx_HAL_Driver/Inc/stm32f4xx_ll_exti.h ****   * @attention
   8:Drivers/STM32F4xx_HAL_Driver/Inc/stm32f4xx_ll_exti.h ****   *
   9:Drivers/STM32F4xx_HAL_Driver/Inc/stm32f4xx_ll_exti.h ****   * Copyright (c) 2016 STMicroelectronics.
  10:Drivers/STM32F4xx_HAL_Driver/Inc/stm32f4xx_ll_exti.h ****   * All rights reserved.
  11:Drivers/STM32F4xx_HAL_Driver/Inc/stm32f4xx_ll_exti.h ****   *
  12:Drivers/STM32F4xx_HAL_Driver/Inc/stm32f4xx_ll_exti.h ****   * This software is licensed under terms that can be found in the LICENSE file
  13:Drivers/STM32F4xx_HAL_Driver/Inc/stm32f4xx_ll_exti.h ****   * in the root directory of this software component.
  14:Drivers/STM32F4xx_HAL_Driver/Inc/stm32f4xx_ll_exti.h ****   * If no LICENSE file comes with this software, it is provided AS-IS.Clause
  15:Drivers/STM32F4xx_HAL_Driver/Inc/stm32f4xx_ll_exti.h ****   *
  16:Drivers/STM32F4xx_HAL_Driver/Inc/stm32f4xx_ll_exti.h ****   ******************************************************************************
  17:Drivers/STM32F4xx_HAL_Driver/Inc/stm32f4xx_ll_exti.h ****   */
  18:Drivers/STM32F4xx_HAL_Driver/Inc/stm32f4xx_ll_exti.h **** 
  19:Drivers/STM32F4xx_HAL_Driver/Inc/stm32f4xx_ll_exti.h **** /* Define to prevent recursive inclusion -------------------------------------*/
  20:Drivers/STM32F4xx_HAL_Driver/Inc/stm32f4xx_ll_exti.h **** #ifndef __STM32F4xx_LL_EXTI_H
  21:Drivers/STM32F4xx_HAL_Driver/Inc/stm32f4xx_ll_exti.h **** #define __STM32F4xx_LL_EXTI_H
  22:Drivers/STM32F4xx_HAL_Driver/Inc/stm32f4xx_ll_exti.h **** 
  23:Drivers/STM32F4xx_HAL_Driver/Inc/stm32f4xx_ll_exti.h **** #ifdef __cplusplus
  24:Drivers/STM32F4xx_HAL_Driver/Inc/stm32f4xx_ll_exti.h **** extern "C" {
  25:Drivers/STM32F4xx_HAL_Driver/Inc/stm32f4xx_ll_exti.h **** #endif
  26:Drivers/STM32F4xx_HAL_Driver/Inc/stm32f4xx_ll_exti.h **** 
  27:Drivers/STM32F4xx_HAL_Driver/Inc/stm32f4xx_ll_exti.h **** /* Includes ------------------------------------------------------------------*/
  28:Drivers/STM32F4xx_HAL_Driver/Inc/stm32f4xx_ll_exti.h **** #include "stm32f4xx.h"
  29:Drivers/STM32F4xx_HAL_Driver/Inc/stm32f4xx_ll_exti.h **** 
  30:Drivers/STM32F4xx_HAL_Driver/Inc/stm32f4xx_ll_exti.h **** /** @addtogroup STM32F4xx_LL_Driver
  31:Drivers/STM32F4xx_HAL_Driver/Inc/stm32f4xx_ll_exti.h ****   * @{
  32:Drivers/STM32F4xx_HAL_Driver/Inc/stm32f4xx_ll_exti.h ****   */
  33:Drivers/STM32F4xx_HAL_Driver/Inc/stm32f4xx_ll_exti.h **** 
  34:Drivers/STM32F4xx_HAL_Driver/Inc/stm32f4xx_ll_exti.h **** #if defined (EXTI)
  35:Drivers/STM32F4xx_HAL_Driver/Inc/stm32f4xx_ll_exti.h **** 
  36:Drivers/STM32F4xx_HAL_Driver/Inc/stm32f4xx_ll_exti.h **** /** @defgroup EXTI_LL EXTI
  37:Drivers/STM32F4xx_HAL_Driver/Inc/stm32f4xx_ll_exti.h ****   * @{
  38:Drivers/STM32F4xx_HAL_Driver/Inc/stm32f4xx_ll_exti.h ****   */
  39:Drivers/STM32F4xx_HAL_Driver/Inc/stm32f4xx_ll_exti.h **** 
  40:Drivers/STM32F4xx_HAL_Driver/Inc/stm32f4xx_ll_exti.h **** /* Private types -------------------------------------------------------------*/
  41:Drivers/STM32F4xx_HAL_Driver/Inc/stm32f4xx_ll_exti.h **** /* Private variables ---------------------------------------------------------*/
  42:Drivers/STM32F4xx_HAL_Driver/Inc/stm32f4xx_ll_exti.h **** /* Private constants ---------------------------------------------------------*/
  43:Drivers/STM32F4xx_HAL_Driver/Inc/stm32f4xx_ll_exti.h **** /* Private Macros ------------------------------------------------------------*/
  44:Drivers/STM32F4xx_HAL_Driver/Inc/stm32f4xx_ll_exti.h **** #if defined(USE_FULL_LL_DRIVER)
  45:Drivers/STM32F4xx_HAL_Driver/Inc/stm32f4xx_ll_exti.h **** /** @defgroup EXTI_LL_Private_Macros EXTI Private Macros
  46:Drivers/STM32F4xx_HAL_Driver/Inc/stm32f4xx_ll_exti.h ****   * @{
  47:Drivers/STM32F4xx_HAL_Driver/Inc/stm32f4xx_ll_exti.h ****   */
  48:Drivers/STM32F4xx_HAL_Driver/Inc/stm32f4xx_ll_exti.h **** /**
ARM GAS  /tmp/ccufBkQM.s 			page 6


  49:Drivers/STM32F4xx_HAL_Driver/Inc/stm32f4xx_ll_exti.h ****   * @}
  50:Drivers/STM32F4xx_HAL_Driver/Inc/stm32f4xx_ll_exti.h ****   */
  51:Drivers/STM32F4xx_HAL_Driver/Inc/stm32f4xx_ll_exti.h **** #endif /*USE_FULL_LL_DRIVER*/
  52:Drivers/STM32F4xx_HAL_Driver/Inc/stm32f4xx_ll_exti.h **** /* Exported types ------------------------------------------------------------*/
  53:Drivers/STM32F4xx_HAL_Driver/Inc/stm32f4xx_ll_exti.h **** #if defined(USE_FULL_LL_DRIVER)
  54:Drivers/STM32F4xx_HAL_Driver/Inc/stm32f4xx_ll_exti.h **** /** @defgroup EXTI_LL_ES_INIT EXTI Exported Init structure
  55:Drivers/STM32F4xx_HAL_Driver/Inc/stm32f4xx_ll_exti.h ****   * @{
  56:Drivers/STM32F4xx_HAL_Driver/Inc/stm32f4xx_ll_exti.h ****   */
  57:Drivers/STM32F4xx_HAL_Driver/Inc/stm32f4xx_ll_exti.h **** typedef struct
  58:Drivers/STM32F4xx_HAL_Driver/Inc/stm32f4xx_ll_exti.h **** {
  59:Drivers/STM32F4xx_HAL_Driver/Inc/stm32f4xx_ll_exti.h **** 
  60:Drivers/STM32F4xx_HAL_Driver/Inc/stm32f4xx_ll_exti.h ****   uint32_t Line_0_31;           /*!< Specifies the EXTI lines to be enabled or disabled for Lines i
  61:Drivers/STM32F4xx_HAL_Driver/Inc/stm32f4xx_ll_exti.h ****                                      This parameter can be any combination of @ref EXTI_LL_EC_LINE 
  62:Drivers/STM32F4xx_HAL_Driver/Inc/stm32f4xx_ll_exti.h **** 
  63:Drivers/STM32F4xx_HAL_Driver/Inc/stm32f4xx_ll_exti.h ****   FunctionalState LineCommand;  /*!< Specifies the new state of the selected EXTI lines.
  64:Drivers/STM32F4xx_HAL_Driver/Inc/stm32f4xx_ll_exti.h ****                                      This parameter can be set either to ENABLE or DISABLE */
  65:Drivers/STM32F4xx_HAL_Driver/Inc/stm32f4xx_ll_exti.h **** 
  66:Drivers/STM32F4xx_HAL_Driver/Inc/stm32f4xx_ll_exti.h ****   uint8_t Mode;                 /*!< Specifies the mode for the EXTI lines.
  67:Drivers/STM32F4xx_HAL_Driver/Inc/stm32f4xx_ll_exti.h ****                                      This parameter can be a value of @ref EXTI_LL_EC_MODE. */
  68:Drivers/STM32F4xx_HAL_Driver/Inc/stm32f4xx_ll_exti.h **** 
  69:Drivers/STM32F4xx_HAL_Driver/Inc/stm32f4xx_ll_exti.h ****   uint8_t Trigger;              /*!< Specifies the trigger signal active edge for the EXTI lines.
  70:Drivers/STM32F4xx_HAL_Driver/Inc/stm32f4xx_ll_exti.h ****                                      This parameter can be a value of @ref EXTI_LL_EC_TRIGGER. */
  71:Drivers/STM32F4xx_HAL_Driver/Inc/stm32f4xx_ll_exti.h **** } LL_EXTI_InitTypeDef;
  72:Drivers/STM32F4xx_HAL_Driver/Inc/stm32f4xx_ll_exti.h **** 
  73:Drivers/STM32F4xx_HAL_Driver/Inc/stm32f4xx_ll_exti.h **** /**
  74:Drivers/STM32F4xx_HAL_Driver/Inc/stm32f4xx_ll_exti.h ****   * @}
  75:Drivers/STM32F4xx_HAL_Driver/Inc/stm32f4xx_ll_exti.h ****   */
  76:Drivers/STM32F4xx_HAL_Driver/Inc/stm32f4xx_ll_exti.h **** #endif /*USE_FULL_LL_DRIVER*/
  77:Drivers/STM32F4xx_HAL_Driver/Inc/stm32f4xx_ll_exti.h **** 
  78:Drivers/STM32F4xx_HAL_Driver/Inc/stm32f4xx_ll_exti.h **** /* Exported constants --------------------------------------------------------*/
  79:Drivers/STM32F4xx_HAL_Driver/Inc/stm32f4xx_ll_exti.h **** /** @defgroup EXTI_LL_Exported_Constants EXTI Exported Constants
  80:Drivers/STM32F4xx_HAL_Driver/Inc/stm32f4xx_ll_exti.h ****   * @{
  81:Drivers/STM32F4xx_HAL_Driver/Inc/stm32f4xx_ll_exti.h ****   */
  82:Drivers/STM32F4xx_HAL_Driver/Inc/stm32f4xx_ll_exti.h **** 
  83:Drivers/STM32F4xx_HAL_Driver/Inc/stm32f4xx_ll_exti.h **** /** @defgroup EXTI_LL_EC_LINE LINE
  84:Drivers/STM32F4xx_HAL_Driver/Inc/stm32f4xx_ll_exti.h ****   * @{
  85:Drivers/STM32F4xx_HAL_Driver/Inc/stm32f4xx_ll_exti.h ****   */
  86:Drivers/STM32F4xx_HAL_Driver/Inc/stm32f4xx_ll_exti.h **** #define LL_EXTI_LINE_0                 EXTI_IMR_IM0           /*!< Extended line 0 */
  87:Drivers/STM32F4xx_HAL_Driver/Inc/stm32f4xx_ll_exti.h **** #define LL_EXTI_LINE_1                 EXTI_IMR_IM1           /*!< Extended line 1 */
  88:Drivers/STM32F4xx_HAL_Driver/Inc/stm32f4xx_ll_exti.h **** #define LL_EXTI_LINE_2                 EXTI_IMR_IM2           /*!< Extended line 2 */
  89:Drivers/STM32F4xx_HAL_Driver/Inc/stm32f4xx_ll_exti.h **** #define LL_EXTI_LINE_3                 EXTI_IMR_IM3           /*!< Extended line 3 */
  90:Drivers/STM32F4xx_HAL_Driver/Inc/stm32f4xx_ll_exti.h **** #define LL_EXTI_LINE_4                 EXTI_IMR_IM4           /*!< Extended line 4 */
  91:Drivers/STM32F4xx_HAL_Driver/Inc/stm32f4xx_ll_exti.h **** #define LL_EXTI_LINE_5                 EXTI_IMR_IM5           /*!< Extended line 5 */
  92:Drivers/STM32F4xx_HAL_Driver/Inc/stm32f4xx_ll_exti.h **** #define LL_EXTI_LINE_6                 EXTI_IMR_IM6           /*!< Extended line 6 */
  93:Drivers/STM32F4xx_HAL_Driver/Inc/stm32f4xx_ll_exti.h **** #define LL_EXTI_LINE_7                 EXTI_IMR_IM7           /*!< Extended line 7 */
  94:Drivers/STM32F4xx_HAL_Driver/Inc/stm32f4xx_ll_exti.h **** #define LL_EXTI_LINE_8                 EXTI_IMR_IM8           /*!< Extended line 8 */
  95:Drivers/STM32F4xx_HAL_Driver/Inc/stm32f4xx_ll_exti.h **** #define LL_EXTI_LINE_9                 EXTI_IMR_IM9           /*!< Extended line 9 */
  96:Drivers/STM32F4xx_HAL_Driver/Inc/stm32f4xx_ll_exti.h **** #define LL_EXTI_LINE_10                EXTI_IMR_IM10          /*!< Extended line 10 */
  97:Drivers/STM32F4xx_HAL_Driver/Inc/stm32f4xx_ll_exti.h **** #define LL_EXTI_LINE_11                EXTI_IMR_IM11          /*!< Extended line 11 */
  98:Drivers/STM32F4xx_HAL_Driver/Inc/stm32f4xx_ll_exti.h **** #define LL_EXTI_LINE_12                EXTI_IMR_IM12          /*!< Extended line 12 */
  99:Drivers/STM32F4xx_HAL_Driver/Inc/stm32f4xx_ll_exti.h **** #define LL_EXTI_LINE_13                EXTI_IMR_IM13          /*!< Extended line 13 */
 100:Drivers/STM32F4xx_HAL_Driver/Inc/stm32f4xx_ll_exti.h **** #define LL_EXTI_LINE_14                EXTI_IMR_IM14          /*!< Extended line 14 */
 101:Drivers/STM32F4xx_HAL_Driver/Inc/stm32f4xx_ll_exti.h **** #define LL_EXTI_LINE_15                EXTI_IMR_IM15          /*!< Extended line 15 */
 102:Drivers/STM32F4xx_HAL_Driver/Inc/stm32f4xx_ll_exti.h **** #if defined(EXTI_IMR_IM16)
 103:Drivers/STM32F4xx_HAL_Driver/Inc/stm32f4xx_ll_exti.h **** #define LL_EXTI_LINE_16                EXTI_IMR_IM16          /*!< Extended line 16 */
 104:Drivers/STM32F4xx_HAL_Driver/Inc/stm32f4xx_ll_exti.h **** #endif
 105:Drivers/STM32F4xx_HAL_Driver/Inc/stm32f4xx_ll_exti.h **** #define LL_EXTI_LINE_17                EXTI_IMR_IM17          /*!< Extended line 17 */
ARM GAS  /tmp/ccufBkQM.s 			page 7


 106:Drivers/STM32F4xx_HAL_Driver/Inc/stm32f4xx_ll_exti.h **** #if defined(EXTI_IMR_IM18)
 107:Drivers/STM32F4xx_HAL_Driver/Inc/stm32f4xx_ll_exti.h **** #define LL_EXTI_LINE_18                EXTI_IMR_IM18          /*!< Extended line 18 */
 108:Drivers/STM32F4xx_HAL_Driver/Inc/stm32f4xx_ll_exti.h **** #endif
 109:Drivers/STM32F4xx_HAL_Driver/Inc/stm32f4xx_ll_exti.h **** #define LL_EXTI_LINE_19                EXTI_IMR_IM19          /*!< Extended line 19 */
 110:Drivers/STM32F4xx_HAL_Driver/Inc/stm32f4xx_ll_exti.h **** #if defined(EXTI_IMR_IM20)
 111:Drivers/STM32F4xx_HAL_Driver/Inc/stm32f4xx_ll_exti.h **** #define LL_EXTI_LINE_20                EXTI_IMR_IM20          /*!< Extended line 20 */
 112:Drivers/STM32F4xx_HAL_Driver/Inc/stm32f4xx_ll_exti.h **** #endif
 113:Drivers/STM32F4xx_HAL_Driver/Inc/stm32f4xx_ll_exti.h **** #if defined(EXTI_IMR_IM21)
 114:Drivers/STM32F4xx_HAL_Driver/Inc/stm32f4xx_ll_exti.h **** #define LL_EXTI_LINE_21                EXTI_IMR_IM21          /*!< Extended line 21 */
 115:Drivers/STM32F4xx_HAL_Driver/Inc/stm32f4xx_ll_exti.h **** #endif
 116:Drivers/STM32F4xx_HAL_Driver/Inc/stm32f4xx_ll_exti.h **** #if defined(EXTI_IMR_IM22)
 117:Drivers/STM32F4xx_HAL_Driver/Inc/stm32f4xx_ll_exti.h **** #define LL_EXTI_LINE_22                EXTI_IMR_IM22          /*!< Extended line 22 */
 118:Drivers/STM32F4xx_HAL_Driver/Inc/stm32f4xx_ll_exti.h **** #endif
 119:Drivers/STM32F4xx_HAL_Driver/Inc/stm32f4xx_ll_exti.h **** #if defined(EXTI_IMR_IM23)
 120:Drivers/STM32F4xx_HAL_Driver/Inc/stm32f4xx_ll_exti.h **** #define LL_EXTI_LINE_23                EXTI_IMR_IM23          /*!< Extended line 23 */
 121:Drivers/STM32F4xx_HAL_Driver/Inc/stm32f4xx_ll_exti.h **** #endif
 122:Drivers/STM32F4xx_HAL_Driver/Inc/stm32f4xx_ll_exti.h **** #if defined(EXTI_IMR_IM24)
 123:Drivers/STM32F4xx_HAL_Driver/Inc/stm32f4xx_ll_exti.h **** #define LL_EXTI_LINE_24                EXTI_IMR_IM24          /*!< Extended line 24 */
 124:Drivers/STM32F4xx_HAL_Driver/Inc/stm32f4xx_ll_exti.h **** #endif
 125:Drivers/STM32F4xx_HAL_Driver/Inc/stm32f4xx_ll_exti.h **** #if defined(EXTI_IMR_IM25)
 126:Drivers/STM32F4xx_HAL_Driver/Inc/stm32f4xx_ll_exti.h **** #define LL_EXTI_LINE_25                EXTI_IMR_IM25          /*!< Extended line 25 */
 127:Drivers/STM32F4xx_HAL_Driver/Inc/stm32f4xx_ll_exti.h **** #endif
 128:Drivers/STM32F4xx_HAL_Driver/Inc/stm32f4xx_ll_exti.h **** #if defined(EXTI_IMR_IM26)
 129:Drivers/STM32F4xx_HAL_Driver/Inc/stm32f4xx_ll_exti.h **** #define LL_EXTI_LINE_26                EXTI_IMR_IM26          /*!< Extended line 26 */
 130:Drivers/STM32F4xx_HAL_Driver/Inc/stm32f4xx_ll_exti.h **** #endif
 131:Drivers/STM32F4xx_HAL_Driver/Inc/stm32f4xx_ll_exti.h **** #if defined(EXTI_IMR_IM27)
 132:Drivers/STM32F4xx_HAL_Driver/Inc/stm32f4xx_ll_exti.h **** #define LL_EXTI_LINE_27                EXTI_IMR_IM27          /*!< Extended line 27 */
 133:Drivers/STM32F4xx_HAL_Driver/Inc/stm32f4xx_ll_exti.h **** #endif
 134:Drivers/STM32F4xx_HAL_Driver/Inc/stm32f4xx_ll_exti.h **** #if defined(EXTI_IMR_IM28)
 135:Drivers/STM32F4xx_HAL_Driver/Inc/stm32f4xx_ll_exti.h **** #define LL_EXTI_LINE_28                EXTI_IMR_IM28          /*!< Extended line 28 */
 136:Drivers/STM32F4xx_HAL_Driver/Inc/stm32f4xx_ll_exti.h **** #endif
 137:Drivers/STM32F4xx_HAL_Driver/Inc/stm32f4xx_ll_exti.h **** #if defined(EXTI_IMR_IM29)
 138:Drivers/STM32F4xx_HAL_Driver/Inc/stm32f4xx_ll_exti.h **** #define LL_EXTI_LINE_29                EXTI_IMR_IM29          /*!< Extended line 29 */
 139:Drivers/STM32F4xx_HAL_Driver/Inc/stm32f4xx_ll_exti.h **** #endif
 140:Drivers/STM32F4xx_HAL_Driver/Inc/stm32f4xx_ll_exti.h **** #if defined(EXTI_IMR_IM30)
 141:Drivers/STM32F4xx_HAL_Driver/Inc/stm32f4xx_ll_exti.h **** #define LL_EXTI_LINE_30                EXTI_IMR_IM30          /*!< Extended line 30 */
 142:Drivers/STM32F4xx_HAL_Driver/Inc/stm32f4xx_ll_exti.h **** #endif
 143:Drivers/STM32F4xx_HAL_Driver/Inc/stm32f4xx_ll_exti.h **** #if defined(EXTI_IMR_IM31)
 144:Drivers/STM32F4xx_HAL_Driver/Inc/stm32f4xx_ll_exti.h **** #define LL_EXTI_LINE_31                EXTI_IMR_IM31          /*!< Extended line 31 */
 145:Drivers/STM32F4xx_HAL_Driver/Inc/stm32f4xx_ll_exti.h **** #endif
 146:Drivers/STM32F4xx_HAL_Driver/Inc/stm32f4xx_ll_exti.h **** #define LL_EXTI_LINE_ALL_0_31          EXTI_IMR_IM            /*!< All Extended line not reserved*/
 147:Drivers/STM32F4xx_HAL_Driver/Inc/stm32f4xx_ll_exti.h **** 
 148:Drivers/STM32F4xx_HAL_Driver/Inc/stm32f4xx_ll_exti.h **** 
 149:Drivers/STM32F4xx_HAL_Driver/Inc/stm32f4xx_ll_exti.h **** #define LL_EXTI_LINE_ALL               ((uint32_t)0xFFFFFFFFU)  /*!< All Extended line */
 150:Drivers/STM32F4xx_HAL_Driver/Inc/stm32f4xx_ll_exti.h **** 
 151:Drivers/STM32F4xx_HAL_Driver/Inc/stm32f4xx_ll_exti.h **** #if defined(USE_FULL_LL_DRIVER)
 152:Drivers/STM32F4xx_HAL_Driver/Inc/stm32f4xx_ll_exti.h **** #define LL_EXTI_LINE_NONE              ((uint32_t)0x00000000U)  /*!< None Extended line */
 153:Drivers/STM32F4xx_HAL_Driver/Inc/stm32f4xx_ll_exti.h **** #endif /*USE_FULL_LL_DRIVER*/
 154:Drivers/STM32F4xx_HAL_Driver/Inc/stm32f4xx_ll_exti.h **** 
 155:Drivers/STM32F4xx_HAL_Driver/Inc/stm32f4xx_ll_exti.h **** /**
 156:Drivers/STM32F4xx_HAL_Driver/Inc/stm32f4xx_ll_exti.h ****   * @}
 157:Drivers/STM32F4xx_HAL_Driver/Inc/stm32f4xx_ll_exti.h ****   */
 158:Drivers/STM32F4xx_HAL_Driver/Inc/stm32f4xx_ll_exti.h **** #if defined(USE_FULL_LL_DRIVER)
 159:Drivers/STM32F4xx_HAL_Driver/Inc/stm32f4xx_ll_exti.h **** 
 160:Drivers/STM32F4xx_HAL_Driver/Inc/stm32f4xx_ll_exti.h **** /** @defgroup EXTI_LL_EC_MODE Mode
 161:Drivers/STM32F4xx_HAL_Driver/Inc/stm32f4xx_ll_exti.h ****   * @{
 162:Drivers/STM32F4xx_HAL_Driver/Inc/stm32f4xx_ll_exti.h ****   */
ARM GAS  /tmp/ccufBkQM.s 			page 8


 163:Drivers/STM32F4xx_HAL_Driver/Inc/stm32f4xx_ll_exti.h **** #define LL_EXTI_MODE_IT                 ((uint8_t)0x00U) /*!< Interrupt Mode */
 164:Drivers/STM32F4xx_HAL_Driver/Inc/stm32f4xx_ll_exti.h **** #define LL_EXTI_MODE_EVENT              ((uint8_t)0x01U) /*!< Event Mode */
 165:Drivers/STM32F4xx_HAL_Driver/Inc/stm32f4xx_ll_exti.h **** #define LL_EXTI_MODE_IT_EVENT           ((uint8_t)0x02U) /*!< Interrupt & Event Mode */
 166:Drivers/STM32F4xx_HAL_Driver/Inc/stm32f4xx_ll_exti.h **** /**
 167:Drivers/STM32F4xx_HAL_Driver/Inc/stm32f4xx_ll_exti.h ****   * @}
 168:Drivers/STM32F4xx_HAL_Driver/Inc/stm32f4xx_ll_exti.h ****   */
 169:Drivers/STM32F4xx_HAL_Driver/Inc/stm32f4xx_ll_exti.h **** 
 170:Drivers/STM32F4xx_HAL_Driver/Inc/stm32f4xx_ll_exti.h **** /** @defgroup EXTI_LL_EC_TRIGGER Edge Trigger
 171:Drivers/STM32F4xx_HAL_Driver/Inc/stm32f4xx_ll_exti.h ****   * @{
 172:Drivers/STM32F4xx_HAL_Driver/Inc/stm32f4xx_ll_exti.h ****   */
 173:Drivers/STM32F4xx_HAL_Driver/Inc/stm32f4xx_ll_exti.h **** #define LL_EXTI_TRIGGER_NONE            ((uint8_t)0x00U) /*!< No Trigger Mode */
 174:Drivers/STM32F4xx_HAL_Driver/Inc/stm32f4xx_ll_exti.h **** #define LL_EXTI_TRIGGER_RISING          ((uint8_t)0x01U) /*!< Trigger Rising Mode */
 175:Drivers/STM32F4xx_HAL_Driver/Inc/stm32f4xx_ll_exti.h **** #define LL_EXTI_TRIGGER_FALLING         ((uint8_t)0x02U) /*!< Trigger Falling Mode */
 176:Drivers/STM32F4xx_HAL_Driver/Inc/stm32f4xx_ll_exti.h **** #define LL_EXTI_TRIGGER_RISING_FALLING  ((uint8_t)0x03U) /*!< Trigger Rising & Falling Mode */
 177:Drivers/STM32F4xx_HAL_Driver/Inc/stm32f4xx_ll_exti.h **** 
 178:Drivers/STM32F4xx_HAL_Driver/Inc/stm32f4xx_ll_exti.h **** /**
 179:Drivers/STM32F4xx_HAL_Driver/Inc/stm32f4xx_ll_exti.h ****   * @}
 180:Drivers/STM32F4xx_HAL_Driver/Inc/stm32f4xx_ll_exti.h ****   */
 181:Drivers/STM32F4xx_HAL_Driver/Inc/stm32f4xx_ll_exti.h **** 
 182:Drivers/STM32F4xx_HAL_Driver/Inc/stm32f4xx_ll_exti.h **** 
 183:Drivers/STM32F4xx_HAL_Driver/Inc/stm32f4xx_ll_exti.h **** #endif /*USE_FULL_LL_DRIVER*/
 184:Drivers/STM32F4xx_HAL_Driver/Inc/stm32f4xx_ll_exti.h **** 
 185:Drivers/STM32F4xx_HAL_Driver/Inc/stm32f4xx_ll_exti.h **** 
 186:Drivers/STM32F4xx_HAL_Driver/Inc/stm32f4xx_ll_exti.h **** /**
 187:Drivers/STM32F4xx_HAL_Driver/Inc/stm32f4xx_ll_exti.h ****   * @}
 188:Drivers/STM32F4xx_HAL_Driver/Inc/stm32f4xx_ll_exti.h ****   */
 189:Drivers/STM32F4xx_HAL_Driver/Inc/stm32f4xx_ll_exti.h **** 
 190:Drivers/STM32F4xx_HAL_Driver/Inc/stm32f4xx_ll_exti.h **** /* Exported macro ------------------------------------------------------------*/
 191:Drivers/STM32F4xx_HAL_Driver/Inc/stm32f4xx_ll_exti.h **** /** @defgroup EXTI_LL_Exported_Macros EXTI Exported Macros
 192:Drivers/STM32F4xx_HAL_Driver/Inc/stm32f4xx_ll_exti.h ****   * @{
 193:Drivers/STM32F4xx_HAL_Driver/Inc/stm32f4xx_ll_exti.h ****   */
 194:Drivers/STM32F4xx_HAL_Driver/Inc/stm32f4xx_ll_exti.h **** 
 195:Drivers/STM32F4xx_HAL_Driver/Inc/stm32f4xx_ll_exti.h **** /** @defgroup EXTI_LL_EM_WRITE_READ Common Write and read registers Macros
 196:Drivers/STM32F4xx_HAL_Driver/Inc/stm32f4xx_ll_exti.h ****   * @{
 197:Drivers/STM32F4xx_HAL_Driver/Inc/stm32f4xx_ll_exti.h ****   */
 198:Drivers/STM32F4xx_HAL_Driver/Inc/stm32f4xx_ll_exti.h **** 
 199:Drivers/STM32F4xx_HAL_Driver/Inc/stm32f4xx_ll_exti.h **** /**
 200:Drivers/STM32F4xx_HAL_Driver/Inc/stm32f4xx_ll_exti.h ****   * @brief  Write a value in EXTI register
 201:Drivers/STM32F4xx_HAL_Driver/Inc/stm32f4xx_ll_exti.h ****   * @param  __REG__ Register to be written
 202:Drivers/STM32F4xx_HAL_Driver/Inc/stm32f4xx_ll_exti.h ****   * @param  __VALUE__ Value to be written in the register
 203:Drivers/STM32F4xx_HAL_Driver/Inc/stm32f4xx_ll_exti.h ****   * @retval None
 204:Drivers/STM32F4xx_HAL_Driver/Inc/stm32f4xx_ll_exti.h ****   */
 205:Drivers/STM32F4xx_HAL_Driver/Inc/stm32f4xx_ll_exti.h **** #define LL_EXTI_WriteReg(__REG__, __VALUE__) WRITE_REG(EXTI->__REG__, (__VALUE__))
 206:Drivers/STM32F4xx_HAL_Driver/Inc/stm32f4xx_ll_exti.h **** 
 207:Drivers/STM32F4xx_HAL_Driver/Inc/stm32f4xx_ll_exti.h **** /**
 208:Drivers/STM32F4xx_HAL_Driver/Inc/stm32f4xx_ll_exti.h ****   * @brief  Read a value in EXTI register
 209:Drivers/STM32F4xx_HAL_Driver/Inc/stm32f4xx_ll_exti.h ****   * @param  __REG__ Register to be read
 210:Drivers/STM32F4xx_HAL_Driver/Inc/stm32f4xx_ll_exti.h ****   * @retval Register value
 211:Drivers/STM32F4xx_HAL_Driver/Inc/stm32f4xx_ll_exti.h ****   */
 212:Drivers/STM32F4xx_HAL_Driver/Inc/stm32f4xx_ll_exti.h **** #define LL_EXTI_ReadReg(__REG__) READ_REG(EXTI->__REG__)
 213:Drivers/STM32F4xx_HAL_Driver/Inc/stm32f4xx_ll_exti.h **** /**
 214:Drivers/STM32F4xx_HAL_Driver/Inc/stm32f4xx_ll_exti.h ****   * @}
 215:Drivers/STM32F4xx_HAL_Driver/Inc/stm32f4xx_ll_exti.h ****   */
 216:Drivers/STM32F4xx_HAL_Driver/Inc/stm32f4xx_ll_exti.h **** 
 217:Drivers/STM32F4xx_HAL_Driver/Inc/stm32f4xx_ll_exti.h **** 
 218:Drivers/STM32F4xx_HAL_Driver/Inc/stm32f4xx_ll_exti.h **** /**
 219:Drivers/STM32F4xx_HAL_Driver/Inc/stm32f4xx_ll_exti.h ****   * @}
ARM GAS  /tmp/ccufBkQM.s 			page 9


 220:Drivers/STM32F4xx_HAL_Driver/Inc/stm32f4xx_ll_exti.h ****   */
 221:Drivers/STM32F4xx_HAL_Driver/Inc/stm32f4xx_ll_exti.h **** 
 222:Drivers/STM32F4xx_HAL_Driver/Inc/stm32f4xx_ll_exti.h **** 
 223:Drivers/STM32F4xx_HAL_Driver/Inc/stm32f4xx_ll_exti.h **** 
 224:Drivers/STM32F4xx_HAL_Driver/Inc/stm32f4xx_ll_exti.h **** /* Exported functions --------------------------------------------------------*/
 225:Drivers/STM32F4xx_HAL_Driver/Inc/stm32f4xx_ll_exti.h **** /** @defgroup EXTI_LL_Exported_Functions EXTI Exported Functions
 226:Drivers/STM32F4xx_HAL_Driver/Inc/stm32f4xx_ll_exti.h ****  * @{
 227:Drivers/STM32F4xx_HAL_Driver/Inc/stm32f4xx_ll_exti.h ****  */
 228:Drivers/STM32F4xx_HAL_Driver/Inc/stm32f4xx_ll_exti.h **** /** @defgroup EXTI_LL_EF_IT_Management IT_Management
 229:Drivers/STM32F4xx_HAL_Driver/Inc/stm32f4xx_ll_exti.h ****   * @{
 230:Drivers/STM32F4xx_HAL_Driver/Inc/stm32f4xx_ll_exti.h ****   */
 231:Drivers/STM32F4xx_HAL_Driver/Inc/stm32f4xx_ll_exti.h **** 
 232:Drivers/STM32F4xx_HAL_Driver/Inc/stm32f4xx_ll_exti.h **** /**
 233:Drivers/STM32F4xx_HAL_Driver/Inc/stm32f4xx_ll_exti.h ****   * @brief  Enable ExtiLine Interrupt request for Lines in range 0 to 31
 234:Drivers/STM32F4xx_HAL_Driver/Inc/stm32f4xx_ll_exti.h ****   * @note The reset value for the direct or internal lines (see RM)
 235:Drivers/STM32F4xx_HAL_Driver/Inc/stm32f4xx_ll_exti.h ****   *       is set to 1 in order to enable the interrupt by default.
 236:Drivers/STM32F4xx_HAL_Driver/Inc/stm32f4xx_ll_exti.h ****   *       Bits are set automatically at Power on.
 237:Drivers/STM32F4xx_HAL_Driver/Inc/stm32f4xx_ll_exti.h ****   * @rmtoll IMR         IMx           LL_EXTI_EnableIT_0_31
 238:Drivers/STM32F4xx_HAL_Driver/Inc/stm32f4xx_ll_exti.h ****   * @param  ExtiLine This parameter can be one of the following values:
 239:Drivers/STM32F4xx_HAL_Driver/Inc/stm32f4xx_ll_exti.h ****   *         @arg @ref LL_EXTI_LINE_0
 240:Drivers/STM32F4xx_HAL_Driver/Inc/stm32f4xx_ll_exti.h ****   *         @arg @ref LL_EXTI_LINE_1
 241:Drivers/STM32F4xx_HAL_Driver/Inc/stm32f4xx_ll_exti.h ****   *         @arg @ref LL_EXTI_LINE_2
 242:Drivers/STM32F4xx_HAL_Driver/Inc/stm32f4xx_ll_exti.h ****   *         @arg @ref LL_EXTI_LINE_3
 243:Drivers/STM32F4xx_HAL_Driver/Inc/stm32f4xx_ll_exti.h ****   *         @arg @ref LL_EXTI_LINE_4
 244:Drivers/STM32F4xx_HAL_Driver/Inc/stm32f4xx_ll_exti.h ****   *         @arg @ref LL_EXTI_LINE_5
 245:Drivers/STM32F4xx_HAL_Driver/Inc/stm32f4xx_ll_exti.h ****   *         @arg @ref LL_EXTI_LINE_6
 246:Drivers/STM32F4xx_HAL_Driver/Inc/stm32f4xx_ll_exti.h ****   *         @arg @ref LL_EXTI_LINE_7
 247:Drivers/STM32F4xx_HAL_Driver/Inc/stm32f4xx_ll_exti.h ****   *         @arg @ref LL_EXTI_LINE_8
 248:Drivers/STM32F4xx_HAL_Driver/Inc/stm32f4xx_ll_exti.h ****   *         @arg @ref LL_EXTI_LINE_9
 249:Drivers/STM32F4xx_HAL_Driver/Inc/stm32f4xx_ll_exti.h ****   *         @arg @ref LL_EXTI_LINE_10
 250:Drivers/STM32F4xx_HAL_Driver/Inc/stm32f4xx_ll_exti.h ****   *         @arg @ref LL_EXTI_LINE_11
 251:Drivers/STM32F4xx_HAL_Driver/Inc/stm32f4xx_ll_exti.h ****   *         @arg @ref LL_EXTI_LINE_12
 252:Drivers/STM32F4xx_HAL_Driver/Inc/stm32f4xx_ll_exti.h ****   *         @arg @ref LL_EXTI_LINE_13
 253:Drivers/STM32F4xx_HAL_Driver/Inc/stm32f4xx_ll_exti.h ****   *         @arg @ref LL_EXTI_LINE_14
 254:Drivers/STM32F4xx_HAL_Driver/Inc/stm32f4xx_ll_exti.h ****   *         @arg @ref LL_EXTI_LINE_15
 255:Drivers/STM32F4xx_HAL_Driver/Inc/stm32f4xx_ll_exti.h ****   *         @arg @ref LL_EXTI_LINE_16
 256:Drivers/STM32F4xx_HAL_Driver/Inc/stm32f4xx_ll_exti.h ****   *         @arg @ref LL_EXTI_LINE_17
 257:Drivers/STM32F4xx_HAL_Driver/Inc/stm32f4xx_ll_exti.h ****   *         @arg @ref LL_EXTI_LINE_18
 258:Drivers/STM32F4xx_HAL_Driver/Inc/stm32f4xx_ll_exti.h ****   *         @arg @ref LL_EXTI_LINE_19(*)
 259:Drivers/STM32F4xx_HAL_Driver/Inc/stm32f4xx_ll_exti.h ****   *         @arg @ref LL_EXTI_LINE_20(*)
 260:Drivers/STM32F4xx_HAL_Driver/Inc/stm32f4xx_ll_exti.h ****   *         @arg @ref LL_EXTI_LINE_21
 261:Drivers/STM32F4xx_HAL_Driver/Inc/stm32f4xx_ll_exti.h ****   *         @arg @ref LL_EXTI_LINE_22
 262:Drivers/STM32F4xx_HAL_Driver/Inc/stm32f4xx_ll_exti.h ****   *         @arg @ref LL_EXTI_LINE_23(*)
 263:Drivers/STM32F4xx_HAL_Driver/Inc/stm32f4xx_ll_exti.h ****   *         @arg @ref LL_EXTI_LINE_ALL_0_31
 264:Drivers/STM32F4xx_HAL_Driver/Inc/stm32f4xx_ll_exti.h ****   * @note   (*): Available in some devices
 265:Drivers/STM32F4xx_HAL_Driver/Inc/stm32f4xx_ll_exti.h ****   * @note   Please check each device line mapping for EXTI Line availability
 266:Drivers/STM32F4xx_HAL_Driver/Inc/stm32f4xx_ll_exti.h ****   * @retval None
 267:Drivers/STM32F4xx_HAL_Driver/Inc/stm32f4xx_ll_exti.h ****   */
 268:Drivers/STM32F4xx_HAL_Driver/Inc/stm32f4xx_ll_exti.h **** __STATIC_INLINE void LL_EXTI_EnableIT_0_31(uint32_t ExtiLine)
 269:Drivers/STM32F4xx_HAL_Driver/Inc/stm32f4xx_ll_exti.h **** {
 270:Drivers/STM32F4xx_HAL_Driver/Inc/stm32f4xx_ll_exti.h ****   SET_BIT(EXTI->IMR, ExtiLine);
 271:Drivers/STM32F4xx_HAL_Driver/Inc/stm32f4xx_ll_exti.h **** }
 272:Drivers/STM32F4xx_HAL_Driver/Inc/stm32f4xx_ll_exti.h **** 
 273:Drivers/STM32F4xx_HAL_Driver/Inc/stm32f4xx_ll_exti.h **** /**
 274:Drivers/STM32F4xx_HAL_Driver/Inc/stm32f4xx_ll_exti.h ****   * @brief  Disable ExtiLine Interrupt request for Lines in range 0 to 31
 275:Drivers/STM32F4xx_HAL_Driver/Inc/stm32f4xx_ll_exti.h ****   * @note The reset value for the direct or internal lines (see RM)
 276:Drivers/STM32F4xx_HAL_Driver/Inc/stm32f4xx_ll_exti.h ****   *       is set to 1 in order to enable the interrupt by default.
ARM GAS  /tmp/ccufBkQM.s 			page 10


 277:Drivers/STM32F4xx_HAL_Driver/Inc/stm32f4xx_ll_exti.h ****   *       Bits are set automatically at Power on.
 278:Drivers/STM32F4xx_HAL_Driver/Inc/stm32f4xx_ll_exti.h ****   * @rmtoll IMR         IMx           LL_EXTI_DisableIT_0_31
 279:Drivers/STM32F4xx_HAL_Driver/Inc/stm32f4xx_ll_exti.h ****   * @param  ExtiLine This parameter can be one of the following values:
 280:Drivers/STM32F4xx_HAL_Driver/Inc/stm32f4xx_ll_exti.h ****   *         @arg @ref LL_EXTI_LINE_0
 281:Drivers/STM32F4xx_HAL_Driver/Inc/stm32f4xx_ll_exti.h ****   *         @arg @ref LL_EXTI_LINE_1
 282:Drivers/STM32F4xx_HAL_Driver/Inc/stm32f4xx_ll_exti.h ****   *         @arg @ref LL_EXTI_LINE_2
 283:Drivers/STM32F4xx_HAL_Driver/Inc/stm32f4xx_ll_exti.h ****   *         @arg @ref LL_EXTI_LINE_3
 284:Drivers/STM32F4xx_HAL_Driver/Inc/stm32f4xx_ll_exti.h ****   *         @arg @ref LL_EXTI_LINE_4
 285:Drivers/STM32F4xx_HAL_Driver/Inc/stm32f4xx_ll_exti.h ****   *         @arg @ref LL_EXTI_LINE_5
 286:Drivers/STM32F4xx_HAL_Driver/Inc/stm32f4xx_ll_exti.h ****   *         @arg @ref LL_EXTI_LINE_6
 287:Drivers/STM32F4xx_HAL_Driver/Inc/stm32f4xx_ll_exti.h ****   *         @arg @ref LL_EXTI_LINE_7
 288:Drivers/STM32F4xx_HAL_Driver/Inc/stm32f4xx_ll_exti.h ****   *         @arg @ref LL_EXTI_LINE_8
 289:Drivers/STM32F4xx_HAL_Driver/Inc/stm32f4xx_ll_exti.h ****   *         @arg @ref LL_EXTI_LINE_9
 290:Drivers/STM32F4xx_HAL_Driver/Inc/stm32f4xx_ll_exti.h ****   *         @arg @ref LL_EXTI_LINE_10
 291:Drivers/STM32F4xx_HAL_Driver/Inc/stm32f4xx_ll_exti.h ****   *         @arg @ref LL_EXTI_LINE_11
 292:Drivers/STM32F4xx_HAL_Driver/Inc/stm32f4xx_ll_exti.h ****   *         @arg @ref LL_EXTI_LINE_12
 293:Drivers/STM32F4xx_HAL_Driver/Inc/stm32f4xx_ll_exti.h ****   *         @arg @ref LL_EXTI_LINE_13
 294:Drivers/STM32F4xx_HAL_Driver/Inc/stm32f4xx_ll_exti.h ****   *         @arg @ref LL_EXTI_LINE_14
 295:Drivers/STM32F4xx_HAL_Driver/Inc/stm32f4xx_ll_exti.h ****   *         @arg @ref LL_EXTI_LINE_15
 296:Drivers/STM32F4xx_HAL_Driver/Inc/stm32f4xx_ll_exti.h ****   *         @arg @ref LL_EXTI_LINE_16
 297:Drivers/STM32F4xx_HAL_Driver/Inc/stm32f4xx_ll_exti.h ****   *         @arg @ref LL_EXTI_LINE_17
 298:Drivers/STM32F4xx_HAL_Driver/Inc/stm32f4xx_ll_exti.h ****   *         @arg @ref LL_EXTI_LINE_18
 299:Drivers/STM32F4xx_HAL_Driver/Inc/stm32f4xx_ll_exti.h ****   *         @arg @ref LL_EXTI_LINE_19(*)
 300:Drivers/STM32F4xx_HAL_Driver/Inc/stm32f4xx_ll_exti.h ****   *         @arg @ref LL_EXTI_LINE_20(*)
 301:Drivers/STM32F4xx_HAL_Driver/Inc/stm32f4xx_ll_exti.h ****   *         @arg @ref LL_EXTI_LINE_21
 302:Drivers/STM32F4xx_HAL_Driver/Inc/stm32f4xx_ll_exti.h ****   *         @arg @ref LL_EXTI_LINE_22
 303:Drivers/STM32F4xx_HAL_Driver/Inc/stm32f4xx_ll_exti.h ****   *         @arg @ref LL_EXTI_LINE_23(*)
 304:Drivers/STM32F4xx_HAL_Driver/Inc/stm32f4xx_ll_exti.h ****   *         @arg @ref LL_EXTI_LINE_ALL_0_31
 305:Drivers/STM32F4xx_HAL_Driver/Inc/stm32f4xx_ll_exti.h ****   * @note   (*): Available in some devices
 306:Drivers/STM32F4xx_HAL_Driver/Inc/stm32f4xx_ll_exti.h ****   * @note   Please check each device line mapping for EXTI Line availability
 307:Drivers/STM32F4xx_HAL_Driver/Inc/stm32f4xx_ll_exti.h ****   * @retval None
 308:Drivers/STM32F4xx_HAL_Driver/Inc/stm32f4xx_ll_exti.h ****   */
 309:Drivers/STM32F4xx_HAL_Driver/Inc/stm32f4xx_ll_exti.h **** __STATIC_INLINE void LL_EXTI_DisableIT_0_31(uint32_t ExtiLine)
 310:Drivers/STM32F4xx_HAL_Driver/Inc/stm32f4xx_ll_exti.h **** {
 311:Drivers/STM32F4xx_HAL_Driver/Inc/stm32f4xx_ll_exti.h ****   CLEAR_BIT(EXTI->IMR, ExtiLine);
 312:Drivers/STM32F4xx_HAL_Driver/Inc/stm32f4xx_ll_exti.h **** }
 313:Drivers/STM32F4xx_HAL_Driver/Inc/stm32f4xx_ll_exti.h **** 
 314:Drivers/STM32F4xx_HAL_Driver/Inc/stm32f4xx_ll_exti.h **** 
 315:Drivers/STM32F4xx_HAL_Driver/Inc/stm32f4xx_ll_exti.h **** /**
 316:Drivers/STM32F4xx_HAL_Driver/Inc/stm32f4xx_ll_exti.h ****   * @brief  Indicate if ExtiLine Interrupt request is enabled for Lines in range 0 to 31
 317:Drivers/STM32F4xx_HAL_Driver/Inc/stm32f4xx_ll_exti.h ****   * @note The reset value for the direct or internal lines (see RM)
 318:Drivers/STM32F4xx_HAL_Driver/Inc/stm32f4xx_ll_exti.h ****   *       is set to 1 in order to enable the interrupt by default.
 319:Drivers/STM32F4xx_HAL_Driver/Inc/stm32f4xx_ll_exti.h ****   *       Bits are set automatically at Power on.
 320:Drivers/STM32F4xx_HAL_Driver/Inc/stm32f4xx_ll_exti.h ****   * @rmtoll IMR         IMx           LL_EXTI_IsEnabledIT_0_31
 321:Drivers/STM32F4xx_HAL_Driver/Inc/stm32f4xx_ll_exti.h ****   * @param  ExtiLine This parameter can be one of the following values:
 322:Drivers/STM32F4xx_HAL_Driver/Inc/stm32f4xx_ll_exti.h ****   *         @arg @ref LL_EXTI_LINE_0
 323:Drivers/STM32F4xx_HAL_Driver/Inc/stm32f4xx_ll_exti.h ****   *         @arg @ref LL_EXTI_LINE_1
 324:Drivers/STM32F4xx_HAL_Driver/Inc/stm32f4xx_ll_exti.h ****   *         @arg @ref LL_EXTI_LINE_2
 325:Drivers/STM32F4xx_HAL_Driver/Inc/stm32f4xx_ll_exti.h ****   *         @arg @ref LL_EXTI_LINE_3
 326:Drivers/STM32F4xx_HAL_Driver/Inc/stm32f4xx_ll_exti.h ****   *         @arg @ref LL_EXTI_LINE_4
 327:Drivers/STM32F4xx_HAL_Driver/Inc/stm32f4xx_ll_exti.h ****   *         @arg @ref LL_EXTI_LINE_5
 328:Drivers/STM32F4xx_HAL_Driver/Inc/stm32f4xx_ll_exti.h ****   *         @arg @ref LL_EXTI_LINE_6
 329:Drivers/STM32F4xx_HAL_Driver/Inc/stm32f4xx_ll_exti.h ****   *         @arg @ref LL_EXTI_LINE_7
 330:Drivers/STM32F4xx_HAL_Driver/Inc/stm32f4xx_ll_exti.h ****   *         @arg @ref LL_EXTI_LINE_8
 331:Drivers/STM32F4xx_HAL_Driver/Inc/stm32f4xx_ll_exti.h ****   *         @arg @ref LL_EXTI_LINE_9
 332:Drivers/STM32F4xx_HAL_Driver/Inc/stm32f4xx_ll_exti.h ****   *         @arg @ref LL_EXTI_LINE_10
 333:Drivers/STM32F4xx_HAL_Driver/Inc/stm32f4xx_ll_exti.h ****   *         @arg @ref LL_EXTI_LINE_11
ARM GAS  /tmp/ccufBkQM.s 			page 11


 334:Drivers/STM32F4xx_HAL_Driver/Inc/stm32f4xx_ll_exti.h ****   *         @arg @ref LL_EXTI_LINE_12
 335:Drivers/STM32F4xx_HAL_Driver/Inc/stm32f4xx_ll_exti.h ****   *         @arg @ref LL_EXTI_LINE_13
 336:Drivers/STM32F4xx_HAL_Driver/Inc/stm32f4xx_ll_exti.h ****   *         @arg @ref LL_EXTI_LINE_14
 337:Drivers/STM32F4xx_HAL_Driver/Inc/stm32f4xx_ll_exti.h ****   *         @arg @ref LL_EXTI_LINE_15
 338:Drivers/STM32F4xx_HAL_Driver/Inc/stm32f4xx_ll_exti.h ****   *         @arg @ref LL_EXTI_LINE_16
 339:Drivers/STM32F4xx_HAL_Driver/Inc/stm32f4xx_ll_exti.h ****   *         @arg @ref LL_EXTI_LINE_17
 340:Drivers/STM32F4xx_HAL_Driver/Inc/stm32f4xx_ll_exti.h ****   *         @arg @ref LL_EXTI_LINE_18
 341:Drivers/STM32F4xx_HAL_Driver/Inc/stm32f4xx_ll_exti.h ****   *         @arg @ref LL_EXTI_LINE_19(*)
 342:Drivers/STM32F4xx_HAL_Driver/Inc/stm32f4xx_ll_exti.h ****   *         @arg @ref LL_EXTI_LINE_20(*)
 343:Drivers/STM32F4xx_HAL_Driver/Inc/stm32f4xx_ll_exti.h ****   *         @arg @ref LL_EXTI_LINE_21
 344:Drivers/STM32F4xx_HAL_Driver/Inc/stm32f4xx_ll_exti.h ****   *         @arg @ref LL_EXTI_LINE_22
 345:Drivers/STM32F4xx_HAL_Driver/Inc/stm32f4xx_ll_exti.h ****   *         @arg @ref LL_EXTI_LINE_23(*)
 346:Drivers/STM32F4xx_HAL_Driver/Inc/stm32f4xx_ll_exti.h ****   *         @arg @ref LL_EXTI_LINE_ALL_0_31
 347:Drivers/STM32F4xx_HAL_Driver/Inc/stm32f4xx_ll_exti.h ****   * @note   (*): Available in some devices
 348:Drivers/STM32F4xx_HAL_Driver/Inc/stm32f4xx_ll_exti.h ****   * @note   Please check each device line mapping for EXTI Line availability
 349:Drivers/STM32F4xx_HAL_Driver/Inc/stm32f4xx_ll_exti.h ****   * @retval State of bit (1 or 0).
 350:Drivers/STM32F4xx_HAL_Driver/Inc/stm32f4xx_ll_exti.h ****   */
 351:Drivers/STM32F4xx_HAL_Driver/Inc/stm32f4xx_ll_exti.h **** __STATIC_INLINE uint32_t LL_EXTI_IsEnabledIT_0_31(uint32_t ExtiLine)
 352:Drivers/STM32F4xx_HAL_Driver/Inc/stm32f4xx_ll_exti.h **** {
 353:Drivers/STM32F4xx_HAL_Driver/Inc/stm32f4xx_ll_exti.h ****   return (READ_BIT(EXTI->IMR, ExtiLine) == (ExtiLine));
 354:Drivers/STM32F4xx_HAL_Driver/Inc/stm32f4xx_ll_exti.h **** }
 355:Drivers/STM32F4xx_HAL_Driver/Inc/stm32f4xx_ll_exti.h **** 
 356:Drivers/STM32F4xx_HAL_Driver/Inc/stm32f4xx_ll_exti.h **** 
 357:Drivers/STM32F4xx_HAL_Driver/Inc/stm32f4xx_ll_exti.h **** /**
 358:Drivers/STM32F4xx_HAL_Driver/Inc/stm32f4xx_ll_exti.h ****   * @}
 359:Drivers/STM32F4xx_HAL_Driver/Inc/stm32f4xx_ll_exti.h ****   */
 360:Drivers/STM32F4xx_HAL_Driver/Inc/stm32f4xx_ll_exti.h **** 
 361:Drivers/STM32F4xx_HAL_Driver/Inc/stm32f4xx_ll_exti.h **** /** @defgroup EXTI_LL_EF_Event_Management Event_Management
 362:Drivers/STM32F4xx_HAL_Driver/Inc/stm32f4xx_ll_exti.h ****   * @{
 363:Drivers/STM32F4xx_HAL_Driver/Inc/stm32f4xx_ll_exti.h ****   */
 364:Drivers/STM32F4xx_HAL_Driver/Inc/stm32f4xx_ll_exti.h **** 
 365:Drivers/STM32F4xx_HAL_Driver/Inc/stm32f4xx_ll_exti.h **** /**
 366:Drivers/STM32F4xx_HAL_Driver/Inc/stm32f4xx_ll_exti.h ****   * @brief  Enable ExtiLine Event request for Lines in range 0 to 31
 367:Drivers/STM32F4xx_HAL_Driver/Inc/stm32f4xx_ll_exti.h ****   * @rmtoll EMR         EMx           LL_EXTI_EnableEvent_0_31
 368:Drivers/STM32F4xx_HAL_Driver/Inc/stm32f4xx_ll_exti.h ****   * @param  ExtiLine This parameter can be one of the following values:
 369:Drivers/STM32F4xx_HAL_Driver/Inc/stm32f4xx_ll_exti.h ****   *         @arg @ref LL_EXTI_LINE_0
 370:Drivers/STM32F4xx_HAL_Driver/Inc/stm32f4xx_ll_exti.h ****   *         @arg @ref LL_EXTI_LINE_1
 371:Drivers/STM32F4xx_HAL_Driver/Inc/stm32f4xx_ll_exti.h ****   *         @arg @ref LL_EXTI_LINE_2
 372:Drivers/STM32F4xx_HAL_Driver/Inc/stm32f4xx_ll_exti.h ****   *         @arg @ref LL_EXTI_LINE_3
 373:Drivers/STM32F4xx_HAL_Driver/Inc/stm32f4xx_ll_exti.h ****   *         @arg @ref LL_EXTI_LINE_4
 374:Drivers/STM32F4xx_HAL_Driver/Inc/stm32f4xx_ll_exti.h ****   *         @arg @ref LL_EXTI_LINE_5
 375:Drivers/STM32F4xx_HAL_Driver/Inc/stm32f4xx_ll_exti.h ****   *         @arg @ref LL_EXTI_LINE_6
 376:Drivers/STM32F4xx_HAL_Driver/Inc/stm32f4xx_ll_exti.h ****   *         @arg @ref LL_EXTI_LINE_7
 377:Drivers/STM32F4xx_HAL_Driver/Inc/stm32f4xx_ll_exti.h ****   *         @arg @ref LL_EXTI_LINE_8
 378:Drivers/STM32F4xx_HAL_Driver/Inc/stm32f4xx_ll_exti.h ****   *         @arg @ref LL_EXTI_LINE_9
 379:Drivers/STM32F4xx_HAL_Driver/Inc/stm32f4xx_ll_exti.h ****   *         @arg @ref LL_EXTI_LINE_10
 380:Drivers/STM32F4xx_HAL_Driver/Inc/stm32f4xx_ll_exti.h ****   *         @arg @ref LL_EXTI_LINE_11
 381:Drivers/STM32F4xx_HAL_Driver/Inc/stm32f4xx_ll_exti.h ****   *         @arg @ref LL_EXTI_LINE_12
 382:Drivers/STM32F4xx_HAL_Driver/Inc/stm32f4xx_ll_exti.h ****   *         @arg @ref LL_EXTI_LINE_13
 383:Drivers/STM32F4xx_HAL_Driver/Inc/stm32f4xx_ll_exti.h ****   *         @arg @ref LL_EXTI_LINE_14
 384:Drivers/STM32F4xx_HAL_Driver/Inc/stm32f4xx_ll_exti.h ****   *         @arg @ref LL_EXTI_LINE_15
 385:Drivers/STM32F4xx_HAL_Driver/Inc/stm32f4xx_ll_exti.h ****   *         @arg @ref LL_EXTI_LINE_16
 386:Drivers/STM32F4xx_HAL_Driver/Inc/stm32f4xx_ll_exti.h ****   *         @arg @ref LL_EXTI_LINE_17
 387:Drivers/STM32F4xx_HAL_Driver/Inc/stm32f4xx_ll_exti.h ****   *         @arg @ref LL_EXTI_LINE_18
 388:Drivers/STM32F4xx_HAL_Driver/Inc/stm32f4xx_ll_exti.h ****   *         @arg @ref LL_EXTI_LINE_19(*)
 389:Drivers/STM32F4xx_HAL_Driver/Inc/stm32f4xx_ll_exti.h ****   *         @arg @ref LL_EXTI_LINE_20(*)
 390:Drivers/STM32F4xx_HAL_Driver/Inc/stm32f4xx_ll_exti.h ****   *         @arg @ref LL_EXTI_LINE_21
ARM GAS  /tmp/ccufBkQM.s 			page 12


 391:Drivers/STM32F4xx_HAL_Driver/Inc/stm32f4xx_ll_exti.h ****   *         @arg @ref LL_EXTI_LINE_22
 392:Drivers/STM32F4xx_HAL_Driver/Inc/stm32f4xx_ll_exti.h ****   *         @arg @ref LL_EXTI_LINE_23(*)
 393:Drivers/STM32F4xx_HAL_Driver/Inc/stm32f4xx_ll_exti.h ****   *         @arg @ref LL_EXTI_LINE_ALL_0_31
 394:Drivers/STM32F4xx_HAL_Driver/Inc/stm32f4xx_ll_exti.h ****   * @note   (*): Available in some devices
 395:Drivers/STM32F4xx_HAL_Driver/Inc/stm32f4xx_ll_exti.h ****   * @note   Please check each device line mapping for EXTI Line availability
 396:Drivers/STM32F4xx_HAL_Driver/Inc/stm32f4xx_ll_exti.h ****   * @retval None
 397:Drivers/STM32F4xx_HAL_Driver/Inc/stm32f4xx_ll_exti.h ****   */
 398:Drivers/STM32F4xx_HAL_Driver/Inc/stm32f4xx_ll_exti.h **** __STATIC_INLINE void LL_EXTI_EnableEvent_0_31(uint32_t ExtiLine)
 399:Drivers/STM32F4xx_HAL_Driver/Inc/stm32f4xx_ll_exti.h **** {
 400:Drivers/STM32F4xx_HAL_Driver/Inc/stm32f4xx_ll_exti.h ****   SET_BIT(EXTI->EMR, ExtiLine);
 401:Drivers/STM32F4xx_HAL_Driver/Inc/stm32f4xx_ll_exti.h **** 
 402:Drivers/STM32F4xx_HAL_Driver/Inc/stm32f4xx_ll_exti.h **** }
 403:Drivers/STM32F4xx_HAL_Driver/Inc/stm32f4xx_ll_exti.h **** 
 404:Drivers/STM32F4xx_HAL_Driver/Inc/stm32f4xx_ll_exti.h **** 
 405:Drivers/STM32F4xx_HAL_Driver/Inc/stm32f4xx_ll_exti.h **** /**
 406:Drivers/STM32F4xx_HAL_Driver/Inc/stm32f4xx_ll_exti.h ****   * @brief  Disable ExtiLine Event request for Lines in range 0 to 31
 407:Drivers/STM32F4xx_HAL_Driver/Inc/stm32f4xx_ll_exti.h ****   * @rmtoll EMR         EMx           LL_EXTI_DisableEvent_0_31
 408:Drivers/STM32F4xx_HAL_Driver/Inc/stm32f4xx_ll_exti.h ****   * @param  ExtiLine This parameter can be one of the following values:
 409:Drivers/STM32F4xx_HAL_Driver/Inc/stm32f4xx_ll_exti.h ****   *         @arg @ref LL_EXTI_LINE_0
 410:Drivers/STM32F4xx_HAL_Driver/Inc/stm32f4xx_ll_exti.h ****   *         @arg @ref LL_EXTI_LINE_1
 411:Drivers/STM32F4xx_HAL_Driver/Inc/stm32f4xx_ll_exti.h ****   *         @arg @ref LL_EXTI_LINE_2
 412:Drivers/STM32F4xx_HAL_Driver/Inc/stm32f4xx_ll_exti.h ****   *         @arg @ref LL_EXTI_LINE_3
 413:Drivers/STM32F4xx_HAL_Driver/Inc/stm32f4xx_ll_exti.h ****   *         @arg @ref LL_EXTI_LINE_4
 414:Drivers/STM32F4xx_HAL_Driver/Inc/stm32f4xx_ll_exti.h ****   *         @arg @ref LL_EXTI_LINE_5
 415:Drivers/STM32F4xx_HAL_Driver/Inc/stm32f4xx_ll_exti.h ****   *         @arg @ref LL_EXTI_LINE_6
 416:Drivers/STM32F4xx_HAL_Driver/Inc/stm32f4xx_ll_exti.h ****   *         @arg @ref LL_EXTI_LINE_7
 417:Drivers/STM32F4xx_HAL_Driver/Inc/stm32f4xx_ll_exti.h ****   *         @arg @ref LL_EXTI_LINE_8
 418:Drivers/STM32F4xx_HAL_Driver/Inc/stm32f4xx_ll_exti.h ****   *         @arg @ref LL_EXTI_LINE_9
 419:Drivers/STM32F4xx_HAL_Driver/Inc/stm32f4xx_ll_exti.h ****   *         @arg @ref LL_EXTI_LINE_10
 420:Drivers/STM32F4xx_HAL_Driver/Inc/stm32f4xx_ll_exti.h ****   *         @arg @ref LL_EXTI_LINE_11
 421:Drivers/STM32F4xx_HAL_Driver/Inc/stm32f4xx_ll_exti.h ****   *         @arg @ref LL_EXTI_LINE_12
 422:Drivers/STM32F4xx_HAL_Driver/Inc/stm32f4xx_ll_exti.h ****   *         @arg @ref LL_EXTI_LINE_13
 423:Drivers/STM32F4xx_HAL_Driver/Inc/stm32f4xx_ll_exti.h ****   *         @arg @ref LL_EXTI_LINE_14
 424:Drivers/STM32F4xx_HAL_Driver/Inc/stm32f4xx_ll_exti.h ****   *         @arg @ref LL_EXTI_LINE_15
 425:Drivers/STM32F4xx_HAL_Driver/Inc/stm32f4xx_ll_exti.h ****   *         @arg @ref LL_EXTI_LINE_16
 426:Drivers/STM32F4xx_HAL_Driver/Inc/stm32f4xx_ll_exti.h ****   *         @arg @ref LL_EXTI_LINE_17
 427:Drivers/STM32F4xx_HAL_Driver/Inc/stm32f4xx_ll_exti.h ****   *         @arg @ref LL_EXTI_LINE_18
 428:Drivers/STM32F4xx_HAL_Driver/Inc/stm32f4xx_ll_exti.h ****   *         @arg @ref LL_EXTI_LINE_19(*)
 429:Drivers/STM32F4xx_HAL_Driver/Inc/stm32f4xx_ll_exti.h ****   *         @arg @ref LL_EXTI_LINE_20(*)
 430:Drivers/STM32F4xx_HAL_Driver/Inc/stm32f4xx_ll_exti.h ****   *         @arg @ref LL_EXTI_LINE_21
 431:Drivers/STM32F4xx_HAL_Driver/Inc/stm32f4xx_ll_exti.h ****   *         @arg @ref LL_EXTI_LINE_22
 432:Drivers/STM32F4xx_HAL_Driver/Inc/stm32f4xx_ll_exti.h ****   *         @arg @ref LL_EXTI_LINE_23(*)
 433:Drivers/STM32F4xx_HAL_Driver/Inc/stm32f4xx_ll_exti.h ****   *         @arg @ref LL_EXTI_LINE_ALL_0_31
 434:Drivers/STM32F4xx_HAL_Driver/Inc/stm32f4xx_ll_exti.h ****   * @note   (*): Available in some devices
 435:Drivers/STM32F4xx_HAL_Driver/Inc/stm32f4xx_ll_exti.h ****   * @note   Please check each device line mapping for EXTI Line availability
 436:Drivers/STM32F4xx_HAL_Driver/Inc/stm32f4xx_ll_exti.h ****   * @retval None
 437:Drivers/STM32F4xx_HAL_Driver/Inc/stm32f4xx_ll_exti.h ****   */
 438:Drivers/STM32F4xx_HAL_Driver/Inc/stm32f4xx_ll_exti.h **** __STATIC_INLINE void LL_EXTI_DisableEvent_0_31(uint32_t ExtiLine)
 109              		.loc 2 438 22 view .LVU28
 110              	.LBB31:
 439:Drivers/STM32F4xx_HAL_Driver/Inc/stm32f4xx_ll_exti.h **** {
 440:Drivers/STM32F4xx_HAL_Driver/Inc/stm32f4xx_ll_exti.h ****   CLEAR_BIT(EXTI->EMR, ExtiLine);
 111              		.loc 2 440 3 view .LVU29
 112 0016 254A     		ldr	r2, .L23
 113 0018 5068     		ldr	r0, [r2, #4]
 114              	.LVL2:
 115              		.loc 2 440 3 is_stmt 0 view .LVU30
ARM GAS  /tmp/ccufBkQM.s 			page 13


 116 001a 20EA0100 		bic	r0, r0, r1
 117 001e 5060     		str	r0, [r2, #4]
 118              	.LVL3:
 119              		.loc 2 440 3 view .LVU31
 120              	.LBE31:
 121              	.LBE30:
 125:Drivers/STM32F4xx_HAL_Driver/Src/stm32f4xx_ll_exti.c ****           /* Then Enable IT on provided Lines */
 126:Drivers/STM32F4xx_HAL_Driver/Src/stm32f4xx_ll_exti.c ****           LL_EXTI_EnableIT_0_31(EXTI_InitStruct->Line_0_31);
 122              		.loc 1 126 11 is_stmt 1 view .LVU32
 123              	.LBB32:
 124              	.LBI32:
 268:Drivers/STM32F4xx_HAL_Driver/Inc/stm32f4xx_ll_exti.h **** {
 125              		.loc 2 268 22 view .LVU33
 126              	.LBB33:
 270:Drivers/STM32F4xx_HAL_Driver/Inc/stm32f4xx_ll_exti.h **** }
 127              		.loc 2 270 3 view .LVU34
 128 0020 1068     		ldr	r0, [r2]
 129 0022 0843     		orrs	r0, r0, r1
 130 0024 1060     		str	r0, [r2]
 131              	.LVL4:
 270:Drivers/STM32F4xx_HAL_Driver/Inc/stm32f4xx_ll_exti.h **** }
 132              		.loc 2 270 3 is_stmt 0 view .LVU35
 133              	.LBE33:
 134              	.LBE32:
 127:Drivers/STM32F4xx_HAL_Driver/Src/stm32f4xx_ll_exti.c ****           break;
 135              		.loc 1 127 11 is_stmt 1 view .LVU36
 136              	.L12:
 105:Drivers/STM32F4xx_HAL_Driver/Src/stm32f4xx_ll_exti.c ****   ErrorStatus status = SUCCESS;
 137              		.loc 1 105 1 is_stmt 0 view .LVU37
 138 0026 0020     		movs	r0, #0
 139              	.L11:
 140              	.LVL5:
 128:Drivers/STM32F4xx_HAL_Driver/Src/stm32f4xx_ll_exti.c ****         case LL_EXTI_MODE_EVENT:
 129:Drivers/STM32F4xx_HAL_Driver/Src/stm32f4xx_ll_exti.c ****           /* First Disable IT on provided Lines */
 130:Drivers/STM32F4xx_HAL_Driver/Src/stm32f4xx_ll_exti.c ****           LL_EXTI_DisableIT_0_31(EXTI_InitStruct->Line_0_31);
 131:Drivers/STM32F4xx_HAL_Driver/Src/stm32f4xx_ll_exti.c ****           /* Then Enable Event on provided Lines */
 132:Drivers/STM32F4xx_HAL_Driver/Src/stm32f4xx_ll_exti.c ****           LL_EXTI_EnableEvent_0_31(EXTI_InitStruct->Line_0_31);
 133:Drivers/STM32F4xx_HAL_Driver/Src/stm32f4xx_ll_exti.c ****           break;
 134:Drivers/STM32F4xx_HAL_Driver/Src/stm32f4xx_ll_exti.c ****         case LL_EXTI_MODE_IT_EVENT:
 135:Drivers/STM32F4xx_HAL_Driver/Src/stm32f4xx_ll_exti.c ****           /* Directly Enable IT & Event on provided Lines */
 136:Drivers/STM32F4xx_HAL_Driver/Src/stm32f4xx_ll_exti.c ****           LL_EXTI_EnableIT_0_31(EXTI_InitStruct->Line_0_31);
 137:Drivers/STM32F4xx_HAL_Driver/Src/stm32f4xx_ll_exti.c ****           LL_EXTI_EnableEvent_0_31(EXTI_InitStruct->Line_0_31);
 138:Drivers/STM32F4xx_HAL_Driver/Src/stm32f4xx_ll_exti.c ****           break;
 139:Drivers/STM32F4xx_HAL_Driver/Src/stm32f4xx_ll_exti.c ****         default:
 140:Drivers/STM32F4xx_HAL_Driver/Src/stm32f4xx_ll_exti.c ****           status = ERROR;
 141:Drivers/STM32F4xx_HAL_Driver/Src/stm32f4xx_ll_exti.c ****           break;
 142:Drivers/STM32F4xx_HAL_Driver/Src/stm32f4xx_ll_exti.c ****       }
 143:Drivers/STM32F4xx_HAL_Driver/Src/stm32f4xx_ll_exti.c ****       if (EXTI_InitStruct->Trigger != LL_EXTI_TRIGGER_NONE)
 141              		.loc 1 143 7 is_stmt 1 view .LVU38
 142              		.loc 1 143 26 is_stmt 0 view .LVU39
 143 0028 9B79     		ldrb	r3, [r3, #6]	@ zero_extendqisi2
 144              	.LVL6:
 145              		.loc 1 143 10 view .LVU40
 146 002a 33B1     		cbz	r3, .L5
 144:Drivers/STM32F4xx_HAL_Driver/Src/stm32f4xx_ll_exti.c ****       {
 145:Drivers/STM32F4xx_HAL_Driver/Src/stm32f4xx_ll_exti.c ****         switch (EXTI_InitStruct->Trigger)
 147              		.loc 1 145 9 is_stmt 1 view .LVU41
ARM GAS  /tmp/ccufBkQM.s 			page 14


 148 002c 022B     		cmp	r3, #2
 149 002e 34D0     		beq	.L14
 150 0030 032B     		cmp	r3, #3
 151 0032 2AD0     		beq	.L15
 152 0034 012B     		cmp	r3, #1
 153 0036 1FD0     		beq	.L22
 154 0038 0120     		movs	r0, #1
 146:Drivers/STM32F4xx_HAL_Driver/Src/stm32f4xx_ll_exti.c ****         {
 147:Drivers/STM32F4xx_HAL_Driver/Src/stm32f4xx_ll_exti.c ****           case LL_EXTI_TRIGGER_RISING:
 148:Drivers/STM32F4xx_HAL_Driver/Src/stm32f4xx_ll_exti.c ****             /* First Disable Falling Trigger on provided Lines */
 149:Drivers/STM32F4xx_HAL_Driver/Src/stm32f4xx_ll_exti.c ****             LL_EXTI_DisableFallingTrig_0_31(EXTI_InitStruct->Line_0_31);
 150:Drivers/STM32F4xx_HAL_Driver/Src/stm32f4xx_ll_exti.c ****             /* Then Enable Rising Trigger on provided Lines */
 151:Drivers/STM32F4xx_HAL_Driver/Src/stm32f4xx_ll_exti.c ****             LL_EXTI_EnableRisingTrig_0_31(EXTI_InitStruct->Line_0_31);
 152:Drivers/STM32F4xx_HAL_Driver/Src/stm32f4xx_ll_exti.c ****             break;
 153:Drivers/STM32F4xx_HAL_Driver/Src/stm32f4xx_ll_exti.c ****           case LL_EXTI_TRIGGER_FALLING:
 154:Drivers/STM32F4xx_HAL_Driver/Src/stm32f4xx_ll_exti.c ****             /* First Disable Rising Trigger on provided Lines */
 155:Drivers/STM32F4xx_HAL_Driver/Src/stm32f4xx_ll_exti.c ****             LL_EXTI_DisableRisingTrig_0_31(EXTI_InitStruct->Line_0_31);
 156:Drivers/STM32F4xx_HAL_Driver/Src/stm32f4xx_ll_exti.c ****             /* Then Enable Falling Trigger on provided Lines */
 157:Drivers/STM32F4xx_HAL_Driver/Src/stm32f4xx_ll_exti.c ****             LL_EXTI_EnableFallingTrig_0_31(EXTI_InitStruct->Line_0_31);
 158:Drivers/STM32F4xx_HAL_Driver/Src/stm32f4xx_ll_exti.c ****             break;
 159:Drivers/STM32F4xx_HAL_Driver/Src/stm32f4xx_ll_exti.c ****           case LL_EXTI_TRIGGER_RISING_FALLING:
 160:Drivers/STM32F4xx_HAL_Driver/Src/stm32f4xx_ll_exti.c ****             LL_EXTI_EnableRisingTrig_0_31(EXTI_InitStruct->Line_0_31);
 161:Drivers/STM32F4xx_HAL_Driver/Src/stm32f4xx_ll_exti.c ****             LL_EXTI_EnableFallingTrig_0_31(EXTI_InitStruct->Line_0_31);
 162:Drivers/STM32F4xx_HAL_Driver/Src/stm32f4xx_ll_exti.c ****             break;
 163:Drivers/STM32F4xx_HAL_Driver/Src/stm32f4xx_ll_exti.c ****           default:
 164:Drivers/STM32F4xx_HAL_Driver/Src/stm32f4xx_ll_exti.c ****             status = ERROR;
 165:Drivers/STM32F4xx_HAL_Driver/Src/stm32f4xx_ll_exti.c ****             break;
 166:Drivers/STM32F4xx_HAL_Driver/Src/stm32f4xx_ll_exti.c ****         }
 167:Drivers/STM32F4xx_HAL_Driver/Src/stm32f4xx_ll_exti.c ****       }
 168:Drivers/STM32F4xx_HAL_Driver/Src/stm32f4xx_ll_exti.c ****     }
 169:Drivers/STM32F4xx_HAL_Driver/Src/stm32f4xx_ll_exti.c ****   }
 170:Drivers/STM32F4xx_HAL_Driver/Src/stm32f4xx_ll_exti.c ****   /* DISABLE LineCommand */
 171:Drivers/STM32F4xx_HAL_Driver/Src/stm32f4xx_ll_exti.c ****   else
 172:Drivers/STM32F4xx_HAL_Driver/Src/stm32f4xx_ll_exti.c ****   {
 173:Drivers/STM32F4xx_HAL_Driver/Src/stm32f4xx_ll_exti.c ****     /* De-configure EXTI Lines in range from 0 to 31 */
 174:Drivers/STM32F4xx_HAL_Driver/Src/stm32f4xx_ll_exti.c ****     LL_EXTI_DisableIT_0_31(EXTI_InitStruct->Line_0_31);
 175:Drivers/STM32F4xx_HAL_Driver/Src/stm32f4xx_ll_exti.c ****     LL_EXTI_DisableEvent_0_31(EXTI_InitStruct->Line_0_31);
 176:Drivers/STM32F4xx_HAL_Driver/Src/stm32f4xx_ll_exti.c ****   }
 177:Drivers/STM32F4xx_HAL_Driver/Src/stm32f4xx_ll_exti.c ****   return status;
 155              		.loc 1 177 3 view .LVU42
 156              	.L5:
 178:Drivers/STM32F4xx_HAL_Driver/Src/stm32f4xx_ll_exti.c **** }
 157              		.loc 1 178 1 is_stmt 0 view .LVU43
 158 003a 7047     		bx	lr
 159              	.LVL7:
 160              	.L6:
 174:Drivers/STM32F4xx_HAL_Driver/Src/stm32f4xx_ll_exti.c ****     LL_EXTI_DisableEvent_0_31(EXTI_InitStruct->Line_0_31);
 161              		.loc 1 174 5 is_stmt 1 view .LVU44
 162              	.LBB34:
 163              	.LBI34:
 309:Drivers/STM32F4xx_HAL_Driver/Inc/stm32f4xx_ll_exti.h **** {
 164              		.loc 2 309 22 view .LVU45
 165              	.LBB35:
 311:Drivers/STM32F4xx_HAL_Driver/Inc/stm32f4xx_ll_exti.h **** }
 166              		.loc 2 311 3 view .LVU46
 167 003c 1B4B     		ldr	r3, .L23
 168 003e 1A68     		ldr	r2, [r3]
ARM GAS  /tmp/ccufBkQM.s 			page 15


 169 0040 22EA0102 		bic	r2, r2, r1
 170 0044 1A60     		str	r2, [r3]
 171              	.LVL8:
 311:Drivers/STM32F4xx_HAL_Driver/Inc/stm32f4xx_ll_exti.h **** }
 172              		.loc 2 311 3 is_stmt 0 view .LVU47
 173              	.LBE35:
 174              	.LBE34:
 175:Drivers/STM32F4xx_HAL_Driver/Src/stm32f4xx_ll_exti.c ****   }
 175              		.loc 1 175 5 is_stmt 1 view .LVU48
 176              	.LBB36:
 177              	.LBI36:
 438:Drivers/STM32F4xx_HAL_Driver/Inc/stm32f4xx_ll_exti.h **** {
 178              		.loc 2 438 22 view .LVU49
 179              	.LBB37:
 180              		.loc 2 440 3 view .LVU50
 181 0046 5A68     		ldr	r2, [r3, #4]
 182 0048 22EA0102 		bic	r2, r2, r1
 183 004c 5A60     		str	r2, [r3, #4]
 184              	.LVL9:
 185              	.L16:
 186              		.loc 2 440 3 is_stmt 0 view .LVU51
 187              	.LBE37:
 188              	.LBE36:
 120:Drivers/STM32F4xx_HAL_Driver/Src/stm32f4xx_ll_exti.c ****       {
 189              		.loc 1 120 7 view .LVU52
 190 004e 0020     		movs	r0, #0
 191              	.LVL10:
 120:Drivers/STM32F4xx_HAL_Driver/Src/stm32f4xx_ll_exti.c ****       {
 192              		.loc 1 120 7 view .LVU53
 193 0050 7047     		bx	lr
 194              	.LVL11:
 195              	.L9:
 130:Drivers/STM32F4xx_HAL_Driver/Src/stm32f4xx_ll_exti.c ****           /* Then Enable Event on provided Lines */
 196              		.loc 1 130 11 is_stmt 1 view .LVU54
 197              	.LBB38:
 198              	.LBI38:
 309:Drivers/STM32F4xx_HAL_Driver/Inc/stm32f4xx_ll_exti.h **** {
 199              		.loc 2 309 22 view .LVU55
 200              	.LBB39:
 311:Drivers/STM32F4xx_HAL_Driver/Inc/stm32f4xx_ll_exti.h **** }
 201              		.loc 2 311 3 view .LVU56
 202 0052 164A     		ldr	r2, .L23
 203 0054 1068     		ldr	r0, [r2]
 204              	.LVL12:
 311:Drivers/STM32F4xx_HAL_Driver/Inc/stm32f4xx_ll_exti.h **** }
 205              		.loc 2 311 3 is_stmt 0 view .LVU57
 206 0056 20EA0100 		bic	r0, r0, r1
 207 005a 1060     		str	r0, [r2]
 208              	.LVL13:
 311:Drivers/STM32F4xx_HAL_Driver/Inc/stm32f4xx_ll_exti.h **** }
 209              		.loc 2 311 3 view .LVU58
 210              	.LBE39:
 211              	.LBE38:
 132:Drivers/STM32F4xx_HAL_Driver/Src/stm32f4xx_ll_exti.c ****           break;
 212              		.loc 1 132 11 is_stmt 1 view .LVU59
 213              	.LBB40:
 214              	.LBI40:
ARM GAS  /tmp/ccufBkQM.s 			page 16


 398:Drivers/STM32F4xx_HAL_Driver/Inc/stm32f4xx_ll_exti.h **** {
 215              		.loc 2 398 22 view .LVU60
 216              	.LBB41:
 400:Drivers/STM32F4xx_HAL_Driver/Inc/stm32f4xx_ll_exti.h **** 
 217              		.loc 2 400 3 view .LVU61
 218 005c 5068     		ldr	r0, [r2, #4]
 219 005e 0843     		orrs	r0, r0, r1
 220 0060 5060     		str	r0, [r2, #4]
 221              	.LVL14:
 400:Drivers/STM32F4xx_HAL_Driver/Inc/stm32f4xx_ll_exti.h **** 
 222              		.loc 2 400 3 is_stmt 0 view .LVU62
 223              	.LBE41:
 224              	.LBE40:
 133:Drivers/STM32F4xx_HAL_Driver/Src/stm32f4xx_ll_exti.c ****         case LL_EXTI_MODE_IT_EVENT:
 225              		.loc 1 133 11 is_stmt 1 view .LVU63
 226              	.LBB43:
 227              	.LBB42:
 402:Drivers/STM32F4xx_HAL_Driver/Inc/stm32f4xx_ll_exti.h **** 
 228              		.loc 2 402 1 is_stmt 0 view .LVU64
 229 0062 E0E7     		b	.L12
 230              	.LVL15:
 231              	.L17:
 402:Drivers/STM32F4xx_HAL_Driver/Inc/stm32f4xx_ll_exti.h **** 
 232              		.loc 2 402 1 view .LVU65
 233              	.LBE42:
 234              	.LBE43:
 120:Drivers/STM32F4xx_HAL_Driver/Src/stm32f4xx_ll_exti.c ****       {
 235              		.loc 1 120 7 view .LVU66
 236 0064 0120     		movs	r0, #1
 237              	.LVL16:
 120:Drivers/STM32F4xx_HAL_Driver/Src/stm32f4xx_ll_exti.c ****       {
 238              		.loc 1 120 7 view .LVU67
 239 0066 DFE7     		b	.L11
 240              	.LVL17:
 241              	.L10:
 136:Drivers/STM32F4xx_HAL_Driver/Src/stm32f4xx_ll_exti.c ****           LL_EXTI_EnableEvent_0_31(EXTI_InitStruct->Line_0_31);
 242              		.loc 1 136 11 is_stmt 1 view .LVU68
 243              	.LBB44:
 244              	.LBI44:
 268:Drivers/STM32F4xx_HAL_Driver/Inc/stm32f4xx_ll_exti.h **** {
 245              		.loc 2 268 22 view .LVU69
 246              	.LBB45:
 270:Drivers/STM32F4xx_HAL_Driver/Inc/stm32f4xx_ll_exti.h **** }
 247              		.loc 2 270 3 view .LVU70
 248 0068 104A     		ldr	r2, .L23
 249 006a 1068     		ldr	r0, [r2]
 250              	.LVL18:
 270:Drivers/STM32F4xx_HAL_Driver/Inc/stm32f4xx_ll_exti.h **** }
 251              		.loc 2 270 3 is_stmt 0 view .LVU71
 252 006c 0843     		orrs	r0, r0, r1
 253 006e 1060     		str	r0, [r2]
 254              	.LVL19:
 270:Drivers/STM32F4xx_HAL_Driver/Inc/stm32f4xx_ll_exti.h **** }
 255              		.loc 2 270 3 view .LVU72
 256              	.LBE45:
 257              	.LBE44:
 137:Drivers/STM32F4xx_HAL_Driver/Src/stm32f4xx_ll_exti.c ****           break;
ARM GAS  /tmp/ccufBkQM.s 			page 17


 258              		.loc 1 137 11 is_stmt 1 view .LVU73
 259              	.LBB46:
 260              	.LBI46:
 398:Drivers/STM32F4xx_HAL_Driver/Inc/stm32f4xx_ll_exti.h **** {
 261              		.loc 2 398 22 view .LVU74
 262              	.LBB47:
 400:Drivers/STM32F4xx_HAL_Driver/Inc/stm32f4xx_ll_exti.h **** 
 263              		.loc 2 400 3 view .LVU75
 264 0070 5068     		ldr	r0, [r2, #4]
 265 0072 0843     		orrs	r0, r0, r1
 266 0074 5060     		str	r0, [r2, #4]
 267              	.LVL20:
 400:Drivers/STM32F4xx_HAL_Driver/Inc/stm32f4xx_ll_exti.h **** 
 268              		.loc 2 400 3 is_stmt 0 view .LVU76
 269              	.LBE47:
 270              	.LBE46:
 138:Drivers/STM32F4xx_HAL_Driver/Src/stm32f4xx_ll_exti.c ****         default:
 271              		.loc 1 138 11 is_stmt 1 view .LVU77
 272              	.LBB49:
 273              	.LBB48:
 402:Drivers/STM32F4xx_HAL_Driver/Inc/stm32f4xx_ll_exti.h **** 
 274              		.loc 2 402 1 is_stmt 0 view .LVU78
 275 0076 D6E7     		b	.L12
 276              	.LVL21:
 277              	.L22:
 402:Drivers/STM32F4xx_HAL_Driver/Inc/stm32f4xx_ll_exti.h **** 
 278              		.loc 2 402 1 view .LVU79
 279              	.LBE48:
 280              	.LBE49:
 149:Drivers/STM32F4xx_HAL_Driver/Src/stm32f4xx_ll_exti.c ****             /* Then Enable Rising Trigger on provided Lines */
 281              		.loc 1 149 13 is_stmt 1 view .LVU80
 282              	.LBB50:
 283              	.LBI50:
 441:Drivers/STM32F4xx_HAL_Driver/Inc/stm32f4xx_ll_exti.h **** }
 442:Drivers/STM32F4xx_HAL_Driver/Inc/stm32f4xx_ll_exti.h **** 
 443:Drivers/STM32F4xx_HAL_Driver/Inc/stm32f4xx_ll_exti.h **** 
 444:Drivers/STM32F4xx_HAL_Driver/Inc/stm32f4xx_ll_exti.h **** /**
 445:Drivers/STM32F4xx_HAL_Driver/Inc/stm32f4xx_ll_exti.h ****   * @brief  Indicate if ExtiLine Event request is enabled for Lines in range 0 to 31
 446:Drivers/STM32F4xx_HAL_Driver/Inc/stm32f4xx_ll_exti.h ****   * @rmtoll EMR         EMx           LL_EXTI_IsEnabledEvent_0_31
 447:Drivers/STM32F4xx_HAL_Driver/Inc/stm32f4xx_ll_exti.h ****   * @param  ExtiLine This parameter can be one of the following values:
 448:Drivers/STM32F4xx_HAL_Driver/Inc/stm32f4xx_ll_exti.h ****   *         @arg @ref LL_EXTI_LINE_0
 449:Drivers/STM32F4xx_HAL_Driver/Inc/stm32f4xx_ll_exti.h ****   *         @arg @ref LL_EXTI_LINE_1
 450:Drivers/STM32F4xx_HAL_Driver/Inc/stm32f4xx_ll_exti.h ****   *         @arg @ref LL_EXTI_LINE_2
 451:Drivers/STM32F4xx_HAL_Driver/Inc/stm32f4xx_ll_exti.h ****   *         @arg @ref LL_EXTI_LINE_3
 452:Drivers/STM32F4xx_HAL_Driver/Inc/stm32f4xx_ll_exti.h ****   *         @arg @ref LL_EXTI_LINE_4
 453:Drivers/STM32F4xx_HAL_Driver/Inc/stm32f4xx_ll_exti.h ****   *         @arg @ref LL_EXTI_LINE_5
 454:Drivers/STM32F4xx_HAL_Driver/Inc/stm32f4xx_ll_exti.h ****   *         @arg @ref LL_EXTI_LINE_6
 455:Drivers/STM32F4xx_HAL_Driver/Inc/stm32f4xx_ll_exti.h ****   *         @arg @ref LL_EXTI_LINE_7
 456:Drivers/STM32F4xx_HAL_Driver/Inc/stm32f4xx_ll_exti.h ****   *         @arg @ref LL_EXTI_LINE_8
 457:Drivers/STM32F4xx_HAL_Driver/Inc/stm32f4xx_ll_exti.h ****   *         @arg @ref LL_EXTI_LINE_9
 458:Drivers/STM32F4xx_HAL_Driver/Inc/stm32f4xx_ll_exti.h ****   *         @arg @ref LL_EXTI_LINE_10
 459:Drivers/STM32F4xx_HAL_Driver/Inc/stm32f4xx_ll_exti.h ****   *         @arg @ref LL_EXTI_LINE_11
 460:Drivers/STM32F4xx_HAL_Driver/Inc/stm32f4xx_ll_exti.h ****   *         @arg @ref LL_EXTI_LINE_12
 461:Drivers/STM32F4xx_HAL_Driver/Inc/stm32f4xx_ll_exti.h ****   *         @arg @ref LL_EXTI_LINE_13
 462:Drivers/STM32F4xx_HAL_Driver/Inc/stm32f4xx_ll_exti.h ****   *         @arg @ref LL_EXTI_LINE_14
 463:Drivers/STM32F4xx_HAL_Driver/Inc/stm32f4xx_ll_exti.h ****   *         @arg @ref LL_EXTI_LINE_15
 464:Drivers/STM32F4xx_HAL_Driver/Inc/stm32f4xx_ll_exti.h ****   *         @arg @ref LL_EXTI_LINE_16
ARM GAS  /tmp/ccufBkQM.s 			page 18


 465:Drivers/STM32F4xx_HAL_Driver/Inc/stm32f4xx_ll_exti.h ****   *         @arg @ref LL_EXTI_LINE_17
 466:Drivers/STM32F4xx_HAL_Driver/Inc/stm32f4xx_ll_exti.h ****   *         @arg @ref LL_EXTI_LINE_18
 467:Drivers/STM32F4xx_HAL_Driver/Inc/stm32f4xx_ll_exti.h ****   *         @arg @ref LL_EXTI_LINE_19(*)
 468:Drivers/STM32F4xx_HAL_Driver/Inc/stm32f4xx_ll_exti.h ****   *         @arg @ref LL_EXTI_LINE_20(*)
 469:Drivers/STM32F4xx_HAL_Driver/Inc/stm32f4xx_ll_exti.h ****   *         @arg @ref LL_EXTI_LINE_21
 470:Drivers/STM32F4xx_HAL_Driver/Inc/stm32f4xx_ll_exti.h ****   *         @arg @ref LL_EXTI_LINE_22
 471:Drivers/STM32F4xx_HAL_Driver/Inc/stm32f4xx_ll_exti.h ****   *         @arg @ref LL_EXTI_LINE_23(*)
 472:Drivers/STM32F4xx_HAL_Driver/Inc/stm32f4xx_ll_exti.h ****   *         @arg @ref LL_EXTI_LINE_ALL_0_31
 473:Drivers/STM32F4xx_HAL_Driver/Inc/stm32f4xx_ll_exti.h ****   * @note   (*): Available in some devices
 474:Drivers/STM32F4xx_HAL_Driver/Inc/stm32f4xx_ll_exti.h ****   * @note   Please check each device line mapping for EXTI Line availability
 475:Drivers/STM32F4xx_HAL_Driver/Inc/stm32f4xx_ll_exti.h ****   * @retval State of bit (1 or 0).
 476:Drivers/STM32F4xx_HAL_Driver/Inc/stm32f4xx_ll_exti.h ****   */
 477:Drivers/STM32F4xx_HAL_Driver/Inc/stm32f4xx_ll_exti.h **** __STATIC_INLINE uint32_t LL_EXTI_IsEnabledEvent_0_31(uint32_t ExtiLine)
 478:Drivers/STM32F4xx_HAL_Driver/Inc/stm32f4xx_ll_exti.h **** {
 479:Drivers/STM32F4xx_HAL_Driver/Inc/stm32f4xx_ll_exti.h ****   return (READ_BIT(EXTI->EMR, ExtiLine) == (ExtiLine));
 480:Drivers/STM32F4xx_HAL_Driver/Inc/stm32f4xx_ll_exti.h **** 
 481:Drivers/STM32F4xx_HAL_Driver/Inc/stm32f4xx_ll_exti.h **** }
 482:Drivers/STM32F4xx_HAL_Driver/Inc/stm32f4xx_ll_exti.h **** 
 483:Drivers/STM32F4xx_HAL_Driver/Inc/stm32f4xx_ll_exti.h **** 
 484:Drivers/STM32F4xx_HAL_Driver/Inc/stm32f4xx_ll_exti.h **** /**
 485:Drivers/STM32F4xx_HAL_Driver/Inc/stm32f4xx_ll_exti.h ****   * @}
 486:Drivers/STM32F4xx_HAL_Driver/Inc/stm32f4xx_ll_exti.h ****   */
 487:Drivers/STM32F4xx_HAL_Driver/Inc/stm32f4xx_ll_exti.h **** 
 488:Drivers/STM32F4xx_HAL_Driver/Inc/stm32f4xx_ll_exti.h **** /** @defgroup EXTI_LL_EF_Rising_Trigger_Management Rising_Trigger_Management
 489:Drivers/STM32F4xx_HAL_Driver/Inc/stm32f4xx_ll_exti.h ****   * @{
 490:Drivers/STM32F4xx_HAL_Driver/Inc/stm32f4xx_ll_exti.h ****   */
 491:Drivers/STM32F4xx_HAL_Driver/Inc/stm32f4xx_ll_exti.h **** 
 492:Drivers/STM32F4xx_HAL_Driver/Inc/stm32f4xx_ll_exti.h **** /**
 493:Drivers/STM32F4xx_HAL_Driver/Inc/stm32f4xx_ll_exti.h ****   * @brief  Enable ExtiLine Rising Edge Trigger for Lines in range 0 to 31
 494:Drivers/STM32F4xx_HAL_Driver/Inc/stm32f4xx_ll_exti.h ****   * @note The configurable wakeup lines are edge-triggered. No glitch must be
 495:Drivers/STM32F4xx_HAL_Driver/Inc/stm32f4xx_ll_exti.h ****   *       generated on these lines. If a rising edge on a configurable interrupt
 496:Drivers/STM32F4xx_HAL_Driver/Inc/stm32f4xx_ll_exti.h ****   *       line occurs during a write operation in the EXTI_RTSR register, the
 497:Drivers/STM32F4xx_HAL_Driver/Inc/stm32f4xx_ll_exti.h ****   *       pending bit is not set.
 498:Drivers/STM32F4xx_HAL_Driver/Inc/stm32f4xx_ll_exti.h ****   *       Rising and falling edge triggers can be set for
 499:Drivers/STM32F4xx_HAL_Driver/Inc/stm32f4xx_ll_exti.h ****   *       the same interrupt line. In this case, both generate a trigger
 500:Drivers/STM32F4xx_HAL_Driver/Inc/stm32f4xx_ll_exti.h ****   *       condition.
 501:Drivers/STM32F4xx_HAL_Driver/Inc/stm32f4xx_ll_exti.h ****   * @rmtoll RTSR        RTx           LL_EXTI_EnableRisingTrig_0_31
 502:Drivers/STM32F4xx_HAL_Driver/Inc/stm32f4xx_ll_exti.h ****   * @param  ExtiLine This parameter can be a combination of the following values:
 503:Drivers/STM32F4xx_HAL_Driver/Inc/stm32f4xx_ll_exti.h ****   *         @arg @ref LL_EXTI_LINE_0
 504:Drivers/STM32F4xx_HAL_Driver/Inc/stm32f4xx_ll_exti.h ****   *         @arg @ref LL_EXTI_LINE_1
 505:Drivers/STM32F4xx_HAL_Driver/Inc/stm32f4xx_ll_exti.h ****   *         @arg @ref LL_EXTI_LINE_2
 506:Drivers/STM32F4xx_HAL_Driver/Inc/stm32f4xx_ll_exti.h ****   *         @arg @ref LL_EXTI_LINE_3
 507:Drivers/STM32F4xx_HAL_Driver/Inc/stm32f4xx_ll_exti.h ****   *         @arg @ref LL_EXTI_LINE_4
 508:Drivers/STM32F4xx_HAL_Driver/Inc/stm32f4xx_ll_exti.h ****   *         @arg @ref LL_EXTI_LINE_5
 509:Drivers/STM32F4xx_HAL_Driver/Inc/stm32f4xx_ll_exti.h ****   *         @arg @ref LL_EXTI_LINE_6
 510:Drivers/STM32F4xx_HAL_Driver/Inc/stm32f4xx_ll_exti.h ****   *         @arg @ref LL_EXTI_LINE_7
 511:Drivers/STM32F4xx_HAL_Driver/Inc/stm32f4xx_ll_exti.h ****   *         @arg @ref LL_EXTI_LINE_8
 512:Drivers/STM32F4xx_HAL_Driver/Inc/stm32f4xx_ll_exti.h ****   *         @arg @ref LL_EXTI_LINE_9
 513:Drivers/STM32F4xx_HAL_Driver/Inc/stm32f4xx_ll_exti.h ****   *         @arg @ref LL_EXTI_LINE_10
 514:Drivers/STM32F4xx_HAL_Driver/Inc/stm32f4xx_ll_exti.h ****   *         @arg @ref LL_EXTI_LINE_11
 515:Drivers/STM32F4xx_HAL_Driver/Inc/stm32f4xx_ll_exti.h ****   *         @arg @ref LL_EXTI_LINE_12
 516:Drivers/STM32F4xx_HAL_Driver/Inc/stm32f4xx_ll_exti.h ****   *         @arg @ref LL_EXTI_LINE_13
 517:Drivers/STM32F4xx_HAL_Driver/Inc/stm32f4xx_ll_exti.h ****   *         @arg @ref LL_EXTI_LINE_14
 518:Drivers/STM32F4xx_HAL_Driver/Inc/stm32f4xx_ll_exti.h ****   *         @arg @ref LL_EXTI_LINE_15
 519:Drivers/STM32F4xx_HAL_Driver/Inc/stm32f4xx_ll_exti.h ****   *         @arg @ref LL_EXTI_LINE_16
 520:Drivers/STM32F4xx_HAL_Driver/Inc/stm32f4xx_ll_exti.h ****   *         @arg @ref LL_EXTI_LINE_18
 521:Drivers/STM32F4xx_HAL_Driver/Inc/stm32f4xx_ll_exti.h ****   *         @arg @ref LL_EXTI_LINE_19(*)
ARM GAS  /tmp/ccufBkQM.s 			page 19


 522:Drivers/STM32F4xx_HAL_Driver/Inc/stm32f4xx_ll_exti.h ****   *         @arg @ref LL_EXTI_LINE_20(*)
 523:Drivers/STM32F4xx_HAL_Driver/Inc/stm32f4xx_ll_exti.h ****   *         @arg @ref LL_EXTI_LINE_21
 524:Drivers/STM32F4xx_HAL_Driver/Inc/stm32f4xx_ll_exti.h ****   *         @arg @ref LL_EXTI_LINE_22
 525:Drivers/STM32F4xx_HAL_Driver/Inc/stm32f4xx_ll_exti.h ****   * @note   (*): Available in some devices
 526:Drivers/STM32F4xx_HAL_Driver/Inc/stm32f4xx_ll_exti.h ****   * @note   Please check each device line mapping for EXTI Line availability
 527:Drivers/STM32F4xx_HAL_Driver/Inc/stm32f4xx_ll_exti.h ****   * @retval None
 528:Drivers/STM32F4xx_HAL_Driver/Inc/stm32f4xx_ll_exti.h ****   */
 529:Drivers/STM32F4xx_HAL_Driver/Inc/stm32f4xx_ll_exti.h **** __STATIC_INLINE void LL_EXTI_EnableRisingTrig_0_31(uint32_t ExtiLine)
 530:Drivers/STM32F4xx_HAL_Driver/Inc/stm32f4xx_ll_exti.h **** {
 531:Drivers/STM32F4xx_HAL_Driver/Inc/stm32f4xx_ll_exti.h ****   SET_BIT(EXTI->RTSR, ExtiLine);
 532:Drivers/STM32F4xx_HAL_Driver/Inc/stm32f4xx_ll_exti.h **** 
 533:Drivers/STM32F4xx_HAL_Driver/Inc/stm32f4xx_ll_exti.h **** }
 534:Drivers/STM32F4xx_HAL_Driver/Inc/stm32f4xx_ll_exti.h **** 
 535:Drivers/STM32F4xx_HAL_Driver/Inc/stm32f4xx_ll_exti.h **** 
 536:Drivers/STM32F4xx_HAL_Driver/Inc/stm32f4xx_ll_exti.h **** /**
 537:Drivers/STM32F4xx_HAL_Driver/Inc/stm32f4xx_ll_exti.h ****   * @brief  Disable ExtiLine Rising Edge Trigger for Lines in range 0 to 31
 538:Drivers/STM32F4xx_HAL_Driver/Inc/stm32f4xx_ll_exti.h ****   * @note The configurable wakeup lines are edge-triggered. No glitch must be
 539:Drivers/STM32F4xx_HAL_Driver/Inc/stm32f4xx_ll_exti.h ****   *       generated on these lines. If a rising edge on a configurable interrupt
 540:Drivers/STM32F4xx_HAL_Driver/Inc/stm32f4xx_ll_exti.h ****   *       line occurs during a write operation in the EXTI_RTSR register, the
 541:Drivers/STM32F4xx_HAL_Driver/Inc/stm32f4xx_ll_exti.h ****   *       pending bit is not set.
 542:Drivers/STM32F4xx_HAL_Driver/Inc/stm32f4xx_ll_exti.h ****   *       Rising and falling edge triggers can be set for
 543:Drivers/STM32F4xx_HAL_Driver/Inc/stm32f4xx_ll_exti.h ****   *       the same interrupt line. In this case, both generate a trigger
 544:Drivers/STM32F4xx_HAL_Driver/Inc/stm32f4xx_ll_exti.h ****   *       condition.
 545:Drivers/STM32F4xx_HAL_Driver/Inc/stm32f4xx_ll_exti.h ****   * @rmtoll RTSR        RTx           LL_EXTI_DisableRisingTrig_0_31
 546:Drivers/STM32F4xx_HAL_Driver/Inc/stm32f4xx_ll_exti.h ****   * @param  ExtiLine This parameter can be a combination of the following values:
 547:Drivers/STM32F4xx_HAL_Driver/Inc/stm32f4xx_ll_exti.h ****   *         @arg @ref LL_EXTI_LINE_0
 548:Drivers/STM32F4xx_HAL_Driver/Inc/stm32f4xx_ll_exti.h ****   *         @arg @ref LL_EXTI_LINE_1
 549:Drivers/STM32F4xx_HAL_Driver/Inc/stm32f4xx_ll_exti.h ****   *         @arg @ref LL_EXTI_LINE_2
 550:Drivers/STM32F4xx_HAL_Driver/Inc/stm32f4xx_ll_exti.h ****   *         @arg @ref LL_EXTI_LINE_3
 551:Drivers/STM32F4xx_HAL_Driver/Inc/stm32f4xx_ll_exti.h ****   *         @arg @ref LL_EXTI_LINE_4
 552:Drivers/STM32F4xx_HAL_Driver/Inc/stm32f4xx_ll_exti.h ****   *         @arg @ref LL_EXTI_LINE_5
 553:Drivers/STM32F4xx_HAL_Driver/Inc/stm32f4xx_ll_exti.h ****   *         @arg @ref LL_EXTI_LINE_6
 554:Drivers/STM32F4xx_HAL_Driver/Inc/stm32f4xx_ll_exti.h ****   *         @arg @ref LL_EXTI_LINE_7
 555:Drivers/STM32F4xx_HAL_Driver/Inc/stm32f4xx_ll_exti.h ****   *         @arg @ref LL_EXTI_LINE_8
 556:Drivers/STM32F4xx_HAL_Driver/Inc/stm32f4xx_ll_exti.h ****   *         @arg @ref LL_EXTI_LINE_9
 557:Drivers/STM32F4xx_HAL_Driver/Inc/stm32f4xx_ll_exti.h ****   *         @arg @ref LL_EXTI_LINE_10
 558:Drivers/STM32F4xx_HAL_Driver/Inc/stm32f4xx_ll_exti.h ****   *         @arg @ref LL_EXTI_LINE_11
 559:Drivers/STM32F4xx_HAL_Driver/Inc/stm32f4xx_ll_exti.h ****   *         @arg @ref LL_EXTI_LINE_12
 560:Drivers/STM32F4xx_HAL_Driver/Inc/stm32f4xx_ll_exti.h ****   *         @arg @ref LL_EXTI_LINE_13
 561:Drivers/STM32F4xx_HAL_Driver/Inc/stm32f4xx_ll_exti.h ****   *         @arg @ref LL_EXTI_LINE_14
 562:Drivers/STM32F4xx_HAL_Driver/Inc/stm32f4xx_ll_exti.h ****   *         @arg @ref LL_EXTI_LINE_15
 563:Drivers/STM32F4xx_HAL_Driver/Inc/stm32f4xx_ll_exti.h ****   *         @arg @ref LL_EXTI_LINE_16
 564:Drivers/STM32F4xx_HAL_Driver/Inc/stm32f4xx_ll_exti.h ****   *         @arg @ref LL_EXTI_LINE_18
 565:Drivers/STM32F4xx_HAL_Driver/Inc/stm32f4xx_ll_exti.h ****   *         @arg @ref LL_EXTI_LINE_19(*)
 566:Drivers/STM32F4xx_HAL_Driver/Inc/stm32f4xx_ll_exti.h ****   *         @arg @ref LL_EXTI_LINE_20(*)
 567:Drivers/STM32F4xx_HAL_Driver/Inc/stm32f4xx_ll_exti.h ****   *         @arg @ref LL_EXTI_LINE_21
 568:Drivers/STM32F4xx_HAL_Driver/Inc/stm32f4xx_ll_exti.h ****   *         @arg @ref LL_EXTI_LINE_22
 569:Drivers/STM32F4xx_HAL_Driver/Inc/stm32f4xx_ll_exti.h ****   * @note   (*): Available in some devices
 570:Drivers/STM32F4xx_HAL_Driver/Inc/stm32f4xx_ll_exti.h ****   * @note   Please check each device line mapping for EXTI Line availability
 571:Drivers/STM32F4xx_HAL_Driver/Inc/stm32f4xx_ll_exti.h ****   * @retval None
 572:Drivers/STM32F4xx_HAL_Driver/Inc/stm32f4xx_ll_exti.h ****   */
 573:Drivers/STM32F4xx_HAL_Driver/Inc/stm32f4xx_ll_exti.h **** __STATIC_INLINE void LL_EXTI_DisableRisingTrig_0_31(uint32_t ExtiLine)
 574:Drivers/STM32F4xx_HAL_Driver/Inc/stm32f4xx_ll_exti.h **** {
 575:Drivers/STM32F4xx_HAL_Driver/Inc/stm32f4xx_ll_exti.h ****   CLEAR_BIT(EXTI->RTSR, ExtiLine);
 576:Drivers/STM32F4xx_HAL_Driver/Inc/stm32f4xx_ll_exti.h **** 
 577:Drivers/STM32F4xx_HAL_Driver/Inc/stm32f4xx_ll_exti.h **** }
 578:Drivers/STM32F4xx_HAL_Driver/Inc/stm32f4xx_ll_exti.h **** 
ARM GAS  /tmp/ccufBkQM.s 			page 20


 579:Drivers/STM32F4xx_HAL_Driver/Inc/stm32f4xx_ll_exti.h **** 
 580:Drivers/STM32F4xx_HAL_Driver/Inc/stm32f4xx_ll_exti.h **** /**
 581:Drivers/STM32F4xx_HAL_Driver/Inc/stm32f4xx_ll_exti.h ****   * @brief  Check if rising edge trigger is enabled for Lines in range 0 to 31
 582:Drivers/STM32F4xx_HAL_Driver/Inc/stm32f4xx_ll_exti.h ****   * @rmtoll RTSR        RTx           LL_EXTI_IsEnabledRisingTrig_0_31
 583:Drivers/STM32F4xx_HAL_Driver/Inc/stm32f4xx_ll_exti.h ****   * @param  ExtiLine This parameter can be a combination of the following values:
 584:Drivers/STM32F4xx_HAL_Driver/Inc/stm32f4xx_ll_exti.h ****   *         @arg @ref LL_EXTI_LINE_0
 585:Drivers/STM32F4xx_HAL_Driver/Inc/stm32f4xx_ll_exti.h ****   *         @arg @ref LL_EXTI_LINE_1
 586:Drivers/STM32F4xx_HAL_Driver/Inc/stm32f4xx_ll_exti.h ****   *         @arg @ref LL_EXTI_LINE_2
 587:Drivers/STM32F4xx_HAL_Driver/Inc/stm32f4xx_ll_exti.h ****   *         @arg @ref LL_EXTI_LINE_3
 588:Drivers/STM32F4xx_HAL_Driver/Inc/stm32f4xx_ll_exti.h ****   *         @arg @ref LL_EXTI_LINE_4
 589:Drivers/STM32F4xx_HAL_Driver/Inc/stm32f4xx_ll_exti.h ****   *         @arg @ref LL_EXTI_LINE_5
 590:Drivers/STM32F4xx_HAL_Driver/Inc/stm32f4xx_ll_exti.h ****   *         @arg @ref LL_EXTI_LINE_6
 591:Drivers/STM32F4xx_HAL_Driver/Inc/stm32f4xx_ll_exti.h ****   *         @arg @ref LL_EXTI_LINE_7
 592:Drivers/STM32F4xx_HAL_Driver/Inc/stm32f4xx_ll_exti.h ****   *         @arg @ref LL_EXTI_LINE_8
 593:Drivers/STM32F4xx_HAL_Driver/Inc/stm32f4xx_ll_exti.h ****   *         @arg @ref LL_EXTI_LINE_9
 594:Drivers/STM32F4xx_HAL_Driver/Inc/stm32f4xx_ll_exti.h ****   *         @arg @ref LL_EXTI_LINE_10
 595:Drivers/STM32F4xx_HAL_Driver/Inc/stm32f4xx_ll_exti.h ****   *         @arg @ref LL_EXTI_LINE_11
 596:Drivers/STM32F4xx_HAL_Driver/Inc/stm32f4xx_ll_exti.h ****   *         @arg @ref LL_EXTI_LINE_12
 597:Drivers/STM32F4xx_HAL_Driver/Inc/stm32f4xx_ll_exti.h ****   *         @arg @ref LL_EXTI_LINE_13
 598:Drivers/STM32F4xx_HAL_Driver/Inc/stm32f4xx_ll_exti.h ****   *         @arg @ref LL_EXTI_LINE_14
 599:Drivers/STM32F4xx_HAL_Driver/Inc/stm32f4xx_ll_exti.h ****   *         @arg @ref LL_EXTI_LINE_15
 600:Drivers/STM32F4xx_HAL_Driver/Inc/stm32f4xx_ll_exti.h ****   *         @arg @ref LL_EXTI_LINE_16
 601:Drivers/STM32F4xx_HAL_Driver/Inc/stm32f4xx_ll_exti.h ****   *         @arg @ref LL_EXTI_LINE_18
 602:Drivers/STM32F4xx_HAL_Driver/Inc/stm32f4xx_ll_exti.h ****   *         @arg @ref LL_EXTI_LINE_19(*)
 603:Drivers/STM32F4xx_HAL_Driver/Inc/stm32f4xx_ll_exti.h ****   *         @arg @ref LL_EXTI_LINE_20(*)
 604:Drivers/STM32F4xx_HAL_Driver/Inc/stm32f4xx_ll_exti.h ****   *         @arg @ref LL_EXTI_LINE_21
 605:Drivers/STM32F4xx_HAL_Driver/Inc/stm32f4xx_ll_exti.h ****   *         @arg @ref LL_EXTI_LINE_22
 606:Drivers/STM32F4xx_HAL_Driver/Inc/stm32f4xx_ll_exti.h ****   * @note   (*): Available in some devices
 607:Drivers/STM32F4xx_HAL_Driver/Inc/stm32f4xx_ll_exti.h ****   * @note   Please check each device line mapping for EXTI Line availability
 608:Drivers/STM32F4xx_HAL_Driver/Inc/stm32f4xx_ll_exti.h ****   * @retval State of bit (1 or 0).
 609:Drivers/STM32F4xx_HAL_Driver/Inc/stm32f4xx_ll_exti.h ****   */
 610:Drivers/STM32F4xx_HAL_Driver/Inc/stm32f4xx_ll_exti.h **** __STATIC_INLINE uint32_t LL_EXTI_IsEnabledRisingTrig_0_31(uint32_t ExtiLine)
 611:Drivers/STM32F4xx_HAL_Driver/Inc/stm32f4xx_ll_exti.h **** {
 612:Drivers/STM32F4xx_HAL_Driver/Inc/stm32f4xx_ll_exti.h ****   return (READ_BIT(EXTI->RTSR, ExtiLine) == (ExtiLine));
 613:Drivers/STM32F4xx_HAL_Driver/Inc/stm32f4xx_ll_exti.h **** }
 614:Drivers/STM32F4xx_HAL_Driver/Inc/stm32f4xx_ll_exti.h **** 
 615:Drivers/STM32F4xx_HAL_Driver/Inc/stm32f4xx_ll_exti.h **** 
 616:Drivers/STM32F4xx_HAL_Driver/Inc/stm32f4xx_ll_exti.h **** /**
 617:Drivers/STM32F4xx_HAL_Driver/Inc/stm32f4xx_ll_exti.h ****   * @}
 618:Drivers/STM32F4xx_HAL_Driver/Inc/stm32f4xx_ll_exti.h ****   */
 619:Drivers/STM32F4xx_HAL_Driver/Inc/stm32f4xx_ll_exti.h **** 
 620:Drivers/STM32F4xx_HAL_Driver/Inc/stm32f4xx_ll_exti.h **** /** @defgroup EXTI_LL_EF_Falling_Trigger_Management Falling_Trigger_Management
 621:Drivers/STM32F4xx_HAL_Driver/Inc/stm32f4xx_ll_exti.h ****   * @{
 622:Drivers/STM32F4xx_HAL_Driver/Inc/stm32f4xx_ll_exti.h ****   */
 623:Drivers/STM32F4xx_HAL_Driver/Inc/stm32f4xx_ll_exti.h **** 
 624:Drivers/STM32F4xx_HAL_Driver/Inc/stm32f4xx_ll_exti.h **** /**
 625:Drivers/STM32F4xx_HAL_Driver/Inc/stm32f4xx_ll_exti.h ****   * @brief  Enable ExtiLine Falling Edge Trigger for Lines in range 0 to 31
 626:Drivers/STM32F4xx_HAL_Driver/Inc/stm32f4xx_ll_exti.h ****   * @note The configurable wakeup lines are edge-triggered. No glitch must be
 627:Drivers/STM32F4xx_HAL_Driver/Inc/stm32f4xx_ll_exti.h ****   *       generated on these lines. If a falling edge on a configurable interrupt
 628:Drivers/STM32F4xx_HAL_Driver/Inc/stm32f4xx_ll_exti.h ****   *       line occurs during a write operation in the EXTI_FTSR register, the
 629:Drivers/STM32F4xx_HAL_Driver/Inc/stm32f4xx_ll_exti.h ****   *       pending bit is not set.
 630:Drivers/STM32F4xx_HAL_Driver/Inc/stm32f4xx_ll_exti.h ****   *       Rising and falling edge triggers can be set for
 631:Drivers/STM32F4xx_HAL_Driver/Inc/stm32f4xx_ll_exti.h ****   *       the same interrupt line. In this case, both generate a trigger
 632:Drivers/STM32F4xx_HAL_Driver/Inc/stm32f4xx_ll_exti.h ****   *       condition.
 633:Drivers/STM32F4xx_HAL_Driver/Inc/stm32f4xx_ll_exti.h ****   * @rmtoll FTSR        FTx           LL_EXTI_EnableFallingTrig_0_31
 634:Drivers/STM32F4xx_HAL_Driver/Inc/stm32f4xx_ll_exti.h ****   * @param  ExtiLine This parameter can be a combination of the following values:
 635:Drivers/STM32F4xx_HAL_Driver/Inc/stm32f4xx_ll_exti.h ****   *         @arg @ref LL_EXTI_LINE_0
ARM GAS  /tmp/ccufBkQM.s 			page 21


 636:Drivers/STM32F4xx_HAL_Driver/Inc/stm32f4xx_ll_exti.h ****   *         @arg @ref LL_EXTI_LINE_1
 637:Drivers/STM32F4xx_HAL_Driver/Inc/stm32f4xx_ll_exti.h ****   *         @arg @ref LL_EXTI_LINE_2
 638:Drivers/STM32F4xx_HAL_Driver/Inc/stm32f4xx_ll_exti.h ****   *         @arg @ref LL_EXTI_LINE_3
 639:Drivers/STM32F4xx_HAL_Driver/Inc/stm32f4xx_ll_exti.h ****   *         @arg @ref LL_EXTI_LINE_4
 640:Drivers/STM32F4xx_HAL_Driver/Inc/stm32f4xx_ll_exti.h ****   *         @arg @ref LL_EXTI_LINE_5
 641:Drivers/STM32F4xx_HAL_Driver/Inc/stm32f4xx_ll_exti.h ****   *         @arg @ref LL_EXTI_LINE_6
 642:Drivers/STM32F4xx_HAL_Driver/Inc/stm32f4xx_ll_exti.h ****   *         @arg @ref LL_EXTI_LINE_7
 643:Drivers/STM32F4xx_HAL_Driver/Inc/stm32f4xx_ll_exti.h ****   *         @arg @ref LL_EXTI_LINE_8
 644:Drivers/STM32F4xx_HAL_Driver/Inc/stm32f4xx_ll_exti.h ****   *         @arg @ref LL_EXTI_LINE_9
 645:Drivers/STM32F4xx_HAL_Driver/Inc/stm32f4xx_ll_exti.h ****   *         @arg @ref LL_EXTI_LINE_10
 646:Drivers/STM32F4xx_HAL_Driver/Inc/stm32f4xx_ll_exti.h ****   *         @arg @ref LL_EXTI_LINE_11
 647:Drivers/STM32F4xx_HAL_Driver/Inc/stm32f4xx_ll_exti.h ****   *         @arg @ref LL_EXTI_LINE_12
 648:Drivers/STM32F4xx_HAL_Driver/Inc/stm32f4xx_ll_exti.h ****   *         @arg @ref LL_EXTI_LINE_13
 649:Drivers/STM32F4xx_HAL_Driver/Inc/stm32f4xx_ll_exti.h ****   *         @arg @ref LL_EXTI_LINE_14
 650:Drivers/STM32F4xx_HAL_Driver/Inc/stm32f4xx_ll_exti.h ****   *         @arg @ref LL_EXTI_LINE_15
 651:Drivers/STM32F4xx_HAL_Driver/Inc/stm32f4xx_ll_exti.h ****   *         @arg @ref LL_EXTI_LINE_16
 652:Drivers/STM32F4xx_HAL_Driver/Inc/stm32f4xx_ll_exti.h ****   *         @arg @ref LL_EXTI_LINE_18
 653:Drivers/STM32F4xx_HAL_Driver/Inc/stm32f4xx_ll_exti.h ****   *         @arg @ref LL_EXTI_LINE_19(*)
 654:Drivers/STM32F4xx_HAL_Driver/Inc/stm32f4xx_ll_exti.h ****   *         @arg @ref LL_EXTI_LINE_20(*)
 655:Drivers/STM32F4xx_HAL_Driver/Inc/stm32f4xx_ll_exti.h ****   *         @arg @ref LL_EXTI_LINE_21
 656:Drivers/STM32F4xx_HAL_Driver/Inc/stm32f4xx_ll_exti.h ****   *         @arg @ref LL_EXTI_LINE_22
 657:Drivers/STM32F4xx_HAL_Driver/Inc/stm32f4xx_ll_exti.h ****   * @note   (*): Available in some devices
 658:Drivers/STM32F4xx_HAL_Driver/Inc/stm32f4xx_ll_exti.h ****   * @note   Please check each device line mapping for EXTI Line availability
 659:Drivers/STM32F4xx_HAL_Driver/Inc/stm32f4xx_ll_exti.h ****   * @retval None
 660:Drivers/STM32F4xx_HAL_Driver/Inc/stm32f4xx_ll_exti.h ****   */
 661:Drivers/STM32F4xx_HAL_Driver/Inc/stm32f4xx_ll_exti.h **** __STATIC_INLINE void LL_EXTI_EnableFallingTrig_0_31(uint32_t ExtiLine)
 662:Drivers/STM32F4xx_HAL_Driver/Inc/stm32f4xx_ll_exti.h **** {
 663:Drivers/STM32F4xx_HAL_Driver/Inc/stm32f4xx_ll_exti.h ****   SET_BIT(EXTI->FTSR, ExtiLine);
 664:Drivers/STM32F4xx_HAL_Driver/Inc/stm32f4xx_ll_exti.h **** }
 665:Drivers/STM32F4xx_HAL_Driver/Inc/stm32f4xx_ll_exti.h **** 
 666:Drivers/STM32F4xx_HAL_Driver/Inc/stm32f4xx_ll_exti.h **** 
 667:Drivers/STM32F4xx_HAL_Driver/Inc/stm32f4xx_ll_exti.h **** /**
 668:Drivers/STM32F4xx_HAL_Driver/Inc/stm32f4xx_ll_exti.h ****   * @brief  Disable ExtiLine Falling Edge Trigger for Lines in range 0 to 31
 669:Drivers/STM32F4xx_HAL_Driver/Inc/stm32f4xx_ll_exti.h ****   * @note The configurable wakeup lines are edge-triggered. No glitch must be
 670:Drivers/STM32F4xx_HAL_Driver/Inc/stm32f4xx_ll_exti.h ****   *       generated on these lines. If a Falling edge on a configurable interrupt
 671:Drivers/STM32F4xx_HAL_Driver/Inc/stm32f4xx_ll_exti.h ****   *       line occurs during a write operation in the EXTI_FTSR register, the
 672:Drivers/STM32F4xx_HAL_Driver/Inc/stm32f4xx_ll_exti.h ****   *       pending bit is not set.
 673:Drivers/STM32F4xx_HAL_Driver/Inc/stm32f4xx_ll_exti.h ****   *       Rising and falling edge triggers can be set for the same interrupt line.
 674:Drivers/STM32F4xx_HAL_Driver/Inc/stm32f4xx_ll_exti.h ****   *       In this case, both generate a trigger condition.
 675:Drivers/STM32F4xx_HAL_Driver/Inc/stm32f4xx_ll_exti.h ****   * @rmtoll FTSR        FTx           LL_EXTI_DisableFallingTrig_0_31
 676:Drivers/STM32F4xx_HAL_Driver/Inc/stm32f4xx_ll_exti.h ****   * @param  ExtiLine This parameter can be a combination of the following values:
 677:Drivers/STM32F4xx_HAL_Driver/Inc/stm32f4xx_ll_exti.h ****   *         @arg @ref LL_EXTI_LINE_0
 678:Drivers/STM32F4xx_HAL_Driver/Inc/stm32f4xx_ll_exti.h ****   *         @arg @ref LL_EXTI_LINE_1
 679:Drivers/STM32F4xx_HAL_Driver/Inc/stm32f4xx_ll_exti.h ****   *         @arg @ref LL_EXTI_LINE_2
 680:Drivers/STM32F4xx_HAL_Driver/Inc/stm32f4xx_ll_exti.h ****   *         @arg @ref LL_EXTI_LINE_3
 681:Drivers/STM32F4xx_HAL_Driver/Inc/stm32f4xx_ll_exti.h ****   *         @arg @ref LL_EXTI_LINE_4
 682:Drivers/STM32F4xx_HAL_Driver/Inc/stm32f4xx_ll_exti.h ****   *         @arg @ref LL_EXTI_LINE_5
 683:Drivers/STM32F4xx_HAL_Driver/Inc/stm32f4xx_ll_exti.h ****   *         @arg @ref LL_EXTI_LINE_6
 684:Drivers/STM32F4xx_HAL_Driver/Inc/stm32f4xx_ll_exti.h ****   *         @arg @ref LL_EXTI_LINE_7
 685:Drivers/STM32F4xx_HAL_Driver/Inc/stm32f4xx_ll_exti.h ****   *         @arg @ref LL_EXTI_LINE_8
 686:Drivers/STM32F4xx_HAL_Driver/Inc/stm32f4xx_ll_exti.h ****   *         @arg @ref LL_EXTI_LINE_9
 687:Drivers/STM32F4xx_HAL_Driver/Inc/stm32f4xx_ll_exti.h ****   *         @arg @ref LL_EXTI_LINE_10
 688:Drivers/STM32F4xx_HAL_Driver/Inc/stm32f4xx_ll_exti.h ****   *         @arg @ref LL_EXTI_LINE_11
 689:Drivers/STM32F4xx_HAL_Driver/Inc/stm32f4xx_ll_exti.h ****   *         @arg @ref LL_EXTI_LINE_12
 690:Drivers/STM32F4xx_HAL_Driver/Inc/stm32f4xx_ll_exti.h ****   *         @arg @ref LL_EXTI_LINE_13
 691:Drivers/STM32F4xx_HAL_Driver/Inc/stm32f4xx_ll_exti.h ****   *         @arg @ref LL_EXTI_LINE_14
 692:Drivers/STM32F4xx_HAL_Driver/Inc/stm32f4xx_ll_exti.h ****   *         @arg @ref LL_EXTI_LINE_15
ARM GAS  /tmp/ccufBkQM.s 			page 22


 693:Drivers/STM32F4xx_HAL_Driver/Inc/stm32f4xx_ll_exti.h ****   *         @arg @ref LL_EXTI_LINE_16
 694:Drivers/STM32F4xx_HAL_Driver/Inc/stm32f4xx_ll_exti.h ****   *         @arg @ref LL_EXTI_LINE_18
 695:Drivers/STM32F4xx_HAL_Driver/Inc/stm32f4xx_ll_exti.h ****   *         @arg @ref LL_EXTI_LINE_19(*)
 696:Drivers/STM32F4xx_HAL_Driver/Inc/stm32f4xx_ll_exti.h ****   *         @arg @ref LL_EXTI_LINE_20(*)
 697:Drivers/STM32F4xx_HAL_Driver/Inc/stm32f4xx_ll_exti.h ****   *         @arg @ref LL_EXTI_LINE_21
 698:Drivers/STM32F4xx_HAL_Driver/Inc/stm32f4xx_ll_exti.h ****   *         @arg @ref LL_EXTI_LINE_22
 699:Drivers/STM32F4xx_HAL_Driver/Inc/stm32f4xx_ll_exti.h ****   * @note   (*): Available in some devices
 700:Drivers/STM32F4xx_HAL_Driver/Inc/stm32f4xx_ll_exti.h ****   * @note   Please check each device line mapping for EXTI Line availability
 701:Drivers/STM32F4xx_HAL_Driver/Inc/stm32f4xx_ll_exti.h ****   * @retval None
 702:Drivers/STM32F4xx_HAL_Driver/Inc/stm32f4xx_ll_exti.h ****   */
 703:Drivers/STM32F4xx_HAL_Driver/Inc/stm32f4xx_ll_exti.h **** __STATIC_INLINE void LL_EXTI_DisableFallingTrig_0_31(uint32_t ExtiLine)
 284              		.loc 2 703 22 view .LVU81
 285              	.LBB51:
 704:Drivers/STM32F4xx_HAL_Driver/Inc/stm32f4xx_ll_exti.h **** {
 705:Drivers/STM32F4xx_HAL_Driver/Inc/stm32f4xx_ll_exti.h ****   CLEAR_BIT(EXTI->FTSR, ExtiLine);
 286              		.loc 2 705 3 view .LVU82
 287 0078 0C4B     		ldr	r3, .L23
 288 007a DA68     		ldr	r2, [r3, #12]
 289 007c 22EA0102 		bic	r2, r2, r1
 290 0080 DA60     		str	r2, [r3, #12]
 291              	.LVL22:
 292              		.loc 2 705 3 is_stmt 0 view .LVU83
 293              	.LBE51:
 294              	.LBE50:
 151:Drivers/STM32F4xx_HAL_Driver/Src/stm32f4xx_ll_exti.c ****             break;
 295              		.loc 1 151 13 is_stmt 1 view .LVU84
 296              	.LBB52:
 297              	.LBI52:
 529:Drivers/STM32F4xx_HAL_Driver/Inc/stm32f4xx_ll_exti.h **** {
 298              		.loc 2 529 22 view .LVU85
 299              	.LBB53:
 531:Drivers/STM32F4xx_HAL_Driver/Inc/stm32f4xx_ll_exti.h **** 
 300              		.loc 2 531 3 view .LVU86
 301 0082 9A68     		ldr	r2, [r3, #8]
 302 0084 0A43     		orrs	r2, r2, r1
 303 0086 9A60     		str	r2, [r3, #8]
 304              	.LVL23:
 531:Drivers/STM32F4xx_HAL_Driver/Inc/stm32f4xx_ll_exti.h **** 
 305              		.loc 2 531 3 is_stmt 0 view .LVU87
 306              	.LBE53:
 307              	.LBE52:
 152:Drivers/STM32F4xx_HAL_Driver/Src/stm32f4xx_ll_exti.c ****           case LL_EXTI_TRIGGER_FALLING:
 308              		.loc 1 152 13 is_stmt 1 view .LVU88
 309              	.LBB55:
 310              	.LBB54:
 533:Drivers/STM32F4xx_HAL_Driver/Inc/stm32f4xx_ll_exti.h **** 
 311              		.loc 2 533 1 is_stmt 0 view .LVU89
 312 0088 7047     		bx	lr
 313              	.L15:
 314              	.LBE54:
 315              	.LBE55:
 160:Drivers/STM32F4xx_HAL_Driver/Src/stm32f4xx_ll_exti.c ****             LL_EXTI_EnableFallingTrig_0_31(EXTI_InitStruct->Line_0_31);
 316              		.loc 1 160 13 is_stmt 1 view .LVU90
 317              	.LVL24:
 318              	.LBB56:
 319              	.LBI56:
 529:Drivers/STM32F4xx_HAL_Driver/Inc/stm32f4xx_ll_exti.h **** {
ARM GAS  /tmp/ccufBkQM.s 			page 23


 320              		.loc 2 529 22 view .LVU91
 321              	.LBB57:
 531:Drivers/STM32F4xx_HAL_Driver/Inc/stm32f4xx_ll_exti.h **** 
 322              		.loc 2 531 3 view .LVU92
 323 008a 084B     		ldr	r3, .L23
 324 008c 9A68     		ldr	r2, [r3, #8]
 325 008e 0A43     		orrs	r2, r2, r1
 326 0090 9A60     		str	r2, [r3, #8]
 327              	.LVL25:
 531:Drivers/STM32F4xx_HAL_Driver/Inc/stm32f4xx_ll_exti.h **** 
 328              		.loc 2 531 3 is_stmt 0 view .LVU93
 329              	.LBE57:
 330              	.LBE56:
 161:Drivers/STM32F4xx_HAL_Driver/Src/stm32f4xx_ll_exti.c ****             break;
 331              		.loc 1 161 13 is_stmt 1 view .LVU94
 332              	.LBB58:
 333              	.LBI58:
 661:Drivers/STM32F4xx_HAL_Driver/Inc/stm32f4xx_ll_exti.h **** {
 334              		.loc 2 661 22 view .LVU95
 335              	.LBB59:
 663:Drivers/STM32F4xx_HAL_Driver/Inc/stm32f4xx_ll_exti.h **** }
 336              		.loc 2 663 3 view .LVU96
 337 0092 DA68     		ldr	r2, [r3, #12]
 338 0094 0A43     		orrs	r2, r2, r1
 339 0096 DA60     		str	r2, [r3, #12]
 340              	.LVL26:
 663:Drivers/STM32F4xx_HAL_Driver/Inc/stm32f4xx_ll_exti.h **** }
 341              		.loc 2 663 3 is_stmt 0 view .LVU97
 342              	.LBE59:
 343              	.LBE58:
 162:Drivers/STM32F4xx_HAL_Driver/Src/stm32f4xx_ll_exti.c ****           default:
 344              		.loc 1 162 13 is_stmt 1 view .LVU98
 345              	.LBB61:
 346              	.LBB60:
 664:Drivers/STM32F4xx_HAL_Driver/Inc/stm32f4xx_ll_exti.h **** 
 347              		.loc 2 664 1 is_stmt 0 view .LVU99
 348 0098 7047     		bx	lr
 349              	.L14:
 350              	.LBE60:
 351              	.LBE61:
 155:Drivers/STM32F4xx_HAL_Driver/Src/stm32f4xx_ll_exti.c ****             /* Then Enable Falling Trigger on provided Lines */
 352              		.loc 1 155 13 is_stmt 1 view .LVU100
 353              	.LVL27:
 354              	.LBB62:
 355              	.LBI62:
 573:Drivers/STM32F4xx_HAL_Driver/Inc/stm32f4xx_ll_exti.h **** {
 356              		.loc 2 573 22 view .LVU101
 357              	.LBB63:
 575:Drivers/STM32F4xx_HAL_Driver/Inc/stm32f4xx_ll_exti.h **** 
 358              		.loc 2 575 3 view .LVU102
 359 009a 044B     		ldr	r3, .L23
 360 009c 9A68     		ldr	r2, [r3, #8]
 361 009e 22EA0102 		bic	r2, r2, r1
 362 00a2 9A60     		str	r2, [r3, #8]
 363              	.LVL28:
 575:Drivers/STM32F4xx_HAL_Driver/Inc/stm32f4xx_ll_exti.h **** 
 364              		.loc 2 575 3 is_stmt 0 view .LVU103
ARM GAS  /tmp/ccufBkQM.s 			page 24


 365              	.LBE63:
 366              	.LBE62:
 157:Drivers/STM32F4xx_HAL_Driver/Src/stm32f4xx_ll_exti.c ****             break;
 367              		.loc 1 157 13 is_stmt 1 view .LVU104
 368              	.LBB64:
 369              	.LBI64:
 661:Drivers/STM32F4xx_HAL_Driver/Inc/stm32f4xx_ll_exti.h **** {
 370              		.loc 2 661 22 view .LVU105
 371              	.LBB65:
 663:Drivers/STM32F4xx_HAL_Driver/Inc/stm32f4xx_ll_exti.h **** }
 372              		.loc 2 663 3 view .LVU106
 373 00a4 DA68     		ldr	r2, [r3, #12]
 374 00a6 0A43     		orrs	r2, r2, r1
 375 00a8 DA60     		str	r2, [r3, #12]
 376              	.LVL29:
 663:Drivers/STM32F4xx_HAL_Driver/Inc/stm32f4xx_ll_exti.h **** }
 377              		.loc 2 663 3 is_stmt 0 view .LVU107
 378              	.LBE65:
 379              	.LBE64:
 158:Drivers/STM32F4xx_HAL_Driver/Src/stm32f4xx_ll_exti.c ****           case LL_EXTI_TRIGGER_RISING_FALLING:
 380              		.loc 1 158 13 is_stmt 1 view .LVU108
 381              	.LBB67:
 382              	.LBB66:
 664:Drivers/STM32F4xx_HAL_Driver/Inc/stm32f4xx_ll_exti.h **** 
 383              		.loc 2 664 1 is_stmt 0 view .LVU109
 384 00aa 7047     		bx	lr
 385              	.L24:
 386              		.align	2
 387              	.L23:
 388 00ac 003C0140 		.word	1073822720
 389              	.LBE66:
 390              	.LBE67:
 391              		.cfi_endproc
 392              	.LFE151:
 394              		.section	.text.LL_EXTI_StructInit,"ax",%progbits
 395              		.align	1
 396              		.p2align 2,,3
 397              		.global	LL_EXTI_StructInit
 398              		.syntax unified
 399              		.thumb
 400              		.thumb_func
 402              	LL_EXTI_StructInit:
 403              	.LVL30:
 404              	.LFB152:
 179:Drivers/STM32F4xx_HAL_Driver/Src/stm32f4xx_ll_exti.c **** 
 180:Drivers/STM32F4xx_HAL_Driver/Src/stm32f4xx_ll_exti.c **** /**
 181:Drivers/STM32F4xx_HAL_Driver/Src/stm32f4xx_ll_exti.c ****   * @brief  Set each @ref LL_EXTI_InitTypeDef field to default value.
 182:Drivers/STM32F4xx_HAL_Driver/Src/stm32f4xx_ll_exti.c ****   * @param  EXTI_InitStruct Pointer to a @ref LL_EXTI_InitTypeDef structure.
 183:Drivers/STM32F4xx_HAL_Driver/Src/stm32f4xx_ll_exti.c ****   * @retval None
 184:Drivers/STM32F4xx_HAL_Driver/Src/stm32f4xx_ll_exti.c ****   */
 185:Drivers/STM32F4xx_HAL_Driver/Src/stm32f4xx_ll_exti.c **** void LL_EXTI_StructInit(LL_EXTI_InitTypeDef *EXTI_InitStruct)
 186:Drivers/STM32F4xx_HAL_Driver/Src/stm32f4xx_ll_exti.c **** {
 405              		.loc 1 186 1 is_stmt 1 view -0
 406              		.cfi_startproc
 407              		@ args = 0, pretend = 0, frame = 0
 408              		@ frame_needed = 0, uses_anonymous_args = 0
 409              		@ link register save eliminated.
ARM GAS  /tmp/ccufBkQM.s 			page 25


 187:Drivers/STM32F4xx_HAL_Driver/Src/stm32f4xx_ll_exti.c ****   EXTI_InitStruct->Line_0_31      = LL_EXTI_LINE_NONE;
 410              		.loc 1 187 3 view .LVU111
 411              		.loc 1 187 35 is_stmt 0 view .LVU112
 412 0000 0023     		movs	r3, #0
 188:Drivers/STM32F4xx_HAL_Driver/Src/stm32f4xx_ll_exti.c ****   EXTI_InitStruct->LineCommand    = DISABLE;
 189:Drivers/STM32F4xx_HAL_Driver/Src/stm32f4xx_ll_exti.c ****   EXTI_InitStruct->Mode           = LL_EXTI_MODE_IT;
 190:Drivers/STM32F4xx_HAL_Driver/Src/stm32f4xx_ll_exti.c ****   EXTI_InitStruct->Trigger        = LL_EXTI_TRIGGER_FALLING;
 413              		.loc 1 190 35 view .LVU113
 414 0002 0222     		movs	r2, #2
 187:Drivers/STM32F4xx_HAL_Driver/Src/stm32f4xx_ll_exti.c ****   EXTI_InitStruct->Line_0_31      = LL_EXTI_LINE_NONE;
 415              		.loc 1 187 35 view .LVU114
 416 0004 0360     		str	r3, [r0]
 188:Drivers/STM32F4xx_HAL_Driver/Src/stm32f4xx_ll_exti.c ****   EXTI_InitStruct->LineCommand    = DISABLE;
 417              		.loc 1 188 3 is_stmt 1 view .LVU115
 189:Drivers/STM32F4xx_HAL_Driver/Src/stm32f4xx_ll_exti.c ****   EXTI_InitStruct->Trigger        = LL_EXTI_TRIGGER_FALLING;
 418              		.loc 1 189 3 view .LVU116
 188:Drivers/STM32F4xx_HAL_Driver/Src/stm32f4xx_ll_exti.c ****   EXTI_InitStruct->LineCommand    = DISABLE;
 419              		.loc 1 188 35 is_stmt 0 view .LVU117
 420 0006 8380     		strh	r3, [r0, #4]	@ movhi
 421              		.loc 1 190 3 is_stmt 1 view .LVU118
 422              		.loc 1 190 35 is_stmt 0 view .LVU119
 423 0008 8271     		strb	r2, [r0, #6]
 191:Drivers/STM32F4xx_HAL_Driver/Src/stm32f4xx_ll_exti.c **** }
 424              		.loc 1 191 1 view .LVU120
 425 000a 7047     		bx	lr
 426              		.cfi_endproc
 427              	.LFE152:
 429              		.text
 430              	.Letext0:
 431              		.file 3 "/usr/arm-none-eabi/include/machine/_default_types.h"
 432              		.file 4 "/usr/arm-none-eabi/include/sys/_stdint.h"
 433              		.file 5 "Drivers/CMSIS/Device/ST/STM32F4xx/Include/stm32f411xe.h"
 434              		.file 6 "Drivers/CMSIS/Device/ST/STM32F4xx/Include/stm32f4xx.h"
ARM GAS  /tmp/ccufBkQM.s 			page 26


DEFINED SYMBOLS
                            *ABS*:00000000 stm32f4xx_ll_exti.c
     /tmp/ccufBkQM.s:21     .text.LL_EXTI_DeInit:00000000 $t
     /tmp/ccufBkQM.s:28     .text.LL_EXTI_DeInit:00000000 LL_EXTI_DeInit
     /tmp/ccufBkQM.s:58     .text.LL_EXTI_DeInit:00000018 $d
     /tmp/ccufBkQM.s:63     .text.LL_EXTI_Init:00000000 $t
     /tmp/ccufBkQM.s:70     .text.LL_EXTI_Init:00000000 LL_EXTI_Init
     /tmp/ccufBkQM.s:388    .text.LL_EXTI_Init:000000ac $d
     /tmp/ccufBkQM.s:395    .text.LL_EXTI_StructInit:00000000 $t
     /tmp/ccufBkQM.s:402    .text.LL_EXTI_StructInit:00000000 LL_EXTI_StructInit

NO UNDEFINED SYMBOLS
