ARM GAS  /tmp/ccvq1yeG.s 			page 1


   1              		.cpu cortex-m4
   2              		.arch armv7e-m
   3              		.fpu fpv4-sp-d16
   4              		.eabi_attribute 27, 1
   5              		.eabi_attribute 28, 1
   6              		.eabi_attribute 20, 1
   7              		.eabi_attribute 21, 1
   8              		.eabi_attribute 23, 3
   9              		.eabi_attribute 24, 1
  10              		.eabi_attribute 25, 1
  11              		.eabi_attribute 26, 1
  12              		.eabi_attribute 30, 2
  13              		.eabi_attribute 34, 1
  14              		.eabi_attribute 18, 4
  15              		.file	"stm32f4xx_it.c"
  16              		.text
  17              	.Ltext0:
  18              		.cfi_sections	.debug_frame
  19              		.file 1 "src/stm32f4xx_it.c"
  20              		.section	.text.NMI_Handler,"ax",%progbits
  21              		.align	1
  22              		.p2align 2,,3
  23              		.global	NMI_Handler
  24              		.syntax unified
  25              		.thumb
  26              		.thumb_func
  28              	NMI_Handler:
  29              	.LFB495:
   1:src/stm32f4xx_it.c **** #include "stm32f4xx.h"
   2:src/stm32f4xx_it.c **** #include "stm32f4xx_ll_rcc.h"
   3:src/stm32f4xx_it.c **** #include "stm32f4xx_ll_system.h"
   4:src/stm32f4xx_it.c **** #include "stm32f4xx_ll_cortex.h"
   5:src/stm32f4xx_it.c **** #include "stm32f4xx_ll_utils.h"
   6:src/stm32f4xx_it.c **** #include "stm32f4xx_ll_pwr.h"
   7:src/stm32f4xx_it.c **** #include "stm32f4xx_ll_dma.h"
   8:src/stm32f4xx_it.c **** 
   9:src/stm32f4xx_it.c **** void NMI_Handler(void){ while (1); }
  30              		.loc 1 9 23 view -0
  31              		.cfi_startproc
  32              		@ Volatile: function does not return.
  33              		@ args = 0, pretend = 0, frame = 0
  34              		@ frame_needed = 0, uses_anonymous_args = 0
  35              		@ link register save eliminated.
  36              	.L2:
  37              		.loc 1 9 25 view .LVU1
  38              		.loc 1 9 31 view .LVU2
  39 0000 FEE7     		b	.L2
  40              		.cfi_endproc
  41              	.LFE495:
  43 0002 00BF     		.section	.text.HardFault_Handler,"ax",%progbits
  44              		.align	1
  45              		.p2align 2,,3
  46              		.global	HardFault_Handler
  47              		.syntax unified
  48              		.thumb
  49              		.thumb_func
  51              	HardFault_Handler:
ARM GAS  /tmp/ccvq1yeG.s 			page 2


  52              	.LFB496:
  10:src/stm32f4xx_it.c **** void HardFault_Handler(void) { while(1); }
  53              		.loc 1 10 30 view -0
  54              		.cfi_startproc
  55              		@ Volatile: function does not return.
  56              		@ args = 0, pretend = 0, frame = 0
  57              		@ frame_needed = 0, uses_anonymous_args = 0
  58              		@ link register save eliminated.
  59              	.L5:
  60              		.loc 1 10 32 view .LVU4
  61              		.loc 1 10 37 view .LVU5
  62 0000 FEE7     		b	.L5
  63              		.cfi_endproc
  64              	.LFE496:
  66 0002 00BF     		.section	.text.MemManage_Handler,"ax",%progbits
  67              		.align	1
  68              		.p2align 2,,3
  69              		.global	MemManage_Handler
  70              		.syntax unified
  71              		.thumb
  72              		.thumb_func
  74              	MemManage_Handler:
  75              	.LFB497:
  11:src/stm32f4xx_it.c **** void MemManage_Handler(void){ while(1); }
  76              		.loc 1 11 29 view -0
  77              		.cfi_startproc
  78              		@ Volatile: function does not return.
  79              		@ args = 0, pretend = 0, frame = 0
  80              		@ frame_needed = 0, uses_anonymous_args = 0
  81              		@ link register save eliminated.
  82              	.L7:
  83              		.loc 1 11 31 view .LVU7
  84              		.loc 1 11 36 view .LVU8
  85 0000 FEE7     		b	.L7
  86              		.cfi_endproc
  87              	.LFE497:
  89 0002 00BF     		.section	.text.BusFault_Handler,"ax",%progbits
  90              		.align	1
  91              		.p2align 2,,3
  92              		.global	BusFault_Handler
  93              		.syntax unified
  94              		.thumb
  95              		.thumb_func
  97              	BusFault_Handler:
  98              	.LFB498:
  12:src/stm32f4xx_it.c **** void BusFault_Handler(void){ while(1); }
  99              		.loc 1 12 28 view -0
 100              		.cfi_startproc
 101              		@ Volatile: function does not return.
 102              		@ args = 0, pretend = 0, frame = 0
 103              		@ frame_needed = 0, uses_anonymous_args = 0
 104              		@ link register save eliminated.
 105              	.L9:
 106              		.loc 1 12 30 view .LVU10
 107              		.loc 1 12 35 view .LVU11
 108 0000 FEE7     		b	.L9
 109              		.cfi_endproc
ARM GAS  /tmp/ccvq1yeG.s 			page 3


 110              	.LFE498:
 112 0002 00BF     		.section	.text.UsageFault_Handler,"ax",%progbits
 113              		.align	1
 114              		.p2align 2,,3
 115              		.global	UsageFault_Handler
 116              		.syntax unified
 117              		.thumb
 118              		.thumb_func
 120              	UsageFault_Handler:
 121              	.LFB499:
  13:src/stm32f4xx_it.c **** void UsageFault_Handler(void){ while (1); }
 122              		.loc 1 13 30 view -0
 123              		.cfi_startproc
 124              		@ Volatile: function does not return.
 125              		@ args = 0, pretend = 0, frame = 0
 126              		@ frame_needed = 0, uses_anonymous_args = 0
 127              		@ link register save eliminated.
 128              	.L11:
 129              		.loc 1 13 32 view .LVU13
 130              		.loc 1 13 38 view .LVU14
 131 0000 FEE7     		b	.L11
 132              		.cfi_endproc
 133              	.LFE499:
 135 0002 00BF     		.section	.text.SVC_Handler,"ax",%progbits
 136              		.align	1
 137              		.p2align 2,,3
 138              		.global	SVC_Handler
 139              		.syntax unified
 140              		.thumb
 141              		.thumb_func
 143              	SVC_Handler:
 144              	.LFB500:
  14:src/stm32f4xx_it.c **** void SVC_Handler(void){}
 145              		.loc 1 14 23 view -0
 146              		.cfi_startproc
 147              		@ args = 0, pretend = 0, frame = 0
 148              		@ frame_needed = 0, uses_anonymous_args = 0
 149              		@ link register save eliminated.
 150              		.loc 1 14 24 view .LVU16
 151 0000 7047     		bx	lr
 152              		.cfi_endproc
 153              	.LFE500:
 155 0002 00BF     		.section	.text.DebugMon_Handler,"ax",%progbits
 156              		.align	1
 157              		.p2align 2,,3
 158              		.global	DebugMon_Handler
 159              		.syntax unified
 160              		.thumb
 161              		.thumb_func
 163              	DebugMon_Handler:
 164              	.LFB509:
 165              		.cfi_startproc
  15:src/stm32f4xx_it.c **** void DebugMon_Handler(void){}
 166              		.loc 1 15 6 view -0
 167              		@ args = 0, pretend = 0, frame = 0
 168              		@ frame_needed = 0, uses_anonymous_args = 0
 169              		@ link register save eliminated.
ARM GAS  /tmp/ccvq1yeG.s 			page 4


 170 0000 7047     		bx	lr
 171              		.cfi_endproc
 172              	.LFE509:
 174 0002 00BF     		.section	.text.PendSV_Handler,"ax",%progbits
 175              		.align	1
 176              		.p2align 2,,3
 177              		.global	PendSV_Handler
 178              		.syntax unified
 179              		.thumb
 180              		.thumb_func
 182              	PendSV_Handler:
 183              	.LFB511:
 184              		.cfi_startproc
  16:src/stm32f4xx_it.c **** void PendSV_Handler(void){}
 185              		.loc 1 16 6 view -0
 186              		@ args = 0, pretend = 0, frame = 0
 187              		@ frame_needed = 0, uses_anonymous_args = 0
 188              		@ link register save eliminated.
 189 0000 7047     		bx	lr
 190              		.cfi_endproc
 191              	.LFE511:
 193 0002 00BF     		.section	.text.SystemClock_Config,"ax",%progbits
 194              		.align	1
 195              		.p2align 2,,3
 196              		.global	SystemClock_Config
 197              		.syntax unified
 198              		.thumb
 199              		.thumb_func
 201              	SystemClock_Config:
 202              	.LFB503:
  17:src/stm32f4xx_it.c **** void Error_Handler(void);
  18:src/stm32f4xx_it.c **** 
  19:src/stm32f4xx_it.c **** void SystemClock_Config(void){
 203              		.loc 1 19 30 view -0
 204              		.cfi_startproc
 205              		@ args = 0, pretend = 0, frame = 0
 206              		@ frame_needed = 0, uses_anonymous_args = 0
  20:src/stm32f4xx_it.c ****     LL_FLASH_SetLatency(LL_FLASH_LATENCY_3);
 207              		.loc 1 20 5 view .LVU20
 208              	.LVL0:
 209              	.LBB40:
 210              	.LBI40:
 211              		.file 2 "Drivers/STM32F4xx_HAL_Driver/Inc/stm32f4xx_ll_system.h"
   1:Drivers/STM32F4xx_HAL_Driver/Inc/stm32f4xx_ll_system.h **** /**
   2:Drivers/STM32F4xx_HAL_Driver/Inc/stm32f4xx_ll_system.h ****   ******************************************************************************
   3:Drivers/STM32F4xx_HAL_Driver/Inc/stm32f4xx_ll_system.h ****   * @file    stm32f4xx_ll_system.h
   4:Drivers/STM32F4xx_HAL_Driver/Inc/stm32f4xx_ll_system.h ****   * @author  MCD Application Team
   5:Drivers/STM32F4xx_HAL_Driver/Inc/stm32f4xx_ll_system.h ****   * @brief   Header file of SYSTEM LL module.
   6:Drivers/STM32F4xx_HAL_Driver/Inc/stm32f4xx_ll_system.h ****   *
   7:Drivers/STM32F4xx_HAL_Driver/Inc/stm32f4xx_ll_system.h ****   ******************************************************************************
   8:Drivers/STM32F4xx_HAL_Driver/Inc/stm32f4xx_ll_system.h ****   * @attention
   9:Drivers/STM32F4xx_HAL_Driver/Inc/stm32f4xx_ll_system.h ****   *
  10:Drivers/STM32F4xx_HAL_Driver/Inc/stm32f4xx_ll_system.h ****   *Copyright (c) 2017 STMicroelectronics.
  11:Drivers/STM32F4xx_HAL_Driver/Inc/stm32f4xx_ll_system.h ****   * All rights reserved.
  12:Drivers/STM32F4xx_HAL_Driver/Inc/stm32f4xx_ll_system.h ****   *
  13:Drivers/STM32F4xx_HAL_Driver/Inc/stm32f4xx_ll_system.h ****   * This software is licensed under terms that can be found in the LICENSE file
  14:Drivers/STM32F4xx_HAL_Driver/Inc/stm32f4xx_ll_system.h ****   * in the root directory of this software component.
ARM GAS  /tmp/ccvq1yeG.s 			page 5


  15:Drivers/STM32F4xx_HAL_Driver/Inc/stm32f4xx_ll_system.h ****   * If no LICENSE file comes with this software, it is provided AS-IS.
  16:Drivers/STM32F4xx_HAL_Driver/Inc/stm32f4xx_ll_system.h ****   *
  17:Drivers/STM32F4xx_HAL_Driver/Inc/stm32f4xx_ll_system.h ****   ******************************************************************************
  18:Drivers/STM32F4xx_HAL_Driver/Inc/stm32f4xx_ll_system.h ****   @verbatim
  19:Drivers/STM32F4xx_HAL_Driver/Inc/stm32f4xx_ll_system.h ****   ==============================================================================
  20:Drivers/STM32F4xx_HAL_Driver/Inc/stm32f4xx_ll_system.h ****                      ##### How to use this driver #####
  21:Drivers/STM32F4xx_HAL_Driver/Inc/stm32f4xx_ll_system.h ****   ==============================================================================
  22:Drivers/STM32F4xx_HAL_Driver/Inc/stm32f4xx_ll_system.h ****     [..]
  23:Drivers/STM32F4xx_HAL_Driver/Inc/stm32f4xx_ll_system.h ****     The LL SYSTEM driver contains a set of generic APIs that can be
  24:Drivers/STM32F4xx_HAL_Driver/Inc/stm32f4xx_ll_system.h ****     used by user:
  25:Drivers/STM32F4xx_HAL_Driver/Inc/stm32f4xx_ll_system.h ****       (+) Some of the FLASH features need to be handled in the SYSTEM file.
  26:Drivers/STM32F4xx_HAL_Driver/Inc/stm32f4xx_ll_system.h ****       (+) Access to DBGCMU registers
  27:Drivers/STM32F4xx_HAL_Driver/Inc/stm32f4xx_ll_system.h ****       (+) Access to SYSCFG registers
  28:Drivers/STM32F4xx_HAL_Driver/Inc/stm32f4xx_ll_system.h **** 
  29:Drivers/STM32F4xx_HAL_Driver/Inc/stm32f4xx_ll_system.h ****   @endverbatim
  30:Drivers/STM32F4xx_HAL_Driver/Inc/stm32f4xx_ll_system.h ****   ******************************************************************************
  31:Drivers/STM32F4xx_HAL_Driver/Inc/stm32f4xx_ll_system.h ****   */
  32:Drivers/STM32F4xx_HAL_Driver/Inc/stm32f4xx_ll_system.h **** 
  33:Drivers/STM32F4xx_HAL_Driver/Inc/stm32f4xx_ll_system.h **** /* Define to prevent recursive inclusion -------------------------------------*/
  34:Drivers/STM32F4xx_HAL_Driver/Inc/stm32f4xx_ll_system.h **** #ifndef __STM32F4xx_LL_SYSTEM_H
  35:Drivers/STM32F4xx_HAL_Driver/Inc/stm32f4xx_ll_system.h **** #define __STM32F4xx_LL_SYSTEM_H
  36:Drivers/STM32F4xx_HAL_Driver/Inc/stm32f4xx_ll_system.h **** 
  37:Drivers/STM32F4xx_HAL_Driver/Inc/stm32f4xx_ll_system.h **** #ifdef __cplusplus
  38:Drivers/STM32F4xx_HAL_Driver/Inc/stm32f4xx_ll_system.h **** extern "C" {
  39:Drivers/STM32F4xx_HAL_Driver/Inc/stm32f4xx_ll_system.h **** #endif
  40:Drivers/STM32F4xx_HAL_Driver/Inc/stm32f4xx_ll_system.h **** 
  41:Drivers/STM32F4xx_HAL_Driver/Inc/stm32f4xx_ll_system.h **** /* Includes ------------------------------------------------------------------*/
  42:Drivers/STM32F4xx_HAL_Driver/Inc/stm32f4xx_ll_system.h **** #include "stm32f4xx.h"
  43:Drivers/STM32F4xx_HAL_Driver/Inc/stm32f4xx_ll_system.h **** 
  44:Drivers/STM32F4xx_HAL_Driver/Inc/stm32f4xx_ll_system.h **** /** @addtogroup STM32F4xx_LL_Driver
  45:Drivers/STM32F4xx_HAL_Driver/Inc/stm32f4xx_ll_system.h ****   * @{
  46:Drivers/STM32F4xx_HAL_Driver/Inc/stm32f4xx_ll_system.h ****   */
  47:Drivers/STM32F4xx_HAL_Driver/Inc/stm32f4xx_ll_system.h **** 
  48:Drivers/STM32F4xx_HAL_Driver/Inc/stm32f4xx_ll_system.h **** #if defined (FLASH) || defined (SYSCFG) || defined (DBGMCU)
  49:Drivers/STM32F4xx_HAL_Driver/Inc/stm32f4xx_ll_system.h **** 
  50:Drivers/STM32F4xx_HAL_Driver/Inc/stm32f4xx_ll_system.h **** /** @defgroup SYSTEM_LL SYSTEM
  51:Drivers/STM32F4xx_HAL_Driver/Inc/stm32f4xx_ll_system.h ****   * @{
  52:Drivers/STM32F4xx_HAL_Driver/Inc/stm32f4xx_ll_system.h ****   */
  53:Drivers/STM32F4xx_HAL_Driver/Inc/stm32f4xx_ll_system.h **** 
  54:Drivers/STM32F4xx_HAL_Driver/Inc/stm32f4xx_ll_system.h **** /* Private types -------------------------------------------------------------*/
  55:Drivers/STM32F4xx_HAL_Driver/Inc/stm32f4xx_ll_system.h **** /* Private variables ---------------------------------------------------------*/
  56:Drivers/STM32F4xx_HAL_Driver/Inc/stm32f4xx_ll_system.h **** 
  57:Drivers/STM32F4xx_HAL_Driver/Inc/stm32f4xx_ll_system.h **** /* Private constants ---------------------------------------------------------*/
  58:Drivers/STM32F4xx_HAL_Driver/Inc/stm32f4xx_ll_system.h **** /** @defgroup SYSTEM_LL_Private_Constants SYSTEM Private Constants
  59:Drivers/STM32F4xx_HAL_Driver/Inc/stm32f4xx_ll_system.h ****   * @{
  60:Drivers/STM32F4xx_HAL_Driver/Inc/stm32f4xx_ll_system.h ****   */
  61:Drivers/STM32F4xx_HAL_Driver/Inc/stm32f4xx_ll_system.h **** 
  62:Drivers/STM32F4xx_HAL_Driver/Inc/stm32f4xx_ll_system.h **** /**
  63:Drivers/STM32F4xx_HAL_Driver/Inc/stm32f4xx_ll_system.h ****   * @}
  64:Drivers/STM32F4xx_HAL_Driver/Inc/stm32f4xx_ll_system.h ****   */
  65:Drivers/STM32F4xx_HAL_Driver/Inc/stm32f4xx_ll_system.h **** 
  66:Drivers/STM32F4xx_HAL_Driver/Inc/stm32f4xx_ll_system.h **** /* Private macros ------------------------------------------------------------*/
  67:Drivers/STM32F4xx_HAL_Driver/Inc/stm32f4xx_ll_system.h **** 
  68:Drivers/STM32F4xx_HAL_Driver/Inc/stm32f4xx_ll_system.h **** /* Exported types ------------------------------------------------------------*/
  69:Drivers/STM32F4xx_HAL_Driver/Inc/stm32f4xx_ll_system.h **** /* Exported constants --------------------------------------------------------*/
  70:Drivers/STM32F4xx_HAL_Driver/Inc/stm32f4xx_ll_system.h **** /** @defgroup SYSTEM_LL_Exported_Constants SYSTEM Exported Constants
  71:Drivers/STM32F4xx_HAL_Driver/Inc/stm32f4xx_ll_system.h ****   * @{
ARM GAS  /tmp/ccvq1yeG.s 			page 6


  72:Drivers/STM32F4xx_HAL_Driver/Inc/stm32f4xx_ll_system.h ****   */
  73:Drivers/STM32F4xx_HAL_Driver/Inc/stm32f4xx_ll_system.h **** 
  74:Drivers/STM32F4xx_HAL_Driver/Inc/stm32f4xx_ll_system.h **** /** @defgroup SYSTEM_LL_EC_REMAP SYSCFG REMAP
  75:Drivers/STM32F4xx_HAL_Driver/Inc/stm32f4xx_ll_system.h **** * @{
  76:Drivers/STM32F4xx_HAL_Driver/Inc/stm32f4xx_ll_system.h **** */
  77:Drivers/STM32F4xx_HAL_Driver/Inc/stm32f4xx_ll_system.h **** #define LL_SYSCFG_REMAP_FLASH              (uint32_t)0x00000000                                  /*
  78:Drivers/STM32F4xx_HAL_Driver/Inc/stm32f4xx_ll_system.h **** #define LL_SYSCFG_REMAP_SYSTEMFLASH        SYSCFG_MEMRMP_MEM_MODE_0                              /*
  79:Drivers/STM32F4xx_HAL_Driver/Inc/stm32f4xx_ll_system.h **** #if defined(FSMC_Bank1)
  80:Drivers/STM32F4xx_HAL_Driver/Inc/stm32f4xx_ll_system.h **** #define LL_SYSCFG_REMAP_FSMC               SYSCFG_MEMRMP_MEM_MODE_1                              /*
  81:Drivers/STM32F4xx_HAL_Driver/Inc/stm32f4xx_ll_system.h **** #endif /* FSMC_Bank1 */
  82:Drivers/STM32F4xx_HAL_Driver/Inc/stm32f4xx_ll_system.h **** #if defined(FMC_Bank1)
  83:Drivers/STM32F4xx_HAL_Driver/Inc/stm32f4xx_ll_system.h **** #define LL_SYSCFG_REMAP_FMC                SYSCFG_MEMRMP_MEM_MODE_1                              /*
  84:Drivers/STM32F4xx_HAL_Driver/Inc/stm32f4xx_ll_system.h **** #define LL_SYSCFG_REMAP_SDRAM              SYSCFG_MEMRMP_MEM_MODE_2                              /*
  85:Drivers/STM32F4xx_HAL_Driver/Inc/stm32f4xx_ll_system.h **** #endif /* FMC_Bank1 */
  86:Drivers/STM32F4xx_HAL_Driver/Inc/stm32f4xx_ll_system.h **** #define LL_SYSCFG_REMAP_SRAM               (SYSCFG_MEMRMP_MEM_MODE_1 | SYSCFG_MEMRMP_MEM_MODE_0) /*
  87:Drivers/STM32F4xx_HAL_Driver/Inc/stm32f4xx_ll_system.h **** 
  88:Drivers/STM32F4xx_HAL_Driver/Inc/stm32f4xx_ll_system.h **** /**
  89:Drivers/STM32F4xx_HAL_Driver/Inc/stm32f4xx_ll_system.h ****   * @}
  90:Drivers/STM32F4xx_HAL_Driver/Inc/stm32f4xx_ll_system.h ****   */
  91:Drivers/STM32F4xx_HAL_Driver/Inc/stm32f4xx_ll_system.h **** 
  92:Drivers/STM32F4xx_HAL_Driver/Inc/stm32f4xx_ll_system.h **** #if defined(SYSCFG_PMC_MII_RMII_SEL)
  93:Drivers/STM32F4xx_HAL_Driver/Inc/stm32f4xx_ll_system.h ****  /** @defgroup SYSTEM_LL_EC_PMC SYSCFG PMC
  94:Drivers/STM32F4xx_HAL_Driver/Inc/stm32f4xx_ll_system.h **** * @{
  95:Drivers/STM32F4xx_HAL_Driver/Inc/stm32f4xx_ll_system.h **** */
  96:Drivers/STM32F4xx_HAL_Driver/Inc/stm32f4xx_ll_system.h **** #define LL_SYSCFG_PMC_ETHMII               (uint32_t)0x00000000                                /*!<
  97:Drivers/STM32F4xx_HAL_Driver/Inc/stm32f4xx_ll_system.h **** #define LL_SYSCFG_PMC_ETHRMII              (uint32_t)SYSCFG_PMC_MII_RMII_SEL                   /*!<
  98:Drivers/STM32F4xx_HAL_Driver/Inc/stm32f4xx_ll_system.h **** 
  99:Drivers/STM32F4xx_HAL_Driver/Inc/stm32f4xx_ll_system.h **** /**
 100:Drivers/STM32F4xx_HAL_Driver/Inc/stm32f4xx_ll_system.h ****   * @}
 101:Drivers/STM32F4xx_HAL_Driver/Inc/stm32f4xx_ll_system.h ****   */
 102:Drivers/STM32F4xx_HAL_Driver/Inc/stm32f4xx_ll_system.h **** #endif /* SYSCFG_PMC_MII_RMII_SEL */
 103:Drivers/STM32F4xx_HAL_Driver/Inc/stm32f4xx_ll_system.h **** 
 104:Drivers/STM32F4xx_HAL_Driver/Inc/stm32f4xx_ll_system.h **** 
 105:Drivers/STM32F4xx_HAL_Driver/Inc/stm32f4xx_ll_system.h **** 
 106:Drivers/STM32F4xx_HAL_Driver/Inc/stm32f4xx_ll_system.h **** #if defined(SYSCFG_MEMRMP_UFB_MODE)
 107:Drivers/STM32F4xx_HAL_Driver/Inc/stm32f4xx_ll_system.h **** /** @defgroup SYSTEM_LL_EC_BANKMODE SYSCFG BANK MODE
 108:Drivers/STM32F4xx_HAL_Driver/Inc/stm32f4xx_ll_system.h ****   * @{
 109:Drivers/STM32F4xx_HAL_Driver/Inc/stm32f4xx_ll_system.h ****   */
 110:Drivers/STM32F4xx_HAL_Driver/Inc/stm32f4xx_ll_system.h **** #define LL_SYSCFG_BANKMODE_BANK1          (uint32_t)0x00000000       /*!< Flash Bank 1 base address
 111:Drivers/STM32F4xx_HAL_Driver/Inc/stm32f4xx_ll_system.h ****                                                                       and Flash Bank 2 base address
 112:Drivers/STM32F4xx_HAL_Driver/Inc/stm32f4xx_ll_system.h **** #define LL_SYSCFG_BANKMODE_BANK2          SYSCFG_MEMRMP_UFB_MODE     /*!< Flash Bank 2 base address
 113:Drivers/STM32F4xx_HAL_Driver/Inc/stm32f4xx_ll_system.h ****                                                                       and Flash Bank 1 base address
 114:Drivers/STM32F4xx_HAL_Driver/Inc/stm32f4xx_ll_system.h **** /**
 115:Drivers/STM32F4xx_HAL_Driver/Inc/stm32f4xx_ll_system.h ****   * @}
 116:Drivers/STM32F4xx_HAL_Driver/Inc/stm32f4xx_ll_system.h ****   */
 117:Drivers/STM32F4xx_HAL_Driver/Inc/stm32f4xx_ll_system.h **** #endif /* SYSCFG_MEMRMP_UFB_MODE */
 118:Drivers/STM32F4xx_HAL_Driver/Inc/stm32f4xx_ll_system.h **** /** @defgroup SYSTEM_LL_EC_I2C_FASTMODEPLUS SYSCFG I2C FASTMODEPLUS
 119:Drivers/STM32F4xx_HAL_Driver/Inc/stm32f4xx_ll_system.h ****   * @{
 120:Drivers/STM32F4xx_HAL_Driver/Inc/stm32f4xx_ll_system.h ****   */ 
 121:Drivers/STM32F4xx_HAL_Driver/Inc/stm32f4xx_ll_system.h **** #if defined(SYSCFG_CFGR_FMPI2C1_SCL)
 122:Drivers/STM32F4xx_HAL_Driver/Inc/stm32f4xx_ll_system.h **** #define LL_SYSCFG_I2C_FASTMODEPLUS_SCL         SYSCFG_CFGR_FMPI2C1_SCL   /*!< Enable Fast Mode Plus
 123:Drivers/STM32F4xx_HAL_Driver/Inc/stm32f4xx_ll_system.h **** #define LL_SYSCFG_I2C_FASTMODEPLUS_SDA         SYSCFG_CFGR_FMPI2C1_SDA   /*!< Enable Fast Mode Plus
 124:Drivers/STM32F4xx_HAL_Driver/Inc/stm32f4xx_ll_system.h **** #endif /* SYSCFG_CFGR_FMPI2C1_SCL */
 125:Drivers/STM32F4xx_HAL_Driver/Inc/stm32f4xx_ll_system.h **** /**
 126:Drivers/STM32F4xx_HAL_Driver/Inc/stm32f4xx_ll_system.h ****   * @}
 127:Drivers/STM32F4xx_HAL_Driver/Inc/stm32f4xx_ll_system.h ****   */
 128:Drivers/STM32F4xx_HAL_Driver/Inc/stm32f4xx_ll_system.h **** 
ARM GAS  /tmp/ccvq1yeG.s 			page 7


 129:Drivers/STM32F4xx_HAL_Driver/Inc/stm32f4xx_ll_system.h **** /** @defgroup SYSTEM_LL_EC_EXTI_PORT SYSCFG EXTI PORT
 130:Drivers/STM32F4xx_HAL_Driver/Inc/stm32f4xx_ll_system.h ****   * @{
 131:Drivers/STM32F4xx_HAL_Driver/Inc/stm32f4xx_ll_system.h ****   */
 132:Drivers/STM32F4xx_HAL_Driver/Inc/stm32f4xx_ll_system.h **** #define LL_SYSCFG_EXTI_PORTA               (uint32_t)0               /*!< EXTI PORT A              
 133:Drivers/STM32F4xx_HAL_Driver/Inc/stm32f4xx_ll_system.h **** #define LL_SYSCFG_EXTI_PORTB               (uint32_t)1               /*!< EXTI PORT B              
 134:Drivers/STM32F4xx_HAL_Driver/Inc/stm32f4xx_ll_system.h **** #define LL_SYSCFG_EXTI_PORTC               (uint32_t)2               /*!< EXTI PORT C              
 135:Drivers/STM32F4xx_HAL_Driver/Inc/stm32f4xx_ll_system.h **** #define LL_SYSCFG_EXTI_PORTD               (uint32_t)3               /*!< EXTI PORT D              
 136:Drivers/STM32F4xx_HAL_Driver/Inc/stm32f4xx_ll_system.h **** #define LL_SYSCFG_EXTI_PORTE               (uint32_t)4               /*!< EXTI PORT E              
 137:Drivers/STM32F4xx_HAL_Driver/Inc/stm32f4xx_ll_system.h **** #if defined(GPIOF)
 138:Drivers/STM32F4xx_HAL_Driver/Inc/stm32f4xx_ll_system.h **** #define LL_SYSCFG_EXTI_PORTF               (uint32_t)5               /*!< EXTI PORT F              
 139:Drivers/STM32F4xx_HAL_Driver/Inc/stm32f4xx_ll_system.h **** #endif /* GPIOF */
 140:Drivers/STM32F4xx_HAL_Driver/Inc/stm32f4xx_ll_system.h **** #if defined(GPIOG)
 141:Drivers/STM32F4xx_HAL_Driver/Inc/stm32f4xx_ll_system.h **** #define LL_SYSCFG_EXTI_PORTG               (uint32_t)6               /*!< EXTI PORT G              
 142:Drivers/STM32F4xx_HAL_Driver/Inc/stm32f4xx_ll_system.h **** #endif /* GPIOG */
 143:Drivers/STM32F4xx_HAL_Driver/Inc/stm32f4xx_ll_system.h **** #define LL_SYSCFG_EXTI_PORTH               (uint32_t)7               /*!< EXTI PORT H              
 144:Drivers/STM32F4xx_HAL_Driver/Inc/stm32f4xx_ll_system.h **** #if defined(GPIOI)
 145:Drivers/STM32F4xx_HAL_Driver/Inc/stm32f4xx_ll_system.h **** #define LL_SYSCFG_EXTI_PORTI               (uint32_t)8               /*!< EXTI PORT I              
 146:Drivers/STM32F4xx_HAL_Driver/Inc/stm32f4xx_ll_system.h **** #endif /* GPIOI */
 147:Drivers/STM32F4xx_HAL_Driver/Inc/stm32f4xx_ll_system.h **** #if defined(GPIOJ)
 148:Drivers/STM32F4xx_HAL_Driver/Inc/stm32f4xx_ll_system.h **** #define LL_SYSCFG_EXTI_PORTJ               (uint32_t)9               /*!< EXTI PORT J              
 149:Drivers/STM32F4xx_HAL_Driver/Inc/stm32f4xx_ll_system.h **** #endif /* GPIOJ */
 150:Drivers/STM32F4xx_HAL_Driver/Inc/stm32f4xx_ll_system.h **** #if defined(GPIOK)
 151:Drivers/STM32F4xx_HAL_Driver/Inc/stm32f4xx_ll_system.h **** #define LL_SYSCFG_EXTI_PORTK               (uint32_t)10              /*!< EXTI PORT k              
 152:Drivers/STM32F4xx_HAL_Driver/Inc/stm32f4xx_ll_system.h **** #endif /* GPIOK */
 153:Drivers/STM32F4xx_HAL_Driver/Inc/stm32f4xx_ll_system.h **** /**
 154:Drivers/STM32F4xx_HAL_Driver/Inc/stm32f4xx_ll_system.h ****   * @}
 155:Drivers/STM32F4xx_HAL_Driver/Inc/stm32f4xx_ll_system.h ****   */
 156:Drivers/STM32F4xx_HAL_Driver/Inc/stm32f4xx_ll_system.h **** 
 157:Drivers/STM32F4xx_HAL_Driver/Inc/stm32f4xx_ll_system.h **** /** @defgroup SYSTEM_LL_EC_EXTI_LINE SYSCFG EXTI LINE
 158:Drivers/STM32F4xx_HAL_Driver/Inc/stm32f4xx_ll_system.h ****   * @{
 159:Drivers/STM32F4xx_HAL_Driver/Inc/stm32f4xx_ll_system.h ****   */
 160:Drivers/STM32F4xx_HAL_Driver/Inc/stm32f4xx_ll_system.h **** #define LL_SYSCFG_EXTI_LINE0               (uint32_t)(0x000FU << 16 | 0)  /*!< EXTI_POSITION_0  | E
 161:Drivers/STM32F4xx_HAL_Driver/Inc/stm32f4xx_ll_system.h **** #define LL_SYSCFG_EXTI_LINE1               (uint32_t)(0x00F0U << 16 | 0)  /*!< EXTI_POSITION_4  | E
 162:Drivers/STM32F4xx_HAL_Driver/Inc/stm32f4xx_ll_system.h **** #define LL_SYSCFG_EXTI_LINE2               (uint32_t)(0x0F00U << 16 | 0)  /*!< EXTI_POSITION_8  | E
 163:Drivers/STM32F4xx_HAL_Driver/Inc/stm32f4xx_ll_system.h **** #define LL_SYSCFG_EXTI_LINE3               (uint32_t)(0xF000U << 16 | 0)  /*!< EXTI_POSITION_12 | E
 164:Drivers/STM32F4xx_HAL_Driver/Inc/stm32f4xx_ll_system.h **** #define LL_SYSCFG_EXTI_LINE4               (uint32_t)(0x000FU << 16 | 1)  /*!< EXTI_POSITION_0  | E
 165:Drivers/STM32F4xx_HAL_Driver/Inc/stm32f4xx_ll_system.h **** #define LL_SYSCFG_EXTI_LINE5               (uint32_t)(0x00F0U << 16 | 1)  /*!< EXTI_POSITION_4  | E
 166:Drivers/STM32F4xx_HAL_Driver/Inc/stm32f4xx_ll_system.h **** #define LL_SYSCFG_EXTI_LINE6               (uint32_t)(0x0F00U << 16 | 1)  /*!< EXTI_POSITION_8  | E
 167:Drivers/STM32F4xx_HAL_Driver/Inc/stm32f4xx_ll_system.h **** #define LL_SYSCFG_EXTI_LINE7               (uint32_t)(0xF000U << 16 | 1)  /*!< EXTI_POSITION_12 | E
 168:Drivers/STM32F4xx_HAL_Driver/Inc/stm32f4xx_ll_system.h **** #define LL_SYSCFG_EXTI_LINE8               (uint32_t)(0x000FU << 16 | 2)  /*!< EXTI_POSITION_0  | E
 169:Drivers/STM32F4xx_HAL_Driver/Inc/stm32f4xx_ll_system.h **** #define LL_SYSCFG_EXTI_LINE9               (uint32_t)(0x00F0U << 16 | 2)  /*!< EXTI_POSITION_4  | E
 170:Drivers/STM32F4xx_HAL_Driver/Inc/stm32f4xx_ll_system.h **** #define LL_SYSCFG_EXTI_LINE10              (uint32_t)(0x0F00U << 16 | 2)  /*!< EXTI_POSITION_8  | E
 171:Drivers/STM32F4xx_HAL_Driver/Inc/stm32f4xx_ll_system.h **** #define LL_SYSCFG_EXTI_LINE11              (uint32_t)(0xF000U << 16 | 2)  /*!< EXTI_POSITION_12 | E
 172:Drivers/STM32F4xx_HAL_Driver/Inc/stm32f4xx_ll_system.h **** #define LL_SYSCFG_EXTI_LINE12              (uint32_t)(0x000FU << 16 | 3)  /*!< EXTI_POSITION_0  | E
 173:Drivers/STM32F4xx_HAL_Driver/Inc/stm32f4xx_ll_system.h **** #define LL_SYSCFG_EXTI_LINE13              (uint32_t)(0x00F0U << 16 | 3)  /*!< EXTI_POSITION_4  | E
 174:Drivers/STM32F4xx_HAL_Driver/Inc/stm32f4xx_ll_system.h **** #define LL_SYSCFG_EXTI_LINE14              (uint32_t)(0x0F00U << 16 | 3)  /*!< EXTI_POSITION_8  | E
 175:Drivers/STM32F4xx_HAL_Driver/Inc/stm32f4xx_ll_system.h **** #define LL_SYSCFG_EXTI_LINE15              (uint32_t)(0xF000U << 16 | 3)  /*!< EXTI_POSITION_12 | E
 176:Drivers/STM32F4xx_HAL_Driver/Inc/stm32f4xx_ll_system.h **** /**
 177:Drivers/STM32F4xx_HAL_Driver/Inc/stm32f4xx_ll_system.h ****   * @}
 178:Drivers/STM32F4xx_HAL_Driver/Inc/stm32f4xx_ll_system.h ****   */
 179:Drivers/STM32F4xx_HAL_Driver/Inc/stm32f4xx_ll_system.h **** 
 180:Drivers/STM32F4xx_HAL_Driver/Inc/stm32f4xx_ll_system.h **** /** @defgroup SYSTEM_LL_EC_TIMBREAK SYSCFG TIMER BREAK
 181:Drivers/STM32F4xx_HAL_Driver/Inc/stm32f4xx_ll_system.h ****   * @{
 182:Drivers/STM32F4xx_HAL_Driver/Inc/stm32f4xx_ll_system.h ****   */
 183:Drivers/STM32F4xx_HAL_Driver/Inc/stm32f4xx_ll_system.h **** #if defined(SYSCFG_CFGR2_LOCKUP_LOCK)
 184:Drivers/STM32F4xx_HAL_Driver/Inc/stm32f4xx_ll_system.h **** #define LL_SYSCFG_TIMBREAK_LOCKUP          SYSCFG_CFGR2_LOCKUP_LOCK   /*!< Enables and locks the LO
 185:Drivers/STM32F4xx_HAL_Driver/Inc/stm32f4xx_ll_system.h ****                                                                       with Break Input of TIM1/8   
ARM GAS  /tmp/ccvq1yeG.s 			page 8


 186:Drivers/STM32F4xx_HAL_Driver/Inc/stm32f4xx_ll_system.h **** #define LL_SYSCFG_TIMBREAK_PVD             SYSCFG_CFGR2_PVD_LOCK      /*!< Enables and locks the PV
 187:Drivers/STM32F4xx_HAL_Driver/Inc/stm32f4xx_ll_system.h ****                                                                       and also the PVDE and PLS bit
 188:Drivers/STM32F4xx_HAL_Driver/Inc/stm32f4xx_ll_system.h **** #endif /* SYSCFG_CFGR2_CLL */
 189:Drivers/STM32F4xx_HAL_Driver/Inc/stm32f4xx_ll_system.h **** /**
 190:Drivers/STM32F4xx_HAL_Driver/Inc/stm32f4xx_ll_system.h ****   * @}
 191:Drivers/STM32F4xx_HAL_Driver/Inc/stm32f4xx_ll_system.h ****   */
 192:Drivers/STM32F4xx_HAL_Driver/Inc/stm32f4xx_ll_system.h **** 
 193:Drivers/STM32F4xx_HAL_Driver/Inc/stm32f4xx_ll_system.h **** #if defined(SYSCFG_MCHDLYCR_BSCKSEL)
 194:Drivers/STM32F4xx_HAL_Driver/Inc/stm32f4xx_ll_system.h **** /** @defgroup SYSTEM_LL_DFSDM_BitStream_ClockSource SYSCFG MCHDLY BCKKSEL
 195:Drivers/STM32F4xx_HAL_Driver/Inc/stm32f4xx_ll_system.h ****   * @{
 196:Drivers/STM32F4xx_HAL_Driver/Inc/stm32f4xx_ll_system.h ****   */
 197:Drivers/STM32F4xx_HAL_Driver/Inc/stm32f4xx_ll_system.h **** #define LL_SYSCFG_BITSTREAM_CLOCK_TIM2OC1          (uint32_t)0x00000000
 198:Drivers/STM32F4xx_HAL_Driver/Inc/stm32f4xx_ll_system.h **** #define LL_SYSCFG_BITSTREAM_CLOCK_DFSDM2           SYSCFG_MCHDLYCR_BSCKSEL
 199:Drivers/STM32F4xx_HAL_Driver/Inc/stm32f4xx_ll_system.h **** /**
 200:Drivers/STM32F4xx_HAL_Driver/Inc/stm32f4xx_ll_system.h ****   * @}
 201:Drivers/STM32F4xx_HAL_Driver/Inc/stm32f4xx_ll_system.h ****   */
 202:Drivers/STM32F4xx_HAL_Driver/Inc/stm32f4xx_ll_system.h **** /** @defgroup SYSTEM_LL_DFSDM_MCHDLYEN              SYSCFG MCHDLY MCHDLYEN
 203:Drivers/STM32F4xx_HAL_Driver/Inc/stm32f4xx_ll_system.h ****   * @{
 204:Drivers/STM32F4xx_HAL_Driver/Inc/stm32f4xx_ll_system.h ****   */  
 205:Drivers/STM32F4xx_HAL_Driver/Inc/stm32f4xx_ll_system.h **** #define LL_SYSCFG_DFSDM1_MCHDLYEN                  SYSCFG_MCHDLYCR_MCHDLY1EN
 206:Drivers/STM32F4xx_HAL_Driver/Inc/stm32f4xx_ll_system.h **** #define LL_SYSCFG_DFSDM2_MCHDLYEN                  SYSCFG_MCHDLYCR_MCHDLY2EN
 207:Drivers/STM32F4xx_HAL_Driver/Inc/stm32f4xx_ll_system.h **** /**
 208:Drivers/STM32F4xx_HAL_Driver/Inc/stm32f4xx_ll_system.h ****   * @}
 209:Drivers/STM32F4xx_HAL_Driver/Inc/stm32f4xx_ll_system.h ****   */
 210:Drivers/STM32F4xx_HAL_Driver/Inc/stm32f4xx_ll_system.h **** /** @defgroup SYSTEM_LL_DFSDM_DataIn0_Source       SYSCFG MCHDLY DFSDMD0SEL
 211:Drivers/STM32F4xx_HAL_Driver/Inc/stm32f4xx_ll_system.h ****   * @{
 212:Drivers/STM32F4xx_HAL_Driver/Inc/stm32f4xx_ll_system.h ****   */
 213:Drivers/STM32F4xx_HAL_Driver/Inc/stm32f4xx_ll_system.h **** #define LL_SYSCFG_DFSDM1_DataIn0                   SYSCFG_MCHDLYCR_DFSDM1D0SEL
 214:Drivers/STM32F4xx_HAL_Driver/Inc/stm32f4xx_ll_system.h **** #define LL_SYSCFG_DFSDM2_DataIn0                   SYSCFG_MCHDLYCR_DFSDM2D0SEL
 215:Drivers/STM32F4xx_HAL_Driver/Inc/stm32f4xx_ll_system.h **** 
 216:Drivers/STM32F4xx_HAL_Driver/Inc/stm32f4xx_ll_system.h **** #define LL_SYSCFG_DFSDM1_DataIn0_PAD               (uint32_t)((SYSCFG_MCHDLYCR_DFSDM1D0SEL << 16) |
 217:Drivers/STM32F4xx_HAL_Driver/Inc/stm32f4xx_ll_system.h **** #define LL_SYSCFG_DFSDM1_DataIn0_DM                (uint32_t)((SYSCFG_MCHDLYCR_DFSDM1D0SEL << 16) |
 218:Drivers/STM32F4xx_HAL_Driver/Inc/stm32f4xx_ll_system.h **** #define LL_SYSCFG_DFSDM2_DataIn0_PAD               (uint32_t)((SYSCFG_MCHDLYCR_DFSDM2D0SEL << 16) |
 219:Drivers/STM32F4xx_HAL_Driver/Inc/stm32f4xx_ll_system.h **** #define LL_SYSCFG_DFSDM2_DataIn0_DM                (uint32_t)((SYSCFG_MCHDLYCR_DFSDM2D0SEL << 16) |
 220:Drivers/STM32F4xx_HAL_Driver/Inc/stm32f4xx_ll_system.h **** /**
 221:Drivers/STM32F4xx_HAL_Driver/Inc/stm32f4xx_ll_system.h ****   * @}
 222:Drivers/STM32F4xx_HAL_Driver/Inc/stm32f4xx_ll_system.h ****   */
 223:Drivers/STM32F4xx_HAL_Driver/Inc/stm32f4xx_ll_system.h **** /** @defgroup SYSTEM_LL_DFSDM_DataIn2_Source       SYSCFG MCHDLY DFSDMD2SEL
 224:Drivers/STM32F4xx_HAL_Driver/Inc/stm32f4xx_ll_system.h ****   * @{
 225:Drivers/STM32F4xx_HAL_Driver/Inc/stm32f4xx_ll_system.h ****   */   
 226:Drivers/STM32F4xx_HAL_Driver/Inc/stm32f4xx_ll_system.h **** #define LL_SYSCFG_DFSDM1_DataIn2                   SYSCFG_MCHDLYCR_DFSDM1D2SEL
 227:Drivers/STM32F4xx_HAL_Driver/Inc/stm32f4xx_ll_system.h **** #define LL_SYSCFG_DFSDM2_DataIn2                   SYSCFG_MCHDLYCR_DFSDM2D2SEL
 228:Drivers/STM32F4xx_HAL_Driver/Inc/stm32f4xx_ll_system.h **** 
 229:Drivers/STM32F4xx_HAL_Driver/Inc/stm32f4xx_ll_system.h **** #define LL_SYSCFG_DFSDM1_DataIn2_PAD               (uint32_t)((SYSCFG_MCHDLYCR_DFSDM1D2SEL << 16) |
 230:Drivers/STM32F4xx_HAL_Driver/Inc/stm32f4xx_ll_system.h **** #define LL_SYSCFG_DFSDM1_DataIn2_DM                (uint32_t)((SYSCFG_MCHDLYCR_DFSDM1D2SEL << 16) |
 231:Drivers/STM32F4xx_HAL_Driver/Inc/stm32f4xx_ll_system.h **** #define LL_SYSCFG_DFSDM2_DataIn2_PAD               (uint32_t)((SYSCFG_MCHDLYCR_DFSDM2D2SEL << 16) |
 232:Drivers/STM32F4xx_HAL_Driver/Inc/stm32f4xx_ll_system.h **** #define LL_SYSCFG_DFSDM2_DataIn2_DM                (uint32_t)((SYSCFG_MCHDLYCR_DFSDM2D2SEL << 16) |
 233:Drivers/STM32F4xx_HAL_Driver/Inc/stm32f4xx_ll_system.h **** /**
 234:Drivers/STM32F4xx_HAL_Driver/Inc/stm32f4xx_ll_system.h ****   * @}
 235:Drivers/STM32F4xx_HAL_Driver/Inc/stm32f4xx_ll_system.h ****   */
 236:Drivers/STM32F4xx_HAL_Driver/Inc/stm32f4xx_ll_system.h **** /** @defgroup SYSTEM_LL_DFSDM1_TIM4OC2_BitstreamDistribution  SYSCFG MCHDLY DFSDM1CK02SEL
 237:Drivers/STM32F4xx_HAL_Driver/Inc/stm32f4xx_ll_system.h ****   * @{
 238:Drivers/STM32F4xx_HAL_Driver/Inc/stm32f4xx_ll_system.h ****   */ 
 239:Drivers/STM32F4xx_HAL_Driver/Inc/stm32f4xx_ll_system.h **** #define LL_SYSCFG_DFSDM1_TIM4OC2_CLKIN0           (uint32_t)0x00000000
 240:Drivers/STM32F4xx_HAL_Driver/Inc/stm32f4xx_ll_system.h **** #define LL_SYSCFG_DFSDM1_TIM4OC2_CLKIN2           SYSCFG_MCHDLYCR_DFSDM1CK02SEL
 241:Drivers/STM32F4xx_HAL_Driver/Inc/stm32f4xx_ll_system.h **** /**
 242:Drivers/STM32F4xx_HAL_Driver/Inc/stm32f4xx_ll_system.h ****   * @}
ARM GAS  /tmp/ccvq1yeG.s 			page 9


 243:Drivers/STM32F4xx_HAL_Driver/Inc/stm32f4xx_ll_system.h ****   */
 244:Drivers/STM32F4xx_HAL_Driver/Inc/stm32f4xx_ll_system.h **** /** @defgroup SYSTEM_LL_DFSDM1_TIM4OC1_BitstreamDistribution  SYSCFG MCHDLY DFSDM1CK13SEL
 245:Drivers/STM32F4xx_HAL_Driver/Inc/stm32f4xx_ll_system.h ****   * @{
 246:Drivers/STM32F4xx_HAL_Driver/Inc/stm32f4xx_ll_system.h ****   */ 
 247:Drivers/STM32F4xx_HAL_Driver/Inc/stm32f4xx_ll_system.h **** #define LL_SYSCFG_DFSDM1_TIM4OC1_CLKIN1           (uint32_t)0x00000000
 248:Drivers/STM32F4xx_HAL_Driver/Inc/stm32f4xx_ll_system.h **** #define LL_SYSCFG_DFSDM1_TIM4OC1_CLKIN3           SYSCFG_MCHDLYCR_DFSDM1CK13SEL
 249:Drivers/STM32F4xx_HAL_Driver/Inc/stm32f4xx_ll_system.h **** /**
 250:Drivers/STM32F4xx_HAL_Driver/Inc/stm32f4xx_ll_system.h ****   * @}
 251:Drivers/STM32F4xx_HAL_Driver/Inc/stm32f4xx_ll_system.h ****   */
 252:Drivers/STM32F4xx_HAL_Driver/Inc/stm32f4xx_ll_system.h **** /** @defgroup SYSTEM_LL_DFSDM1_CLKIN_SourceSelection SYSCFG MCHDLY DFSDMCFG
 253:Drivers/STM32F4xx_HAL_Driver/Inc/stm32f4xx_ll_system.h ****   * @{
 254:Drivers/STM32F4xx_HAL_Driver/Inc/stm32f4xx_ll_system.h ****   */
 255:Drivers/STM32F4xx_HAL_Driver/Inc/stm32f4xx_ll_system.h **** #define LL_SYSCFG_DFSDM1_CKIN_PAD                 (uint32_t)0x00000000
 256:Drivers/STM32F4xx_HAL_Driver/Inc/stm32f4xx_ll_system.h **** #define LL_SYSCFG_DFSDM1_CKIN_DM                  SYSCFG_MCHDLYCR_DFSDM1CFG
 257:Drivers/STM32F4xx_HAL_Driver/Inc/stm32f4xx_ll_system.h **** /**
 258:Drivers/STM32F4xx_HAL_Driver/Inc/stm32f4xx_ll_system.h ****   * @}
 259:Drivers/STM32F4xx_HAL_Driver/Inc/stm32f4xx_ll_system.h ****   */
 260:Drivers/STM32F4xx_HAL_Driver/Inc/stm32f4xx_ll_system.h **** /** @defgroup SYSTEM_LL_DFSDM1_CLKOUT_SourceSelection SYSCFG MCHDLY DFSDM1CKOSEL
 261:Drivers/STM32F4xx_HAL_Driver/Inc/stm32f4xx_ll_system.h ****   * @{
 262:Drivers/STM32F4xx_HAL_Driver/Inc/stm32f4xx_ll_system.h ****   */ 
 263:Drivers/STM32F4xx_HAL_Driver/Inc/stm32f4xx_ll_system.h **** #define LL_SYSCFG_DFSDM1_CKOUT                    (uint32_t)0x00000000
 264:Drivers/STM32F4xx_HAL_Driver/Inc/stm32f4xx_ll_system.h **** #define LL_SYSCFG_DFSDM1_CKOUT_M27                SYSCFG_MCHDLYCR_DFSDM1CKOSEL
 265:Drivers/STM32F4xx_HAL_Driver/Inc/stm32f4xx_ll_system.h **** /**
 266:Drivers/STM32F4xx_HAL_Driver/Inc/stm32f4xx_ll_system.h ****   * @}
 267:Drivers/STM32F4xx_HAL_Driver/Inc/stm32f4xx_ll_system.h ****   */
 268:Drivers/STM32F4xx_HAL_Driver/Inc/stm32f4xx_ll_system.h **** 
 269:Drivers/STM32F4xx_HAL_Driver/Inc/stm32f4xx_ll_system.h **** /** @defgroup SYSTEM_LL_DFSDM2_DataIn4_SourceSelection SYSCFG MCHDLY DFSDM2D4SEL
 270:Drivers/STM32F4xx_HAL_Driver/Inc/stm32f4xx_ll_system.h ****   * @{
 271:Drivers/STM32F4xx_HAL_Driver/Inc/stm32f4xx_ll_system.h ****   */ 
 272:Drivers/STM32F4xx_HAL_Driver/Inc/stm32f4xx_ll_system.h **** #define LL_SYSCFG_DFSDM2_DataIn4_PAD              (uint32_t)0x00000000
 273:Drivers/STM32F4xx_HAL_Driver/Inc/stm32f4xx_ll_system.h **** #define LL_SYSCFG_DFSDM2_DataIn4_DM               SYSCFG_MCHDLYCR_DFSDM2D4SEL
 274:Drivers/STM32F4xx_HAL_Driver/Inc/stm32f4xx_ll_system.h **** /**
 275:Drivers/STM32F4xx_HAL_Driver/Inc/stm32f4xx_ll_system.h ****   * @}
 276:Drivers/STM32F4xx_HAL_Driver/Inc/stm32f4xx_ll_system.h ****   */
 277:Drivers/STM32F4xx_HAL_Driver/Inc/stm32f4xx_ll_system.h **** /** @defgroup SYSTEM_LL_DFSDM2_DataIn6_SourceSelection SYSCFG MCHDLY DFSDM2D6SEL
 278:Drivers/STM32F4xx_HAL_Driver/Inc/stm32f4xx_ll_system.h ****   * @{
 279:Drivers/STM32F4xx_HAL_Driver/Inc/stm32f4xx_ll_system.h ****   */ 
 280:Drivers/STM32F4xx_HAL_Driver/Inc/stm32f4xx_ll_system.h **** #define LL_SYSCFG_DFSDM2_DataIn6_PAD              (uint32_t)0x00000000
 281:Drivers/STM32F4xx_HAL_Driver/Inc/stm32f4xx_ll_system.h **** #define LL_SYSCFG_DFSDM2_DataIn6_DM               SYSCFG_MCHDLYCR_DFSDM2D6SEL
 282:Drivers/STM32F4xx_HAL_Driver/Inc/stm32f4xx_ll_system.h **** /**
 283:Drivers/STM32F4xx_HAL_Driver/Inc/stm32f4xx_ll_system.h ****   * @}
 284:Drivers/STM32F4xx_HAL_Driver/Inc/stm32f4xx_ll_system.h ****   */
 285:Drivers/STM32F4xx_HAL_Driver/Inc/stm32f4xx_ll_system.h **** /** @defgroup SYSTEM_LL_DFSDM2_TIM3OC4_BitstreamDistribution  SYSCFG MCHDLY DFSDM2CK04SEL
 286:Drivers/STM32F4xx_HAL_Driver/Inc/stm32f4xx_ll_system.h ****   * @{
 287:Drivers/STM32F4xx_HAL_Driver/Inc/stm32f4xx_ll_system.h ****   */ 
 288:Drivers/STM32F4xx_HAL_Driver/Inc/stm32f4xx_ll_system.h **** #define LL_SYSCFG_DFSDM2_TIM3OC4_CLKIN0           (uint32_t)0x00000000
 289:Drivers/STM32F4xx_HAL_Driver/Inc/stm32f4xx_ll_system.h **** #define LL_SYSCFG_DFSDM2_TIM3OC4_CLKIN4           SYSCFG_MCHDLYCR_DFSDM2CK04SEL
 290:Drivers/STM32F4xx_HAL_Driver/Inc/stm32f4xx_ll_system.h **** /**
 291:Drivers/STM32F4xx_HAL_Driver/Inc/stm32f4xx_ll_system.h ****   * @}
 292:Drivers/STM32F4xx_HAL_Driver/Inc/stm32f4xx_ll_system.h ****   */
 293:Drivers/STM32F4xx_HAL_Driver/Inc/stm32f4xx_ll_system.h **** /** @defgroup SYSTEM_LL_DFSDM2_TIM3OC3_BitstreamDistribution  SYSCFG MCHDLY DFSDM2CK15SEL
 294:Drivers/STM32F4xx_HAL_Driver/Inc/stm32f4xx_ll_system.h ****   * @{
 295:Drivers/STM32F4xx_HAL_Driver/Inc/stm32f4xx_ll_system.h ****   */ 
 296:Drivers/STM32F4xx_HAL_Driver/Inc/stm32f4xx_ll_system.h **** #define LL_SYSCFG_DFSDM2_TIM3OC3_CLKIN1           (uint32_t)0x00000000
 297:Drivers/STM32F4xx_HAL_Driver/Inc/stm32f4xx_ll_system.h **** #define LL_SYSCFG_DFSDM2_TIM3OC3_CLKIN5           SYSCFG_MCHDLYCR_DFSDM2CK15SEL
 298:Drivers/STM32F4xx_HAL_Driver/Inc/stm32f4xx_ll_system.h **** /**
 299:Drivers/STM32F4xx_HAL_Driver/Inc/stm32f4xx_ll_system.h ****   * @}
ARM GAS  /tmp/ccvq1yeG.s 			page 10


 300:Drivers/STM32F4xx_HAL_Driver/Inc/stm32f4xx_ll_system.h ****   */
 301:Drivers/STM32F4xx_HAL_Driver/Inc/stm32f4xx_ll_system.h **** /** @defgroup SYSTEM_LL_DFSDM2_TIM3OC2_BitstreamDistribution  SYSCFG MCHDLY DFSDM2CK26SEL
 302:Drivers/STM32F4xx_HAL_Driver/Inc/stm32f4xx_ll_system.h ****   * @{
 303:Drivers/STM32F4xx_HAL_Driver/Inc/stm32f4xx_ll_system.h ****   */ 
 304:Drivers/STM32F4xx_HAL_Driver/Inc/stm32f4xx_ll_system.h **** #define LL_SYSCFG_DFSDM2_TIM3OC2_CLKIN2           (uint32_t)0x00000000
 305:Drivers/STM32F4xx_HAL_Driver/Inc/stm32f4xx_ll_system.h **** #define LL_SYSCFG_DFSDM2_TIM3OC2_CLKIN6           SYSCFG_MCHDLYCR_DFSDM2CK26SEL
 306:Drivers/STM32F4xx_HAL_Driver/Inc/stm32f4xx_ll_system.h **** /**
 307:Drivers/STM32F4xx_HAL_Driver/Inc/stm32f4xx_ll_system.h ****   * @}
 308:Drivers/STM32F4xx_HAL_Driver/Inc/stm32f4xx_ll_system.h ****   */
 309:Drivers/STM32F4xx_HAL_Driver/Inc/stm32f4xx_ll_system.h **** /** @defgroup SYSTEM_LL_DFSDM2_TIM3OC1_BitstreamDistribution  SYSCFG MCHDLY DFSDM2CK37SEL
 310:Drivers/STM32F4xx_HAL_Driver/Inc/stm32f4xx_ll_system.h ****   * @{
 311:Drivers/STM32F4xx_HAL_Driver/Inc/stm32f4xx_ll_system.h ****   */ 
 312:Drivers/STM32F4xx_HAL_Driver/Inc/stm32f4xx_ll_system.h **** #define LL_SYSCFG_DFSDM2_TIM3OC1_CLKIN3           (uint32_t)0x00000000
 313:Drivers/STM32F4xx_HAL_Driver/Inc/stm32f4xx_ll_system.h **** #define LL_SYSCFG_DFSDM2_TIM3OC1_CLKIN7           SYSCFG_MCHDLYCR_DFSDM2CK37SEL
 314:Drivers/STM32F4xx_HAL_Driver/Inc/stm32f4xx_ll_system.h **** /**
 315:Drivers/STM32F4xx_HAL_Driver/Inc/stm32f4xx_ll_system.h ****   * @}
 316:Drivers/STM32F4xx_HAL_Driver/Inc/stm32f4xx_ll_system.h ****   */
 317:Drivers/STM32F4xx_HAL_Driver/Inc/stm32f4xx_ll_system.h **** /** @defgroup SYSTEM_LL_DFSDM2_CLKIN_SourceSelection SYSCFG MCHDLY DFSDM2CFG
 318:Drivers/STM32F4xx_HAL_Driver/Inc/stm32f4xx_ll_system.h ****   * @{
 319:Drivers/STM32F4xx_HAL_Driver/Inc/stm32f4xx_ll_system.h ****   */ 
 320:Drivers/STM32F4xx_HAL_Driver/Inc/stm32f4xx_ll_system.h **** #define LL_SYSCFG_DFSDM2_CKIN_PAD                 (uint32_t)0x00000000
 321:Drivers/STM32F4xx_HAL_Driver/Inc/stm32f4xx_ll_system.h **** #define LL_SYSCFG_DFSDM2_CKIN_DM                  SYSCFG_MCHDLYCR_DFSDM2CFG
 322:Drivers/STM32F4xx_HAL_Driver/Inc/stm32f4xx_ll_system.h **** /**
 323:Drivers/STM32F4xx_HAL_Driver/Inc/stm32f4xx_ll_system.h ****   * @}
 324:Drivers/STM32F4xx_HAL_Driver/Inc/stm32f4xx_ll_system.h ****   */
 325:Drivers/STM32F4xx_HAL_Driver/Inc/stm32f4xx_ll_system.h **** /** @defgroup SYSTEM_LL_DFSDM2_CLKOUT_SourceSelection SYSCFG MCHDLY DFSDM2CKOSEL
 326:Drivers/STM32F4xx_HAL_Driver/Inc/stm32f4xx_ll_system.h ****   * @{
 327:Drivers/STM32F4xx_HAL_Driver/Inc/stm32f4xx_ll_system.h ****   */ 
 328:Drivers/STM32F4xx_HAL_Driver/Inc/stm32f4xx_ll_system.h **** #define LL_SYSCFG_DFSDM2_CKOUT                    (uint32_t)0x00000000
 329:Drivers/STM32F4xx_HAL_Driver/Inc/stm32f4xx_ll_system.h **** #define LL_SYSCFG_DFSDM2_CKOUT_M27                SYSCFG_MCHDLYCR_DFSDM2CKOSEL
 330:Drivers/STM32F4xx_HAL_Driver/Inc/stm32f4xx_ll_system.h **** /**
 331:Drivers/STM32F4xx_HAL_Driver/Inc/stm32f4xx_ll_system.h ****   * @}
 332:Drivers/STM32F4xx_HAL_Driver/Inc/stm32f4xx_ll_system.h ****   */ 
 333:Drivers/STM32F4xx_HAL_Driver/Inc/stm32f4xx_ll_system.h **** #endif /* SYSCFG_MCHDLYCR_BSCKSEL */  
 334:Drivers/STM32F4xx_HAL_Driver/Inc/stm32f4xx_ll_system.h **** 
 335:Drivers/STM32F4xx_HAL_Driver/Inc/stm32f4xx_ll_system.h **** /** @defgroup SYSTEM_LL_EC_TRACE DBGMCU TRACE Pin Assignment
 336:Drivers/STM32F4xx_HAL_Driver/Inc/stm32f4xx_ll_system.h ****   * @{
 337:Drivers/STM32F4xx_HAL_Driver/Inc/stm32f4xx_ll_system.h ****   */
 338:Drivers/STM32F4xx_HAL_Driver/Inc/stm32f4xx_ll_system.h **** #define LL_DBGMCU_TRACE_NONE               0x00000000U                                     /*!< TRA
 339:Drivers/STM32F4xx_HAL_Driver/Inc/stm32f4xx_ll_system.h **** #define LL_DBGMCU_TRACE_ASYNCH             DBGMCU_CR_TRACE_IOEN                            /*!< TRA
 340:Drivers/STM32F4xx_HAL_Driver/Inc/stm32f4xx_ll_system.h **** #define LL_DBGMCU_TRACE_SYNCH_SIZE1        (DBGMCU_CR_TRACE_IOEN | DBGMCU_CR_TRACE_MODE_0) /*!< TRA
 341:Drivers/STM32F4xx_HAL_Driver/Inc/stm32f4xx_ll_system.h **** #define LL_DBGMCU_TRACE_SYNCH_SIZE2        (DBGMCU_CR_TRACE_IOEN | DBGMCU_CR_TRACE_MODE_1) /*!< TRA
 342:Drivers/STM32F4xx_HAL_Driver/Inc/stm32f4xx_ll_system.h **** #define LL_DBGMCU_TRACE_SYNCH_SIZE4        (DBGMCU_CR_TRACE_IOEN | DBGMCU_CR_TRACE_MODE)   /*!< TRA
 343:Drivers/STM32F4xx_HAL_Driver/Inc/stm32f4xx_ll_system.h **** /**
 344:Drivers/STM32F4xx_HAL_Driver/Inc/stm32f4xx_ll_system.h ****   * @}
 345:Drivers/STM32F4xx_HAL_Driver/Inc/stm32f4xx_ll_system.h ****   */
 346:Drivers/STM32F4xx_HAL_Driver/Inc/stm32f4xx_ll_system.h **** 
 347:Drivers/STM32F4xx_HAL_Driver/Inc/stm32f4xx_ll_system.h **** /** @defgroup SYSTEM_LL_EC_APB1_GRP1_STOP_IP DBGMCU APB1 GRP1 STOP IP
 348:Drivers/STM32F4xx_HAL_Driver/Inc/stm32f4xx_ll_system.h ****   * @{
 349:Drivers/STM32F4xx_HAL_Driver/Inc/stm32f4xx_ll_system.h ****   */
 350:Drivers/STM32F4xx_HAL_Driver/Inc/stm32f4xx_ll_system.h **** #if defined(DBGMCU_APB1_FZ_DBG_TIM2_STOP)
 351:Drivers/STM32F4xx_HAL_Driver/Inc/stm32f4xx_ll_system.h **** #define LL_DBGMCU_APB1_GRP1_TIM2_STOP      DBGMCU_APB1_FZ_DBG_TIM2_STOP          /*!< TIM2 counter 
 352:Drivers/STM32F4xx_HAL_Driver/Inc/stm32f4xx_ll_system.h **** #endif /* DBGMCU_APB1_FZ_DBG_TIM2_STOP */
 353:Drivers/STM32F4xx_HAL_Driver/Inc/stm32f4xx_ll_system.h **** #if defined(DBGMCU_APB1_FZ_DBG_TIM3_STOP)
 354:Drivers/STM32F4xx_HAL_Driver/Inc/stm32f4xx_ll_system.h **** #define LL_DBGMCU_APB1_GRP1_TIM3_STOP      DBGMCU_APB1_FZ_DBG_TIM3_STOP          /*!< TIM3 counter 
 355:Drivers/STM32F4xx_HAL_Driver/Inc/stm32f4xx_ll_system.h **** #endif /* DBGMCU_APB1_FZ_DBG_TIM3_STOP */
 356:Drivers/STM32F4xx_HAL_Driver/Inc/stm32f4xx_ll_system.h **** #if defined(DBGMCU_APB1_FZ_DBG_TIM4_STOP)
ARM GAS  /tmp/ccvq1yeG.s 			page 11


 357:Drivers/STM32F4xx_HAL_Driver/Inc/stm32f4xx_ll_system.h **** #define LL_DBGMCU_APB1_GRP1_TIM4_STOP      DBGMCU_APB1_FZ_DBG_TIM4_STOP          /*!< TIM4 counter 
 358:Drivers/STM32F4xx_HAL_Driver/Inc/stm32f4xx_ll_system.h **** #endif /* DBGMCU_APB1_FZ_DBG_TIM4_STOP */
 359:Drivers/STM32F4xx_HAL_Driver/Inc/stm32f4xx_ll_system.h **** #define LL_DBGMCU_APB1_GRP1_TIM5_STOP      DBGMCU_APB1_FZ_DBG_TIM5_STOP          /*!< TIM5 counter 
 360:Drivers/STM32F4xx_HAL_Driver/Inc/stm32f4xx_ll_system.h **** #if defined(DBGMCU_APB1_FZ_DBG_TIM6_STOP)
 361:Drivers/STM32F4xx_HAL_Driver/Inc/stm32f4xx_ll_system.h **** #define LL_DBGMCU_APB1_GRP1_TIM6_STOP      DBGMCU_APB1_FZ_DBG_TIM6_STOP          /*!< TIM6 counter 
 362:Drivers/STM32F4xx_HAL_Driver/Inc/stm32f4xx_ll_system.h **** #endif /* DBGMCU_APB1_FZ_DBG_TIM6_STOP */
 363:Drivers/STM32F4xx_HAL_Driver/Inc/stm32f4xx_ll_system.h **** #if defined(DBGMCU_APB1_FZ_DBG_TIM7_STOP)
 364:Drivers/STM32F4xx_HAL_Driver/Inc/stm32f4xx_ll_system.h **** #define LL_DBGMCU_APB1_GRP1_TIM7_STOP      DBGMCU_APB1_FZ_DBG_TIM7_STOP          /*!< TIM7 counter 
 365:Drivers/STM32F4xx_HAL_Driver/Inc/stm32f4xx_ll_system.h **** #endif /* DBGMCU_APB1_FZ_DBG_TIM7_STOP */
 366:Drivers/STM32F4xx_HAL_Driver/Inc/stm32f4xx_ll_system.h **** #if defined(DBGMCU_APB1_FZ_DBG_TIM12_STOP)
 367:Drivers/STM32F4xx_HAL_Driver/Inc/stm32f4xx_ll_system.h **** #define LL_DBGMCU_APB1_GRP1_TIM12_STOP     DBGMCU_APB1_FZ_DBG_TIM12_STOP         /*!< TIM12 counter
 368:Drivers/STM32F4xx_HAL_Driver/Inc/stm32f4xx_ll_system.h **** #endif /* DBGMCU_APB1_FZ_DBG_TIM12_STOP */
 369:Drivers/STM32F4xx_HAL_Driver/Inc/stm32f4xx_ll_system.h **** #if defined(DBGMCU_APB1_FZ_DBG_TIM13_STOP)
 370:Drivers/STM32F4xx_HAL_Driver/Inc/stm32f4xx_ll_system.h **** #define LL_DBGMCU_APB1_GRP1_TIM13_STOP     DBGMCU_APB1_FZ_DBG_TIM13_STOP         /*!< TIM13 counter
 371:Drivers/STM32F4xx_HAL_Driver/Inc/stm32f4xx_ll_system.h **** #endif /* DBGMCU_APB1_FZ_DBG_TIM13_STOP */
 372:Drivers/STM32F4xx_HAL_Driver/Inc/stm32f4xx_ll_system.h **** #if defined(DBGMCU_APB1_FZ_DBG_TIM14_STOP)
 373:Drivers/STM32F4xx_HAL_Driver/Inc/stm32f4xx_ll_system.h **** #define LL_DBGMCU_APB1_GRP1_TIM14_STOP     DBGMCU_APB1_FZ_DBG_TIM14_STOP         /*!< TIM14 counter
 374:Drivers/STM32F4xx_HAL_Driver/Inc/stm32f4xx_ll_system.h **** #endif /* DBGMCU_APB1_FZ_DBG_TIM14_STOP */
 375:Drivers/STM32F4xx_HAL_Driver/Inc/stm32f4xx_ll_system.h **** #if defined(DBGMCU_APB1_FZ_DBG_LPTIM_STOP)
 376:Drivers/STM32F4xx_HAL_Driver/Inc/stm32f4xx_ll_system.h **** #define LL_DBGMCU_APB1_GRP1_LPTIM_STOP     DBGMCU_APB1_FZ_DBG_LPTIM_STOP         /*!< LPTIM counter
 377:Drivers/STM32F4xx_HAL_Driver/Inc/stm32f4xx_ll_system.h **** #endif /* DBGMCU_APB1_FZ_DBG_LPTIM_STOP */
 378:Drivers/STM32F4xx_HAL_Driver/Inc/stm32f4xx_ll_system.h **** #define LL_DBGMCU_APB1_GRP1_RTC_STOP       DBGMCU_APB1_FZ_DBG_RTC_STOP           /*!< RTC counter s
 379:Drivers/STM32F4xx_HAL_Driver/Inc/stm32f4xx_ll_system.h **** #define LL_DBGMCU_APB1_GRP1_WWDG_STOP      DBGMCU_APB1_FZ_DBG_WWDG_STOP          /*!< Debug Window 
 380:Drivers/STM32F4xx_HAL_Driver/Inc/stm32f4xx_ll_system.h **** #define LL_DBGMCU_APB1_GRP1_IWDG_STOP      DBGMCU_APB1_FZ_DBG_IWDG_STOP          /*!< Debug Indepen
 381:Drivers/STM32F4xx_HAL_Driver/Inc/stm32f4xx_ll_system.h **** #define LL_DBGMCU_APB1_GRP1_I2C1_STOP      DBGMCU_APB1_FZ_DBG_I2C1_SMBUS_TIMEOUT /*!< I2C1 SMBUS ti
 382:Drivers/STM32F4xx_HAL_Driver/Inc/stm32f4xx_ll_system.h **** #define LL_DBGMCU_APB1_GRP1_I2C2_STOP      DBGMCU_APB1_FZ_DBG_I2C2_SMBUS_TIMEOUT /*!< I2C2 SMBUS ti
 383:Drivers/STM32F4xx_HAL_Driver/Inc/stm32f4xx_ll_system.h **** #if defined(DBGMCU_APB1_FZ_DBG_I2C3_SMBUS_TIMEOUT)
 384:Drivers/STM32F4xx_HAL_Driver/Inc/stm32f4xx_ll_system.h **** #define LL_DBGMCU_APB1_GRP1_I2C3_STOP      DBGMCU_APB1_FZ_DBG_I2C3_SMBUS_TIMEOUT /*!< I2C3 SMBUS ti
 385:Drivers/STM32F4xx_HAL_Driver/Inc/stm32f4xx_ll_system.h **** #endif /* DBGMCU_APB1_FZ_DBG_I2C3_SMBUS_TIMEOUT */
 386:Drivers/STM32F4xx_HAL_Driver/Inc/stm32f4xx_ll_system.h **** #if defined(DBGMCU_APB1_FZ_DBG_I2C4_SMBUS_TIMEOUT)
 387:Drivers/STM32F4xx_HAL_Driver/Inc/stm32f4xx_ll_system.h **** #define LL_DBGMCU_APB1_GRP1_I2C4_STOP      DBGMCU_APB1_FZ_DBG_I2C4_SMBUS_TIMEOUT /*!< I2C4 SMBUS ti
 388:Drivers/STM32F4xx_HAL_Driver/Inc/stm32f4xx_ll_system.h **** #endif /* DBGMCU_APB1_FZ_DBG_I2C4_SMBUS_TIMEOUT */
 389:Drivers/STM32F4xx_HAL_Driver/Inc/stm32f4xx_ll_system.h **** #if defined(DBGMCU_APB1_FZ_DBG_CAN1_STOP)
 390:Drivers/STM32F4xx_HAL_Driver/Inc/stm32f4xx_ll_system.h **** #define LL_DBGMCU_APB1_GRP1_CAN1_STOP      DBGMCU_APB1_FZ_DBG_CAN1_STOP          /*!< CAN1 debug st
 391:Drivers/STM32F4xx_HAL_Driver/Inc/stm32f4xx_ll_system.h **** #endif /* DBGMCU_APB1_FZ_DBG_CAN1_STOP */
 392:Drivers/STM32F4xx_HAL_Driver/Inc/stm32f4xx_ll_system.h **** #if defined(DBGMCU_APB1_FZ_DBG_CAN2_STOP)
 393:Drivers/STM32F4xx_HAL_Driver/Inc/stm32f4xx_ll_system.h **** #define LL_DBGMCU_APB1_GRP1_CAN2_STOP      DBGMCU_APB1_FZ_DBG_CAN2_STOP          /*!< CAN2 debug st
 394:Drivers/STM32F4xx_HAL_Driver/Inc/stm32f4xx_ll_system.h **** #endif /* DBGMCU_APB1_FZ_DBG_CAN2_STOP */
 395:Drivers/STM32F4xx_HAL_Driver/Inc/stm32f4xx_ll_system.h **** #if defined(DBGMCU_APB1_FZ_DBG_CAN3_STOP)
 396:Drivers/STM32F4xx_HAL_Driver/Inc/stm32f4xx_ll_system.h **** #define LL_DBGMCU_APB1_GRP1_CAN3_STOP      DBGMCU_APB1_FZ_DBG_CAN3_STOP          /*!< CAN3 debug st
 397:Drivers/STM32F4xx_HAL_Driver/Inc/stm32f4xx_ll_system.h **** #endif /* DBGMCU_APB1_FZ_DBG_CAN3_STOP */
 398:Drivers/STM32F4xx_HAL_Driver/Inc/stm32f4xx_ll_system.h **** /**
 399:Drivers/STM32F4xx_HAL_Driver/Inc/stm32f4xx_ll_system.h ****   * @}
 400:Drivers/STM32F4xx_HAL_Driver/Inc/stm32f4xx_ll_system.h ****   */
 401:Drivers/STM32F4xx_HAL_Driver/Inc/stm32f4xx_ll_system.h **** 
 402:Drivers/STM32F4xx_HAL_Driver/Inc/stm32f4xx_ll_system.h **** /** @defgroup SYSTEM_LL_EC_APB2_GRP1_STOP_IP DBGMCU APB2 GRP1 STOP IP
 403:Drivers/STM32F4xx_HAL_Driver/Inc/stm32f4xx_ll_system.h ****   * @{
 404:Drivers/STM32F4xx_HAL_Driver/Inc/stm32f4xx_ll_system.h ****   */
 405:Drivers/STM32F4xx_HAL_Driver/Inc/stm32f4xx_ll_system.h **** #define LL_DBGMCU_APB2_GRP1_TIM1_STOP      DBGMCU_APB2_FZ_DBG_TIM1_STOP   /*!< TIM1 counter stopped
 406:Drivers/STM32F4xx_HAL_Driver/Inc/stm32f4xx_ll_system.h **** #if defined(DBGMCU_APB2_FZ_DBG_TIM8_STOP)
 407:Drivers/STM32F4xx_HAL_Driver/Inc/stm32f4xx_ll_system.h **** #define LL_DBGMCU_APB2_GRP1_TIM8_STOP      DBGMCU_APB2_FZ_DBG_TIM8_STOP   /*!< TIM8 counter stopped
 408:Drivers/STM32F4xx_HAL_Driver/Inc/stm32f4xx_ll_system.h **** #endif /* DBGMCU_APB2_FZ_DBG_TIM8_STOP */
 409:Drivers/STM32F4xx_HAL_Driver/Inc/stm32f4xx_ll_system.h **** #define LL_DBGMCU_APB2_GRP1_TIM9_STOP      DBGMCU_APB2_FZ_DBG_TIM9_STOP   /*!< TIM9 counter stopped
 410:Drivers/STM32F4xx_HAL_Driver/Inc/stm32f4xx_ll_system.h **** #if defined(DBGMCU_APB2_FZ_DBG_TIM10_STOP)
 411:Drivers/STM32F4xx_HAL_Driver/Inc/stm32f4xx_ll_system.h **** #define LL_DBGMCU_APB2_GRP1_TIM10_STOP     DBGMCU_APB2_FZ_DBG_TIM10_STOP   /*!< TIM10 counter stopp
 412:Drivers/STM32F4xx_HAL_Driver/Inc/stm32f4xx_ll_system.h **** #endif /* DBGMCU_APB2_FZ_DBG_TIM10_STOP */
 413:Drivers/STM32F4xx_HAL_Driver/Inc/stm32f4xx_ll_system.h **** #define LL_DBGMCU_APB2_GRP1_TIM11_STOP     DBGMCU_APB2_FZ_DBG_TIM11_STOP   /*!< TIM11 counter stopp
ARM GAS  /tmp/ccvq1yeG.s 			page 12


 414:Drivers/STM32F4xx_HAL_Driver/Inc/stm32f4xx_ll_system.h **** /**
 415:Drivers/STM32F4xx_HAL_Driver/Inc/stm32f4xx_ll_system.h ****   * @}
 416:Drivers/STM32F4xx_HAL_Driver/Inc/stm32f4xx_ll_system.h ****   */
 417:Drivers/STM32F4xx_HAL_Driver/Inc/stm32f4xx_ll_system.h **** 
 418:Drivers/STM32F4xx_HAL_Driver/Inc/stm32f4xx_ll_system.h **** /** @defgroup SYSTEM_LL_EC_LATENCY FLASH LATENCY
 419:Drivers/STM32F4xx_HAL_Driver/Inc/stm32f4xx_ll_system.h ****   * @{
 420:Drivers/STM32F4xx_HAL_Driver/Inc/stm32f4xx_ll_system.h ****   */
 421:Drivers/STM32F4xx_HAL_Driver/Inc/stm32f4xx_ll_system.h **** #define LL_FLASH_LATENCY_0                 FLASH_ACR_LATENCY_0WS   /*!< FLASH Zero wait state */
 422:Drivers/STM32F4xx_HAL_Driver/Inc/stm32f4xx_ll_system.h **** #define LL_FLASH_LATENCY_1                 FLASH_ACR_LATENCY_1WS   /*!< FLASH One wait state */
 423:Drivers/STM32F4xx_HAL_Driver/Inc/stm32f4xx_ll_system.h **** #define LL_FLASH_LATENCY_2                 FLASH_ACR_LATENCY_2WS   /*!< FLASH Two wait states */
 424:Drivers/STM32F4xx_HAL_Driver/Inc/stm32f4xx_ll_system.h **** #define LL_FLASH_LATENCY_3                 FLASH_ACR_LATENCY_3WS   /*!< FLASH Three wait states */
 425:Drivers/STM32F4xx_HAL_Driver/Inc/stm32f4xx_ll_system.h **** #define LL_FLASH_LATENCY_4                 FLASH_ACR_LATENCY_4WS   /*!< FLASH Four wait states */
 426:Drivers/STM32F4xx_HAL_Driver/Inc/stm32f4xx_ll_system.h **** #define LL_FLASH_LATENCY_5                 FLASH_ACR_LATENCY_5WS   /*!< FLASH five wait state */
 427:Drivers/STM32F4xx_HAL_Driver/Inc/stm32f4xx_ll_system.h **** #define LL_FLASH_LATENCY_6                 FLASH_ACR_LATENCY_6WS   /*!< FLASH six wait state */
 428:Drivers/STM32F4xx_HAL_Driver/Inc/stm32f4xx_ll_system.h **** #define LL_FLASH_LATENCY_7                 FLASH_ACR_LATENCY_7WS   /*!< FLASH seven wait states */
 429:Drivers/STM32F4xx_HAL_Driver/Inc/stm32f4xx_ll_system.h **** #define LL_FLASH_LATENCY_8                 FLASH_ACR_LATENCY_8WS   /*!< FLASH eight wait states */
 430:Drivers/STM32F4xx_HAL_Driver/Inc/stm32f4xx_ll_system.h **** #define LL_FLASH_LATENCY_9                 FLASH_ACR_LATENCY_9WS   /*!< FLASH nine wait states */
 431:Drivers/STM32F4xx_HAL_Driver/Inc/stm32f4xx_ll_system.h **** #define LL_FLASH_LATENCY_10                FLASH_ACR_LATENCY_10WS   /*!< FLASH ten wait states */
 432:Drivers/STM32F4xx_HAL_Driver/Inc/stm32f4xx_ll_system.h **** #define LL_FLASH_LATENCY_11                FLASH_ACR_LATENCY_11WS   /*!< FLASH eleven wait states *
 433:Drivers/STM32F4xx_HAL_Driver/Inc/stm32f4xx_ll_system.h **** #define LL_FLASH_LATENCY_12                FLASH_ACR_LATENCY_12WS   /*!< FLASH twelve wait states *
 434:Drivers/STM32F4xx_HAL_Driver/Inc/stm32f4xx_ll_system.h **** #define LL_FLASH_LATENCY_13                FLASH_ACR_LATENCY_13WS   /*!< FLASH thirteen wait states
 435:Drivers/STM32F4xx_HAL_Driver/Inc/stm32f4xx_ll_system.h **** #define LL_FLASH_LATENCY_14                FLASH_ACR_LATENCY_14WS   /*!< FLASH fourteen wait states
 436:Drivers/STM32F4xx_HAL_Driver/Inc/stm32f4xx_ll_system.h **** #define LL_FLASH_LATENCY_15                FLASH_ACR_LATENCY_15WS   /*!< FLASH fifteen wait states 
 437:Drivers/STM32F4xx_HAL_Driver/Inc/stm32f4xx_ll_system.h **** /**
 438:Drivers/STM32F4xx_HAL_Driver/Inc/stm32f4xx_ll_system.h ****   * @}
 439:Drivers/STM32F4xx_HAL_Driver/Inc/stm32f4xx_ll_system.h ****   */
 440:Drivers/STM32F4xx_HAL_Driver/Inc/stm32f4xx_ll_system.h **** 
 441:Drivers/STM32F4xx_HAL_Driver/Inc/stm32f4xx_ll_system.h **** /**
 442:Drivers/STM32F4xx_HAL_Driver/Inc/stm32f4xx_ll_system.h ****   * @}
 443:Drivers/STM32F4xx_HAL_Driver/Inc/stm32f4xx_ll_system.h ****   */
 444:Drivers/STM32F4xx_HAL_Driver/Inc/stm32f4xx_ll_system.h **** 
 445:Drivers/STM32F4xx_HAL_Driver/Inc/stm32f4xx_ll_system.h **** /* Exported macro ------------------------------------------------------------*/
 446:Drivers/STM32F4xx_HAL_Driver/Inc/stm32f4xx_ll_system.h **** 
 447:Drivers/STM32F4xx_HAL_Driver/Inc/stm32f4xx_ll_system.h **** /* Exported functions --------------------------------------------------------*/
 448:Drivers/STM32F4xx_HAL_Driver/Inc/stm32f4xx_ll_system.h **** /** @defgroup SYSTEM_LL_Exported_Functions SYSTEM Exported Functions
 449:Drivers/STM32F4xx_HAL_Driver/Inc/stm32f4xx_ll_system.h ****   * @{
 450:Drivers/STM32F4xx_HAL_Driver/Inc/stm32f4xx_ll_system.h ****   */
 451:Drivers/STM32F4xx_HAL_Driver/Inc/stm32f4xx_ll_system.h **** 
 452:Drivers/STM32F4xx_HAL_Driver/Inc/stm32f4xx_ll_system.h **** /** @defgroup SYSTEM_LL_EF_SYSCFG SYSCFG
 453:Drivers/STM32F4xx_HAL_Driver/Inc/stm32f4xx_ll_system.h ****   * @{
 454:Drivers/STM32F4xx_HAL_Driver/Inc/stm32f4xx_ll_system.h ****   */
 455:Drivers/STM32F4xx_HAL_Driver/Inc/stm32f4xx_ll_system.h **** /**
 456:Drivers/STM32F4xx_HAL_Driver/Inc/stm32f4xx_ll_system.h ****   * @brief  Set memory mapping at address 0x00000000
 457:Drivers/STM32F4xx_HAL_Driver/Inc/stm32f4xx_ll_system.h ****   * @rmtoll SYSCFG_MEMRMP MEM_MODE      LL_SYSCFG_SetRemapMemory
 458:Drivers/STM32F4xx_HAL_Driver/Inc/stm32f4xx_ll_system.h ****   * @param  Memory This parameter can be one of the following values:
 459:Drivers/STM32F4xx_HAL_Driver/Inc/stm32f4xx_ll_system.h ****   *         @arg @ref LL_SYSCFG_REMAP_FLASH
 460:Drivers/STM32F4xx_HAL_Driver/Inc/stm32f4xx_ll_system.h ****   *         @arg @ref LL_SYSCFG_REMAP_SYSTEMFLASH
 461:Drivers/STM32F4xx_HAL_Driver/Inc/stm32f4xx_ll_system.h ****   *         @arg @ref LL_SYSCFG_REMAP_SRAM
 462:Drivers/STM32F4xx_HAL_Driver/Inc/stm32f4xx_ll_system.h ****   *         @arg @ref LL_SYSCFG_REMAP_FSMC (*)
 463:Drivers/STM32F4xx_HAL_Driver/Inc/stm32f4xx_ll_system.h ****   *         @arg @ref LL_SYSCFG_REMAP_FMC (*)
 464:Drivers/STM32F4xx_HAL_Driver/Inc/stm32f4xx_ll_system.h ****   * @retval None
 465:Drivers/STM32F4xx_HAL_Driver/Inc/stm32f4xx_ll_system.h ****   */
 466:Drivers/STM32F4xx_HAL_Driver/Inc/stm32f4xx_ll_system.h **** __STATIC_INLINE void LL_SYSCFG_SetRemapMemory(uint32_t Memory)
 467:Drivers/STM32F4xx_HAL_Driver/Inc/stm32f4xx_ll_system.h **** {
 468:Drivers/STM32F4xx_HAL_Driver/Inc/stm32f4xx_ll_system.h ****   MODIFY_REG(SYSCFG->MEMRMP, SYSCFG_MEMRMP_MEM_MODE, Memory);
 469:Drivers/STM32F4xx_HAL_Driver/Inc/stm32f4xx_ll_system.h **** }
 470:Drivers/STM32F4xx_HAL_Driver/Inc/stm32f4xx_ll_system.h **** 
ARM GAS  /tmp/ccvq1yeG.s 			page 13


 471:Drivers/STM32F4xx_HAL_Driver/Inc/stm32f4xx_ll_system.h **** /**
 472:Drivers/STM32F4xx_HAL_Driver/Inc/stm32f4xx_ll_system.h ****   * @brief  Get memory mapping at address 0x00000000
 473:Drivers/STM32F4xx_HAL_Driver/Inc/stm32f4xx_ll_system.h ****   * @rmtoll SYSCFG_MEMRMP MEM_MODE      LL_SYSCFG_GetRemapMemory
 474:Drivers/STM32F4xx_HAL_Driver/Inc/stm32f4xx_ll_system.h ****   * @retval Returned value can be one of the following values:
 475:Drivers/STM32F4xx_HAL_Driver/Inc/stm32f4xx_ll_system.h ****   *         @arg @ref LL_SYSCFG_REMAP_FLASH
 476:Drivers/STM32F4xx_HAL_Driver/Inc/stm32f4xx_ll_system.h ****   *         @arg @ref LL_SYSCFG_REMAP_SYSTEMFLASH
 477:Drivers/STM32F4xx_HAL_Driver/Inc/stm32f4xx_ll_system.h ****   *         @arg @ref LL_SYSCFG_REMAP_SRAM
 478:Drivers/STM32F4xx_HAL_Driver/Inc/stm32f4xx_ll_system.h ****   *         @arg @ref LL_SYSCFG_REMAP_FSMC (*)
 479:Drivers/STM32F4xx_HAL_Driver/Inc/stm32f4xx_ll_system.h ****   *         @arg @ref LL_SYSCFG_REMAP_FMC (*)
 480:Drivers/STM32F4xx_HAL_Driver/Inc/stm32f4xx_ll_system.h ****   */
 481:Drivers/STM32F4xx_HAL_Driver/Inc/stm32f4xx_ll_system.h **** __STATIC_INLINE uint32_t LL_SYSCFG_GetRemapMemory(void)
 482:Drivers/STM32F4xx_HAL_Driver/Inc/stm32f4xx_ll_system.h **** {
 483:Drivers/STM32F4xx_HAL_Driver/Inc/stm32f4xx_ll_system.h ****   return (uint32_t)(READ_BIT(SYSCFG->MEMRMP, SYSCFG_MEMRMP_MEM_MODE));
 484:Drivers/STM32F4xx_HAL_Driver/Inc/stm32f4xx_ll_system.h **** }
 485:Drivers/STM32F4xx_HAL_Driver/Inc/stm32f4xx_ll_system.h **** 
 486:Drivers/STM32F4xx_HAL_Driver/Inc/stm32f4xx_ll_system.h **** #if defined(SYSCFG_MEMRMP_SWP_FMC)
 487:Drivers/STM32F4xx_HAL_Driver/Inc/stm32f4xx_ll_system.h **** /**
 488:Drivers/STM32F4xx_HAL_Driver/Inc/stm32f4xx_ll_system.h ****   * @brief  Enables the FMC Memory Mapping Swapping
 489:Drivers/STM32F4xx_HAL_Driver/Inc/stm32f4xx_ll_system.h ****   * @rmtoll SYSCFG_MEMRMP SWP_FMC      LL_SYSCFG_EnableFMCMemorySwapping
 490:Drivers/STM32F4xx_HAL_Driver/Inc/stm32f4xx_ll_system.h ****   * @note   SDRAM is accessible at 0x60000000 and NOR/RAM 
 491:Drivers/STM32F4xx_HAL_Driver/Inc/stm32f4xx_ll_system.h ****   *         is accessible at 0xC0000000   
 492:Drivers/STM32F4xx_HAL_Driver/Inc/stm32f4xx_ll_system.h ****   * @retval None
 493:Drivers/STM32F4xx_HAL_Driver/Inc/stm32f4xx_ll_system.h ****   */
 494:Drivers/STM32F4xx_HAL_Driver/Inc/stm32f4xx_ll_system.h **** __STATIC_INLINE void LL_SYSCFG_EnableFMCMemorySwapping(void)
 495:Drivers/STM32F4xx_HAL_Driver/Inc/stm32f4xx_ll_system.h **** {
 496:Drivers/STM32F4xx_HAL_Driver/Inc/stm32f4xx_ll_system.h ****   SET_BIT(SYSCFG->MEMRMP, SYSCFG_MEMRMP_SWP_FMC_0);
 497:Drivers/STM32F4xx_HAL_Driver/Inc/stm32f4xx_ll_system.h **** }
 498:Drivers/STM32F4xx_HAL_Driver/Inc/stm32f4xx_ll_system.h **** 
 499:Drivers/STM32F4xx_HAL_Driver/Inc/stm32f4xx_ll_system.h **** /**
 500:Drivers/STM32F4xx_HAL_Driver/Inc/stm32f4xx_ll_system.h ****   * @brief  Disables the FMC Memory Mapping Swapping
 501:Drivers/STM32F4xx_HAL_Driver/Inc/stm32f4xx_ll_system.h ****   * @rmtoll SYSCFG_MEMRMP SWP_FMC      LL_SYSCFG_DisableFMCMemorySwapping
 502:Drivers/STM32F4xx_HAL_Driver/Inc/stm32f4xx_ll_system.h ****   * @note   SDRAM is accessible at 0xC0000000 (default mapping)  
 503:Drivers/STM32F4xx_HAL_Driver/Inc/stm32f4xx_ll_system.h ****   *         and NOR/RAM is accessible at 0x60000000 (default mapping)
 504:Drivers/STM32F4xx_HAL_Driver/Inc/stm32f4xx_ll_system.h ****   * @retval None
 505:Drivers/STM32F4xx_HAL_Driver/Inc/stm32f4xx_ll_system.h ****   */
 506:Drivers/STM32F4xx_HAL_Driver/Inc/stm32f4xx_ll_system.h **** __STATIC_INLINE void LL_SYSCFG_DisableFMCMemorySwapping(void)
 507:Drivers/STM32F4xx_HAL_Driver/Inc/stm32f4xx_ll_system.h **** {
 508:Drivers/STM32F4xx_HAL_Driver/Inc/stm32f4xx_ll_system.h ****   CLEAR_BIT(SYSCFG->MEMRMP, SYSCFG_MEMRMP_SWP_FMC);
 509:Drivers/STM32F4xx_HAL_Driver/Inc/stm32f4xx_ll_system.h **** }
 510:Drivers/STM32F4xx_HAL_Driver/Inc/stm32f4xx_ll_system.h **** 
 511:Drivers/STM32F4xx_HAL_Driver/Inc/stm32f4xx_ll_system.h **** #endif /* SYSCFG_MEMRMP_SWP_FMC */
 512:Drivers/STM32F4xx_HAL_Driver/Inc/stm32f4xx_ll_system.h **** /**
 513:Drivers/STM32F4xx_HAL_Driver/Inc/stm32f4xx_ll_system.h ****   * @brief  Enables the Compensation cell Power Down
 514:Drivers/STM32F4xx_HAL_Driver/Inc/stm32f4xx_ll_system.h ****   * @rmtoll SYSCFG_CMPCR CMP_PD      LL_SYSCFG_EnableCompensationCell
 515:Drivers/STM32F4xx_HAL_Driver/Inc/stm32f4xx_ll_system.h ****   * @note   The I/O compensation cell can be used only when the device supply
 516:Drivers/STM32F4xx_HAL_Driver/Inc/stm32f4xx_ll_system.h ****   *         voltage ranges from 2.4 to 3.6 V
 517:Drivers/STM32F4xx_HAL_Driver/Inc/stm32f4xx_ll_system.h ****   * @retval None
 518:Drivers/STM32F4xx_HAL_Driver/Inc/stm32f4xx_ll_system.h ****   */
 519:Drivers/STM32F4xx_HAL_Driver/Inc/stm32f4xx_ll_system.h **** __STATIC_INLINE void LL_SYSCFG_EnableCompensationCell(void)
 520:Drivers/STM32F4xx_HAL_Driver/Inc/stm32f4xx_ll_system.h **** {
 521:Drivers/STM32F4xx_HAL_Driver/Inc/stm32f4xx_ll_system.h ****   SET_BIT(SYSCFG->CMPCR, SYSCFG_CMPCR_CMP_PD);
 522:Drivers/STM32F4xx_HAL_Driver/Inc/stm32f4xx_ll_system.h **** }
 523:Drivers/STM32F4xx_HAL_Driver/Inc/stm32f4xx_ll_system.h **** 
 524:Drivers/STM32F4xx_HAL_Driver/Inc/stm32f4xx_ll_system.h **** /**
 525:Drivers/STM32F4xx_HAL_Driver/Inc/stm32f4xx_ll_system.h ****   * @brief  Disables the Compensation cell Power Down
 526:Drivers/STM32F4xx_HAL_Driver/Inc/stm32f4xx_ll_system.h ****   * @rmtoll SYSCFG_CMPCR CMP_PD      LL_SYSCFG_DisableCompensationCell
 527:Drivers/STM32F4xx_HAL_Driver/Inc/stm32f4xx_ll_system.h ****   * @note   The I/O compensation cell can be used only when the device supply
ARM GAS  /tmp/ccvq1yeG.s 			page 14


 528:Drivers/STM32F4xx_HAL_Driver/Inc/stm32f4xx_ll_system.h ****   *         voltage ranges from 2.4 to 3.6 V
 529:Drivers/STM32F4xx_HAL_Driver/Inc/stm32f4xx_ll_system.h ****   * @retval None
 530:Drivers/STM32F4xx_HAL_Driver/Inc/stm32f4xx_ll_system.h ****   */
 531:Drivers/STM32F4xx_HAL_Driver/Inc/stm32f4xx_ll_system.h **** __STATIC_INLINE void LL_SYSCFG_DisableCompensationCell(void)
 532:Drivers/STM32F4xx_HAL_Driver/Inc/stm32f4xx_ll_system.h **** {
 533:Drivers/STM32F4xx_HAL_Driver/Inc/stm32f4xx_ll_system.h ****   CLEAR_BIT(SYSCFG->CMPCR, SYSCFG_CMPCR_CMP_PD);
 534:Drivers/STM32F4xx_HAL_Driver/Inc/stm32f4xx_ll_system.h **** }
 535:Drivers/STM32F4xx_HAL_Driver/Inc/stm32f4xx_ll_system.h **** 
 536:Drivers/STM32F4xx_HAL_Driver/Inc/stm32f4xx_ll_system.h **** /**
 537:Drivers/STM32F4xx_HAL_Driver/Inc/stm32f4xx_ll_system.h ****   * @brief  Get Compensation Cell ready Flag
 538:Drivers/STM32F4xx_HAL_Driver/Inc/stm32f4xx_ll_system.h ****   * @rmtoll SYSCFG_CMPCR READY  LL_SYSCFG_IsActiveFlag_CMPCR
 539:Drivers/STM32F4xx_HAL_Driver/Inc/stm32f4xx_ll_system.h ****   * @retval State of bit (1 or 0).
 540:Drivers/STM32F4xx_HAL_Driver/Inc/stm32f4xx_ll_system.h ****   */
 541:Drivers/STM32F4xx_HAL_Driver/Inc/stm32f4xx_ll_system.h **** __STATIC_INLINE uint32_t LL_SYSCFG_IsActiveFlag_CMPCR(void)
 542:Drivers/STM32F4xx_HAL_Driver/Inc/stm32f4xx_ll_system.h **** {
 543:Drivers/STM32F4xx_HAL_Driver/Inc/stm32f4xx_ll_system.h ****   return (READ_BIT(SYSCFG->CMPCR, SYSCFG_CMPCR_READY) == (SYSCFG_CMPCR_READY));
 544:Drivers/STM32F4xx_HAL_Driver/Inc/stm32f4xx_ll_system.h **** }
 545:Drivers/STM32F4xx_HAL_Driver/Inc/stm32f4xx_ll_system.h **** 
 546:Drivers/STM32F4xx_HAL_Driver/Inc/stm32f4xx_ll_system.h **** #if defined(SYSCFG_PMC_MII_RMII_SEL)
 547:Drivers/STM32F4xx_HAL_Driver/Inc/stm32f4xx_ll_system.h **** /**
 548:Drivers/STM32F4xx_HAL_Driver/Inc/stm32f4xx_ll_system.h ****   * @brief  Select Ethernet PHY interface 
 549:Drivers/STM32F4xx_HAL_Driver/Inc/stm32f4xx_ll_system.h ****   * @rmtoll SYSCFG_PMC MII_RMII_SEL       LL_SYSCFG_SetPHYInterface
 550:Drivers/STM32F4xx_HAL_Driver/Inc/stm32f4xx_ll_system.h ****   * @param  Interface This parameter can be one of the following values:
 551:Drivers/STM32F4xx_HAL_Driver/Inc/stm32f4xx_ll_system.h ****   *         @arg @ref LL_SYSCFG_PMC_ETHMII
 552:Drivers/STM32F4xx_HAL_Driver/Inc/stm32f4xx_ll_system.h ****   *         @arg @ref LL_SYSCFG_PMC_ETHRMII
 553:Drivers/STM32F4xx_HAL_Driver/Inc/stm32f4xx_ll_system.h ****   * @retval None
 554:Drivers/STM32F4xx_HAL_Driver/Inc/stm32f4xx_ll_system.h ****   */
 555:Drivers/STM32F4xx_HAL_Driver/Inc/stm32f4xx_ll_system.h **** __STATIC_INLINE void LL_SYSCFG_SetPHYInterface(uint32_t Interface)
 556:Drivers/STM32F4xx_HAL_Driver/Inc/stm32f4xx_ll_system.h **** {
 557:Drivers/STM32F4xx_HAL_Driver/Inc/stm32f4xx_ll_system.h ****   MODIFY_REG(SYSCFG->PMC, SYSCFG_PMC_MII_RMII_SEL, Interface);
 558:Drivers/STM32F4xx_HAL_Driver/Inc/stm32f4xx_ll_system.h **** }
 559:Drivers/STM32F4xx_HAL_Driver/Inc/stm32f4xx_ll_system.h **** 
 560:Drivers/STM32F4xx_HAL_Driver/Inc/stm32f4xx_ll_system.h **** /**
 561:Drivers/STM32F4xx_HAL_Driver/Inc/stm32f4xx_ll_system.h ****   * @brief  Get Ethernet PHY interface 
 562:Drivers/STM32F4xx_HAL_Driver/Inc/stm32f4xx_ll_system.h ****   * @rmtoll SYSCFG_PMC MII_RMII_SEL       LL_SYSCFG_GetPHYInterface
 563:Drivers/STM32F4xx_HAL_Driver/Inc/stm32f4xx_ll_system.h ****   * @retval Returned value can be one of the following values:
 564:Drivers/STM32F4xx_HAL_Driver/Inc/stm32f4xx_ll_system.h ****   *         @arg @ref LL_SYSCFG_PMC_ETHMII
 565:Drivers/STM32F4xx_HAL_Driver/Inc/stm32f4xx_ll_system.h ****   *         @arg @ref LL_SYSCFG_PMC_ETHRMII
 566:Drivers/STM32F4xx_HAL_Driver/Inc/stm32f4xx_ll_system.h ****   * @retval None
 567:Drivers/STM32F4xx_HAL_Driver/Inc/stm32f4xx_ll_system.h ****   */
 568:Drivers/STM32F4xx_HAL_Driver/Inc/stm32f4xx_ll_system.h **** __STATIC_INLINE uint32_t LL_SYSCFG_GetPHYInterface(void)
 569:Drivers/STM32F4xx_HAL_Driver/Inc/stm32f4xx_ll_system.h **** {
 570:Drivers/STM32F4xx_HAL_Driver/Inc/stm32f4xx_ll_system.h ****   return (uint32_t)(READ_BIT(SYSCFG->PMC, SYSCFG_PMC_MII_RMII_SEL));
 571:Drivers/STM32F4xx_HAL_Driver/Inc/stm32f4xx_ll_system.h **** }
 572:Drivers/STM32F4xx_HAL_Driver/Inc/stm32f4xx_ll_system.h **** #endif /* SYSCFG_PMC_MII_RMII_SEL */
 573:Drivers/STM32F4xx_HAL_Driver/Inc/stm32f4xx_ll_system.h ****  
 574:Drivers/STM32F4xx_HAL_Driver/Inc/stm32f4xx_ll_system.h **** 
 575:Drivers/STM32F4xx_HAL_Driver/Inc/stm32f4xx_ll_system.h **** 
 576:Drivers/STM32F4xx_HAL_Driver/Inc/stm32f4xx_ll_system.h **** #if defined(SYSCFG_MEMRMP_UFB_MODE)
 577:Drivers/STM32F4xx_HAL_Driver/Inc/stm32f4xx_ll_system.h **** /**
 578:Drivers/STM32F4xx_HAL_Driver/Inc/stm32f4xx_ll_system.h ****   * @brief  Select Flash bank mode (Bank flashed at 0x08000000)
 579:Drivers/STM32F4xx_HAL_Driver/Inc/stm32f4xx_ll_system.h ****   * @rmtoll SYSCFG_MEMRMP UFB_MODE       LL_SYSCFG_SetFlashBankMode
 580:Drivers/STM32F4xx_HAL_Driver/Inc/stm32f4xx_ll_system.h ****   * @param  Bank This parameter can be one of the following values:
 581:Drivers/STM32F4xx_HAL_Driver/Inc/stm32f4xx_ll_system.h ****   *         @arg @ref LL_SYSCFG_BANKMODE_BANK1
 582:Drivers/STM32F4xx_HAL_Driver/Inc/stm32f4xx_ll_system.h ****   *         @arg @ref LL_SYSCFG_BANKMODE_BANK2
 583:Drivers/STM32F4xx_HAL_Driver/Inc/stm32f4xx_ll_system.h ****   * @retval None
 584:Drivers/STM32F4xx_HAL_Driver/Inc/stm32f4xx_ll_system.h ****   */
ARM GAS  /tmp/ccvq1yeG.s 			page 15


 585:Drivers/STM32F4xx_HAL_Driver/Inc/stm32f4xx_ll_system.h **** __STATIC_INLINE void LL_SYSCFG_SetFlashBankMode(uint32_t Bank)
 586:Drivers/STM32F4xx_HAL_Driver/Inc/stm32f4xx_ll_system.h **** { 
 587:Drivers/STM32F4xx_HAL_Driver/Inc/stm32f4xx_ll_system.h ****   MODIFY_REG(SYSCFG->MEMRMP, SYSCFG_MEMRMP_UFB_MODE, Bank);
 588:Drivers/STM32F4xx_HAL_Driver/Inc/stm32f4xx_ll_system.h **** }
 589:Drivers/STM32F4xx_HAL_Driver/Inc/stm32f4xx_ll_system.h **** 
 590:Drivers/STM32F4xx_HAL_Driver/Inc/stm32f4xx_ll_system.h **** /**
 591:Drivers/STM32F4xx_HAL_Driver/Inc/stm32f4xx_ll_system.h ****   * @brief  Get Flash bank mode (Bank flashed at 0x08000000)
 592:Drivers/STM32F4xx_HAL_Driver/Inc/stm32f4xx_ll_system.h ****   * @rmtoll SYSCFG_MEMRMP UFB_MODE       LL_SYSCFG_GetFlashBankMode
 593:Drivers/STM32F4xx_HAL_Driver/Inc/stm32f4xx_ll_system.h ****   * @retval Returned value can be one of the following values:
 594:Drivers/STM32F4xx_HAL_Driver/Inc/stm32f4xx_ll_system.h ****   *         @arg @ref LL_SYSCFG_BANKMODE_BANK1
 595:Drivers/STM32F4xx_HAL_Driver/Inc/stm32f4xx_ll_system.h ****   *         @arg @ref LL_SYSCFG_BANKMODE_BANK2
 596:Drivers/STM32F4xx_HAL_Driver/Inc/stm32f4xx_ll_system.h ****   */
 597:Drivers/STM32F4xx_HAL_Driver/Inc/stm32f4xx_ll_system.h **** __STATIC_INLINE uint32_t LL_SYSCFG_GetFlashBankMode(void)
 598:Drivers/STM32F4xx_HAL_Driver/Inc/stm32f4xx_ll_system.h **** {
 599:Drivers/STM32F4xx_HAL_Driver/Inc/stm32f4xx_ll_system.h ****   return (uint32_t)(READ_BIT(SYSCFG->MEMRMP, SYSCFG_MEMRMP_UFB_MODE));
 600:Drivers/STM32F4xx_HAL_Driver/Inc/stm32f4xx_ll_system.h **** }
 601:Drivers/STM32F4xx_HAL_Driver/Inc/stm32f4xx_ll_system.h **** #endif /* SYSCFG_MEMRMP_UFB_MODE */
 602:Drivers/STM32F4xx_HAL_Driver/Inc/stm32f4xx_ll_system.h **** 
 603:Drivers/STM32F4xx_HAL_Driver/Inc/stm32f4xx_ll_system.h **** #if defined(SYSCFG_CFGR_FMPI2C1_SCL)
 604:Drivers/STM32F4xx_HAL_Driver/Inc/stm32f4xx_ll_system.h **** /**
 605:Drivers/STM32F4xx_HAL_Driver/Inc/stm32f4xx_ll_system.h ****   * @brief  Enable the I2C fast mode plus driving capability.
 606:Drivers/STM32F4xx_HAL_Driver/Inc/stm32f4xx_ll_system.h ****   * @rmtoll SYSCFG_CFGR FMPI2C1_SCL   LL_SYSCFG_EnableFastModePlus\n
 607:Drivers/STM32F4xx_HAL_Driver/Inc/stm32f4xx_ll_system.h ****   *         SYSCFG_CFGR FMPI2C1_SDA   LL_SYSCFG_EnableFastModePlus
 608:Drivers/STM32F4xx_HAL_Driver/Inc/stm32f4xx_ll_system.h ****   * @param  ConfigFastModePlus This parameter can be a combination of the following values:
 609:Drivers/STM32F4xx_HAL_Driver/Inc/stm32f4xx_ll_system.h ****   *         @arg @ref LL_SYSCFG_I2C_FASTMODEPLUS_SCL
 610:Drivers/STM32F4xx_HAL_Driver/Inc/stm32f4xx_ll_system.h ****   *         @arg @ref LL_SYSCFG_I2C_FASTMODEPLUS_SDA
 611:Drivers/STM32F4xx_HAL_Driver/Inc/stm32f4xx_ll_system.h ****   *         (*) value not defined in all devices
 612:Drivers/STM32F4xx_HAL_Driver/Inc/stm32f4xx_ll_system.h ****   * @retval None
 613:Drivers/STM32F4xx_HAL_Driver/Inc/stm32f4xx_ll_system.h ****   */
 614:Drivers/STM32F4xx_HAL_Driver/Inc/stm32f4xx_ll_system.h **** __STATIC_INLINE void LL_SYSCFG_EnableFastModePlus(uint32_t ConfigFastModePlus)
 615:Drivers/STM32F4xx_HAL_Driver/Inc/stm32f4xx_ll_system.h **** {
 616:Drivers/STM32F4xx_HAL_Driver/Inc/stm32f4xx_ll_system.h ****   SET_BIT(SYSCFG->CFGR, ConfigFastModePlus);
 617:Drivers/STM32F4xx_HAL_Driver/Inc/stm32f4xx_ll_system.h **** }
 618:Drivers/STM32F4xx_HAL_Driver/Inc/stm32f4xx_ll_system.h **** 
 619:Drivers/STM32F4xx_HAL_Driver/Inc/stm32f4xx_ll_system.h **** /**
 620:Drivers/STM32F4xx_HAL_Driver/Inc/stm32f4xx_ll_system.h ****   * @brief  Disable the I2C fast mode plus driving capability.
 621:Drivers/STM32F4xx_HAL_Driver/Inc/stm32f4xx_ll_system.h ****   * @rmtoll SYSCFG_CFGR FMPI2C1_SCL  LL_SYSCFG_DisableFastModePlus\n
 622:Drivers/STM32F4xx_HAL_Driver/Inc/stm32f4xx_ll_system.h ****   *         SYSCFG_CFGR FMPI2C1_SDA  LL_SYSCFG_DisableFastModePlus\n
 623:Drivers/STM32F4xx_HAL_Driver/Inc/stm32f4xx_ll_system.h ****   * @param  ConfigFastModePlus This parameter can be a combination of the following values:
 624:Drivers/STM32F4xx_HAL_Driver/Inc/stm32f4xx_ll_system.h ****   *         @arg @ref LL_SYSCFG_I2C_FASTMODEPLUS_SCL
 625:Drivers/STM32F4xx_HAL_Driver/Inc/stm32f4xx_ll_system.h ****   *         @arg @ref LL_SYSCFG_I2C_FASTMODEPLUS_SDA
 626:Drivers/STM32F4xx_HAL_Driver/Inc/stm32f4xx_ll_system.h ****   *         (*) value not defined in all devices
 627:Drivers/STM32F4xx_HAL_Driver/Inc/stm32f4xx_ll_system.h ****   * @retval None
 628:Drivers/STM32F4xx_HAL_Driver/Inc/stm32f4xx_ll_system.h ****   */
 629:Drivers/STM32F4xx_HAL_Driver/Inc/stm32f4xx_ll_system.h **** __STATIC_INLINE void LL_SYSCFG_DisableFastModePlus(uint32_t ConfigFastModePlus)
 630:Drivers/STM32F4xx_HAL_Driver/Inc/stm32f4xx_ll_system.h **** {
 631:Drivers/STM32F4xx_HAL_Driver/Inc/stm32f4xx_ll_system.h ****   CLEAR_BIT(SYSCFG->CFGR, ConfigFastModePlus);
 632:Drivers/STM32F4xx_HAL_Driver/Inc/stm32f4xx_ll_system.h **** }
 633:Drivers/STM32F4xx_HAL_Driver/Inc/stm32f4xx_ll_system.h **** #endif /* SYSCFG_CFGR_FMPI2C1_SCL */
 634:Drivers/STM32F4xx_HAL_Driver/Inc/stm32f4xx_ll_system.h **** 
 635:Drivers/STM32F4xx_HAL_Driver/Inc/stm32f4xx_ll_system.h **** /**
 636:Drivers/STM32F4xx_HAL_Driver/Inc/stm32f4xx_ll_system.h ****   * @brief  Configure source input for the EXTI external interrupt.
 637:Drivers/STM32F4xx_HAL_Driver/Inc/stm32f4xx_ll_system.h ****   * @rmtoll SYSCFG_EXTICR1 EXTIx         LL_SYSCFG_SetEXTISource\n
 638:Drivers/STM32F4xx_HAL_Driver/Inc/stm32f4xx_ll_system.h ****   *         SYSCFG_EXTICR2 EXTIx         LL_SYSCFG_SetEXTISource\n
 639:Drivers/STM32F4xx_HAL_Driver/Inc/stm32f4xx_ll_system.h ****   *         SYSCFG_EXTICR3 EXTIx         LL_SYSCFG_SetEXTISource\n
 640:Drivers/STM32F4xx_HAL_Driver/Inc/stm32f4xx_ll_system.h ****   *         SYSCFG_EXTICR4 EXTIx         LL_SYSCFG_SetEXTISource
 641:Drivers/STM32F4xx_HAL_Driver/Inc/stm32f4xx_ll_system.h ****   * @param  Port This parameter can be one of the following values:
ARM GAS  /tmp/ccvq1yeG.s 			page 16


 642:Drivers/STM32F4xx_HAL_Driver/Inc/stm32f4xx_ll_system.h ****   *         @arg @ref LL_SYSCFG_EXTI_PORTA
 643:Drivers/STM32F4xx_HAL_Driver/Inc/stm32f4xx_ll_system.h ****   *         @arg @ref LL_SYSCFG_EXTI_PORTB
 644:Drivers/STM32F4xx_HAL_Driver/Inc/stm32f4xx_ll_system.h ****   *         @arg @ref LL_SYSCFG_EXTI_PORTC
 645:Drivers/STM32F4xx_HAL_Driver/Inc/stm32f4xx_ll_system.h ****   *         @arg @ref LL_SYSCFG_EXTI_PORTD
 646:Drivers/STM32F4xx_HAL_Driver/Inc/stm32f4xx_ll_system.h ****   *         @arg @ref LL_SYSCFG_EXTI_PORTE
 647:Drivers/STM32F4xx_HAL_Driver/Inc/stm32f4xx_ll_system.h ****   *         @arg @ref LL_SYSCFG_EXTI_PORTF (*)
 648:Drivers/STM32F4xx_HAL_Driver/Inc/stm32f4xx_ll_system.h ****   *         @arg @ref LL_SYSCFG_EXTI_PORTG (*)
 649:Drivers/STM32F4xx_HAL_Driver/Inc/stm32f4xx_ll_system.h ****   *         @arg @ref LL_SYSCFG_EXTI_PORTH
 650:Drivers/STM32F4xx_HAL_Driver/Inc/stm32f4xx_ll_system.h ****   *
 651:Drivers/STM32F4xx_HAL_Driver/Inc/stm32f4xx_ll_system.h ****   *         (*) value not defined in all devices
 652:Drivers/STM32F4xx_HAL_Driver/Inc/stm32f4xx_ll_system.h ****   * @param  Line This parameter can be one of the following values:
 653:Drivers/STM32F4xx_HAL_Driver/Inc/stm32f4xx_ll_system.h ****   *         @arg @ref LL_SYSCFG_EXTI_LINE0
 654:Drivers/STM32F4xx_HAL_Driver/Inc/stm32f4xx_ll_system.h ****   *         @arg @ref LL_SYSCFG_EXTI_LINE1
 655:Drivers/STM32F4xx_HAL_Driver/Inc/stm32f4xx_ll_system.h ****   *         @arg @ref LL_SYSCFG_EXTI_LINE2
 656:Drivers/STM32F4xx_HAL_Driver/Inc/stm32f4xx_ll_system.h ****   *         @arg @ref LL_SYSCFG_EXTI_LINE3
 657:Drivers/STM32F4xx_HAL_Driver/Inc/stm32f4xx_ll_system.h ****   *         @arg @ref LL_SYSCFG_EXTI_LINE4
 658:Drivers/STM32F4xx_HAL_Driver/Inc/stm32f4xx_ll_system.h ****   *         @arg @ref LL_SYSCFG_EXTI_LINE5
 659:Drivers/STM32F4xx_HAL_Driver/Inc/stm32f4xx_ll_system.h ****   *         @arg @ref LL_SYSCFG_EXTI_LINE6
 660:Drivers/STM32F4xx_HAL_Driver/Inc/stm32f4xx_ll_system.h ****   *         @arg @ref LL_SYSCFG_EXTI_LINE7
 661:Drivers/STM32F4xx_HAL_Driver/Inc/stm32f4xx_ll_system.h ****   *         @arg @ref LL_SYSCFG_EXTI_LINE8
 662:Drivers/STM32F4xx_HAL_Driver/Inc/stm32f4xx_ll_system.h ****   *         @arg @ref LL_SYSCFG_EXTI_LINE9
 663:Drivers/STM32F4xx_HAL_Driver/Inc/stm32f4xx_ll_system.h ****   *         @arg @ref LL_SYSCFG_EXTI_LINE10
 664:Drivers/STM32F4xx_HAL_Driver/Inc/stm32f4xx_ll_system.h ****   *         @arg @ref LL_SYSCFG_EXTI_LINE11
 665:Drivers/STM32F4xx_HAL_Driver/Inc/stm32f4xx_ll_system.h ****   *         @arg @ref LL_SYSCFG_EXTI_LINE12
 666:Drivers/STM32F4xx_HAL_Driver/Inc/stm32f4xx_ll_system.h ****   *         @arg @ref LL_SYSCFG_EXTI_LINE13
 667:Drivers/STM32F4xx_HAL_Driver/Inc/stm32f4xx_ll_system.h ****   *         @arg @ref LL_SYSCFG_EXTI_LINE14
 668:Drivers/STM32F4xx_HAL_Driver/Inc/stm32f4xx_ll_system.h ****   *         @arg @ref LL_SYSCFG_EXTI_LINE15
 669:Drivers/STM32F4xx_HAL_Driver/Inc/stm32f4xx_ll_system.h ****   * @retval None
 670:Drivers/STM32F4xx_HAL_Driver/Inc/stm32f4xx_ll_system.h ****   */
 671:Drivers/STM32F4xx_HAL_Driver/Inc/stm32f4xx_ll_system.h **** __STATIC_INLINE void LL_SYSCFG_SetEXTISource(uint32_t Port, uint32_t Line)
 672:Drivers/STM32F4xx_HAL_Driver/Inc/stm32f4xx_ll_system.h **** {
 673:Drivers/STM32F4xx_HAL_Driver/Inc/stm32f4xx_ll_system.h ****   MODIFY_REG(SYSCFG->EXTICR[Line & 0xFF], (Line >> 16), Port << POSITION_VAL((Line >> 16)));
 674:Drivers/STM32F4xx_HAL_Driver/Inc/stm32f4xx_ll_system.h **** }
 675:Drivers/STM32F4xx_HAL_Driver/Inc/stm32f4xx_ll_system.h **** 
 676:Drivers/STM32F4xx_HAL_Driver/Inc/stm32f4xx_ll_system.h **** /**
 677:Drivers/STM32F4xx_HAL_Driver/Inc/stm32f4xx_ll_system.h ****   * @brief  Get the configured defined for specific EXTI Line
 678:Drivers/STM32F4xx_HAL_Driver/Inc/stm32f4xx_ll_system.h ****   * @rmtoll SYSCFG_EXTICR1 EXTIx         LL_SYSCFG_GetEXTISource\n
 679:Drivers/STM32F4xx_HAL_Driver/Inc/stm32f4xx_ll_system.h ****   *         SYSCFG_EXTICR2 EXTIx         LL_SYSCFG_GetEXTISource\n
 680:Drivers/STM32F4xx_HAL_Driver/Inc/stm32f4xx_ll_system.h ****   *         SYSCFG_EXTICR3 EXTIx         LL_SYSCFG_GetEXTISource\n
 681:Drivers/STM32F4xx_HAL_Driver/Inc/stm32f4xx_ll_system.h ****   *         SYSCFG_EXTICR4 EXTIx         LL_SYSCFG_GetEXTISource
 682:Drivers/STM32F4xx_HAL_Driver/Inc/stm32f4xx_ll_system.h ****   * @param  Line This parameter can be one of the following values:
 683:Drivers/STM32F4xx_HAL_Driver/Inc/stm32f4xx_ll_system.h ****   *         @arg @ref LL_SYSCFG_EXTI_LINE0
 684:Drivers/STM32F4xx_HAL_Driver/Inc/stm32f4xx_ll_system.h ****   *         @arg @ref LL_SYSCFG_EXTI_LINE1
 685:Drivers/STM32F4xx_HAL_Driver/Inc/stm32f4xx_ll_system.h ****   *         @arg @ref LL_SYSCFG_EXTI_LINE2
 686:Drivers/STM32F4xx_HAL_Driver/Inc/stm32f4xx_ll_system.h ****   *         @arg @ref LL_SYSCFG_EXTI_LINE3
 687:Drivers/STM32F4xx_HAL_Driver/Inc/stm32f4xx_ll_system.h ****   *         @arg @ref LL_SYSCFG_EXTI_LINE4
 688:Drivers/STM32F4xx_HAL_Driver/Inc/stm32f4xx_ll_system.h ****   *         @arg @ref LL_SYSCFG_EXTI_LINE5
 689:Drivers/STM32F4xx_HAL_Driver/Inc/stm32f4xx_ll_system.h ****   *         @arg @ref LL_SYSCFG_EXTI_LINE6
 690:Drivers/STM32F4xx_HAL_Driver/Inc/stm32f4xx_ll_system.h ****   *         @arg @ref LL_SYSCFG_EXTI_LINE7
 691:Drivers/STM32F4xx_HAL_Driver/Inc/stm32f4xx_ll_system.h ****   *         @arg @ref LL_SYSCFG_EXTI_LINE8
 692:Drivers/STM32F4xx_HAL_Driver/Inc/stm32f4xx_ll_system.h ****   *         @arg @ref LL_SYSCFG_EXTI_LINE9
 693:Drivers/STM32F4xx_HAL_Driver/Inc/stm32f4xx_ll_system.h ****   *         @arg @ref LL_SYSCFG_EXTI_LINE10
 694:Drivers/STM32F4xx_HAL_Driver/Inc/stm32f4xx_ll_system.h ****   *         @arg @ref LL_SYSCFG_EXTI_LINE11
 695:Drivers/STM32F4xx_HAL_Driver/Inc/stm32f4xx_ll_system.h ****   *         @arg @ref LL_SYSCFG_EXTI_LINE12
 696:Drivers/STM32F4xx_HAL_Driver/Inc/stm32f4xx_ll_system.h ****   *         @arg @ref LL_SYSCFG_EXTI_LINE13
 697:Drivers/STM32F4xx_HAL_Driver/Inc/stm32f4xx_ll_system.h ****   *         @arg @ref LL_SYSCFG_EXTI_LINE14
 698:Drivers/STM32F4xx_HAL_Driver/Inc/stm32f4xx_ll_system.h ****   *         @arg @ref LL_SYSCFG_EXTI_LINE15
ARM GAS  /tmp/ccvq1yeG.s 			page 17


 699:Drivers/STM32F4xx_HAL_Driver/Inc/stm32f4xx_ll_system.h ****   * @retval Returned value can be one of the following values:
 700:Drivers/STM32F4xx_HAL_Driver/Inc/stm32f4xx_ll_system.h ****   *         @arg @ref LL_SYSCFG_EXTI_PORTA
 701:Drivers/STM32F4xx_HAL_Driver/Inc/stm32f4xx_ll_system.h ****   *         @arg @ref LL_SYSCFG_EXTI_PORTB
 702:Drivers/STM32F4xx_HAL_Driver/Inc/stm32f4xx_ll_system.h ****   *         @arg @ref LL_SYSCFG_EXTI_PORTC
 703:Drivers/STM32F4xx_HAL_Driver/Inc/stm32f4xx_ll_system.h ****   *         @arg @ref LL_SYSCFG_EXTI_PORTD
 704:Drivers/STM32F4xx_HAL_Driver/Inc/stm32f4xx_ll_system.h ****   *         @arg @ref LL_SYSCFG_EXTI_PORTE
 705:Drivers/STM32F4xx_HAL_Driver/Inc/stm32f4xx_ll_system.h ****   *         @arg @ref LL_SYSCFG_EXTI_PORTF (*)
 706:Drivers/STM32F4xx_HAL_Driver/Inc/stm32f4xx_ll_system.h ****   *         @arg @ref LL_SYSCFG_EXTI_PORTG (*)
 707:Drivers/STM32F4xx_HAL_Driver/Inc/stm32f4xx_ll_system.h ****   *         @arg @ref LL_SYSCFG_EXTI_PORTH
 708:Drivers/STM32F4xx_HAL_Driver/Inc/stm32f4xx_ll_system.h ****   *         (*) value not defined in all devices
 709:Drivers/STM32F4xx_HAL_Driver/Inc/stm32f4xx_ll_system.h ****   */
 710:Drivers/STM32F4xx_HAL_Driver/Inc/stm32f4xx_ll_system.h **** __STATIC_INLINE uint32_t LL_SYSCFG_GetEXTISource(uint32_t Line)
 711:Drivers/STM32F4xx_HAL_Driver/Inc/stm32f4xx_ll_system.h **** {
 712:Drivers/STM32F4xx_HAL_Driver/Inc/stm32f4xx_ll_system.h ****   return (uint32_t)(READ_BIT(SYSCFG->EXTICR[Line & 0xFF], (Line >> 16)) >> POSITION_VAL(Line >> 16)
 713:Drivers/STM32F4xx_HAL_Driver/Inc/stm32f4xx_ll_system.h **** }
 714:Drivers/STM32F4xx_HAL_Driver/Inc/stm32f4xx_ll_system.h **** 
 715:Drivers/STM32F4xx_HAL_Driver/Inc/stm32f4xx_ll_system.h **** #if defined(SYSCFG_CFGR2_LOCKUP_LOCK)
 716:Drivers/STM32F4xx_HAL_Driver/Inc/stm32f4xx_ll_system.h **** /**
 717:Drivers/STM32F4xx_HAL_Driver/Inc/stm32f4xx_ll_system.h ****   * @brief  Set connections to TIM1/8 break inputs
 718:Drivers/STM32F4xx_HAL_Driver/Inc/stm32f4xx_ll_system.h ****   * @rmtoll SYSCFG_CFGR2 LockUp Lock           LL_SYSCFG_SetTIMBreakInputs \n
 719:Drivers/STM32F4xx_HAL_Driver/Inc/stm32f4xx_ll_system.h ****   *         SYSCFG_CFGR2 PVD Lock              LL_SYSCFG_SetTIMBreakInputs
 720:Drivers/STM32F4xx_HAL_Driver/Inc/stm32f4xx_ll_system.h ****   * @param  Break This parameter can be a combination of the following values:
 721:Drivers/STM32F4xx_HAL_Driver/Inc/stm32f4xx_ll_system.h ****   *         @arg @ref LL_SYSCFG_TIMBREAK_LOCKUP
 722:Drivers/STM32F4xx_HAL_Driver/Inc/stm32f4xx_ll_system.h ****   *         @arg @ref LL_SYSCFG_TIMBREAK_PVD
 723:Drivers/STM32F4xx_HAL_Driver/Inc/stm32f4xx_ll_system.h ****   * @retval None
 724:Drivers/STM32F4xx_HAL_Driver/Inc/stm32f4xx_ll_system.h ****   */
 725:Drivers/STM32F4xx_HAL_Driver/Inc/stm32f4xx_ll_system.h **** __STATIC_INLINE void LL_SYSCFG_SetTIMBreakInputs(uint32_t Break)
 726:Drivers/STM32F4xx_HAL_Driver/Inc/stm32f4xx_ll_system.h **** {
 727:Drivers/STM32F4xx_HAL_Driver/Inc/stm32f4xx_ll_system.h ****   MODIFY_REG(SYSCFG->CFGR2, SYSCFG_CFGR2_LOCKUP_LOCK | SYSCFG_CFGR2_PVD_LOCK, Break);
 728:Drivers/STM32F4xx_HAL_Driver/Inc/stm32f4xx_ll_system.h **** }
 729:Drivers/STM32F4xx_HAL_Driver/Inc/stm32f4xx_ll_system.h **** 
 730:Drivers/STM32F4xx_HAL_Driver/Inc/stm32f4xx_ll_system.h **** /**
 731:Drivers/STM32F4xx_HAL_Driver/Inc/stm32f4xx_ll_system.h ****   * @brief  Get connections to TIM1/8 Break inputs
 732:Drivers/STM32F4xx_HAL_Driver/Inc/stm32f4xx_ll_system.h ****   * @rmtoll SYSCFG_CFGR2 LockUp Lock           LL_SYSCFG_SetTIMBreakInputs \n
 733:Drivers/STM32F4xx_HAL_Driver/Inc/stm32f4xx_ll_system.h ****   *         SYSCFG_CFGR2 PVD Lock              LL_SYSCFG_SetTIMBreakInputs
 734:Drivers/STM32F4xx_HAL_Driver/Inc/stm32f4xx_ll_system.h ****   * @retval Returned value can be can be a combination of the following values:
 735:Drivers/STM32F4xx_HAL_Driver/Inc/stm32f4xx_ll_system.h ****   *         @arg @ref LL_SYSCFG_TIMBREAK_LOCKUP
 736:Drivers/STM32F4xx_HAL_Driver/Inc/stm32f4xx_ll_system.h ****   *         @arg @ref LL_SYSCFG_TIMBREAK_PVD
 737:Drivers/STM32F4xx_HAL_Driver/Inc/stm32f4xx_ll_system.h ****   */
 738:Drivers/STM32F4xx_HAL_Driver/Inc/stm32f4xx_ll_system.h **** __STATIC_INLINE uint32_t LL_SYSCFG_GetTIMBreakInputs(void)
 739:Drivers/STM32F4xx_HAL_Driver/Inc/stm32f4xx_ll_system.h **** {   
 740:Drivers/STM32F4xx_HAL_Driver/Inc/stm32f4xx_ll_system.h ****   return (uint32_t)(READ_BIT(SYSCFG->CFGR2, SYSCFG_CFGR2_LOCKUP_LOCK | SYSCFG_CFGR2_PVD_LOCK));
 741:Drivers/STM32F4xx_HAL_Driver/Inc/stm32f4xx_ll_system.h **** }
 742:Drivers/STM32F4xx_HAL_Driver/Inc/stm32f4xx_ll_system.h **** #endif /* SYSCFG_CFGR2_LOCKUP_LOCK */
 743:Drivers/STM32F4xx_HAL_Driver/Inc/stm32f4xx_ll_system.h **** #if defined(SYSCFG_MCHDLYCR_BSCKSEL)
 744:Drivers/STM32F4xx_HAL_Driver/Inc/stm32f4xx_ll_system.h **** /**
 745:Drivers/STM32F4xx_HAL_Driver/Inc/stm32f4xx_ll_system.h ****   * @brief  Select the DFSDM2 or TIM2_OC1 as clock source for the bitstream clock.
 746:Drivers/STM32F4xx_HAL_Driver/Inc/stm32f4xx_ll_system.h ****   * @rmtoll SYSCFG_MCHDLYCR BSCKSEL        LL_SYSCFG_DFSDM_SetBitstreamClockSourceSelection
 747:Drivers/STM32F4xx_HAL_Driver/Inc/stm32f4xx_ll_system.h ****   * @param  ClockSource This parameter can be one of the following values:
 748:Drivers/STM32F4xx_HAL_Driver/Inc/stm32f4xx_ll_system.h ****   *         @arg @ref LL_SYSCFG_BITSTREAM_CLOCK_DFSDM2
 749:Drivers/STM32F4xx_HAL_Driver/Inc/stm32f4xx_ll_system.h ****   *         @arg @ref LL_SYSCFG_BITSTREAM_CLOCK_TIM2OC1
 750:Drivers/STM32F4xx_HAL_Driver/Inc/stm32f4xx_ll_system.h ****   * @retval None
 751:Drivers/STM32F4xx_HAL_Driver/Inc/stm32f4xx_ll_system.h ****   */
 752:Drivers/STM32F4xx_HAL_Driver/Inc/stm32f4xx_ll_system.h **** __STATIC_INLINE void LL_SYSCFG_DFSDM_SetBitstreamClockSourceSelection(uint32_t ClockSource)
 753:Drivers/STM32F4xx_HAL_Driver/Inc/stm32f4xx_ll_system.h **** {
 754:Drivers/STM32F4xx_HAL_Driver/Inc/stm32f4xx_ll_system.h ****   MODIFY_REG(SYSCFG->MCHDLYCR, SYSCFG_MCHDLYCR_BSCKSEL, ClockSource);
 755:Drivers/STM32F4xx_HAL_Driver/Inc/stm32f4xx_ll_system.h **** }
ARM GAS  /tmp/ccvq1yeG.s 			page 18


 756:Drivers/STM32F4xx_HAL_Driver/Inc/stm32f4xx_ll_system.h **** /**
 757:Drivers/STM32F4xx_HAL_Driver/Inc/stm32f4xx_ll_system.h ****   * @brief  Get the DFSDM2 or TIM2_OC1 as clock source for the bitstream clock.
 758:Drivers/STM32F4xx_HAL_Driver/Inc/stm32f4xx_ll_system.h ****   * @rmtoll SYSCFG_MCHDLYCR BSCKSEL       LL_SYSCFG_DFSDM_GetBitstreamClockSourceSelection
 759:Drivers/STM32F4xx_HAL_Driver/Inc/stm32f4xx_ll_system.h ****   * @retval Returned value can be one of the following values:
 760:Drivers/STM32F4xx_HAL_Driver/Inc/stm32f4xx_ll_system.h ****   *         @arg @ref LL_SYSCFG_BITSTREAM_CLOCK_DFSDM2
 761:Drivers/STM32F4xx_HAL_Driver/Inc/stm32f4xx_ll_system.h ****   *         @arg @ref LL_SYSCFG_BITSTREAM_CLOCK_TIM2OC1
 762:Drivers/STM32F4xx_HAL_Driver/Inc/stm32f4xx_ll_system.h ****   * @retval None
 763:Drivers/STM32F4xx_HAL_Driver/Inc/stm32f4xx_ll_system.h ****   */
 764:Drivers/STM32F4xx_HAL_Driver/Inc/stm32f4xx_ll_system.h **** __STATIC_INLINE uint32_t LL_SYSCFG_DFSDM_GetBitstreamClockSourceSelection(void)
 765:Drivers/STM32F4xx_HAL_Driver/Inc/stm32f4xx_ll_system.h **** {
 766:Drivers/STM32F4xx_HAL_Driver/Inc/stm32f4xx_ll_system.h ****   return (uint32_t)(READ_BIT(SYSCFG->MCHDLYCR, SYSCFG_MCHDLYCR_BSCKSEL));
 767:Drivers/STM32F4xx_HAL_Driver/Inc/stm32f4xx_ll_system.h **** }
 768:Drivers/STM32F4xx_HAL_Driver/Inc/stm32f4xx_ll_system.h **** /**
 769:Drivers/STM32F4xx_HAL_Driver/Inc/stm32f4xx_ll_system.h ****   * @brief  Enables the DFSDM1 or DFSDM2 Delay clock
 770:Drivers/STM32F4xx_HAL_Driver/Inc/stm32f4xx_ll_system.h ****   * @rmtoll SYSCFG_MCHDLYCR MCHDLYEN      LL_SYSCFG_DFSDM_EnableDelayClock
 771:Drivers/STM32F4xx_HAL_Driver/Inc/stm32f4xx_ll_system.h ****   * @param MCHDLY This parameter can be one of the following values
 772:Drivers/STM32F4xx_HAL_Driver/Inc/stm32f4xx_ll_system.h ****   *         @arg @ref LL_SYSCFG_DFSDM1_MCHDLYEN
 773:Drivers/STM32F4xx_HAL_Driver/Inc/stm32f4xx_ll_system.h ****   *         @arg @ref LL_SYSCFG_DFSDM2_MCHDLYEN
 774:Drivers/STM32F4xx_HAL_Driver/Inc/stm32f4xx_ll_system.h ****   * @retval None
 775:Drivers/STM32F4xx_HAL_Driver/Inc/stm32f4xx_ll_system.h ****   */
 776:Drivers/STM32F4xx_HAL_Driver/Inc/stm32f4xx_ll_system.h **** __STATIC_INLINE void LL_SYSCFG_DFSDM_EnableDelayClock(uint32_t MCHDLY)
 777:Drivers/STM32F4xx_HAL_Driver/Inc/stm32f4xx_ll_system.h **** {
 778:Drivers/STM32F4xx_HAL_Driver/Inc/stm32f4xx_ll_system.h ****   SET_BIT(SYSCFG->MCHDLYCR, MCHDLY);
 779:Drivers/STM32F4xx_HAL_Driver/Inc/stm32f4xx_ll_system.h **** }
 780:Drivers/STM32F4xx_HAL_Driver/Inc/stm32f4xx_ll_system.h **** 
 781:Drivers/STM32F4xx_HAL_Driver/Inc/stm32f4xx_ll_system.h **** /**
 782:Drivers/STM32F4xx_HAL_Driver/Inc/stm32f4xx_ll_system.h ****   * @brief  Disables the DFSDM1 or the DFSDM2 Delay clock
 783:Drivers/STM32F4xx_HAL_Driver/Inc/stm32f4xx_ll_system.h ****   * @rmtoll SYSCFG_MCHDLYCR MCHDLY1EN      LL_SYSCFG_DFSDM1_DisableDelayClock
 784:Drivers/STM32F4xx_HAL_Driver/Inc/stm32f4xx_ll_system.h ****   * @param MCHDLY This parameter can be one of the following values
 785:Drivers/STM32F4xx_HAL_Driver/Inc/stm32f4xx_ll_system.h ****   *         @arg @ref LL_SYSCFG_DFSDM1_MCHDLYEN
 786:Drivers/STM32F4xx_HAL_Driver/Inc/stm32f4xx_ll_system.h ****   *         @arg @ref LL_SYSCFG_DFSDM2_MCHDLYEN
 787:Drivers/STM32F4xx_HAL_Driver/Inc/stm32f4xx_ll_system.h ****   * @retval None
 788:Drivers/STM32F4xx_HAL_Driver/Inc/stm32f4xx_ll_system.h ****   */
 789:Drivers/STM32F4xx_HAL_Driver/Inc/stm32f4xx_ll_system.h **** __STATIC_INLINE void LL_SYSCFG_DFSDM_DisableDelayClock(uint32_t MCHDLY)
 790:Drivers/STM32F4xx_HAL_Driver/Inc/stm32f4xx_ll_system.h **** {
 791:Drivers/STM32F4xx_HAL_Driver/Inc/stm32f4xx_ll_system.h ****   CLEAR_BIT(SYSCFG->MCHDLYCR, MCHDLY);
 792:Drivers/STM32F4xx_HAL_Driver/Inc/stm32f4xx_ll_system.h **** }
 793:Drivers/STM32F4xx_HAL_Driver/Inc/stm32f4xx_ll_system.h **** 
 794:Drivers/STM32F4xx_HAL_Driver/Inc/stm32f4xx_ll_system.h **** /**
 795:Drivers/STM32F4xx_HAL_Driver/Inc/stm32f4xx_ll_system.h ****   * @brief  Select the source for DFSDM1 or DFSDM2 DatIn0 
 796:Drivers/STM32F4xx_HAL_Driver/Inc/stm32f4xx_ll_system.h ****   * @rmtoll SYSCFG_MCHDLYCR DFSDMD0SEL        LL_SYSCFG_DFSDM_SetDataIn0Source
 797:Drivers/STM32F4xx_HAL_Driver/Inc/stm32f4xx_ll_system.h ****   * @param  Source This parameter can be one of the following values:
 798:Drivers/STM32F4xx_HAL_Driver/Inc/stm32f4xx_ll_system.h ****   *         @arg @ref LL_SYSCFG_DFSDM1_DataIn0_PAD
 799:Drivers/STM32F4xx_HAL_Driver/Inc/stm32f4xx_ll_system.h ****   *         @arg @ref LL_SYSCFG_DFSDM1_DataIn0_DM
 800:Drivers/STM32F4xx_HAL_Driver/Inc/stm32f4xx_ll_system.h ****   *         @arg @ref LL_SYSCFG_DFSDM2_DataIn0_PAD
 801:Drivers/STM32F4xx_HAL_Driver/Inc/stm32f4xx_ll_system.h ****   *         @arg @ref LL_SYSCFG_DFSDM2_DataIn0_DM
 802:Drivers/STM32F4xx_HAL_Driver/Inc/stm32f4xx_ll_system.h ****   * @retval None
 803:Drivers/STM32F4xx_HAL_Driver/Inc/stm32f4xx_ll_system.h ****   */
 804:Drivers/STM32F4xx_HAL_Driver/Inc/stm32f4xx_ll_system.h **** __STATIC_INLINE void LL_SYSCFG_DFSDM_SetDataIn0Source(uint32_t Source)
 805:Drivers/STM32F4xx_HAL_Driver/Inc/stm32f4xx_ll_system.h **** {
 806:Drivers/STM32F4xx_HAL_Driver/Inc/stm32f4xx_ll_system.h ****   MODIFY_REG(SYSCFG->MCHDLYCR, (Source >> 16), (Source & 0x0000FFFF));
 807:Drivers/STM32F4xx_HAL_Driver/Inc/stm32f4xx_ll_system.h **** }
 808:Drivers/STM32F4xx_HAL_Driver/Inc/stm32f4xx_ll_system.h **** /**
 809:Drivers/STM32F4xx_HAL_Driver/Inc/stm32f4xx_ll_system.h ****   * @brief  Get the source for DFSDM1 or DFSDM2 DatIn0.
 810:Drivers/STM32F4xx_HAL_Driver/Inc/stm32f4xx_ll_system.h ****   * @rmtoll SYSCFG_MCHDLYCR DFSDMD0SEL       LL_SYSCFG_DFSDM_GetDataIn0Source
 811:Drivers/STM32F4xx_HAL_Driver/Inc/stm32f4xx_ll_system.h ****   * @param  Source This parameter can be one of the following values:
 812:Drivers/STM32F4xx_HAL_Driver/Inc/stm32f4xx_ll_system.h ****   *         @arg @ref LL_SYSCFG_DFSDM1_DataIn0
ARM GAS  /tmp/ccvq1yeG.s 			page 19


 813:Drivers/STM32F4xx_HAL_Driver/Inc/stm32f4xx_ll_system.h ****   *         @arg @ref LL_SYSCFG_DFSDM2_DataIn0
 814:Drivers/STM32F4xx_HAL_Driver/Inc/stm32f4xx_ll_system.h ****   * @retval Returned value can be one of the following values:
 815:Drivers/STM32F4xx_HAL_Driver/Inc/stm32f4xx_ll_system.h ****   *         @arg @ref LL_SYSCFG_DFSDM1_DataIn0_PAD
 816:Drivers/STM32F4xx_HAL_Driver/Inc/stm32f4xx_ll_system.h ****   *         @arg @ref LL_SYSCFG_DFSDM1_DataIn0_DM
 817:Drivers/STM32F4xx_HAL_Driver/Inc/stm32f4xx_ll_system.h ****   *         @arg @ref LL_SYSCFG_DFSDM2_DataIn0_PAD
 818:Drivers/STM32F4xx_HAL_Driver/Inc/stm32f4xx_ll_system.h ****   *         @arg @ref LL_SYSCFG_DFSDM2_DataIn0_DM
 819:Drivers/STM32F4xx_HAL_Driver/Inc/stm32f4xx_ll_system.h ****   * @retval None
 820:Drivers/STM32F4xx_HAL_Driver/Inc/stm32f4xx_ll_system.h ****   */
 821:Drivers/STM32F4xx_HAL_Driver/Inc/stm32f4xx_ll_system.h **** __STATIC_INLINE uint32_t LL_SYSCFG_DFSDM_GetDataIn0Source(uint32_t Source)
 822:Drivers/STM32F4xx_HAL_Driver/Inc/stm32f4xx_ll_system.h **** {
 823:Drivers/STM32F4xx_HAL_Driver/Inc/stm32f4xx_ll_system.h ****   return (uint32_t)(READ_BIT(SYSCFG->MCHDLYCR, Source));
 824:Drivers/STM32F4xx_HAL_Driver/Inc/stm32f4xx_ll_system.h **** }
 825:Drivers/STM32F4xx_HAL_Driver/Inc/stm32f4xx_ll_system.h **** /**
 826:Drivers/STM32F4xx_HAL_Driver/Inc/stm32f4xx_ll_system.h ****   * @brief  Select the source for DFSDM1 or DFSDM2 DatIn2 
 827:Drivers/STM32F4xx_HAL_Driver/Inc/stm32f4xx_ll_system.h ****   * @rmtoll SYSCFG_MCHDLYCR DFSDMD2SEL        LL_SYSCFG_DFSDM_SetDataIn2Source
 828:Drivers/STM32F4xx_HAL_Driver/Inc/stm32f4xx_ll_system.h ****   * @param  Source This parameter can be one of the following values:
 829:Drivers/STM32F4xx_HAL_Driver/Inc/stm32f4xx_ll_system.h ****   *         @arg @ref LL_SYSCFG_DFSDM1_DataIn2_PAD
 830:Drivers/STM32F4xx_HAL_Driver/Inc/stm32f4xx_ll_system.h ****   *         @arg @ref LL_SYSCFG_DFSDM1_DataIn2_DM
 831:Drivers/STM32F4xx_HAL_Driver/Inc/stm32f4xx_ll_system.h ****   *         @arg @ref LL_SYSCFG_DFSDM2_DataIn2_PAD
 832:Drivers/STM32F4xx_HAL_Driver/Inc/stm32f4xx_ll_system.h ****   *         @arg @ref LL_SYSCFG_DFSDM2_DataIn2_DM
 833:Drivers/STM32F4xx_HAL_Driver/Inc/stm32f4xx_ll_system.h ****   * @retval None
 834:Drivers/STM32F4xx_HAL_Driver/Inc/stm32f4xx_ll_system.h ****   */
 835:Drivers/STM32F4xx_HAL_Driver/Inc/stm32f4xx_ll_system.h **** __STATIC_INLINE void LL_SYSCFG_DFSDM_SetDataIn2Source(uint32_t Source)
 836:Drivers/STM32F4xx_HAL_Driver/Inc/stm32f4xx_ll_system.h **** {
 837:Drivers/STM32F4xx_HAL_Driver/Inc/stm32f4xx_ll_system.h ****   MODIFY_REG(SYSCFG->MCHDLYCR, (Source >> 16), (Source & 0x0000FFFF));
 838:Drivers/STM32F4xx_HAL_Driver/Inc/stm32f4xx_ll_system.h **** }
 839:Drivers/STM32F4xx_HAL_Driver/Inc/stm32f4xx_ll_system.h **** /**
 840:Drivers/STM32F4xx_HAL_Driver/Inc/stm32f4xx_ll_system.h ****   * @brief  Get the source for DFSDM1 or DFSDM2 DatIn2.
 841:Drivers/STM32F4xx_HAL_Driver/Inc/stm32f4xx_ll_system.h ****   * @rmtoll SYSCFG_MCHDLYCR DFSDMD2SEL       LL_SYSCFG_DFSDM_GetDataIn2Source
 842:Drivers/STM32F4xx_HAL_Driver/Inc/stm32f4xx_ll_system.h ****   * @param  Source This parameter can be one of the following values:
 843:Drivers/STM32F4xx_HAL_Driver/Inc/stm32f4xx_ll_system.h ****   *         @arg @ref LL_SYSCFG_DFSDM1_DataIn2
 844:Drivers/STM32F4xx_HAL_Driver/Inc/stm32f4xx_ll_system.h ****   *         @arg @ref LL_SYSCFG_DFSDM2_DataIn2
 845:Drivers/STM32F4xx_HAL_Driver/Inc/stm32f4xx_ll_system.h ****   * @retval Returned value can be one of the following values:
 846:Drivers/STM32F4xx_HAL_Driver/Inc/stm32f4xx_ll_system.h ****   *         @arg @ref LL_SYSCFG_DFSDM1_DataIn2_PAD
 847:Drivers/STM32F4xx_HAL_Driver/Inc/stm32f4xx_ll_system.h ****   *         @arg @ref LL_SYSCFG_DFSDM1_DataIn2_DM
 848:Drivers/STM32F4xx_HAL_Driver/Inc/stm32f4xx_ll_system.h ****   *         @arg @ref LL_SYSCFG_DFSDM2_DataIn2_PAD
 849:Drivers/STM32F4xx_HAL_Driver/Inc/stm32f4xx_ll_system.h ****   *         @arg @ref LL_SYSCFG_DFSDM2_DataIn2_DM
 850:Drivers/STM32F4xx_HAL_Driver/Inc/stm32f4xx_ll_system.h ****   * @retval None
 851:Drivers/STM32F4xx_HAL_Driver/Inc/stm32f4xx_ll_system.h ****   */
 852:Drivers/STM32F4xx_HAL_Driver/Inc/stm32f4xx_ll_system.h **** __STATIC_INLINE uint32_t LL_SYSCFG_DFSDM_GetDataIn2Source(uint32_t Source)
 853:Drivers/STM32F4xx_HAL_Driver/Inc/stm32f4xx_ll_system.h **** {
 854:Drivers/STM32F4xx_HAL_Driver/Inc/stm32f4xx_ll_system.h ****   return (uint32_t)(READ_BIT(SYSCFG->MCHDLYCR, Source));
 855:Drivers/STM32F4xx_HAL_Driver/Inc/stm32f4xx_ll_system.h **** }
 856:Drivers/STM32F4xx_HAL_Driver/Inc/stm32f4xx_ll_system.h **** 
 857:Drivers/STM32F4xx_HAL_Driver/Inc/stm32f4xx_ll_system.h **** /**
 858:Drivers/STM32F4xx_HAL_Driver/Inc/stm32f4xx_ll_system.h ****   * @brief  Select the distribution of the bitsream lock gated by TIM4 OC2 
 859:Drivers/STM32F4xx_HAL_Driver/Inc/stm32f4xx_ll_system.h ****   * @rmtoll SYSCFG_MCHDLYCR DFSDM1CK02SEL        LL_SYSCFG_DFSDM1_SetTIM4OC2BitStreamDistribution
 860:Drivers/STM32F4xx_HAL_Driver/Inc/stm32f4xx_ll_system.h ****   * @param  Source This parameter can be one of the following values:
 861:Drivers/STM32F4xx_HAL_Driver/Inc/stm32f4xx_ll_system.h ****   *         @arg @ref LL_SYSCFG_DFSDM1_TIM4OC2_CLKIN0
 862:Drivers/STM32F4xx_HAL_Driver/Inc/stm32f4xx_ll_system.h ****   *         @arg @ref LL_SYSCFG_DFSDM1_TIM4OC2_CLKIN2
 863:Drivers/STM32F4xx_HAL_Driver/Inc/stm32f4xx_ll_system.h ****   * @retval None
 864:Drivers/STM32F4xx_HAL_Driver/Inc/stm32f4xx_ll_system.h ****   */
 865:Drivers/STM32F4xx_HAL_Driver/Inc/stm32f4xx_ll_system.h **** __STATIC_INLINE void LL_SYSCFG_DFSDM1_SetTIM4OC2BitStreamDistribution(uint32_t Source)
 866:Drivers/STM32F4xx_HAL_Driver/Inc/stm32f4xx_ll_system.h **** {
 867:Drivers/STM32F4xx_HAL_Driver/Inc/stm32f4xx_ll_system.h ****   MODIFY_REG(SYSCFG->MCHDLYCR, SYSCFG_MCHDLYCR_DFSDM1CK02SEL, Source);
 868:Drivers/STM32F4xx_HAL_Driver/Inc/stm32f4xx_ll_system.h **** }
 869:Drivers/STM32F4xx_HAL_Driver/Inc/stm32f4xx_ll_system.h **** /**
ARM GAS  /tmp/ccvq1yeG.s 			page 20


 870:Drivers/STM32F4xx_HAL_Driver/Inc/stm32f4xx_ll_system.h ****   * @brief  Get the distribution of the bitsream lock gated by TIM4 OC2 
 871:Drivers/STM32F4xx_HAL_Driver/Inc/stm32f4xx_ll_system.h ****   * @rmtoll SYSCFG_MCHDLYCR DFSDM1D2SEL       LL_SYSCFG_DFSDM1_GetTIM4OC2BitStreamDistribution
 872:Drivers/STM32F4xx_HAL_Driver/Inc/stm32f4xx_ll_system.h ****   * @retval Returned value can be one of the following values:
 873:Drivers/STM32F4xx_HAL_Driver/Inc/stm32f4xx_ll_system.h ****   *         @arg @ref LL_SYSCFG_DFSDM1_TIM4OC2_CLKIN0
 874:Drivers/STM32F4xx_HAL_Driver/Inc/stm32f4xx_ll_system.h ****   *         @arg @ref LL_SYSCFG_DFSDM1_TIM4OC2_CLKIN2
 875:Drivers/STM32F4xx_HAL_Driver/Inc/stm32f4xx_ll_system.h ****   * @retval None
 876:Drivers/STM32F4xx_HAL_Driver/Inc/stm32f4xx_ll_system.h ****   */
 877:Drivers/STM32F4xx_HAL_Driver/Inc/stm32f4xx_ll_system.h **** __STATIC_INLINE uint32_t LL_SYSCFG_DFSDM1_GetTIM4OC2BitStreamDistribution(void)
 878:Drivers/STM32F4xx_HAL_Driver/Inc/stm32f4xx_ll_system.h **** {
 879:Drivers/STM32F4xx_HAL_Driver/Inc/stm32f4xx_ll_system.h ****   return (uint32_t)(READ_BIT(SYSCFG->MCHDLYCR, SYSCFG_MCHDLYCR_DFSDM1CK02SEL));
 880:Drivers/STM32F4xx_HAL_Driver/Inc/stm32f4xx_ll_system.h **** }
 881:Drivers/STM32F4xx_HAL_Driver/Inc/stm32f4xx_ll_system.h **** 
 882:Drivers/STM32F4xx_HAL_Driver/Inc/stm32f4xx_ll_system.h **** /**
 883:Drivers/STM32F4xx_HAL_Driver/Inc/stm32f4xx_ll_system.h ****   * @brief  Select the distribution of the bitsream lock gated by TIM4 OC1 
 884:Drivers/STM32F4xx_HAL_Driver/Inc/stm32f4xx_ll_system.h ****   * @rmtoll SYSCFG_MCHDLYCR DFSDM1CK13SEL        LL_SYSCFG_DFSDM1_SetTIM4OC1BitStreamDistribution
 885:Drivers/STM32F4xx_HAL_Driver/Inc/stm32f4xx_ll_system.h ****   * @param  Source This parameter can be one of the following values:
 886:Drivers/STM32F4xx_HAL_Driver/Inc/stm32f4xx_ll_system.h ****   *         @arg @ref LL_SYSCFG_DFSDM1_TIM4OC1_CLKIN1
 887:Drivers/STM32F4xx_HAL_Driver/Inc/stm32f4xx_ll_system.h ****   *         @arg @ref LL_SYSCFG_DFSDM1_TIM4OC1_CLKIN3
 888:Drivers/STM32F4xx_HAL_Driver/Inc/stm32f4xx_ll_system.h ****   * @retval None
 889:Drivers/STM32F4xx_HAL_Driver/Inc/stm32f4xx_ll_system.h ****   */
 890:Drivers/STM32F4xx_HAL_Driver/Inc/stm32f4xx_ll_system.h **** __STATIC_INLINE void LL_SYSCFG_DFSDM1_SetTIM4OC1BitStreamDistribution(uint32_t Source)
 891:Drivers/STM32F4xx_HAL_Driver/Inc/stm32f4xx_ll_system.h **** {
 892:Drivers/STM32F4xx_HAL_Driver/Inc/stm32f4xx_ll_system.h ****   MODIFY_REG(SYSCFG->MCHDLYCR, SYSCFG_MCHDLYCR_DFSDM1CK13SEL, Source);
 893:Drivers/STM32F4xx_HAL_Driver/Inc/stm32f4xx_ll_system.h **** }
 894:Drivers/STM32F4xx_HAL_Driver/Inc/stm32f4xx_ll_system.h **** /**
 895:Drivers/STM32F4xx_HAL_Driver/Inc/stm32f4xx_ll_system.h ****   * @brief  Get the distribution of the bitsream lock gated by TIM4 OC1 
 896:Drivers/STM32F4xx_HAL_Driver/Inc/stm32f4xx_ll_system.h ****   * @rmtoll SYSCFG_MCHDLYCR DFSDM1D2SEL       LL_SYSCFG_DFSDM1_GetTIM4OC1BitStreamDistribution
 897:Drivers/STM32F4xx_HAL_Driver/Inc/stm32f4xx_ll_system.h ****   * @retval Returned value can be one of the following values:
 898:Drivers/STM32F4xx_HAL_Driver/Inc/stm32f4xx_ll_system.h ****   *         @arg @ref LL_SYSCFG_DFSDM1_TIM4OC1_CLKIN1
 899:Drivers/STM32F4xx_HAL_Driver/Inc/stm32f4xx_ll_system.h ****   *         @arg @ref LL_SYSCFG_DFSDM1_TIM4OC1_CLKIN3
 900:Drivers/STM32F4xx_HAL_Driver/Inc/stm32f4xx_ll_system.h ****   * @retval None
 901:Drivers/STM32F4xx_HAL_Driver/Inc/stm32f4xx_ll_system.h ****   */
 902:Drivers/STM32F4xx_HAL_Driver/Inc/stm32f4xx_ll_system.h **** __STATIC_INLINE uint32_t LL_SYSCFG_DFSDM1_GetTIM4OC1BitStreamDistribution(void)
 903:Drivers/STM32F4xx_HAL_Driver/Inc/stm32f4xx_ll_system.h **** {
 904:Drivers/STM32F4xx_HAL_Driver/Inc/stm32f4xx_ll_system.h ****   return (uint32_t)(READ_BIT(SYSCFG->MCHDLYCR, SYSCFG_MCHDLYCR_DFSDM1CK13SEL));
 905:Drivers/STM32F4xx_HAL_Driver/Inc/stm32f4xx_ll_system.h **** }
 906:Drivers/STM32F4xx_HAL_Driver/Inc/stm32f4xx_ll_system.h **** 
 907:Drivers/STM32F4xx_HAL_Driver/Inc/stm32f4xx_ll_system.h **** /**
 908:Drivers/STM32F4xx_HAL_Driver/Inc/stm32f4xx_ll_system.h ****   * @brief  Select the DFSDM1 Clock In 
 909:Drivers/STM32F4xx_HAL_Driver/Inc/stm32f4xx_ll_system.h ****   * @rmtoll SYSCFG_MCHDLYCR DFSDM1CFG        LL_SYSCFG_DFSDM1_SetClockInSourceSelection
 910:Drivers/STM32F4xx_HAL_Driver/Inc/stm32f4xx_ll_system.h ****   * @param  ClockSource This parameter can be one of the following values:
 911:Drivers/STM32F4xx_HAL_Driver/Inc/stm32f4xx_ll_system.h ****   *         @arg @ref LL_SYSCFG_DFSDM1_CKIN_PAD
 912:Drivers/STM32F4xx_HAL_Driver/Inc/stm32f4xx_ll_system.h ****   *         @arg @ref LL_SYSCFG_DFSDM1_CKIN_DM
 913:Drivers/STM32F4xx_HAL_Driver/Inc/stm32f4xx_ll_system.h ****   * @retval None
 914:Drivers/STM32F4xx_HAL_Driver/Inc/stm32f4xx_ll_system.h ****   */
 915:Drivers/STM32F4xx_HAL_Driver/Inc/stm32f4xx_ll_system.h **** __STATIC_INLINE void LL_SYSCFG_DFSDM1_SetClockInSourceSelection(uint32_t ClockSource)
 916:Drivers/STM32F4xx_HAL_Driver/Inc/stm32f4xx_ll_system.h **** {
 917:Drivers/STM32F4xx_HAL_Driver/Inc/stm32f4xx_ll_system.h ****   MODIFY_REG(SYSCFG->MCHDLYCR, SYSCFG_MCHDLYCR_DFSDM1CFG, ClockSource);
 918:Drivers/STM32F4xx_HAL_Driver/Inc/stm32f4xx_ll_system.h **** }
 919:Drivers/STM32F4xx_HAL_Driver/Inc/stm32f4xx_ll_system.h **** /**
 920:Drivers/STM32F4xx_HAL_Driver/Inc/stm32f4xx_ll_system.h ****   * @brief  GET the DFSDM1 Clock In
 921:Drivers/STM32F4xx_HAL_Driver/Inc/stm32f4xx_ll_system.h ****   * @rmtoll SYSCFG_MCHDLYCR DFSDM1CFG       LL_SYSCFG_DFSDM1_GetClockInSourceSelection
 922:Drivers/STM32F4xx_HAL_Driver/Inc/stm32f4xx_ll_system.h ****   * @retval Returned value can be one of the following values:
 923:Drivers/STM32F4xx_HAL_Driver/Inc/stm32f4xx_ll_system.h ****   *         @arg @ref LL_SYSCFG_DFSDM1_CKIN_PAD
 924:Drivers/STM32F4xx_HAL_Driver/Inc/stm32f4xx_ll_system.h ****   *         @arg @ref LL_SYSCFG_DFSDM1_CKIN_DM
 925:Drivers/STM32F4xx_HAL_Driver/Inc/stm32f4xx_ll_system.h ****   * @retval None
 926:Drivers/STM32F4xx_HAL_Driver/Inc/stm32f4xx_ll_system.h ****   */
ARM GAS  /tmp/ccvq1yeG.s 			page 21


 927:Drivers/STM32F4xx_HAL_Driver/Inc/stm32f4xx_ll_system.h **** __STATIC_INLINE uint32_t LL_SYSCFG_DFSDM1_GetClockInSourceSelection(void)
 928:Drivers/STM32F4xx_HAL_Driver/Inc/stm32f4xx_ll_system.h **** {
 929:Drivers/STM32F4xx_HAL_Driver/Inc/stm32f4xx_ll_system.h ****   return (uint32_t)(READ_BIT(SYSCFG->MCHDLYCR, SYSCFG_MCHDLYCR_DFSDM1CFG));
 930:Drivers/STM32F4xx_HAL_Driver/Inc/stm32f4xx_ll_system.h **** }
 931:Drivers/STM32F4xx_HAL_Driver/Inc/stm32f4xx_ll_system.h **** 
 932:Drivers/STM32F4xx_HAL_Driver/Inc/stm32f4xx_ll_system.h **** /**
 933:Drivers/STM32F4xx_HAL_Driver/Inc/stm32f4xx_ll_system.h ****   * @brief  Select the DFSDM1 Clock Out 
 934:Drivers/STM32F4xx_HAL_Driver/Inc/stm32f4xx_ll_system.h ****   * @rmtoll SYSCFG_MCHDLYCR DFSDM1CKOSEL        LL_SYSCFG_DFSDM1_SetClockOutSourceSelection
 935:Drivers/STM32F4xx_HAL_Driver/Inc/stm32f4xx_ll_system.h ****   * @param  ClockSource This parameter can be one of the following values:
 936:Drivers/STM32F4xx_HAL_Driver/Inc/stm32f4xx_ll_system.h ****   *         @arg @ref LL_SYSCFG_DFSDM1_CKOUT
 937:Drivers/STM32F4xx_HAL_Driver/Inc/stm32f4xx_ll_system.h ****   *         @arg @ref LL_SYSCFG_DFSDM1_CKOUT_M27
 938:Drivers/STM32F4xx_HAL_Driver/Inc/stm32f4xx_ll_system.h ****   * @retval None
 939:Drivers/STM32F4xx_HAL_Driver/Inc/stm32f4xx_ll_system.h ****   */
 940:Drivers/STM32F4xx_HAL_Driver/Inc/stm32f4xx_ll_system.h **** __STATIC_INLINE void LL_SYSCFG_DFSDM1_SetClockOutSourceSelection(uint32_t ClockSource)
 941:Drivers/STM32F4xx_HAL_Driver/Inc/stm32f4xx_ll_system.h **** {
 942:Drivers/STM32F4xx_HAL_Driver/Inc/stm32f4xx_ll_system.h ****   MODIFY_REG(SYSCFG->MCHDLYCR, SYSCFG_MCHDLYCR_DFSDM1CKOSEL, ClockSource);
 943:Drivers/STM32F4xx_HAL_Driver/Inc/stm32f4xx_ll_system.h **** }
 944:Drivers/STM32F4xx_HAL_Driver/Inc/stm32f4xx_ll_system.h **** /**
 945:Drivers/STM32F4xx_HAL_Driver/Inc/stm32f4xx_ll_system.h ****   * @brief  GET the DFSDM1 Clock Out
 946:Drivers/STM32F4xx_HAL_Driver/Inc/stm32f4xx_ll_system.h ****   * @rmtoll SYSCFG_MCHDLYCR DFSDM1CKOSEL       LL_SYSCFG_DFSDM1_GetClockOutSourceSelection
 947:Drivers/STM32F4xx_HAL_Driver/Inc/stm32f4xx_ll_system.h ****   * @retval Returned value can be one of the following values:
 948:Drivers/STM32F4xx_HAL_Driver/Inc/stm32f4xx_ll_system.h ****   *         @arg @ref LL_SYSCFG_DFSDM1_CKOUT
 949:Drivers/STM32F4xx_HAL_Driver/Inc/stm32f4xx_ll_system.h ****   *         @arg @ref LL_SYSCFG_DFSDM1_CKOUT_M27
 950:Drivers/STM32F4xx_HAL_Driver/Inc/stm32f4xx_ll_system.h ****   * @retval None
 951:Drivers/STM32F4xx_HAL_Driver/Inc/stm32f4xx_ll_system.h ****   */
 952:Drivers/STM32F4xx_HAL_Driver/Inc/stm32f4xx_ll_system.h **** __STATIC_INLINE uint32_t LL_SYSCFG_DFSDM1_GetClockOutSourceSelection(void)
 953:Drivers/STM32F4xx_HAL_Driver/Inc/stm32f4xx_ll_system.h **** {
 954:Drivers/STM32F4xx_HAL_Driver/Inc/stm32f4xx_ll_system.h ****   return (uint32_t)(READ_BIT(SYSCFG->MCHDLYCR, SYSCFG_MCHDLYCR_DFSDM1CKOSEL));
 955:Drivers/STM32F4xx_HAL_Driver/Inc/stm32f4xx_ll_system.h **** }
 956:Drivers/STM32F4xx_HAL_Driver/Inc/stm32f4xx_ll_system.h **** 
 957:Drivers/STM32F4xx_HAL_Driver/Inc/stm32f4xx_ll_system.h **** /**
 958:Drivers/STM32F4xx_HAL_Driver/Inc/stm32f4xx_ll_system.h ****   * @brief  Enables the DFSDM2 Delay clock
 959:Drivers/STM32F4xx_HAL_Driver/Inc/stm32f4xx_ll_system.h ****   * @rmtoll SYSCFG_MCHDLYCR MCHDLY2EN      LL_SYSCFG_DFSDM2_EnableDelayClock
 960:Drivers/STM32F4xx_HAL_Driver/Inc/stm32f4xx_ll_system.h ****   * @retval None
 961:Drivers/STM32F4xx_HAL_Driver/Inc/stm32f4xx_ll_system.h ****   */
 962:Drivers/STM32F4xx_HAL_Driver/Inc/stm32f4xx_ll_system.h **** __STATIC_INLINE void LL_SYSCFG_DFSDM2_EnableDelayClock(void)
 963:Drivers/STM32F4xx_HAL_Driver/Inc/stm32f4xx_ll_system.h **** {
 964:Drivers/STM32F4xx_HAL_Driver/Inc/stm32f4xx_ll_system.h ****   SET_BIT(SYSCFG->MCHDLYCR, SYSCFG_MCHDLYCR_MCHDLY2EN);
 965:Drivers/STM32F4xx_HAL_Driver/Inc/stm32f4xx_ll_system.h **** }
 966:Drivers/STM32F4xx_HAL_Driver/Inc/stm32f4xx_ll_system.h **** 
 967:Drivers/STM32F4xx_HAL_Driver/Inc/stm32f4xx_ll_system.h **** /**
 968:Drivers/STM32F4xx_HAL_Driver/Inc/stm32f4xx_ll_system.h ****   * @brief  Disables the DFSDM2 Delay clock
 969:Drivers/STM32F4xx_HAL_Driver/Inc/stm32f4xx_ll_system.h ****   * @rmtoll SYSCFG_MCHDLYCR MCHDLY2EN      LL_SYSCFG_DFSDM2_DisableDelayClock
 970:Drivers/STM32F4xx_HAL_Driver/Inc/stm32f4xx_ll_system.h ****   * @retval None
 971:Drivers/STM32F4xx_HAL_Driver/Inc/stm32f4xx_ll_system.h ****   */
 972:Drivers/STM32F4xx_HAL_Driver/Inc/stm32f4xx_ll_system.h **** __STATIC_INLINE void LL_SYSCFG_DFSDM2_DisableDelayClock(void)
 973:Drivers/STM32F4xx_HAL_Driver/Inc/stm32f4xx_ll_system.h **** {
 974:Drivers/STM32F4xx_HAL_Driver/Inc/stm32f4xx_ll_system.h ****   CLEAR_BIT(SYSCFG->MCHDLYCR, SYSCFG_MCHDLYCR_MCHDLY2EN);
 975:Drivers/STM32F4xx_HAL_Driver/Inc/stm32f4xx_ll_system.h **** }
 976:Drivers/STM32F4xx_HAL_Driver/Inc/stm32f4xx_ll_system.h **** /**
 977:Drivers/STM32F4xx_HAL_Driver/Inc/stm32f4xx_ll_system.h ****   * @brief  Select the source for DFSDM2 DatIn0 
 978:Drivers/STM32F4xx_HAL_Driver/Inc/stm32f4xx_ll_system.h ****   * @rmtoll SYSCFG_MCHDLYCR DFSDM2D0SEL        LL_SYSCFG_DFSDM2_SetDataIn0Source
 979:Drivers/STM32F4xx_HAL_Driver/Inc/stm32f4xx_ll_system.h ****   * @param  Source This parameter can be one of the following values:
 980:Drivers/STM32F4xx_HAL_Driver/Inc/stm32f4xx_ll_system.h ****   *         @arg @ref LL_SYSCFG_DFSDM2_DataIn0_PAD
 981:Drivers/STM32F4xx_HAL_Driver/Inc/stm32f4xx_ll_system.h ****   *         @arg @ref LL_SYSCFG_DFSDM2_DataIn0_DM
 982:Drivers/STM32F4xx_HAL_Driver/Inc/stm32f4xx_ll_system.h ****   * @retval None
 983:Drivers/STM32F4xx_HAL_Driver/Inc/stm32f4xx_ll_system.h ****   */
ARM GAS  /tmp/ccvq1yeG.s 			page 22


 984:Drivers/STM32F4xx_HAL_Driver/Inc/stm32f4xx_ll_system.h **** __STATIC_INLINE void LL_SYSCFG_DFSDM2_SetDataIn0Source(uint32_t Source)
 985:Drivers/STM32F4xx_HAL_Driver/Inc/stm32f4xx_ll_system.h **** {
 986:Drivers/STM32F4xx_HAL_Driver/Inc/stm32f4xx_ll_system.h ****   MODIFY_REG(SYSCFG->MCHDLYCR, SYSCFG_MCHDLYCR_DFSDM2D0SEL, Source);
 987:Drivers/STM32F4xx_HAL_Driver/Inc/stm32f4xx_ll_system.h **** }
 988:Drivers/STM32F4xx_HAL_Driver/Inc/stm32f4xx_ll_system.h **** /**
 989:Drivers/STM32F4xx_HAL_Driver/Inc/stm32f4xx_ll_system.h ****   * @brief  Get the source for DFSDM2 DatIn0.
 990:Drivers/STM32F4xx_HAL_Driver/Inc/stm32f4xx_ll_system.h ****   * @rmtoll SYSCFG_MCHDLYCR DFSDM2D0SEL       LL_SYSCFG_DFSDM2_GetDataIn0Source
 991:Drivers/STM32F4xx_HAL_Driver/Inc/stm32f4xx_ll_system.h ****   * @retval Returned value can be one of the following values:
 992:Drivers/STM32F4xx_HAL_Driver/Inc/stm32f4xx_ll_system.h ****   *         @arg @ref LL_SYSCFG_DFSDM2_DataIn0_PAD
 993:Drivers/STM32F4xx_HAL_Driver/Inc/stm32f4xx_ll_system.h ****   *         @arg @ref LL_SYSCFG_DFSDM2_DataIn0_DM
 994:Drivers/STM32F4xx_HAL_Driver/Inc/stm32f4xx_ll_system.h ****   * @retval None
 995:Drivers/STM32F4xx_HAL_Driver/Inc/stm32f4xx_ll_system.h ****   */
 996:Drivers/STM32F4xx_HAL_Driver/Inc/stm32f4xx_ll_system.h **** __STATIC_INLINE uint32_t LL_SYSCFG_DFSDM2_GetDataIn0Source(void)
 997:Drivers/STM32F4xx_HAL_Driver/Inc/stm32f4xx_ll_system.h **** {
 998:Drivers/STM32F4xx_HAL_Driver/Inc/stm32f4xx_ll_system.h ****   return (uint32_t)(READ_BIT(SYSCFG->MCHDLYCR, SYSCFG_MCHDLYCR_DFSDM2D0SEL));
 999:Drivers/STM32F4xx_HAL_Driver/Inc/stm32f4xx_ll_system.h **** }
1000:Drivers/STM32F4xx_HAL_Driver/Inc/stm32f4xx_ll_system.h **** 
1001:Drivers/STM32F4xx_HAL_Driver/Inc/stm32f4xx_ll_system.h **** /**
1002:Drivers/STM32F4xx_HAL_Driver/Inc/stm32f4xx_ll_system.h ****   * @brief  Select the source for DFSDM2 DatIn2 
1003:Drivers/STM32F4xx_HAL_Driver/Inc/stm32f4xx_ll_system.h ****   * @rmtoll SYSCFG_MCHDLYCR DFSDM2D2SEL        LL_SYSCFG_DFSDM2_SetDataIn2Source
1004:Drivers/STM32F4xx_HAL_Driver/Inc/stm32f4xx_ll_system.h ****   * @param  Source This parameter can be one of the following values:
1005:Drivers/STM32F4xx_HAL_Driver/Inc/stm32f4xx_ll_system.h ****   *         @arg @ref LL_SYSCFG_DFSDM2_DataIn2_PAD
1006:Drivers/STM32F4xx_HAL_Driver/Inc/stm32f4xx_ll_system.h ****   *         @arg @ref LL_SYSCFG_DFSDM2_DataIn2_DM
1007:Drivers/STM32F4xx_HAL_Driver/Inc/stm32f4xx_ll_system.h ****   * @retval None
1008:Drivers/STM32F4xx_HAL_Driver/Inc/stm32f4xx_ll_system.h ****   */
1009:Drivers/STM32F4xx_HAL_Driver/Inc/stm32f4xx_ll_system.h **** __STATIC_INLINE void LL_SYSCFG_DFSDM2_SetDataIn2Source(uint32_t Source)
1010:Drivers/STM32F4xx_HAL_Driver/Inc/stm32f4xx_ll_system.h **** {
1011:Drivers/STM32F4xx_HAL_Driver/Inc/stm32f4xx_ll_system.h ****   MODIFY_REG(SYSCFG->MCHDLYCR, SYSCFG_MCHDLYCR_DFSDM2D2SEL, Source);
1012:Drivers/STM32F4xx_HAL_Driver/Inc/stm32f4xx_ll_system.h **** }
1013:Drivers/STM32F4xx_HAL_Driver/Inc/stm32f4xx_ll_system.h **** /**
1014:Drivers/STM32F4xx_HAL_Driver/Inc/stm32f4xx_ll_system.h ****   * @brief  Get the source for DFSDM2 DatIn2.
1015:Drivers/STM32F4xx_HAL_Driver/Inc/stm32f4xx_ll_system.h ****   * @rmtoll SYSCFG_MCHDLYCR DFSDM2D2SEL       LL_SYSCFG_DFSDM2_GetDataIn2Source
1016:Drivers/STM32F4xx_HAL_Driver/Inc/stm32f4xx_ll_system.h ****   * @retval Returned value can be one of the following values:
1017:Drivers/STM32F4xx_HAL_Driver/Inc/stm32f4xx_ll_system.h ****   *         @arg @ref LL_SYSCFG_DFSDM2_DataIn2_PAD
1018:Drivers/STM32F4xx_HAL_Driver/Inc/stm32f4xx_ll_system.h ****   *         @arg @ref LL_SYSCFG_DFSDM2_DataIn2_DM
1019:Drivers/STM32F4xx_HAL_Driver/Inc/stm32f4xx_ll_system.h ****   * @retval None
1020:Drivers/STM32F4xx_HAL_Driver/Inc/stm32f4xx_ll_system.h ****   */
1021:Drivers/STM32F4xx_HAL_Driver/Inc/stm32f4xx_ll_system.h **** __STATIC_INLINE uint32_t LL_SYSCFG_DFSDM2_GetDataIn2Source(void)
1022:Drivers/STM32F4xx_HAL_Driver/Inc/stm32f4xx_ll_system.h **** {
1023:Drivers/STM32F4xx_HAL_Driver/Inc/stm32f4xx_ll_system.h ****   return (uint32_t)(READ_BIT(SYSCFG->MCHDLYCR, SYSCFG_MCHDLYCR_DFSDM2D2SEL));
1024:Drivers/STM32F4xx_HAL_Driver/Inc/stm32f4xx_ll_system.h **** }
1025:Drivers/STM32F4xx_HAL_Driver/Inc/stm32f4xx_ll_system.h **** 
1026:Drivers/STM32F4xx_HAL_Driver/Inc/stm32f4xx_ll_system.h **** /**
1027:Drivers/STM32F4xx_HAL_Driver/Inc/stm32f4xx_ll_system.h ****   * @brief  Select the source for DFSDM2 DatIn4 
1028:Drivers/STM32F4xx_HAL_Driver/Inc/stm32f4xx_ll_system.h ****   * @rmtoll SYSCFG_MCHDLYCR DFSDM2D4SEL        LL_SYSCFG_DFSDM2_SetDataIn4Source
1029:Drivers/STM32F4xx_HAL_Driver/Inc/stm32f4xx_ll_system.h ****   * @param  Source This parameter can be one of the following values:
1030:Drivers/STM32F4xx_HAL_Driver/Inc/stm32f4xx_ll_system.h ****   *         @arg @ref LL_SYSCFG_DFSDM2_DataIn4_PAD
1031:Drivers/STM32F4xx_HAL_Driver/Inc/stm32f4xx_ll_system.h ****   *         @arg @ref LL_SYSCFG_DFSDM2_DataIn4_DM
1032:Drivers/STM32F4xx_HAL_Driver/Inc/stm32f4xx_ll_system.h ****   * @retval None
1033:Drivers/STM32F4xx_HAL_Driver/Inc/stm32f4xx_ll_system.h ****   */
1034:Drivers/STM32F4xx_HAL_Driver/Inc/stm32f4xx_ll_system.h **** __STATIC_INLINE void LL_SYSCFG_DFSDM2_SetDataIn4Source(uint32_t Source)
1035:Drivers/STM32F4xx_HAL_Driver/Inc/stm32f4xx_ll_system.h **** {
1036:Drivers/STM32F4xx_HAL_Driver/Inc/stm32f4xx_ll_system.h ****   MODIFY_REG(SYSCFG->MCHDLYCR, SYSCFG_MCHDLYCR_DFSDM2D4SEL, Source);
1037:Drivers/STM32F4xx_HAL_Driver/Inc/stm32f4xx_ll_system.h **** }
1038:Drivers/STM32F4xx_HAL_Driver/Inc/stm32f4xx_ll_system.h **** /**
1039:Drivers/STM32F4xx_HAL_Driver/Inc/stm32f4xx_ll_system.h ****   * @brief  Get the source for DFSDM2 DatIn4.
1040:Drivers/STM32F4xx_HAL_Driver/Inc/stm32f4xx_ll_system.h ****   * @rmtoll SYSCFG_MCHDLYCR DFSDM2D4SEL       LL_SYSCFG_DFSDM2_GetDataIn4Source
ARM GAS  /tmp/ccvq1yeG.s 			page 23


1041:Drivers/STM32F4xx_HAL_Driver/Inc/stm32f4xx_ll_system.h ****   * @retval Returned value can be one of the following values:
1042:Drivers/STM32F4xx_HAL_Driver/Inc/stm32f4xx_ll_system.h ****   *         @arg @ref LL_SYSCFG_DFSDM2_DataIn4_PAD
1043:Drivers/STM32F4xx_HAL_Driver/Inc/stm32f4xx_ll_system.h ****   *         @arg @ref LL_SYSCFG_DFSDM2_DataIn4_DM
1044:Drivers/STM32F4xx_HAL_Driver/Inc/stm32f4xx_ll_system.h ****   * @retval None
1045:Drivers/STM32F4xx_HAL_Driver/Inc/stm32f4xx_ll_system.h ****   */
1046:Drivers/STM32F4xx_HAL_Driver/Inc/stm32f4xx_ll_system.h **** __STATIC_INLINE uint32_t LL_SYSCFG_DFSDM2_GetDataIn4Source(void)
1047:Drivers/STM32F4xx_HAL_Driver/Inc/stm32f4xx_ll_system.h **** {
1048:Drivers/STM32F4xx_HAL_Driver/Inc/stm32f4xx_ll_system.h ****   return (uint32_t)(READ_BIT(SYSCFG->MCHDLYCR, SYSCFG_MCHDLYCR_DFSDM2D4SEL));
1049:Drivers/STM32F4xx_HAL_Driver/Inc/stm32f4xx_ll_system.h **** }
1050:Drivers/STM32F4xx_HAL_Driver/Inc/stm32f4xx_ll_system.h **** 
1051:Drivers/STM32F4xx_HAL_Driver/Inc/stm32f4xx_ll_system.h **** /**
1052:Drivers/STM32F4xx_HAL_Driver/Inc/stm32f4xx_ll_system.h ****   * @brief  Select the source for DFSDM2 DatIn6 
1053:Drivers/STM32F4xx_HAL_Driver/Inc/stm32f4xx_ll_system.h ****   * @rmtoll SYSCFG_MCHDLYCR DFSDM2D6SEL        LL_SYSCFG_DFSDM2_SetDataIn6Source
1054:Drivers/STM32F4xx_HAL_Driver/Inc/stm32f4xx_ll_system.h ****   * @param  Source This parameter can be one of the following values:
1055:Drivers/STM32F4xx_HAL_Driver/Inc/stm32f4xx_ll_system.h ****   *         @arg @ref LL_SYSCFG_DFSDM2_DataIn6_PAD
1056:Drivers/STM32F4xx_HAL_Driver/Inc/stm32f4xx_ll_system.h ****   *         @arg @ref LL_SYSCFG_DFSDM2_DataIn6_DM
1057:Drivers/STM32F4xx_HAL_Driver/Inc/stm32f4xx_ll_system.h ****   * @retval None
1058:Drivers/STM32F4xx_HAL_Driver/Inc/stm32f4xx_ll_system.h ****   */
1059:Drivers/STM32F4xx_HAL_Driver/Inc/stm32f4xx_ll_system.h **** __STATIC_INLINE void LL_SYSCFG_DFSDM2_SetDataIn6Source(uint32_t Source)
1060:Drivers/STM32F4xx_HAL_Driver/Inc/stm32f4xx_ll_system.h **** {
1061:Drivers/STM32F4xx_HAL_Driver/Inc/stm32f4xx_ll_system.h ****   MODIFY_REG(SYSCFG->MCHDLYCR, SYSCFG_MCHDLYCR_DFSDM2D6SEL, Source);
1062:Drivers/STM32F4xx_HAL_Driver/Inc/stm32f4xx_ll_system.h **** }
1063:Drivers/STM32F4xx_HAL_Driver/Inc/stm32f4xx_ll_system.h **** /**
1064:Drivers/STM32F4xx_HAL_Driver/Inc/stm32f4xx_ll_system.h ****   * @brief  Get the source for DFSDM2 DatIn6.
1065:Drivers/STM32F4xx_HAL_Driver/Inc/stm32f4xx_ll_system.h ****   * @rmtoll SYSCFG_MCHDLYCR DFSDM2D6SEL       LL_SYSCFG_DFSDM2_GetDataIn6Source
1066:Drivers/STM32F4xx_HAL_Driver/Inc/stm32f4xx_ll_system.h ****   * @retval Returned value can be one of the following values:
1067:Drivers/STM32F4xx_HAL_Driver/Inc/stm32f4xx_ll_system.h ****   *         @arg @ref LL_SYSCFG_DFSDM2_DataIn6_PAD
1068:Drivers/STM32F4xx_HAL_Driver/Inc/stm32f4xx_ll_system.h ****   *         @arg @ref LL_SYSCFG_DFSDM2_DataIn6_DM
1069:Drivers/STM32F4xx_HAL_Driver/Inc/stm32f4xx_ll_system.h ****   * @retval None
1070:Drivers/STM32F4xx_HAL_Driver/Inc/stm32f4xx_ll_system.h ****   */
1071:Drivers/STM32F4xx_HAL_Driver/Inc/stm32f4xx_ll_system.h **** __STATIC_INLINE uint32_t LL_SYSCFG_DFSDM2_GetDataIn6Source(void)
1072:Drivers/STM32F4xx_HAL_Driver/Inc/stm32f4xx_ll_system.h **** {
1073:Drivers/STM32F4xx_HAL_Driver/Inc/stm32f4xx_ll_system.h ****   return (uint32_t)(READ_BIT(SYSCFG->MCHDLYCR, SYSCFG_MCHDLYCR_DFSDM2D6SEL));
1074:Drivers/STM32F4xx_HAL_Driver/Inc/stm32f4xx_ll_system.h **** }
1075:Drivers/STM32F4xx_HAL_Driver/Inc/stm32f4xx_ll_system.h **** 
1076:Drivers/STM32F4xx_HAL_Driver/Inc/stm32f4xx_ll_system.h **** /**
1077:Drivers/STM32F4xx_HAL_Driver/Inc/stm32f4xx_ll_system.h ****   * @brief  Select the distribution of the bitsream lock gated by TIM3 OC4 
1078:Drivers/STM32F4xx_HAL_Driver/Inc/stm32f4xx_ll_system.h ****   * @rmtoll SYSCFG_MCHDLYCR DFSDM2CK04SEL        LL_SYSCFG_DFSDM2_SetTIM3OC4BitStreamDistribution
1079:Drivers/STM32F4xx_HAL_Driver/Inc/stm32f4xx_ll_system.h ****   * @param  Source This parameter can be one of the following values:
1080:Drivers/STM32F4xx_HAL_Driver/Inc/stm32f4xx_ll_system.h ****   *         @arg @ref LL_SYSCFG_DFSDM2_TIM3OC4_CLKIN0
1081:Drivers/STM32F4xx_HAL_Driver/Inc/stm32f4xx_ll_system.h ****   *         @arg @ref LL_SYSCFG_DFSDM2_TIM3OC4_CLKIN4
1082:Drivers/STM32F4xx_HAL_Driver/Inc/stm32f4xx_ll_system.h ****   * @retval None
1083:Drivers/STM32F4xx_HAL_Driver/Inc/stm32f4xx_ll_system.h ****   */
1084:Drivers/STM32F4xx_HAL_Driver/Inc/stm32f4xx_ll_system.h **** __STATIC_INLINE void LL_SYSCFG_DFSDM2_SetTIM3OC4BitStreamDistribution(uint32_t Source)
1085:Drivers/STM32F4xx_HAL_Driver/Inc/stm32f4xx_ll_system.h **** {
1086:Drivers/STM32F4xx_HAL_Driver/Inc/stm32f4xx_ll_system.h ****   MODIFY_REG(SYSCFG->MCHDLYCR, SYSCFG_MCHDLYCR_DFSDM2CK04SEL, Source);
1087:Drivers/STM32F4xx_HAL_Driver/Inc/stm32f4xx_ll_system.h **** }
1088:Drivers/STM32F4xx_HAL_Driver/Inc/stm32f4xx_ll_system.h **** /**
1089:Drivers/STM32F4xx_HAL_Driver/Inc/stm32f4xx_ll_system.h ****   * @brief  Get the distribution of the bitsream lock gated by TIM3 OC4 
1090:Drivers/STM32F4xx_HAL_Driver/Inc/stm32f4xx_ll_system.h ****   * @rmtoll SYSCFG_MCHDLYCR DFSDM2CK04SEL       LL_SYSCFG_DFSDM2_GetTIM3OC4BitStreamDistribution
1091:Drivers/STM32F4xx_HAL_Driver/Inc/stm32f4xx_ll_system.h ****   * @retval Returned value can be one of the following values:
1092:Drivers/STM32F4xx_HAL_Driver/Inc/stm32f4xx_ll_system.h ****   *         @arg @ref LL_SYSCFG_DFSDM2_TIM3OC4_CLKIN0
1093:Drivers/STM32F4xx_HAL_Driver/Inc/stm32f4xx_ll_system.h ****   *         @arg @ref LL_SYSCFG_DFSDM2_TIM3OC4_CLKIN4
1094:Drivers/STM32F4xx_HAL_Driver/Inc/stm32f4xx_ll_system.h ****   * @retval None
1095:Drivers/STM32F4xx_HAL_Driver/Inc/stm32f4xx_ll_system.h ****   */
1096:Drivers/STM32F4xx_HAL_Driver/Inc/stm32f4xx_ll_system.h **** __STATIC_INLINE uint32_t LL_SYSCFG_DFSDM2_GetTIM3OC4BitStreamDistribution(void)
1097:Drivers/STM32F4xx_HAL_Driver/Inc/stm32f4xx_ll_system.h **** {
ARM GAS  /tmp/ccvq1yeG.s 			page 24


1098:Drivers/STM32F4xx_HAL_Driver/Inc/stm32f4xx_ll_system.h ****   return (uint32_t)(READ_BIT(SYSCFG->MCHDLYCR, SYSCFG_MCHDLYCR_DFSDM2CK04SEL));
1099:Drivers/STM32F4xx_HAL_Driver/Inc/stm32f4xx_ll_system.h **** }
1100:Drivers/STM32F4xx_HAL_Driver/Inc/stm32f4xx_ll_system.h **** 
1101:Drivers/STM32F4xx_HAL_Driver/Inc/stm32f4xx_ll_system.h **** /**
1102:Drivers/STM32F4xx_HAL_Driver/Inc/stm32f4xx_ll_system.h ****   * @brief  Select the distribution of the bitsream lock gated by TIM3 OC3 
1103:Drivers/STM32F4xx_HAL_Driver/Inc/stm32f4xx_ll_system.h ****   * @rmtoll SYSCFG_MCHDLYCR DFSDM2CK15SEL        LL_SYSCFG_DFSDM2_SetTIM3OC3BitStreamDistribution
1104:Drivers/STM32F4xx_HAL_Driver/Inc/stm32f4xx_ll_system.h ****   * @param  Source This parameter can be one of the following values:
1105:Drivers/STM32F4xx_HAL_Driver/Inc/stm32f4xx_ll_system.h ****   *         @arg @ref LL_SYSCFG_DFSDM2_TIM3OC3_CLKIN1
1106:Drivers/STM32F4xx_HAL_Driver/Inc/stm32f4xx_ll_system.h ****   *         @arg @ref LL_SYSCFG_DFSDM2_TIM3OC3_CLKIN5
1107:Drivers/STM32F4xx_HAL_Driver/Inc/stm32f4xx_ll_system.h ****   * @retval None
1108:Drivers/STM32F4xx_HAL_Driver/Inc/stm32f4xx_ll_system.h ****   */
1109:Drivers/STM32F4xx_HAL_Driver/Inc/stm32f4xx_ll_system.h **** __STATIC_INLINE void LL_SYSCFG_DFSDM2_SetTIM3OC3BitStreamDistribution(uint32_t Source)
1110:Drivers/STM32F4xx_HAL_Driver/Inc/stm32f4xx_ll_system.h **** {
1111:Drivers/STM32F4xx_HAL_Driver/Inc/stm32f4xx_ll_system.h ****   MODIFY_REG(SYSCFG->MCHDLYCR, SYSCFG_MCHDLYCR_DFSDM2CK15SEL, Source);
1112:Drivers/STM32F4xx_HAL_Driver/Inc/stm32f4xx_ll_system.h **** }
1113:Drivers/STM32F4xx_HAL_Driver/Inc/stm32f4xx_ll_system.h **** /**
1114:Drivers/STM32F4xx_HAL_Driver/Inc/stm32f4xx_ll_system.h ****   * @brief  Get the distribution of the bitsream lock gated by TIM3 OC4 
1115:Drivers/STM32F4xx_HAL_Driver/Inc/stm32f4xx_ll_system.h ****   * @rmtoll SYSCFG_MCHDLYCR DFSDM2CK04SEL       LL_SYSCFG_DFSDM2_GetTIM3OC3BitStreamDistribution
1116:Drivers/STM32F4xx_HAL_Driver/Inc/stm32f4xx_ll_system.h ****   * @retval Returned value can be one of the following values:
1117:Drivers/STM32F4xx_HAL_Driver/Inc/stm32f4xx_ll_system.h ****   *         @arg @ref LL_SYSCFG_DFSDM2_TIM3OC3_CLKIN1
1118:Drivers/STM32F4xx_HAL_Driver/Inc/stm32f4xx_ll_system.h ****   *         @arg @ref LL_SYSCFG_DFSDM2_TIM3OC3_CLKIN5
1119:Drivers/STM32F4xx_HAL_Driver/Inc/stm32f4xx_ll_system.h ****   * @retval None
1120:Drivers/STM32F4xx_HAL_Driver/Inc/stm32f4xx_ll_system.h ****   */
1121:Drivers/STM32F4xx_HAL_Driver/Inc/stm32f4xx_ll_system.h **** __STATIC_INLINE uint32_t LL_SYSCFG_DFSDM2_GetTIM3OC3BitStreamDistribution(void)
1122:Drivers/STM32F4xx_HAL_Driver/Inc/stm32f4xx_ll_system.h **** {
1123:Drivers/STM32F4xx_HAL_Driver/Inc/stm32f4xx_ll_system.h ****   return (uint32_t)(READ_BIT(SYSCFG->MCHDLYCR, SYSCFG_MCHDLYCR_DFSDM2CK15SEL));
1124:Drivers/STM32F4xx_HAL_Driver/Inc/stm32f4xx_ll_system.h **** }
1125:Drivers/STM32F4xx_HAL_Driver/Inc/stm32f4xx_ll_system.h **** 
1126:Drivers/STM32F4xx_HAL_Driver/Inc/stm32f4xx_ll_system.h **** /**
1127:Drivers/STM32F4xx_HAL_Driver/Inc/stm32f4xx_ll_system.h ****   * @brief  Select the distribution of the bitsream lock gated by TIM3 OC2 
1128:Drivers/STM32F4xx_HAL_Driver/Inc/stm32f4xx_ll_system.h ****   * @rmtoll SYSCFG_MCHDLYCR DFSDM2CK26SEL        LL_SYSCFG_DFSDM2_SetTIM3OC2BitStreamDistribution
1129:Drivers/STM32F4xx_HAL_Driver/Inc/stm32f4xx_ll_system.h ****   * @param  Source This parameter can be one of the following values:
1130:Drivers/STM32F4xx_HAL_Driver/Inc/stm32f4xx_ll_system.h ****   *         @arg @ref LL_SYSCFG_DFSDM2_TIM3OC2_CLKIN2
1131:Drivers/STM32F4xx_HAL_Driver/Inc/stm32f4xx_ll_system.h ****   *         @arg @ref LL_SYSCFG_DFSDM2_TIM3OC2_CLKIN6
1132:Drivers/STM32F4xx_HAL_Driver/Inc/stm32f4xx_ll_system.h ****   * @retval None
1133:Drivers/STM32F4xx_HAL_Driver/Inc/stm32f4xx_ll_system.h ****   */
1134:Drivers/STM32F4xx_HAL_Driver/Inc/stm32f4xx_ll_system.h **** __STATIC_INLINE void LL_SYSCFG_DFSDM2_SetTIM3OC2BitStreamDistribution(uint32_t Source)
1135:Drivers/STM32F4xx_HAL_Driver/Inc/stm32f4xx_ll_system.h **** {
1136:Drivers/STM32F4xx_HAL_Driver/Inc/stm32f4xx_ll_system.h ****   MODIFY_REG(SYSCFG->MCHDLYCR, SYSCFG_MCHDLYCR_DFSDM2CK26SEL, Source);
1137:Drivers/STM32F4xx_HAL_Driver/Inc/stm32f4xx_ll_system.h **** }
1138:Drivers/STM32F4xx_HAL_Driver/Inc/stm32f4xx_ll_system.h **** /**
1139:Drivers/STM32F4xx_HAL_Driver/Inc/stm32f4xx_ll_system.h ****   * @brief  Get the distribution of the bitsream lock gated by TIM3 OC2 
1140:Drivers/STM32F4xx_HAL_Driver/Inc/stm32f4xx_ll_system.h ****   * @rmtoll SYSCFG_MCHDLYCR DFSDM2CK04SEL       LL_SYSCFG_DFSDM2_GetTIM3OC2BitStreamDistribution
1141:Drivers/STM32F4xx_HAL_Driver/Inc/stm32f4xx_ll_system.h ****   * @retval Returned value can be one of the following values:
1142:Drivers/STM32F4xx_HAL_Driver/Inc/stm32f4xx_ll_system.h ****   *         @arg @ref LL_SYSCFG_DFSDM2_TIM3OC2_CLKIN2
1143:Drivers/STM32F4xx_HAL_Driver/Inc/stm32f4xx_ll_system.h ****   *         @arg @ref LL_SYSCFG_DFSDM2_TIM3OC2_CLKIN6
1144:Drivers/STM32F4xx_HAL_Driver/Inc/stm32f4xx_ll_system.h ****   * @retval None
1145:Drivers/STM32F4xx_HAL_Driver/Inc/stm32f4xx_ll_system.h ****   */
1146:Drivers/STM32F4xx_HAL_Driver/Inc/stm32f4xx_ll_system.h **** __STATIC_INLINE uint32_t LL_SYSCFG_DFSDM2_GetTIM3OC2BitStreamDistribution(void)
1147:Drivers/STM32F4xx_HAL_Driver/Inc/stm32f4xx_ll_system.h **** {
1148:Drivers/STM32F4xx_HAL_Driver/Inc/stm32f4xx_ll_system.h ****   return (uint32_t)(READ_BIT(SYSCFG->MCHDLYCR, SYSCFG_MCHDLYCR_DFSDM2CK26SEL));
1149:Drivers/STM32F4xx_HAL_Driver/Inc/stm32f4xx_ll_system.h **** }
1150:Drivers/STM32F4xx_HAL_Driver/Inc/stm32f4xx_ll_system.h **** 
1151:Drivers/STM32F4xx_HAL_Driver/Inc/stm32f4xx_ll_system.h **** /**
1152:Drivers/STM32F4xx_HAL_Driver/Inc/stm32f4xx_ll_system.h ****   * @brief  Select the distribution of the bitsream lock gated by TIM3 OC1 
1153:Drivers/STM32F4xx_HAL_Driver/Inc/stm32f4xx_ll_system.h ****   * @rmtoll SYSCFG_MCHDLYCR DFSDM2CK37SEL        LL_SYSCFG_DFSDM2_SetTIM3OC1BitStreamDistribution
1154:Drivers/STM32F4xx_HAL_Driver/Inc/stm32f4xx_ll_system.h ****   * @param  Source This parameter can be one of the following values:
ARM GAS  /tmp/ccvq1yeG.s 			page 25


1155:Drivers/STM32F4xx_HAL_Driver/Inc/stm32f4xx_ll_system.h ****   *         @arg @ref LL_SYSCFG_DFSDM2_TIM3OC1_CLKIN3
1156:Drivers/STM32F4xx_HAL_Driver/Inc/stm32f4xx_ll_system.h ****   *         @arg @ref LL_SYSCFG_DFSDM2_TIM3OC1_CLKIN7
1157:Drivers/STM32F4xx_HAL_Driver/Inc/stm32f4xx_ll_system.h ****   * @retval None
1158:Drivers/STM32F4xx_HAL_Driver/Inc/stm32f4xx_ll_system.h ****   */
1159:Drivers/STM32F4xx_HAL_Driver/Inc/stm32f4xx_ll_system.h **** __STATIC_INLINE void LL_SYSCFG_DFSDM2_SetTIM3OC1BitStreamDistribution(uint32_t Source)
1160:Drivers/STM32F4xx_HAL_Driver/Inc/stm32f4xx_ll_system.h **** {
1161:Drivers/STM32F4xx_HAL_Driver/Inc/stm32f4xx_ll_system.h ****   MODIFY_REG(SYSCFG->MCHDLYCR, SYSCFG_MCHDLYCR_DFSDM2CK37SEL, Source);
1162:Drivers/STM32F4xx_HAL_Driver/Inc/stm32f4xx_ll_system.h **** }
1163:Drivers/STM32F4xx_HAL_Driver/Inc/stm32f4xx_ll_system.h **** /**
1164:Drivers/STM32F4xx_HAL_Driver/Inc/stm32f4xx_ll_system.h ****   * @brief  Get the distribution of the bitsream lock gated by TIM3 OC1 
1165:Drivers/STM32F4xx_HAL_Driver/Inc/stm32f4xx_ll_system.h ****   * @rmtoll SYSCFG_MCHDLYCR DFSDM2CK37SEL       LL_SYSCFG_DFSDM2_GetTIM3OC1BitStreamDistribution
1166:Drivers/STM32F4xx_HAL_Driver/Inc/stm32f4xx_ll_system.h ****   * @retval Returned value can be one of the following values:
1167:Drivers/STM32F4xx_HAL_Driver/Inc/stm32f4xx_ll_system.h ****   *         @arg @ref LL_SYSCFG_DFSDM2_TIM3OC1_CLKIN3
1168:Drivers/STM32F4xx_HAL_Driver/Inc/stm32f4xx_ll_system.h ****   *         @arg @ref LL_SYSCFG_DFSDM2_TIM3OC1_CLKIN7
1169:Drivers/STM32F4xx_HAL_Driver/Inc/stm32f4xx_ll_system.h ****   * @retval None
1170:Drivers/STM32F4xx_HAL_Driver/Inc/stm32f4xx_ll_system.h ****   */
1171:Drivers/STM32F4xx_HAL_Driver/Inc/stm32f4xx_ll_system.h **** __STATIC_INLINE uint32_t LL_SYSCFG_DFSDM2_GetTIM3OC1BitStreamDistribution(void)
1172:Drivers/STM32F4xx_HAL_Driver/Inc/stm32f4xx_ll_system.h **** {
1173:Drivers/STM32F4xx_HAL_Driver/Inc/stm32f4xx_ll_system.h ****   return (uint32_t)(READ_BIT(SYSCFG->MCHDLYCR, SYSCFG_MCHDLYCR_DFSDM2CK37SEL));
1174:Drivers/STM32F4xx_HAL_Driver/Inc/stm32f4xx_ll_system.h **** }
1175:Drivers/STM32F4xx_HAL_Driver/Inc/stm32f4xx_ll_system.h **** 
1176:Drivers/STM32F4xx_HAL_Driver/Inc/stm32f4xx_ll_system.h **** /**
1177:Drivers/STM32F4xx_HAL_Driver/Inc/stm32f4xx_ll_system.h ****   * @brief  Select the DFSDM2 Clock In 
1178:Drivers/STM32F4xx_HAL_Driver/Inc/stm32f4xx_ll_system.h ****   * @rmtoll SYSCFG_MCHDLYCR DFSDM2CFG        LL_SYSCFG_DFSDM2_SetClockInSourceSelection
1179:Drivers/STM32F4xx_HAL_Driver/Inc/stm32f4xx_ll_system.h ****   * @param  ClockSource This parameter can be one of the following values:
1180:Drivers/STM32F4xx_HAL_Driver/Inc/stm32f4xx_ll_system.h ****   *         @arg @ref LL_SYSCFG_DFSDM2_CKIN_PAD
1181:Drivers/STM32F4xx_HAL_Driver/Inc/stm32f4xx_ll_system.h ****   *         @arg @ref LL_SYSCFG_DFSDM2_CKIN_DM
1182:Drivers/STM32F4xx_HAL_Driver/Inc/stm32f4xx_ll_system.h ****   * @retval None
1183:Drivers/STM32F4xx_HAL_Driver/Inc/stm32f4xx_ll_system.h ****   */
1184:Drivers/STM32F4xx_HAL_Driver/Inc/stm32f4xx_ll_system.h **** __STATIC_INLINE void LL_SYSCFG_DFSDM2_SetClockInSourceSelection(uint32_t ClockSource)
1185:Drivers/STM32F4xx_HAL_Driver/Inc/stm32f4xx_ll_system.h **** {
1186:Drivers/STM32F4xx_HAL_Driver/Inc/stm32f4xx_ll_system.h ****   MODIFY_REG(SYSCFG->MCHDLYCR, SYSCFG_MCHDLYCR_DFSDM2CFG, ClockSource);
1187:Drivers/STM32F4xx_HAL_Driver/Inc/stm32f4xx_ll_system.h **** }
1188:Drivers/STM32F4xx_HAL_Driver/Inc/stm32f4xx_ll_system.h **** /**
1189:Drivers/STM32F4xx_HAL_Driver/Inc/stm32f4xx_ll_system.h ****   * @brief  GET the DFSDM2 Clock In
1190:Drivers/STM32F4xx_HAL_Driver/Inc/stm32f4xx_ll_system.h ****   * @rmtoll SYSCFG_MCHDLYCR DFSDM2CFG       LL_SYSCFG_DFSDM2_GetClockInSourceSelection
1191:Drivers/STM32F4xx_HAL_Driver/Inc/stm32f4xx_ll_system.h ****   * @retval Returned value can be one of the following values:
1192:Drivers/STM32F4xx_HAL_Driver/Inc/stm32f4xx_ll_system.h ****   *         @arg @ref LL_SYSCFG_DFSDM2_CKIN_PAD
1193:Drivers/STM32F4xx_HAL_Driver/Inc/stm32f4xx_ll_system.h ****   *         @arg @ref LL_SYSCFG_DFSDM2_CKIN_DM
1194:Drivers/STM32F4xx_HAL_Driver/Inc/stm32f4xx_ll_system.h ****   * @retval None
1195:Drivers/STM32F4xx_HAL_Driver/Inc/stm32f4xx_ll_system.h ****   */
1196:Drivers/STM32F4xx_HAL_Driver/Inc/stm32f4xx_ll_system.h **** __STATIC_INLINE uint32_t LL_SYSCFG_DFSDM2_GetClockInSourceSelection(void)
1197:Drivers/STM32F4xx_HAL_Driver/Inc/stm32f4xx_ll_system.h **** {
1198:Drivers/STM32F4xx_HAL_Driver/Inc/stm32f4xx_ll_system.h ****   return (uint32_t)(READ_BIT(SYSCFG->MCHDLYCR, SYSCFG_MCHDLYCR_DFSDM2CFG));
1199:Drivers/STM32F4xx_HAL_Driver/Inc/stm32f4xx_ll_system.h **** }
1200:Drivers/STM32F4xx_HAL_Driver/Inc/stm32f4xx_ll_system.h **** 
1201:Drivers/STM32F4xx_HAL_Driver/Inc/stm32f4xx_ll_system.h **** /**
1202:Drivers/STM32F4xx_HAL_Driver/Inc/stm32f4xx_ll_system.h ****   * @brief  Select the DFSDM2 Clock Out 
1203:Drivers/STM32F4xx_HAL_Driver/Inc/stm32f4xx_ll_system.h ****   * @rmtoll SYSCFG_MCHDLYCR DFSDM2CKOSEL        LL_SYSCFG_DFSDM2_SetClockOutSourceSelection
1204:Drivers/STM32F4xx_HAL_Driver/Inc/stm32f4xx_ll_system.h ****   * @param  ClockSource This parameter can be one of the following values:
1205:Drivers/STM32F4xx_HAL_Driver/Inc/stm32f4xx_ll_system.h ****   *         @arg @ref LL_SYSCFG_DFSDM2_CKOUT
1206:Drivers/STM32F4xx_HAL_Driver/Inc/stm32f4xx_ll_system.h ****   *         @arg @ref LL_SYSCFG_DFSDM2_CKOUT_M27
1207:Drivers/STM32F4xx_HAL_Driver/Inc/stm32f4xx_ll_system.h ****   * @retval None
1208:Drivers/STM32F4xx_HAL_Driver/Inc/stm32f4xx_ll_system.h ****   */
1209:Drivers/STM32F4xx_HAL_Driver/Inc/stm32f4xx_ll_system.h **** __STATIC_INLINE void LL_SYSCFG_DFSDM2_SetClockOutSourceSelection(uint32_t ClockSource)
1210:Drivers/STM32F4xx_HAL_Driver/Inc/stm32f4xx_ll_system.h **** {
1211:Drivers/STM32F4xx_HAL_Driver/Inc/stm32f4xx_ll_system.h ****   MODIFY_REG(SYSCFG->MCHDLYCR, SYSCFG_MCHDLYCR_DFSDM2CKOSEL, ClockSource);
ARM GAS  /tmp/ccvq1yeG.s 			page 26


1212:Drivers/STM32F4xx_HAL_Driver/Inc/stm32f4xx_ll_system.h **** }
1213:Drivers/STM32F4xx_HAL_Driver/Inc/stm32f4xx_ll_system.h **** /**
1214:Drivers/STM32F4xx_HAL_Driver/Inc/stm32f4xx_ll_system.h ****   * @brief  GET the DFSDM2 Clock Out
1215:Drivers/STM32F4xx_HAL_Driver/Inc/stm32f4xx_ll_system.h ****   * @rmtoll SYSCFG_MCHDLYCR DFSDM2CKOSEL       LL_SYSCFG_DFSDM2_GetClockOutSourceSelection
1216:Drivers/STM32F4xx_HAL_Driver/Inc/stm32f4xx_ll_system.h ****   * @retval Returned value can be one of the following values:
1217:Drivers/STM32F4xx_HAL_Driver/Inc/stm32f4xx_ll_system.h ****   *         @arg @ref LL_SYSCFG_DFSDM2_CKOUT
1218:Drivers/STM32F4xx_HAL_Driver/Inc/stm32f4xx_ll_system.h ****   *         @arg @ref LL_SYSCFG_DFSDM2_CKOUT_M27
1219:Drivers/STM32F4xx_HAL_Driver/Inc/stm32f4xx_ll_system.h ****   * @retval None
1220:Drivers/STM32F4xx_HAL_Driver/Inc/stm32f4xx_ll_system.h ****   */
1221:Drivers/STM32F4xx_HAL_Driver/Inc/stm32f4xx_ll_system.h **** __STATIC_INLINE uint32_t LL_SYSCFG_DFSDM2_GetClockOutSourceSelection(void)
1222:Drivers/STM32F4xx_HAL_Driver/Inc/stm32f4xx_ll_system.h **** {
1223:Drivers/STM32F4xx_HAL_Driver/Inc/stm32f4xx_ll_system.h ****   return (uint32_t)(READ_BIT(SYSCFG->MCHDLYCR, SYSCFG_MCHDLYCR_DFSDM2CKOSEL));
1224:Drivers/STM32F4xx_HAL_Driver/Inc/stm32f4xx_ll_system.h **** }
1225:Drivers/STM32F4xx_HAL_Driver/Inc/stm32f4xx_ll_system.h **** 
1226:Drivers/STM32F4xx_HAL_Driver/Inc/stm32f4xx_ll_system.h **** #endif /* SYSCFG_MCHDLYCR_BSCKSEL */
1227:Drivers/STM32F4xx_HAL_Driver/Inc/stm32f4xx_ll_system.h **** /**
1228:Drivers/STM32F4xx_HAL_Driver/Inc/stm32f4xx_ll_system.h ****   * @}
1229:Drivers/STM32F4xx_HAL_Driver/Inc/stm32f4xx_ll_system.h ****   */
1230:Drivers/STM32F4xx_HAL_Driver/Inc/stm32f4xx_ll_system.h **** 
1231:Drivers/STM32F4xx_HAL_Driver/Inc/stm32f4xx_ll_system.h **** 
1232:Drivers/STM32F4xx_HAL_Driver/Inc/stm32f4xx_ll_system.h **** /** @defgroup SYSTEM_LL_EF_DBGMCU DBGMCU
1233:Drivers/STM32F4xx_HAL_Driver/Inc/stm32f4xx_ll_system.h ****   * @{
1234:Drivers/STM32F4xx_HAL_Driver/Inc/stm32f4xx_ll_system.h ****   */
1235:Drivers/STM32F4xx_HAL_Driver/Inc/stm32f4xx_ll_system.h **** 
1236:Drivers/STM32F4xx_HAL_Driver/Inc/stm32f4xx_ll_system.h **** /**
1237:Drivers/STM32F4xx_HAL_Driver/Inc/stm32f4xx_ll_system.h ****   * @brief  Return the device identifier
1238:Drivers/STM32F4xx_HAL_Driver/Inc/stm32f4xx_ll_system.h ****   * @note For STM32F405/407xx and STM32F415/417xx devices, the device ID is 0x413
1239:Drivers/STM32F4xx_HAL_Driver/Inc/stm32f4xx_ll_system.h ****   * @note For STM32F42xxx and STM32F43xxx devices, the device ID is 0x419
1240:Drivers/STM32F4xx_HAL_Driver/Inc/stm32f4xx_ll_system.h ****   * @note For STM32F401xx devices, the device ID is 0x423
1241:Drivers/STM32F4xx_HAL_Driver/Inc/stm32f4xx_ll_system.h ****   * @note For STM32F401xx devices, the device ID is 0x433
1242:Drivers/STM32F4xx_HAL_Driver/Inc/stm32f4xx_ll_system.h ****   * @note For STM32F411xx devices, the device ID is 0x431
1243:Drivers/STM32F4xx_HAL_Driver/Inc/stm32f4xx_ll_system.h ****   * @note For STM32F410xx devices, the device ID is 0x458
1244:Drivers/STM32F4xx_HAL_Driver/Inc/stm32f4xx_ll_system.h ****   * @note For STM32F412xx devices, the device ID is 0x441
1245:Drivers/STM32F4xx_HAL_Driver/Inc/stm32f4xx_ll_system.h ****   * @note For STM32F413xx and STM32423xx devices, the device ID is 0x463
1246:Drivers/STM32F4xx_HAL_Driver/Inc/stm32f4xx_ll_system.h ****   * @note For STM32F446xx devices, the device ID is 0x421
1247:Drivers/STM32F4xx_HAL_Driver/Inc/stm32f4xx_ll_system.h ****   * @note For STM32F469xx and STM32F479xx devices, the device ID is 0x434
1248:Drivers/STM32F4xx_HAL_Driver/Inc/stm32f4xx_ll_system.h ****   * @rmtoll DBGMCU_IDCODE DEV_ID        LL_DBGMCU_GetDeviceID
1249:Drivers/STM32F4xx_HAL_Driver/Inc/stm32f4xx_ll_system.h ****   * @retval Values between Min_Data=0x00 and Max_Data=0xFFF
1250:Drivers/STM32F4xx_HAL_Driver/Inc/stm32f4xx_ll_system.h ****   */
1251:Drivers/STM32F4xx_HAL_Driver/Inc/stm32f4xx_ll_system.h **** __STATIC_INLINE uint32_t LL_DBGMCU_GetDeviceID(void)
1252:Drivers/STM32F4xx_HAL_Driver/Inc/stm32f4xx_ll_system.h **** {
1253:Drivers/STM32F4xx_HAL_Driver/Inc/stm32f4xx_ll_system.h ****   return (uint32_t)(READ_BIT(DBGMCU->IDCODE, DBGMCU_IDCODE_DEV_ID));
1254:Drivers/STM32F4xx_HAL_Driver/Inc/stm32f4xx_ll_system.h **** }
1255:Drivers/STM32F4xx_HAL_Driver/Inc/stm32f4xx_ll_system.h **** 
1256:Drivers/STM32F4xx_HAL_Driver/Inc/stm32f4xx_ll_system.h **** /**
1257:Drivers/STM32F4xx_HAL_Driver/Inc/stm32f4xx_ll_system.h ****   * @brief  Return the device revision identifier
1258:Drivers/STM32F4xx_HAL_Driver/Inc/stm32f4xx_ll_system.h ****   * @note This field indicates the revision of the device.
1259:Drivers/STM32F4xx_HAL_Driver/Inc/stm32f4xx_ll_system.h ****           For example, it is read as RevA -> 0x1000, Cat 2 revZ -> 0x1001, rev1 -> 0x1003, rev2 ->0
1260:Drivers/STM32F4xx_HAL_Driver/Inc/stm32f4xx_ll_system.h ****           For example, it is read as RevA -> 0x1000, Cat 2 revY -> 0x1003, rev1 -> 0x1007, rev3 ->0
1261:Drivers/STM32F4xx_HAL_Driver/Inc/stm32f4xx_ll_system.h ****           For example, it is read as RevZ -> 0x1000, Cat 2 revA -> 0x1001 for STM32F401xB/C devices
1262:Drivers/STM32F4xx_HAL_Driver/Inc/stm32f4xx_ll_system.h ****           For example, it is read as RevA -> 0x1000, Cat 2 revZ -> 0x1001 for STM32F401xD/E devices
1263:Drivers/STM32F4xx_HAL_Driver/Inc/stm32f4xx_ll_system.h ****           For example, it is read as RevA -> 0x1000 for STM32F411xx,STM32F413/423xx,STM32F469/423xx
1264:Drivers/STM32F4xx_HAL_Driver/Inc/stm32f4xx_ll_system.h ****           For example, it is read as RevZ -> 0x1001, Cat 2 revB -> 0x2000, revC -> 0x3000 for STM32
1265:Drivers/STM32F4xx_HAL_Driver/Inc/stm32f4xx_ll_system.h ****   * @rmtoll DBGMCU_IDCODE REV_ID        LL_DBGMCU_GetRevisionID
1266:Drivers/STM32F4xx_HAL_Driver/Inc/stm32f4xx_ll_system.h ****   * @retval Values between Min_Data=0x00 and Max_Data=0xFFFF
1267:Drivers/STM32F4xx_HAL_Driver/Inc/stm32f4xx_ll_system.h ****   */
1268:Drivers/STM32F4xx_HAL_Driver/Inc/stm32f4xx_ll_system.h **** __STATIC_INLINE uint32_t LL_DBGMCU_GetRevisionID(void)
ARM GAS  /tmp/ccvq1yeG.s 			page 27


1269:Drivers/STM32F4xx_HAL_Driver/Inc/stm32f4xx_ll_system.h **** {
1270:Drivers/STM32F4xx_HAL_Driver/Inc/stm32f4xx_ll_system.h ****   return (uint32_t)(READ_BIT(DBGMCU->IDCODE, DBGMCU_IDCODE_REV_ID) >> DBGMCU_IDCODE_REV_ID_Pos);
1271:Drivers/STM32F4xx_HAL_Driver/Inc/stm32f4xx_ll_system.h **** }
1272:Drivers/STM32F4xx_HAL_Driver/Inc/stm32f4xx_ll_system.h **** 
1273:Drivers/STM32F4xx_HAL_Driver/Inc/stm32f4xx_ll_system.h **** /**
1274:Drivers/STM32F4xx_HAL_Driver/Inc/stm32f4xx_ll_system.h ****   * @brief  Enable the Debug Module during SLEEP mode
1275:Drivers/STM32F4xx_HAL_Driver/Inc/stm32f4xx_ll_system.h ****   * @rmtoll DBGMCU_CR    DBG_SLEEP     LL_DBGMCU_EnableDBGSleepMode
1276:Drivers/STM32F4xx_HAL_Driver/Inc/stm32f4xx_ll_system.h ****   * @retval None
1277:Drivers/STM32F4xx_HAL_Driver/Inc/stm32f4xx_ll_system.h ****   */
1278:Drivers/STM32F4xx_HAL_Driver/Inc/stm32f4xx_ll_system.h **** __STATIC_INLINE void LL_DBGMCU_EnableDBGSleepMode(void)
1279:Drivers/STM32F4xx_HAL_Driver/Inc/stm32f4xx_ll_system.h **** {
1280:Drivers/STM32F4xx_HAL_Driver/Inc/stm32f4xx_ll_system.h ****   SET_BIT(DBGMCU->CR, DBGMCU_CR_DBG_SLEEP);
1281:Drivers/STM32F4xx_HAL_Driver/Inc/stm32f4xx_ll_system.h **** }
1282:Drivers/STM32F4xx_HAL_Driver/Inc/stm32f4xx_ll_system.h **** 
1283:Drivers/STM32F4xx_HAL_Driver/Inc/stm32f4xx_ll_system.h **** /**
1284:Drivers/STM32F4xx_HAL_Driver/Inc/stm32f4xx_ll_system.h ****   * @brief  Disable the Debug Module during SLEEP mode
1285:Drivers/STM32F4xx_HAL_Driver/Inc/stm32f4xx_ll_system.h ****   * @rmtoll DBGMCU_CR    DBG_SLEEP     LL_DBGMCU_DisableDBGSleepMode
1286:Drivers/STM32F4xx_HAL_Driver/Inc/stm32f4xx_ll_system.h ****   * @retval None
1287:Drivers/STM32F4xx_HAL_Driver/Inc/stm32f4xx_ll_system.h ****   */
1288:Drivers/STM32F4xx_HAL_Driver/Inc/stm32f4xx_ll_system.h **** __STATIC_INLINE void LL_DBGMCU_DisableDBGSleepMode(void)
1289:Drivers/STM32F4xx_HAL_Driver/Inc/stm32f4xx_ll_system.h **** {
1290:Drivers/STM32F4xx_HAL_Driver/Inc/stm32f4xx_ll_system.h ****   CLEAR_BIT(DBGMCU->CR, DBGMCU_CR_DBG_SLEEP);
1291:Drivers/STM32F4xx_HAL_Driver/Inc/stm32f4xx_ll_system.h **** }
1292:Drivers/STM32F4xx_HAL_Driver/Inc/stm32f4xx_ll_system.h **** 
1293:Drivers/STM32F4xx_HAL_Driver/Inc/stm32f4xx_ll_system.h **** /**
1294:Drivers/STM32F4xx_HAL_Driver/Inc/stm32f4xx_ll_system.h ****   * @brief  Enable the Debug Module during STOP mode
1295:Drivers/STM32F4xx_HAL_Driver/Inc/stm32f4xx_ll_system.h ****   * @rmtoll DBGMCU_CR    DBG_STOP      LL_DBGMCU_EnableDBGStopMode
1296:Drivers/STM32F4xx_HAL_Driver/Inc/stm32f4xx_ll_system.h ****   * @retval None
1297:Drivers/STM32F4xx_HAL_Driver/Inc/stm32f4xx_ll_system.h ****   */
1298:Drivers/STM32F4xx_HAL_Driver/Inc/stm32f4xx_ll_system.h **** __STATIC_INLINE void LL_DBGMCU_EnableDBGStopMode(void)
1299:Drivers/STM32F4xx_HAL_Driver/Inc/stm32f4xx_ll_system.h **** {
1300:Drivers/STM32F4xx_HAL_Driver/Inc/stm32f4xx_ll_system.h ****   SET_BIT(DBGMCU->CR, DBGMCU_CR_DBG_STOP);
1301:Drivers/STM32F4xx_HAL_Driver/Inc/stm32f4xx_ll_system.h **** }
1302:Drivers/STM32F4xx_HAL_Driver/Inc/stm32f4xx_ll_system.h **** 
1303:Drivers/STM32F4xx_HAL_Driver/Inc/stm32f4xx_ll_system.h **** /**
1304:Drivers/STM32F4xx_HAL_Driver/Inc/stm32f4xx_ll_system.h ****   * @brief  Disable the Debug Module during STOP mode
1305:Drivers/STM32F4xx_HAL_Driver/Inc/stm32f4xx_ll_system.h ****   * @rmtoll DBGMCU_CR    DBG_STOP      LL_DBGMCU_DisableDBGStopMode
1306:Drivers/STM32F4xx_HAL_Driver/Inc/stm32f4xx_ll_system.h ****   * @retval None
1307:Drivers/STM32F4xx_HAL_Driver/Inc/stm32f4xx_ll_system.h ****   */
1308:Drivers/STM32F4xx_HAL_Driver/Inc/stm32f4xx_ll_system.h **** __STATIC_INLINE void LL_DBGMCU_DisableDBGStopMode(void)
1309:Drivers/STM32F4xx_HAL_Driver/Inc/stm32f4xx_ll_system.h **** {
1310:Drivers/STM32F4xx_HAL_Driver/Inc/stm32f4xx_ll_system.h ****   CLEAR_BIT(DBGMCU->CR, DBGMCU_CR_DBG_STOP);
1311:Drivers/STM32F4xx_HAL_Driver/Inc/stm32f4xx_ll_system.h **** }
1312:Drivers/STM32F4xx_HAL_Driver/Inc/stm32f4xx_ll_system.h **** 
1313:Drivers/STM32F4xx_HAL_Driver/Inc/stm32f4xx_ll_system.h **** /**
1314:Drivers/STM32F4xx_HAL_Driver/Inc/stm32f4xx_ll_system.h ****   * @brief  Enable the Debug Module during STANDBY mode
1315:Drivers/STM32F4xx_HAL_Driver/Inc/stm32f4xx_ll_system.h ****   * @rmtoll DBGMCU_CR    DBG_STANDBY   LL_DBGMCU_EnableDBGStandbyMode
1316:Drivers/STM32F4xx_HAL_Driver/Inc/stm32f4xx_ll_system.h ****   * @retval None
1317:Drivers/STM32F4xx_HAL_Driver/Inc/stm32f4xx_ll_system.h ****   */
1318:Drivers/STM32F4xx_HAL_Driver/Inc/stm32f4xx_ll_system.h **** __STATIC_INLINE void LL_DBGMCU_EnableDBGStandbyMode(void)
1319:Drivers/STM32F4xx_HAL_Driver/Inc/stm32f4xx_ll_system.h **** {
1320:Drivers/STM32F4xx_HAL_Driver/Inc/stm32f4xx_ll_system.h ****   SET_BIT(DBGMCU->CR, DBGMCU_CR_DBG_STANDBY);
1321:Drivers/STM32F4xx_HAL_Driver/Inc/stm32f4xx_ll_system.h **** }
1322:Drivers/STM32F4xx_HAL_Driver/Inc/stm32f4xx_ll_system.h **** 
1323:Drivers/STM32F4xx_HAL_Driver/Inc/stm32f4xx_ll_system.h **** /**
1324:Drivers/STM32F4xx_HAL_Driver/Inc/stm32f4xx_ll_system.h ****   * @brief  Disable the Debug Module during STANDBY mode
1325:Drivers/STM32F4xx_HAL_Driver/Inc/stm32f4xx_ll_system.h ****   * @rmtoll DBGMCU_CR    DBG_STANDBY   LL_DBGMCU_DisableDBGStandbyMode
ARM GAS  /tmp/ccvq1yeG.s 			page 28


1326:Drivers/STM32F4xx_HAL_Driver/Inc/stm32f4xx_ll_system.h ****   * @retval None
1327:Drivers/STM32F4xx_HAL_Driver/Inc/stm32f4xx_ll_system.h ****   */
1328:Drivers/STM32F4xx_HAL_Driver/Inc/stm32f4xx_ll_system.h **** __STATIC_INLINE void LL_DBGMCU_DisableDBGStandbyMode(void)
1329:Drivers/STM32F4xx_HAL_Driver/Inc/stm32f4xx_ll_system.h **** {
1330:Drivers/STM32F4xx_HAL_Driver/Inc/stm32f4xx_ll_system.h ****   CLEAR_BIT(DBGMCU->CR, DBGMCU_CR_DBG_STANDBY);
1331:Drivers/STM32F4xx_HAL_Driver/Inc/stm32f4xx_ll_system.h **** }
1332:Drivers/STM32F4xx_HAL_Driver/Inc/stm32f4xx_ll_system.h **** 
1333:Drivers/STM32F4xx_HAL_Driver/Inc/stm32f4xx_ll_system.h **** /**
1334:Drivers/STM32F4xx_HAL_Driver/Inc/stm32f4xx_ll_system.h ****   * @brief  Set Trace pin assignment control
1335:Drivers/STM32F4xx_HAL_Driver/Inc/stm32f4xx_ll_system.h ****   * @rmtoll DBGMCU_CR    TRACE_IOEN    LL_DBGMCU_SetTracePinAssignment\n
1336:Drivers/STM32F4xx_HAL_Driver/Inc/stm32f4xx_ll_system.h ****   *         DBGMCU_CR    TRACE_MODE    LL_DBGMCU_SetTracePinAssignment
1337:Drivers/STM32F4xx_HAL_Driver/Inc/stm32f4xx_ll_system.h ****   * @param  PinAssignment This parameter can be one of the following values:
1338:Drivers/STM32F4xx_HAL_Driver/Inc/stm32f4xx_ll_system.h ****   *         @arg @ref LL_DBGMCU_TRACE_NONE
1339:Drivers/STM32F4xx_HAL_Driver/Inc/stm32f4xx_ll_system.h ****   *         @arg @ref LL_DBGMCU_TRACE_ASYNCH
1340:Drivers/STM32F4xx_HAL_Driver/Inc/stm32f4xx_ll_system.h ****   *         @arg @ref LL_DBGMCU_TRACE_SYNCH_SIZE1
1341:Drivers/STM32F4xx_HAL_Driver/Inc/stm32f4xx_ll_system.h ****   *         @arg @ref LL_DBGMCU_TRACE_SYNCH_SIZE2
1342:Drivers/STM32F4xx_HAL_Driver/Inc/stm32f4xx_ll_system.h ****   *         @arg @ref LL_DBGMCU_TRACE_SYNCH_SIZE4
1343:Drivers/STM32F4xx_HAL_Driver/Inc/stm32f4xx_ll_system.h ****   * @retval None
1344:Drivers/STM32F4xx_HAL_Driver/Inc/stm32f4xx_ll_system.h ****   */
1345:Drivers/STM32F4xx_HAL_Driver/Inc/stm32f4xx_ll_system.h **** __STATIC_INLINE void LL_DBGMCU_SetTracePinAssignment(uint32_t PinAssignment)
1346:Drivers/STM32F4xx_HAL_Driver/Inc/stm32f4xx_ll_system.h **** {
1347:Drivers/STM32F4xx_HAL_Driver/Inc/stm32f4xx_ll_system.h ****   MODIFY_REG(DBGMCU->CR, DBGMCU_CR_TRACE_IOEN | DBGMCU_CR_TRACE_MODE, PinAssignment);
1348:Drivers/STM32F4xx_HAL_Driver/Inc/stm32f4xx_ll_system.h **** }
1349:Drivers/STM32F4xx_HAL_Driver/Inc/stm32f4xx_ll_system.h **** 
1350:Drivers/STM32F4xx_HAL_Driver/Inc/stm32f4xx_ll_system.h **** /**
1351:Drivers/STM32F4xx_HAL_Driver/Inc/stm32f4xx_ll_system.h ****   * @brief  Get Trace pin assignment control
1352:Drivers/STM32F4xx_HAL_Driver/Inc/stm32f4xx_ll_system.h ****   * @rmtoll DBGMCU_CR    TRACE_IOEN    LL_DBGMCU_GetTracePinAssignment\n
1353:Drivers/STM32F4xx_HAL_Driver/Inc/stm32f4xx_ll_system.h ****   *         DBGMCU_CR    TRACE_MODE    LL_DBGMCU_GetTracePinAssignment
1354:Drivers/STM32F4xx_HAL_Driver/Inc/stm32f4xx_ll_system.h ****   * @retval Returned value can be one of the following values:
1355:Drivers/STM32F4xx_HAL_Driver/Inc/stm32f4xx_ll_system.h ****   *         @arg @ref LL_DBGMCU_TRACE_NONE
1356:Drivers/STM32F4xx_HAL_Driver/Inc/stm32f4xx_ll_system.h ****   *         @arg @ref LL_DBGMCU_TRACE_ASYNCH
1357:Drivers/STM32F4xx_HAL_Driver/Inc/stm32f4xx_ll_system.h ****   *         @arg @ref LL_DBGMCU_TRACE_SYNCH_SIZE1
1358:Drivers/STM32F4xx_HAL_Driver/Inc/stm32f4xx_ll_system.h ****   *         @arg @ref LL_DBGMCU_TRACE_SYNCH_SIZE2
1359:Drivers/STM32F4xx_HAL_Driver/Inc/stm32f4xx_ll_system.h ****   *         @arg @ref LL_DBGMCU_TRACE_SYNCH_SIZE4
1360:Drivers/STM32F4xx_HAL_Driver/Inc/stm32f4xx_ll_system.h ****   */
1361:Drivers/STM32F4xx_HAL_Driver/Inc/stm32f4xx_ll_system.h **** __STATIC_INLINE uint32_t LL_DBGMCU_GetTracePinAssignment(void)
1362:Drivers/STM32F4xx_HAL_Driver/Inc/stm32f4xx_ll_system.h **** {
1363:Drivers/STM32F4xx_HAL_Driver/Inc/stm32f4xx_ll_system.h ****   return (uint32_t)(READ_BIT(DBGMCU->CR, DBGMCU_CR_TRACE_IOEN | DBGMCU_CR_TRACE_MODE));
1364:Drivers/STM32F4xx_HAL_Driver/Inc/stm32f4xx_ll_system.h **** }
1365:Drivers/STM32F4xx_HAL_Driver/Inc/stm32f4xx_ll_system.h **** 
1366:Drivers/STM32F4xx_HAL_Driver/Inc/stm32f4xx_ll_system.h **** /**
1367:Drivers/STM32F4xx_HAL_Driver/Inc/stm32f4xx_ll_system.h ****   * @brief  Freeze APB1 peripherals (group1 peripherals)
1368:Drivers/STM32F4xx_HAL_Driver/Inc/stm32f4xx_ll_system.h ****   * @rmtoll DBGMCU_APB1_FZ      DBG_TIM2_STOP           LL_DBGMCU_APB1_GRP1_FreezePeriph\n
1369:Drivers/STM32F4xx_HAL_Driver/Inc/stm32f4xx_ll_system.h ****   *         DBGMCU_APB1_FZ      DBG_TIM3_STOP           LL_DBGMCU_APB1_GRP1_FreezePeriph\n
1370:Drivers/STM32F4xx_HAL_Driver/Inc/stm32f4xx_ll_system.h ****   *         DBGMCU_APB1_FZ      DBG_TIM4_STOP           LL_DBGMCU_APB1_GRP1_FreezePeriph\n
1371:Drivers/STM32F4xx_HAL_Driver/Inc/stm32f4xx_ll_system.h ****   *         DBGMCU_APB1_FZ      DBG_TIM5_STOP           LL_DBGMCU_APB1_GRP1_FreezePeriph\n
1372:Drivers/STM32F4xx_HAL_Driver/Inc/stm32f4xx_ll_system.h ****   *         DBGMCU_APB1_FZ      DBG_TIM6_STOP           LL_DBGMCU_APB1_GRP1_FreezePeriph\n
1373:Drivers/STM32F4xx_HAL_Driver/Inc/stm32f4xx_ll_system.h ****   *         DBGMCU_APB1_FZ      DBG_TIM7_STOP           LL_DBGMCU_APB1_GRP1_FreezePeriph\n
1374:Drivers/STM32F4xx_HAL_Driver/Inc/stm32f4xx_ll_system.h ****   *         DBGMCU_APB1_FZ      DBG_TIM12_STOP          LL_DBGMCU_APB1_GRP1_FreezePeriph\n
1375:Drivers/STM32F4xx_HAL_Driver/Inc/stm32f4xx_ll_system.h ****   *         DBGMCU_APB1_FZ      DBG_TIM13_STOP          LL_DBGMCU_APB1_GRP1_FreezePeriph\n
1376:Drivers/STM32F4xx_HAL_Driver/Inc/stm32f4xx_ll_system.h ****   *         DBGMCU_APB1_FZ      DBG_TIM14_STOP          LL_DBGMCU_APB1_GRP1_FreezePeriph\n
1377:Drivers/STM32F4xx_HAL_Driver/Inc/stm32f4xx_ll_system.h ****   *         DBGMCU_APB1_FZ      DBG_LPTIM_STOP          LL_DBGMCU_APB1_GRP1_FreezePeriph\n
1378:Drivers/STM32F4xx_HAL_Driver/Inc/stm32f4xx_ll_system.h ****   *         DBGMCU_APB1_FZ      DBG_RTC_STOP            LL_DBGMCU_APB1_GRP1_FreezePeriph\n
1379:Drivers/STM32F4xx_HAL_Driver/Inc/stm32f4xx_ll_system.h ****   *         DBGMCU_APB1_FZ      DBG_WWDG_STOP           LL_DBGMCU_APB1_GRP1_FreezePeriph\n
1380:Drivers/STM32F4xx_HAL_Driver/Inc/stm32f4xx_ll_system.h ****   *         DBGMCU_APB1_FZ      DBG_IWDG_STOP           LL_DBGMCU_APB1_GRP1_FreezePeriph\n
1381:Drivers/STM32F4xx_HAL_Driver/Inc/stm32f4xx_ll_system.h ****   *         DBGMCU_APB1_FZ      DBG_I2C1_SMBUS_TIMEOUT  LL_DBGMCU_APB1_GRP1_FreezePeriph\n
1382:Drivers/STM32F4xx_HAL_Driver/Inc/stm32f4xx_ll_system.h ****   *         DBGMCU_APB1_FZ      DBG_I2C2_SMBUS_TIMEOUT  LL_DBGMCU_APB1_GRP1_FreezePeriph\n
ARM GAS  /tmp/ccvq1yeG.s 			page 29


1383:Drivers/STM32F4xx_HAL_Driver/Inc/stm32f4xx_ll_system.h ****   *         DBGMCU_APB1_FZ      DBG_I2C3_SMBUS_TIMEOUT  LL_DBGMCU_APB1_GRP1_FreezePeriph\n
1384:Drivers/STM32F4xx_HAL_Driver/Inc/stm32f4xx_ll_system.h ****   *         DBGMCU_APB1_FZ      DBG_I2C4_SMBUS_TIMEOUT  LL_DBGMCU_APB1_GRP1_FreezePeriph\n
1385:Drivers/STM32F4xx_HAL_Driver/Inc/stm32f4xx_ll_system.h ****   *         DBGMCU_APB1_FZ      DBG_CAN1_STOP           LL_DBGMCU_APB1_GRP1_FreezePeriph\n
1386:Drivers/STM32F4xx_HAL_Driver/Inc/stm32f4xx_ll_system.h ****   *         DBGMCU_APB1_FZ      DBG_CAN2_STOP           LL_DBGMCU_APB1_GRP1_FreezePeriph\n
1387:Drivers/STM32F4xx_HAL_Driver/Inc/stm32f4xx_ll_system.h ****   *         DBGMCU_APB1_FZ      DBG_CAN3_STOP           LL_DBGMCU_APB1_GRP1_FreezePeriph
1388:Drivers/STM32F4xx_HAL_Driver/Inc/stm32f4xx_ll_system.h ****   * @param  Periphs This parameter can be a combination of the following values:
1389:Drivers/STM32F4xx_HAL_Driver/Inc/stm32f4xx_ll_system.h ****   *         @arg @ref LL_DBGMCU_APB1_GRP1_TIM2_STOP (*)
1390:Drivers/STM32F4xx_HAL_Driver/Inc/stm32f4xx_ll_system.h ****   *         @arg @ref LL_DBGMCU_APB1_GRP1_TIM3_STOP (*)
1391:Drivers/STM32F4xx_HAL_Driver/Inc/stm32f4xx_ll_system.h ****   *         @arg @ref LL_DBGMCU_APB1_GRP1_TIM4_STOP (*)
1392:Drivers/STM32F4xx_HAL_Driver/Inc/stm32f4xx_ll_system.h ****   *         @arg @ref LL_DBGMCU_APB1_GRP1_TIM5_STOP 
1393:Drivers/STM32F4xx_HAL_Driver/Inc/stm32f4xx_ll_system.h ****   *         @arg @ref LL_DBGMCU_APB1_GRP1_TIM6_STOP (*)
1394:Drivers/STM32F4xx_HAL_Driver/Inc/stm32f4xx_ll_system.h ****   *         @arg @ref LL_DBGMCU_APB1_GRP1_TIM7_STOP (*)
1395:Drivers/STM32F4xx_HAL_Driver/Inc/stm32f4xx_ll_system.h ****   *         @arg @ref LL_DBGMCU_APB1_GRP1_TIM12_STOP (*)
1396:Drivers/STM32F4xx_HAL_Driver/Inc/stm32f4xx_ll_system.h ****   *         @arg @ref LL_DBGMCU_APB1_GRP1_TIM13_STOP (*)
1397:Drivers/STM32F4xx_HAL_Driver/Inc/stm32f4xx_ll_system.h ****   *         @arg @ref LL_DBGMCU_APB1_GRP1_TIM14_STOP (*)
1398:Drivers/STM32F4xx_HAL_Driver/Inc/stm32f4xx_ll_system.h ****   *         @arg @ref LL_DBGMCU_APB1_GRP1_LPTIM_STOP (*)
1399:Drivers/STM32F4xx_HAL_Driver/Inc/stm32f4xx_ll_system.h ****   *         @arg @ref LL_DBGMCU_APB1_GRP1_RTC_STOP
1400:Drivers/STM32F4xx_HAL_Driver/Inc/stm32f4xx_ll_system.h ****   *         @arg @ref LL_DBGMCU_APB1_GRP1_WWDG_STOP
1401:Drivers/STM32F4xx_HAL_Driver/Inc/stm32f4xx_ll_system.h ****   *         @arg @ref LL_DBGMCU_APB1_GRP1_IWDG_STOP
1402:Drivers/STM32F4xx_HAL_Driver/Inc/stm32f4xx_ll_system.h ****   *         @arg @ref LL_DBGMCU_APB1_GRP1_I2C1_STOP
1403:Drivers/STM32F4xx_HAL_Driver/Inc/stm32f4xx_ll_system.h ****   *         @arg @ref LL_DBGMCU_APB1_GRP1_I2C2_STOP
1404:Drivers/STM32F4xx_HAL_Driver/Inc/stm32f4xx_ll_system.h ****   *         @arg @ref LL_DBGMCU_APB1_GRP1_I2C3_STOP (*)
1405:Drivers/STM32F4xx_HAL_Driver/Inc/stm32f4xx_ll_system.h ****   *         @arg @ref LL_DBGMCU_APB1_GRP1_I2C4_STOP (*)
1406:Drivers/STM32F4xx_HAL_Driver/Inc/stm32f4xx_ll_system.h ****   *         @arg @ref LL_DBGMCU_APB1_GRP1_CAN1_STOP (*)
1407:Drivers/STM32F4xx_HAL_Driver/Inc/stm32f4xx_ll_system.h ****   *         @arg @ref LL_DBGMCU_APB1_GRP1_CAN2_STOP (*)
1408:Drivers/STM32F4xx_HAL_Driver/Inc/stm32f4xx_ll_system.h ****   *         @arg @ref LL_DBGMCU_APB1_GRP1_CAN3_STOP (*)
1409:Drivers/STM32F4xx_HAL_Driver/Inc/stm32f4xx_ll_system.h ****   *         
1410:Drivers/STM32F4xx_HAL_Driver/Inc/stm32f4xx_ll_system.h ****   *         (*) value not defined in all devices.
1411:Drivers/STM32F4xx_HAL_Driver/Inc/stm32f4xx_ll_system.h ****   * @retval None
1412:Drivers/STM32F4xx_HAL_Driver/Inc/stm32f4xx_ll_system.h ****   */
1413:Drivers/STM32F4xx_HAL_Driver/Inc/stm32f4xx_ll_system.h **** __STATIC_INLINE void LL_DBGMCU_APB1_GRP1_FreezePeriph(uint32_t Periphs)
1414:Drivers/STM32F4xx_HAL_Driver/Inc/stm32f4xx_ll_system.h **** {
1415:Drivers/STM32F4xx_HAL_Driver/Inc/stm32f4xx_ll_system.h ****   SET_BIT(DBGMCU->APB1FZ, Periphs);
1416:Drivers/STM32F4xx_HAL_Driver/Inc/stm32f4xx_ll_system.h **** }
1417:Drivers/STM32F4xx_HAL_Driver/Inc/stm32f4xx_ll_system.h **** 
1418:Drivers/STM32F4xx_HAL_Driver/Inc/stm32f4xx_ll_system.h **** /**
1419:Drivers/STM32F4xx_HAL_Driver/Inc/stm32f4xx_ll_system.h ****   * @brief  Unfreeze APB1 peripherals (group1 peripherals)
1420:Drivers/STM32F4xx_HAL_Driver/Inc/stm32f4xx_ll_system.h ****   * @rmtoll DBGMCU_APB1_FZ      DBG_TIM2_STOP           LL_DBGMCU_APB1_GRP1_UnFreezePeriph\n
1421:Drivers/STM32F4xx_HAL_Driver/Inc/stm32f4xx_ll_system.h ****   *         DBGMCU_APB1_FZ      DBG_TIM3_STOP           LL_DBGMCU_APB1_GRP1_UnFreezePeriph\n
1422:Drivers/STM32F4xx_HAL_Driver/Inc/stm32f4xx_ll_system.h ****   *         DBGMCU_APB1_FZ      DBG_TIM4_STOP           LL_DBGMCU_APB1_GRP1_UnFreezePeriph\n
1423:Drivers/STM32F4xx_HAL_Driver/Inc/stm32f4xx_ll_system.h ****   *         DBGMCU_APB1_FZ      DBG_TIM5_STOP           LL_DBGMCU_APB1_GRP1_UnFreezePeriph\n
1424:Drivers/STM32F4xx_HAL_Driver/Inc/stm32f4xx_ll_system.h ****   *         DBGMCU_APB1_FZ      DBG_TIM6_STOP           LL_DBGMCU_APB1_GRP1_UnFreezePeriph\n
1425:Drivers/STM32F4xx_HAL_Driver/Inc/stm32f4xx_ll_system.h ****   *         DBGMCU_APB1_FZ      DBG_TIM7_STOP           LL_DBGMCU_APB1_GRP1_UnFreezePeriph\n
1426:Drivers/STM32F4xx_HAL_Driver/Inc/stm32f4xx_ll_system.h ****   *         DBGMCU_APB1_FZ      DBG_TIM12_STOP          LL_DBGMCU_APB1_GRP1_UnFreezePeriph\n
1427:Drivers/STM32F4xx_HAL_Driver/Inc/stm32f4xx_ll_system.h ****   *         DBGMCU_APB1_FZ      DBG_TIM13_STOP          LL_DBGMCU_APB1_GRP1_UnFreezePeriph\n
1428:Drivers/STM32F4xx_HAL_Driver/Inc/stm32f4xx_ll_system.h ****   *         DBGMCU_APB1_FZ      DBG_TIM14_STOP          LL_DBGMCU_APB1_GRP1_UnFreezePeriph\n
1429:Drivers/STM32F4xx_HAL_Driver/Inc/stm32f4xx_ll_system.h ****   *         DBGMCU_APB1_FZ      DBG_LPTIM_STOP         LL_DBGMCU_APB1_GRP1_UnFreezePeriph\n
1430:Drivers/STM32F4xx_HAL_Driver/Inc/stm32f4xx_ll_system.h ****   *         DBGMCU_APB1_FZ      DBG_RTC_STOP            LL_DBGMCU_APB1_GRP1_UnFreezePeriph\n
1431:Drivers/STM32F4xx_HAL_Driver/Inc/stm32f4xx_ll_system.h ****   *         DBGMCU_APB1_FZ      DBG_WWDG_STOP           LL_DBGMCU_APB1_GRP1_UnFreezePeriph\n
1432:Drivers/STM32F4xx_HAL_Driver/Inc/stm32f4xx_ll_system.h ****   *         DBGMCU_APB1_FZ      DBG_IWDG_STOP           LL_DBGMCU_APB1_GRP1_UnFreezePeriph\n
1433:Drivers/STM32F4xx_HAL_Driver/Inc/stm32f4xx_ll_system.h ****   *         DBGMCU_APB1_FZ      DBG_I2C1_SMBUS_TIMEOUT  LL_DBGMCU_APB1_GRP1_UnFreezePeriph\n
1434:Drivers/STM32F4xx_HAL_Driver/Inc/stm32f4xx_ll_system.h ****   *         DBGMCU_APB1_FZ      DBG_I2C2_SMBUS_TIMEOUT  LL_DBGMCU_APB1_GRP1_UnFreezePeriph\n
1435:Drivers/STM32F4xx_HAL_Driver/Inc/stm32f4xx_ll_system.h ****   *         DBGMCU_APB1_FZ      DBG_I2C3_SMBUS_TIMEOUT  LL_DBGMCU_APB1_GRP1_UnFreezePeriph\n
1436:Drivers/STM32F4xx_HAL_Driver/Inc/stm32f4xx_ll_system.h ****   *         DBGMCU_APB1_FZ      DBG_I2C4_SMBUS_TIMEOUT  LL_DBGMCU_APB1_GRP1_UnFreezePeriph\n
1437:Drivers/STM32F4xx_HAL_Driver/Inc/stm32f4xx_ll_system.h ****   *         DBGMCU_APB1_FZ      DBG_CAN1_STOP           LL_DBGMCU_APB1_GRP1_UnFreezePeriph\n
1438:Drivers/STM32F4xx_HAL_Driver/Inc/stm32f4xx_ll_system.h ****   *         DBGMCU_APB1_FZ      DBG_CAN2_STOP           LL_DBGMCU_APB1_GRP1_UnFreezePeriph\n
1439:Drivers/STM32F4xx_HAL_Driver/Inc/stm32f4xx_ll_system.h ****   *         DBGMCU_APB1_FZ      DBG_CAN3_STOP           LL_DBGMCU_APB1_GRP1_UnFreezePeriph
ARM GAS  /tmp/ccvq1yeG.s 			page 30


1440:Drivers/STM32F4xx_HAL_Driver/Inc/stm32f4xx_ll_system.h ****   * @param  Periphs This parameter can be a combination of the following values:
1441:Drivers/STM32F4xx_HAL_Driver/Inc/stm32f4xx_ll_system.h ****   *         @arg @ref LL_DBGMCU_APB1_GRP1_TIM2_STOP (*)
1442:Drivers/STM32F4xx_HAL_Driver/Inc/stm32f4xx_ll_system.h ****   *         @arg @ref LL_DBGMCU_APB1_GRP1_TIM3_STOP (*)
1443:Drivers/STM32F4xx_HAL_Driver/Inc/stm32f4xx_ll_system.h ****   *         @arg @ref LL_DBGMCU_APB1_GRP1_TIM4_STOP (*)
1444:Drivers/STM32F4xx_HAL_Driver/Inc/stm32f4xx_ll_system.h ****   *         @arg @ref LL_DBGMCU_APB1_GRP1_TIM5_STOP 
1445:Drivers/STM32F4xx_HAL_Driver/Inc/stm32f4xx_ll_system.h ****   *         @arg @ref LL_DBGMCU_APB1_GRP1_TIM6_STOP (*)
1446:Drivers/STM32F4xx_HAL_Driver/Inc/stm32f4xx_ll_system.h ****   *         @arg @ref LL_DBGMCU_APB1_GRP1_TIM7_STOP (*)
1447:Drivers/STM32F4xx_HAL_Driver/Inc/stm32f4xx_ll_system.h ****   *         @arg @ref LL_DBGMCU_APB1_GRP1_TIM12_STOP (*)
1448:Drivers/STM32F4xx_HAL_Driver/Inc/stm32f4xx_ll_system.h ****   *         @arg @ref LL_DBGMCU_APB1_GRP1_TIM13_STOP (*)
1449:Drivers/STM32F4xx_HAL_Driver/Inc/stm32f4xx_ll_system.h ****   *         @arg @ref LL_DBGMCU_APB1_GRP1_TIM14_STOP (*)
1450:Drivers/STM32F4xx_HAL_Driver/Inc/stm32f4xx_ll_system.h ****   *         @arg @ref LL_DBGMCU_APB1_GRP1_LPTIM_STOP (*)
1451:Drivers/STM32F4xx_HAL_Driver/Inc/stm32f4xx_ll_system.h ****   *         @arg @ref LL_DBGMCU_APB1_GRP1_RTC_STOP
1452:Drivers/STM32F4xx_HAL_Driver/Inc/stm32f4xx_ll_system.h ****   *         @arg @ref LL_DBGMCU_APB1_GRP1_WWDG_STOP
1453:Drivers/STM32F4xx_HAL_Driver/Inc/stm32f4xx_ll_system.h ****   *         @arg @ref LL_DBGMCU_APB1_GRP1_IWDG_STOP
1454:Drivers/STM32F4xx_HAL_Driver/Inc/stm32f4xx_ll_system.h ****   *         @arg @ref LL_DBGMCU_APB1_GRP1_I2C1_STOP
1455:Drivers/STM32F4xx_HAL_Driver/Inc/stm32f4xx_ll_system.h ****   *         @arg @ref LL_DBGMCU_APB1_GRP1_I2C2_STOP
1456:Drivers/STM32F4xx_HAL_Driver/Inc/stm32f4xx_ll_system.h ****   *         @arg @ref LL_DBGMCU_APB1_GRP1_I2C3_STOP (*)
1457:Drivers/STM32F4xx_HAL_Driver/Inc/stm32f4xx_ll_system.h ****   *         @arg @ref LL_DBGMCU_APB1_GRP1_I2C4_STOP (*)
1458:Drivers/STM32F4xx_HAL_Driver/Inc/stm32f4xx_ll_system.h ****   *         @arg @ref LL_DBGMCU_APB1_GRP1_CAN1_STOP (*)
1459:Drivers/STM32F4xx_HAL_Driver/Inc/stm32f4xx_ll_system.h ****   *         @arg @ref LL_DBGMCU_APB1_GRP1_CAN2_STOP (*)
1460:Drivers/STM32F4xx_HAL_Driver/Inc/stm32f4xx_ll_system.h ****   *         @arg @ref LL_DBGMCU_APB1_GRP1_CAN3_STOP (*)
1461:Drivers/STM32F4xx_HAL_Driver/Inc/stm32f4xx_ll_system.h ****   *         
1462:Drivers/STM32F4xx_HAL_Driver/Inc/stm32f4xx_ll_system.h ****   *         (*) value not defined in all devices.
1463:Drivers/STM32F4xx_HAL_Driver/Inc/stm32f4xx_ll_system.h ****   * @retval None
1464:Drivers/STM32F4xx_HAL_Driver/Inc/stm32f4xx_ll_system.h ****   */
1465:Drivers/STM32F4xx_HAL_Driver/Inc/stm32f4xx_ll_system.h **** __STATIC_INLINE void LL_DBGMCU_APB1_GRP1_UnFreezePeriph(uint32_t Periphs)
1466:Drivers/STM32F4xx_HAL_Driver/Inc/stm32f4xx_ll_system.h **** {
1467:Drivers/STM32F4xx_HAL_Driver/Inc/stm32f4xx_ll_system.h ****   CLEAR_BIT(DBGMCU->APB1FZ, Periphs);
1468:Drivers/STM32F4xx_HAL_Driver/Inc/stm32f4xx_ll_system.h **** }
1469:Drivers/STM32F4xx_HAL_Driver/Inc/stm32f4xx_ll_system.h **** 
1470:Drivers/STM32F4xx_HAL_Driver/Inc/stm32f4xx_ll_system.h **** /**
1471:Drivers/STM32F4xx_HAL_Driver/Inc/stm32f4xx_ll_system.h ****   * @brief  Freeze APB2 peripherals
1472:Drivers/STM32F4xx_HAL_Driver/Inc/stm32f4xx_ll_system.h ****   * @rmtoll DBGMCU_APB2_FZ      DBG_TIM1_STOP    LL_DBGMCU_APB2_GRP1_FreezePeriph\n
1473:Drivers/STM32F4xx_HAL_Driver/Inc/stm32f4xx_ll_system.h ****   *         DBGMCU_APB2_FZ      DBG_TIM8_STOP    LL_DBGMCU_APB2_GRP1_FreezePeriph\n
1474:Drivers/STM32F4xx_HAL_Driver/Inc/stm32f4xx_ll_system.h ****   *         DBGMCU_APB2_FZ      DBG_TIM9_STOP    LL_DBGMCU_APB2_GRP1_FreezePeriph\n
1475:Drivers/STM32F4xx_HAL_Driver/Inc/stm32f4xx_ll_system.h ****   *         DBGMCU_APB2_FZ      DBG_TIM10_STOP   LL_DBGMCU_APB2_GRP1_FreezePeriph\n
1476:Drivers/STM32F4xx_HAL_Driver/Inc/stm32f4xx_ll_system.h ****   *         DBGMCU_APB2_FZ      DBG_TIM11_STOP   LL_DBGMCU_APB2_GRP1_FreezePeriph
1477:Drivers/STM32F4xx_HAL_Driver/Inc/stm32f4xx_ll_system.h ****   * @param  Periphs This parameter can be a combination of the following values:
1478:Drivers/STM32F4xx_HAL_Driver/Inc/stm32f4xx_ll_system.h ****   *         @arg @ref LL_DBGMCU_APB2_GRP1_TIM1_STOP
1479:Drivers/STM32F4xx_HAL_Driver/Inc/stm32f4xx_ll_system.h ****   *         @arg @ref LL_DBGMCU_APB2_GRP1_TIM8_STOP (*)
1480:Drivers/STM32F4xx_HAL_Driver/Inc/stm32f4xx_ll_system.h ****   *         @arg @ref LL_DBGMCU_APB2_GRP1_TIM9_STOP (*)
1481:Drivers/STM32F4xx_HAL_Driver/Inc/stm32f4xx_ll_system.h ****   *         @arg @ref LL_DBGMCU_APB2_GRP1_TIM10_STOP (*)
1482:Drivers/STM32F4xx_HAL_Driver/Inc/stm32f4xx_ll_system.h ****   *         @arg @ref LL_DBGMCU_APB2_GRP1_TIM11_STOP (*)
1483:Drivers/STM32F4xx_HAL_Driver/Inc/stm32f4xx_ll_system.h ****   *
1484:Drivers/STM32F4xx_HAL_Driver/Inc/stm32f4xx_ll_system.h ****   *         (*) value not defined in all devices.
1485:Drivers/STM32F4xx_HAL_Driver/Inc/stm32f4xx_ll_system.h ****   * @retval None
1486:Drivers/STM32F4xx_HAL_Driver/Inc/stm32f4xx_ll_system.h ****   */
1487:Drivers/STM32F4xx_HAL_Driver/Inc/stm32f4xx_ll_system.h **** __STATIC_INLINE void LL_DBGMCU_APB2_GRP1_FreezePeriph(uint32_t Periphs)
1488:Drivers/STM32F4xx_HAL_Driver/Inc/stm32f4xx_ll_system.h **** {
1489:Drivers/STM32F4xx_HAL_Driver/Inc/stm32f4xx_ll_system.h ****   SET_BIT(DBGMCU->APB2FZ, Periphs);
1490:Drivers/STM32F4xx_HAL_Driver/Inc/stm32f4xx_ll_system.h **** }
1491:Drivers/STM32F4xx_HAL_Driver/Inc/stm32f4xx_ll_system.h **** 
1492:Drivers/STM32F4xx_HAL_Driver/Inc/stm32f4xx_ll_system.h **** /**
1493:Drivers/STM32F4xx_HAL_Driver/Inc/stm32f4xx_ll_system.h ****   * @brief  Unfreeze APB2 peripherals
1494:Drivers/STM32F4xx_HAL_Driver/Inc/stm32f4xx_ll_system.h ****   * @rmtoll DBGMCU_APB2_FZ      DBG_TIM1_STOP    LL_DBGMCU_APB2_GRP1_UnFreezePeriph\n
1495:Drivers/STM32F4xx_HAL_Driver/Inc/stm32f4xx_ll_system.h ****   *         DBGMCU_APB2_FZ      DBG_TIM8_STOP    LL_DBGMCU_APB2_GRP1_UnFreezePeriph\n
1496:Drivers/STM32F4xx_HAL_Driver/Inc/stm32f4xx_ll_system.h ****   *         DBGMCU_APB2_FZ      DBG_TIM9_STOP    LL_DBGMCU_APB2_GRP1_UnFreezePeriph\n
ARM GAS  /tmp/ccvq1yeG.s 			page 31


1497:Drivers/STM32F4xx_HAL_Driver/Inc/stm32f4xx_ll_system.h ****   *         DBGMCU_APB2_FZ      DBG_TIM10_STOP   LL_DBGMCU_APB2_GRP1_UnFreezePeriph\n
1498:Drivers/STM32F4xx_HAL_Driver/Inc/stm32f4xx_ll_system.h ****   *         DBGMCU_APB2_FZ      DBG_TIM11_STOP   LL_DBGMCU_APB2_GRP1_UnFreezePeriph
1499:Drivers/STM32F4xx_HAL_Driver/Inc/stm32f4xx_ll_system.h ****   * @param  Periphs This parameter can be a combination of the following values:
1500:Drivers/STM32F4xx_HAL_Driver/Inc/stm32f4xx_ll_system.h ****   *         @arg @ref LL_DBGMCU_APB2_GRP1_TIM1_STOP
1501:Drivers/STM32F4xx_HAL_Driver/Inc/stm32f4xx_ll_system.h ****   *         @arg @ref LL_DBGMCU_APB2_GRP1_TIM8_STOP (*)
1502:Drivers/STM32F4xx_HAL_Driver/Inc/stm32f4xx_ll_system.h ****   *         @arg @ref LL_DBGMCU_APB2_GRP1_TIM9_STOP (*)
1503:Drivers/STM32F4xx_HAL_Driver/Inc/stm32f4xx_ll_system.h ****   *         @arg @ref LL_DBGMCU_APB2_GRP1_TIM10_STOP (*)
1504:Drivers/STM32F4xx_HAL_Driver/Inc/stm32f4xx_ll_system.h ****   *         @arg @ref LL_DBGMCU_APB2_GRP1_TIM11_STOP (*)
1505:Drivers/STM32F4xx_HAL_Driver/Inc/stm32f4xx_ll_system.h ****   *
1506:Drivers/STM32F4xx_HAL_Driver/Inc/stm32f4xx_ll_system.h ****   *         (*) value not defined in all devices.
1507:Drivers/STM32F4xx_HAL_Driver/Inc/stm32f4xx_ll_system.h ****   * @retval None
1508:Drivers/STM32F4xx_HAL_Driver/Inc/stm32f4xx_ll_system.h ****   */
1509:Drivers/STM32F4xx_HAL_Driver/Inc/stm32f4xx_ll_system.h **** __STATIC_INLINE void LL_DBGMCU_APB2_GRP1_UnFreezePeriph(uint32_t Periphs)
1510:Drivers/STM32F4xx_HAL_Driver/Inc/stm32f4xx_ll_system.h **** {
1511:Drivers/STM32F4xx_HAL_Driver/Inc/stm32f4xx_ll_system.h ****   CLEAR_BIT(DBGMCU->APB2FZ, Periphs);
1512:Drivers/STM32F4xx_HAL_Driver/Inc/stm32f4xx_ll_system.h **** }
1513:Drivers/STM32F4xx_HAL_Driver/Inc/stm32f4xx_ll_system.h **** /**
1514:Drivers/STM32F4xx_HAL_Driver/Inc/stm32f4xx_ll_system.h ****   * @}
1515:Drivers/STM32F4xx_HAL_Driver/Inc/stm32f4xx_ll_system.h ****   */
1516:Drivers/STM32F4xx_HAL_Driver/Inc/stm32f4xx_ll_system.h **** 
1517:Drivers/STM32F4xx_HAL_Driver/Inc/stm32f4xx_ll_system.h **** /** @defgroup SYSTEM_LL_EF_FLASH FLASH
1518:Drivers/STM32F4xx_HAL_Driver/Inc/stm32f4xx_ll_system.h ****   * @{
1519:Drivers/STM32F4xx_HAL_Driver/Inc/stm32f4xx_ll_system.h ****   */
1520:Drivers/STM32F4xx_HAL_Driver/Inc/stm32f4xx_ll_system.h **** 
1521:Drivers/STM32F4xx_HAL_Driver/Inc/stm32f4xx_ll_system.h **** /**
1522:Drivers/STM32F4xx_HAL_Driver/Inc/stm32f4xx_ll_system.h ****   * @brief  Set FLASH Latency
1523:Drivers/STM32F4xx_HAL_Driver/Inc/stm32f4xx_ll_system.h ****   * @rmtoll FLASH_ACR    LATENCY       LL_FLASH_SetLatency
1524:Drivers/STM32F4xx_HAL_Driver/Inc/stm32f4xx_ll_system.h ****   * @param  Latency This parameter can be one of the following values:
1525:Drivers/STM32F4xx_HAL_Driver/Inc/stm32f4xx_ll_system.h ****   *         @arg @ref LL_FLASH_LATENCY_0
1526:Drivers/STM32F4xx_HAL_Driver/Inc/stm32f4xx_ll_system.h ****   *         @arg @ref LL_FLASH_LATENCY_1
1527:Drivers/STM32F4xx_HAL_Driver/Inc/stm32f4xx_ll_system.h ****   *         @arg @ref LL_FLASH_LATENCY_2
1528:Drivers/STM32F4xx_HAL_Driver/Inc/stm32f4xx_ll_system.h ****   *         @arg @ref LL_FLASH_LATENCY_3
1529:Drivers/STM32F4xx_HAL_Driver/Inc/stm32f4xx_ll_system.h ****   *         @arg @ref LL_FLASH_LATENCY_4
1530:Drivers/STM32F4xx_HAL_Driver/Inc/stm32f4xx_ll_system.h ****   *         @arg @ref LL_FLASH_LATENCY_5
1531:Drivers/STM32F4xx_HAL_Driver/Inc/stm32f4xx_ll_system.h ****   *         @arg @ref LL_FLASH_LATENCY_6
1532:Drivers/STM32F4xx_HAL_Driver/Inc/stm32f4xx_ll_system.h ****   *         @arg @ref LL_FLASH_LATENCY_7
1533:Drivers/STM32F4xx_HAL_Driver/Inc/stm32f4xx_ll_system.h ****   *         @arg @ref LL_FLASH_LATENCY_8
1534:Drivers/STM32F4xx_HAL_Driver/Inc/stm32f4xx_ll_system.h ****   *         @arg @ref LL_FLASH_LATENCY_9
1535:Drivers/STM32F4xx_HAL_Driver/Inc/stm32f4xx_ll_system.h ****   *         @arg @ref LL_FLASH_LATENCY_10
1536:Drivers/STM32F4xx_HAL_Driver/Inc/stm32f4xx_ll_system.h ****   *         @arg @ref LL_FLASH_LATENCY_11
1537:Drivers/STM32F4xx_HAL_Driver/Inc/stm32f4xx_ll_system.h ****   *         @arg @ref LL_FLASH_LATENCY_12
1538:Drivers/STM32F4xx_HAL_Driver/Inc/stm32f4xx_ll_system.h ****   *         @arg @ref LL_FLASH_LATENCY_13
1539:Drivers/STM32F4xx_HAL_Driver/Inc/stm32f4xx_ll_system.h ****   *         @arg @ref LL_FLASH_LATENCY_14
1540:Drivers/STM32F4xx_HAL_Driver/Inc/stm32f4xx_ll_system.h ****   *         @arg @ref LL_FLASH_LATENCY_15
1541:Drivers/STM32F4xx_HAL_Driver/Inc/stm32f4xx_ll_system.h ****   * @retval None
1542:Drivers/STM32F4xx_HAL_Driver/Inc/stm32f4xx_ll_system.h ****   */
1543:Drivers/STM32F4xx_HAL_Driver/Inc/stm32f4xx_ll_system.h **** __STATIC_INLINE void LL_FLASH_SetLatency(uint32_t Latency)
 212              		.loc 2 1543 22 view .LVU21
 213              	.LBB41:
1544:Drivers/STM32F4xx_HAL_Driver/Inc/stm32f4xx_ll_system.h **** {
1545:Drivers/STM32F4xx_HAL_Driver/Inc/stm32f4xx_ll_system.h ****   MODIFY_REG(FLASH->ACR, FLASH_ACR_LATENCY, Latency);
 214              		.loc 2 1545 3 view .LVU22
 215 0000 2F4A     		ldr	r2, .L32
 216 0002 1368     		ldr	r3, [r2]
 217 0004 23F00703 		bic	r3, r3, #7
 218 0008 43F00303 		orr	r3, r3, #3
 219              	.LBE41:
ARM GAS  /tmp/ccvq1yeG.s 			page 32


 220              	.LBE40:
  19:src/stm32f4xx_it.c ****     LL_FLASH_SetLatency(LL_FLASH_LATENCY_3);
 221              		.loc 1 19 30 is_stmt 0 view .LVU23
 222 000c 10B5     		push	{r4, lr}
 223              	.LCFI0:
 224              		.cfi_def_cfa_offset 8
 225              		.cfi_offset 4, -8
 226              		.cfi_offset 14, -4
 227              	.LBB43:
 228              	.LBB42:
 229              		.loc 2 1545 3 view .LVU24
 230 000e 1360     		str	r3, [r2]
 231              	.LVL1:
 232              		.loc 2 1545 3 view .LVU25
 233              	.LBE42:
 234              	.LBE43:
  21:src/stm32f4xx_it.c ****     while(LL_FLASH_GetLatency()!= LL_FLASH_LATENCY_3){
 235              		.loc 1 21 5 is_stmt 1 view .LVU26
 236              	.L16:
  22:src/stm32f4xx_it.c ****     }
 237              		.loc 1 22 5 view .LVU27
  21:src/stm32f4xx_it.c ****     while(LL_FLASH_GetLatency()!= LL_FLASH_LATENCY_3){
 238              		.loc 1 21 32 discriminator 1 view .LVU28
 239              	.LBB44:
 240              	.LBI44:
1546:Drivers/STM32F4xx_HAL_Driver/Inc/stm32f4xx_ll_system.h **** }
1547:Drivers/STM32F4xx_HAL_Driver/Inc/stm32f4xx_ll_system.h **** 
1548:Drivers/STM32F4xx_HAL_Driver/Inc/stm32f4xx_ll_system.h **** /**
1549:Drivers/STM32F4xx_HAL_Driver/Inc/stm32f4xx_ll_system.h ****   * @brief  Get FLASH Latency
1550:Drivers/STM32F4xx_HAL_Driver/Inc/stm32f4xx_ll_system.h ****   * @rmtoll FLASH_ACR    LATENCY       LL_FLASH_GetLatency
1551:Drivers/STM32F4xx_HAL_Driver/Inc/stm32f4xx_ll_system.h ****   * @retval Returned value can be one of the following values:
1552:Drivers/STM32F4xx_HAL_Driver/Inc/stm32f4xx_ll_system.h ****   *         @arg @ref LL_FLASH_LATENCY_0
1553:Drivers/STM32F4xx_HAL_Driver/Inc/stm32f4xx_ll_system.h ****   *         @arg @ref LL_FLASH_LATENCY_1
1554:Drivers/STM32F4xx_HAL_Driver/Inc/stm32f4xx_ll_system.h ****   *         @arg @ref LL_FLASH_LATENCY_2
1555:Drivers/STM32F4xx_HAL_Driver/Inc/stm32f4xx_ll_system.h ****   *         @arg @ref LL_FLASH_LATENCY_3
1556:Drivers/STM32F4xx_HAL_Driver/Inc/stm32f4xx_ll_system.h ****   *         @arg @ref LL_FLASH_LATENCY_4
1557:Drivers/STM32F4xx_HAL_Driver/Inc/stm32f4xx_ll_system.h ****   *         @arg @ref LL_FLASH_LATENCY_5
1558:Drivers/STM32F4xx_HAL_Driver/Inc/stm32f4xx_ll_system.h ****   *         @arg @ref LL_FLASH_LATENCY_6
1559:Drivers/STM32F4xx_HAL_Driver/Inc/stm32f4xx_ll_system.h ****   *         @arg @ref LL_FLASH_LATENCY_7
1560:Drivers/STM32F4xx_HAL_Driver/Inc/stm32f4xx_ll_system.h ****   *         @arg @ref LL_FLASH_LATENCY_8
1561:Drivers/STM32F4xx_HAL_Driver/Inc/stm32f4xx_ll_system.h ****   *         @arg @ref LL_FLASH_LATENCY_9
1562:Drivers/STM32F4xx_HAL_Driver/Inc/stm32f4xx_ll_system.h ****   *         @arg @ref LL_FLASH_LATENCY_10
1563:Drivers/STM32F4xx_HAL_Driver/Inc/stm32f4xx_ll_system.h ****   *         @arg @ref LL_FLASH_LATENCY_11
1564:Drivers/STM32F4xx_HAL_Driver/Inc/stm32f4xx_ll_system.h ****   *         @arg @ref LL_FLASH_LATENCY_12
1565:Drivers/STM32F4xx_HAL_Driver/Inc/stm32f4xx_ll_system.h ****   *         @arg @ref LL_FLASH_LATENCY_13
1566:Drivers/STM32F4xx_HAL_Driver/Inc/stm32f4xx_ll_system.h ****   *         @arg @ref LL_FLASH_LATENCY_14
1567:Drivers/STM32F4xx_HAL_Driver/Inc/stm32f4xx_ll_system.h ****   *         @arg @ref LL_FLASH_LATENCY_15
1568:Drivers/STM32F4xx_HAL_Driver/Inc/stm32f4xx_ll_system.h ****   */
1569:Drivers/STM32F4xx_HAL_Driver/Inc/stm32f4xx_ll_system.h **** __STATIC_INLINE uint32_t LL_FLASH_GetLatency(void)
 241              		.loc 2 1569 26 view .LVU29
 242              	.LBB45:
1570:Drivers/STM32F4xx_HAL_Driver/Inc/stm32f4xx_ll_system.h **** {
1571:Drivers/STM32F4xx_HAL_Driver/Inc/stm32f4xx_ll_system.h ****   return (uint32_t)(READ_BIT(FLASH->ACR, FLASH_ACR_LATENCY));
 243              		.loc 2 1571 3 view .LVU30
 244              		.loc 2 1571 21 is_stmt 0 view .LVU31
 245 0010 1368     		ldr	r3, [r2]
 246              		.loc 2 1571 10 view .LVU32
ARM GAS  /tmp/ccvq1yeG.s 			page 33


 247 0012 03F00703 		and	r3, r3, #7
 248              	.LBE45:
 249              	.LBE44:
  21:src/stm32f4xx_it.c ****     }
 250              		.loc 1 21 32 discriminator 1 view .LVU33
 251 0016 032B     		cmp	r3, #3
 252 0018 FAD1     		bne	.L16
  23:src/stm32f4xx_it.c ****     LL_PWR_SetRegulVoltageScaling(LL_PWR_REGU_VOLTAGE_SCALE1);
 253              		.loc 1 23 5 is_stmt 1 view .LVU34
 254              	.LVL2:
 255              	.LBB46:
 256              	.LBI46:
 257              		.file 3 "Drivers/STM32F4xx_HAL_Driver/Inc/stm32f4xx_ll_pwr.h"
   1:Drivers/STM32F4xx_HAL_Driver/Inc/stm32f4xx_ll_pwr.h **** /**
   2:Drivers/STM32F4xx_HAL_Driver/Inc/stm32f4xx_ll_pwr.h ****   ******************************************************************************
   3:Drivers/STM32F4xx_HAL_Driver/Inc/stm32f4xx_ll_pwr.h ****   * @file    stm32f4xx_ll_pwr.h
   4:Drivers/STM32F4xx_HAL_Driver/Inc/stm32f4xx_ll_pwr.h ****   * @author  MCD Application Team
   5:Drivers/STM32F4xx_HAL_Driver/Inc/stm32f4xx_ll_pwr.h ****   * @brief   Header file of PWR LL module.
   6:Drivers/STM32F4xx_HAL_Driver/Inc/stm32f4xx_ll_pwr.h ****   ******************************************************************************
   7:Drivers/STM32F4xx_HAL_Driver/Inc/stm32f4xx_ll_pwr.h ****   * @attention
   8:Drivers/STM32F4xx_HAL_Driver/Inc/stm32f4xx_ll_pwr.h ****   *
   9:Drivers/STM32F4xx_HAL_Driver/Inc/stm32f4xx_ll_pwr.h ****   * Copyright (c) 2017 STMicroelectronics.
  10:Drivers/STM32F4xx_HAL_Driver/Inc/stm32f4xx_ll_pwr.h ****   * All rights reserved.
  11:Drivers/STM32F4xx_HAL_Driver/Inc/stm32f4xx_ll_pwr.h ****   *
  12:Drivers/STM32F4xx_HAL_Driver/Inc/stm32f4xx_ll_pwr.h ****   * This software is licensed under terms that can be found in the LICENSE file in
  13:Drivers/STM32F4xx_HAL_Driver/Inc/stm32f4xx_ll_pwr.h ****   * the root directory of this software component.
  14:Drivers/STM32F4xx_HAL_Driver/Inc/stm32f4xx_ll_pwr.h ****   * If no LICENSE file comes with this software, it is provided AS-IS.
  15:Drivers/STM32F4xx_HAL_Driver/Inc/stm32f4xx_ll_pwr.h ****   ******************************************************************************
  16:Drivers/STM32F4xx_HAL_Driver/Inc/stm32f4xx_ll_pwr.h ****   */
  17:Drivers/STM32F4xx_HAL_Driver/Inc/stm32f4xx_ll_pwr.h **** 
  18:Drivers/STM32F4xx_HAL_Driver/Inc/stm32f4xx_ll_pwr.h **** /* Define to prevent recursive inclusion -------------------------------------*/
  19:Drivers/STM32F4xx_HAL_Driver/Inc/stm32f4xx_ll_pwr.h **** #ifndef __STM32F4xx_LL_PWR_H
  20:Drivers/STM32F4xx_HAL_Driver/Inc/stm32f4xx_ll_pwr.h **** #define __STM32F4xx_LL_PWR_H
  21:Drivers/STM32F4xx_HAL_Driver/Inc/stm32f4xx_ll_pwr.h **** 
  22:Drivers/STM32F4xx_HAL_Driver/Inc/stm32f4xx_ll_pwr.h **** #ifdef __cplusplus
  23:Drivers/STM32F4xx_HAL_Driver/Inc/stm32f4xx_ll_pwr.h **** extern "C" {
  24:Drivers/STM32F4xx_HAL_Driver/Inc/stm32f4xx_ll_pwr.h **** #endif
  25:Drivers/STM32F4xx_HAL_Driver/Inc/stm32f4xx_ll_pwr.h **** 
  26:Drivers/STM32F4xx_HAL_Driver/Inc/stm32f4xx_ll_pwr.h **** /* Includes ------------------------------------------------------------------*/
  27:Drivers/STM32F4xx_HAL_Driver/Inc/stm32f4xx_ll_pwr.h **** #include "stm32f4xx.h"
  28:Drivers/STM32F4xx_HAL_Driver/Inc/stm32f4xx_ll_pwr.h **** 
  29:Drivers/STM32F4xx_HAL_Driver/Inc/stm32f4xx_ll_pwr.h **** /** @addtogroup STM32F4xx_LL_Driver
  30:Drivers/STM32F4xx_HAL_Driver/Inc/stm32f4xx_ll_pwr.h ****   * @{
  31:Drivers/STM32F4xx_HAL_Driver/Inc/stm32f4xx_ll_pwr.h ****   */
  32:Drivers/STM32F4xx_HAL_Driver/Inc/stm32f4xx_ll_pwr.h **** 
  33:Drivers/STM32F4xx_HAL_Driver/Inc/stm32f4xx_ll_pwr.h **** #if defined(PWR)
  34:Drivers/STM32F4xx_HAL_Driver/Inc/stm32f4xx_ll_pwr.h **** 
  35:Drivers/STM32F4xx_HAL_Driver/Inc/stm32f4xx_ll_pwr.h **** /** @defgroup PWR_LL PWR
  36:Drivers/STM32F4xx_HAL_Driver/Inc/stm32f4xx_ll_pwr.h ****   * @{
  37:Drivers/STM32F4xx_HAL_Driver/Inc/stm32f4xx_ll_pwr.h ****   */
  38:Drivers/STM32F4xx_HAL_Driver/Inc/stm32f4xx_ll_pwr.h **** 
  39:Drivers/STM32F4xx_HAL_Driver/Inc/stm32f4xx_ll_pwr.h **** /* Private types -------------------------------------------------------------*/
  40:Drivers/STM32F4xx_HAL_Driver/Inc/stm32f4xx_ll_pwr.h **** /* Private variables ---------------------------------------------------------*/
  41:Drivers/STM32F4xx_HAL_Driver/Inc/stm32f4xx_ll_pwr.h **** /* Private constants ---------------------------------------------------------*/
  42:Drivers/STM32F4xx_HAL_Driver/Inc/stm32f4xx_ll_pwr.h **** /* Private macros ------------------------------------------------------------*/
  43:Drivers/STM32F4xx_HAL_Driver/Inc/stm32f4xx_ll_pwr.h **** /* Exported types ------------------------------------------------------------*/
  44:Drivers/STM32F4xx_HAL_Driver/Inc/stm32f4xx_ll_pwr.h **** /* Exported constants --------------------------------------------------------*/
ARM GAS  /tmp/ccvq1yeG.s 			page 34


  45:Drivers/STM32F4xx_HAL_Driver/Inc/stm32f4xx_ll_pwr.h **** /** @defgroup PWR_LL_Exported_Constants PWR Exported Constants
  46:Drivers/STM32F4xx_HAL_Driver/Inc/stm32f4xx_ll_pwr.h ****   * @{
  47:Drivers/STM32F4xx_HAL_Driver/Inc/stm32f4xx_ll_pwr.h ****   */
  48:Drivers/STM32F4xx_HAL_Driver/Inc/stm32f4xx_ll_pwr.h **** 
  49:Drivers/STM32F4xx_HAL_Driver/Inc/stm32f4xx_ll_pwr.h **** /** @defgroup PWR_LL_EC_CLEAR_FLAG Clear Flags Defines
  50:Drivers/STM32F4xx_HAL_Driver/Inc/stm32f4xx_ll_pwr.h ****   * @brief    Flags defines which can be used with LL_PWR_WriteReg function
  51:Drivers/STM32F4xx_HAL_Driver/Inc/stm32f4xx_ll_pwr.h ****   * @{
  52:Drivers/STM32F4xx_HAL_Driver/Inc/stm32f4xx_ll_pwr.h ****   */
  53:Drivers/STM32F4xx_HAL_Driver/Inc/stm32f4xx_ll_pwr.h **** #define LL_PWR_CR_CSBF                     PWR_CR_CSBF            /*!< Clear standby flag */
  54:Drivers/STM32F4xx_HAL_Driver/Inc/stm32f4xx_ll_pwr.h **** #define LL_PWR_CR_CWUF                     PWR_CR_CWUF            /*!< Clear wakeup flag */
  55:Drivers/STM32F4xx_HAL_Driver/Inc/stm32f4xx_ll_pwr.h **** /**
  56:Drivers/STM32F4xx_HAL_Driver/Inc/stm32f4xx_ll_pwr.h ****   * @}
  57:Drivers/STM32F4xx_HAL_Driver/Inc/stm32f4xx_ll_pwr.h ****   */
  58:Drivers/STM32F4xx_HAL_Driver/Inc/stm32f4xx_ll_pwr.h **** 
  59:Drivers/STM32F4xx_HAL_Driver/Inc/stm32f4xx_ll_pwr.h **** /** @defgroup PWR_LL_EC_GET_FLAG Get Flags Defines
  60:Drivers/STM32F4xx_HAL_Driver/Inc/stm32f4xx_ll_pwr.h ****   * @brief    Flags defines which can be used with LL_PWR_ReadReg function
  61:Drivers/STM32F4xx_HAL_Driver/Inc/stm32f4xx_ll_pwr.h ****   * @{
  62:Drivers/STM32F4xx_HAL_Driver/Inc/stm32f4xx_ll_pwr.h ****   */
  63:Drivers/STM32F4xx_HAL_Driver/Inc/stm32f4xx_ll_pwr.h **** #define LL_PWR_CSR_WUF                     PWR_CSR_WUF            /*!< Wakeup flag */
  64:Drivers/STM32F4xx_HAL_Driver/Inc/stm32f4xx_ll_pwr.h **** #define LL_PWR_CSR_SBF                     PWR_CSR_SBF            /*!< Standby flag */
  65:Drivers/STM32F4xx_HAL_Driver/Inc/stm32f4xx_ll_pwr.h **** #define LL_PWR_CSR_PVDO                    PWR_CSR_PVDO           /*!< Power voltage detector outpu
  66:Drivers/STM32F4xx_HAL_Driver/Inc/stm32f4xx_ll_pwr.h **** #define LL_PWR_CSR_VOS                     PWR_CSR_VOSRDY            /*!< Voltage scaling select fl
  67:Drivers/STM32F4xx_HAL_Driver/Inc/stm32f4xx_ll_pwr.h **** #if defined(PWR_CSR_EWUP)
  68:Drivers/STM32F4xx_HAL_Driver/Inc/stm32f4xx_ll_pwr.h **** #define LL_PWR_CSR_EWUP1                   PWR_CSR_EWUP           /*!< Enable WKUP pin */
  69:Drivers/STM32F4xx_HAL_Driver/Inc/stm32f4xx_ll_pwr.h **** #elif defined(PWR_CSR_EWUP1)
  70:Drivers/STM32F4xx_HAL_Driver/Inc/stm32f4xx_ll_pwr.h **** #define LL_PWR_CSR_EWUP1                   PWR_CSR_EWUP1          /*!< Enable WKUP pin 1 */
  71:Drivers/STM32F4xx_HAL_Driver/Inc/stm32f4xx_ll_pwr.h **** #endif /* PWR_CSR_EWUP */
  72:Drivers/STM32F4xx_HAL_Driver/Inc/stm32f4xx_ll_pwr.h **** #if defined(PWR_CSR_EWUP2)
  73:Drivers/STM32F4xx_HAL_Driver/Inc/stm32f4xx_ll_pwr.h **** #define LL_PWR_CSR_EWUP2                   PWR_CSR_EWUP2          /*!< Enable WKUP pin 2 */
  74:Drivers/STM32F4xx_HAL_Driver/Inc/stm32f4xx_ll_pwr.h **** #endif /* PWR_CSR_EWUP2 */
  75:Drivers/STM32F4xx_HAL_Driver/Inc/stm32f4xx_ll_pwr.h **** #if defined(PWR_CSR_EWUP3)
  76:Drivers/STM32F4xx_HAL_Driver/Inc/stm32f4xx_ll_pwr.h **** #define LL_PWR_CSR_EWUP3                   PWR_CSR_EWUP3          /*!< Enable WKUP pin 3 */
  77:Drivers/STM32F4xx_HAL_Driver/Inc/stm32f4xx_ll_pwr.h **** #endif /* PWR_CSR_EWUP3 */
  78:Drivers/STM32F4xx_HAL_Driver/Inc/stm32f4xx_ll_pwr.h **** /**
  79:Drivers/STM32F4xx_HAL_Driver/Inc/stm32f4xx_ll_pwr.h ****   * @}
  80:Drivers/STM32F4xx_HAL_Driver/Inc/stm32f4xx_ll_pwr.h ****   */
  81:Drivers/STM32F4xx_HAL_Driver/Inc/stm32f4xx_ll_pwr.h **** 
  82:Drivers/STM32F4xx_HAL_Driver/Inc/stm32f4xx_ll_pwr.h **** /** @defgroup PWR_LL_EC_REGU_VOLTAGE Regulator Voltage
  83:Drivers/STM32F4xx_HAL_Driver/Inc/stm32f4xx_ll_pwr.h ****   * @{
  84:Drivers/STM32F4xx_HAL_Driver/Inc/stm32f4xx_ll_pwr.h ****   */
  85:Drivers/STM32F4xx_HAL_Driver/Inc/stm32f4xx_ll_pwr.h **** #if defined(PWR_CR_VOS_0)
  86:Drivers/STM32F4xx_HAL_Driver/Inc/stm32f4xx_ll_pwr.h **** #define LL_PWR_REGU_VOLTAGE_SCALE3         (PWR_CR_VOS_0)
  87:Drivers/STM32F4xx_HAL_Driver/Inc/stm32f4xx_ll_pwr.h **** #define LL_PWR_REGU_VOLTAGE_SCALE2         (PWR_CR_VOS_1)
  88:Drivers/STM32F4xx_HAL_Driver/Inc/stm32f4xx_ll_pwr.h **** #define LL_PWR_REGU_VOLTAGE_SCALE1         (PWR_CR_VOS_0 | PWR_CR_VOS_1) /* The SCALE1 is not avail
  89:Drivers/STM32F4xx_HAL_Driver/Inc/stm32f4xx_ll_pwr.h **** #else
  90:Drivers/STM32F4xx_HAL_Driver/Inc/stm32f4xx_ll_pwr.h **** #define LL_PWR_REGU_VOLTAGE_SCALE1         (PWR_CR_VOS)
  91:Drivers/STM32F4xx_HAL_Driver/Inc/stm32f4xx_ll_pwr.h **** #define LL_PWR_REGU_VOLTAGE_SCALE2         0x00000000U
  92:Drivers/STM32F4xx_HAL_Driver/Inc/stm32f4xx_ll_pwr.h **** #endif /* PWR_CR_VOS_0 */
  93:Drivers/STM32F4xx_HAL_Driver/Inc/stm32f4xx_ll_pwr.h **** /**
  94:Drivers/STM32F4xx_HAL_Driver/Inc/stm32f4xx_ll_pwr.h ****   * @}
  95:Drivers/STM32F4xx_HAL_Driver/Inc/stm32f4xx_ll_pwr.h ****   */
  96:Drivers/STM32F4xx_HAL_Driver/Inc/stm32f4xx_ll_pwr.h **** 
  97:Drivers/STM32F4xx_HAL_Driver/Inc/stm32f4xx_ll_pwr.h **** /** @defgroup PWR_LL_EC_MODE_PWR Mode Power
  98:Drivers/STM32F4xx_HAL_Driver/Inc/stm32f4xx_ll_pwr.h ****   * @{
  99:Drivers/STM32F4xx_HAL_Driver/Inc/stm32f4xx_ll_pwr.h ****   */
 100:Drivers/STM32F4xx_HAL_Driver/Inc/stm32f4xx_ll_pwr.h **** #define LL_PWR_MODE_STOP_MAINREGU             0x00000000U                    /*!< Enter Stop mode w
 101:Drivers/STM32F4xx_HAL_Driver/Inc/stm32f4xx_ll_pwr.h **** #define LL_PWR_MODE_STOP_LPREGU               (PWR_CR_LPDS)                  /*!< Enter Stop mode (
ARM GAS  /tmp/ccvq1yeG.s 			page 35


 102:Drivers/STM32F4xx_HAL_Driver/Inc/stm32f4xx_ll_pwr.h **** #if defined(PWR_CR_MRUDS) && defined(PWR_CR_LPUDS) && defined(PWR_CR_FPDS)
 103:Drivers/STM32F4xx_HAL_Driver/Inc/stm32f4xx_ll_pwr.h **** #define LL_PWR_MODE_STOP_MAINREGU_UNDERDRIVE  (PWR_CR_MRUDS | PWR_CR_FPDS)                 /*!< Ent
 104:Drivers/STM32F4xx_HAL_Driver/Inc/stm32f4xx_ll_pwr.h **** #define LL_PWR_MODE_STOP_LPREGU_UNDERDRIVE    (PWR_CR_LPDS | PWR_CR_LPUDS | PWR_CR_FPDS)   /*!< Ent
 105:Drivers/STM32F4xx_HAL_Driver/Inc/stm32f4xx_ll_pwr.h **** #endif /* PWR_CR_MRUDS && PWR_CR_LPUDS && PWR_CR_FPDS */
 106:Drivers/STM32F4xx_HAL_Driver/Inc/stm32f4xx_ll_pwr.h **** #if defined(PWR_CR_MRLVDS) && defined(PWR_CR_LPLVDS) && defined(PWR_CR_FPDS)
 107:Drivers/STM32F4xx_HAL_Driver/Inc/stm32f4xx_ll_pwr.h **** #define LL_PWR_MODE_STOP_MAINREGU_DEEPSLEEP  (PWR_CR_MRLVDS | PWR_CR_FPDS)                 /*!< Ent
 108:Drivers/STM32F4xx_HAL_Driver/Inc/stm32f4xx_ll_pwr.h **** #define LL_PWR_MODE_STOP_LPREGU_DEEPSLEEP    (PWR_CR_LPDS | PWR_CR_LPLVDS | PWR_CR_FPDS)   /*!< Ent
 109:Drivers/STM32F4xx_HAL_Driver/Inc/stm32f4xx_ll_pwr.h **** #endif /* PWR_CR_MRLVDS && PWR_CR_LPLVDS && PWR_CR_FPDS */
 110:Drivers/STM32F4xx_HAL_Driver/Inc/stm32f4xx_ll_pwr.h **** #define LL_PWR_MODE_STANDBY                   (PWR_CR_PDDS)                  /*!< Enter Standby mod
 111:Drivers/STM32F4xx_HAL_Driver/Inc/stm32f4xx_ll_pwr.h **** /**
 112:Drivers/STM32F4xx_HAL_Driver/Inc/stm32f4xx_ll_pwr.h ****   * @}
 113:Drivers/STM32F4xx_HAL_Driver/Inc/stm32f4xx_ll_pwr.h ****   */
 114:Drivers/STM32F4xx_HAL_Driver/Inc/stm32f4xx_ll_pwr.h **** 
 115:Drivers/STM32F4xx_HAL_Driver/Inc/stm32f4xx_ll_pwr.h **** /** @defgroup PWR_LL_EC_REGU_MODE_DS_MODE  Regulator Mode In Deep Sleep Mode
 116:Drivers/STM32F4xx_HAL_Driver/Inc/stm32f4xx_ll_pwr.h ****  * @{
 117:Drivers/STM32F4xx_HAL_Driver/Inc/stm32f4xx_ll_pwr.h ****  */
 118:Drivers/STM32F4xx_HAL_Driver/Inc/stm32f4xx_ll_pwr.h **** #define LL_PWR_REGU_DSMODE_MAIN        0x00000000U           /*!< Voltage Regulator in main mode du
 119:Drivers/STM32F4xx_HAL_Driver/Inc/stm32f4xx_ll_pwr.h **** #define LL_PWR_REGU_DSMODE_LOW_POWER   (PWR_CR_LPDS)         /*!< Voltage Regulator in low-power mo
 120:Drivers/STM32F4xx_HAL_Driver/Inc/stm32f4xx_ll_pwr.h **** /**
 121:Drivers/STM32F4xx_HAL_Driver/Inc/stm32f4xx_ll_pwr.h ****   * @}
 122:Drivers/STM32F4xx_HAL_Driver/Inc/stm32f4xx_ll_pwr.h ****   */
 123:Drivers/STM32F4xx_HAL_Driver/Inc/stm32f4xx_ll_pwr.h **** 
 124:Drivers/STM32F4xx_HAL_Driver/Inc/stm32f4xx_ll_pwr.h **** /** @defgroup PWR_LL_EC_PVDLEVEL Power Voltage Detector Level
 125:Drivers/STM32F4xx_HAL_Driver/Inc/stm32f4xx_ll_pwr.h ****   * @{
 126:Drivers/STM32F4xx_HAL_Driver/Inc/stm32f4xx_ll_pwr.h ****   */
 127:Drivers/STM32F4xx_HAL_Driver/Inc/stm32f4xx_ll_pwr.h **** #define LL_PWR_PVDLEVEL_0                  (PWR_CR_PLS_LEV0)      /*!< Voltage threshold detected b
 128:Drivers/STM32F4xx_HAL_Driver/Inc/stm32f4xx_ll_pwr.h **** #define LL_PWR_PVDLEVEL_1                  (PWR_CR_PLS_LEV1)      /*!< Voltage threshold detected b
 129:Drivers/STM32F4xx_HAL_Driver/Inc/stm32f4xx_ll_pwr.h **** #define LL_PWR_PVDLEVEL_2                  (PWR_CR_PLS_LEV2)      /*!< Voltage threshold detected b
 130:Drivers/STM32F4xx_HAL_Driver/Inc/stm32f4xx_ll_pwr.h **** #define LL_PWR_PVDLEVEL_3                  (PWR_CR_PLS_LEV3)      /*!< Voltage threshold detected b
 131:Drivers/STM32F4xx_HAL_Driver/Inc/stm32f4xx_ll_pwr.h **** #define LL_PWR_PVDLEVEL_4                  (PWR_CR_PLS_LEV4)      /*!< Voltage threshold detected b
 132:Drivers/STM32F4xx_HAL_Driver/Inc/stm32f4xx_ll_pwr.h **** #define LL_PWR_PVDLEVEL_5                  (PWR_CR_PLS_LEV5)      /*!< Voltage threshold detected b
 133:Drivers/STM32F4xx_HAL_Driver/Inc/stm32f4xx_ll_pwr.h **** #define LL_PWR_PVDLEVEL_6                  (PWR_CR_PLS_LEV6)      /*!< Voltage threshold detected b
 134:Drivers/STM32F4xx_HAL_Driver/Inc/stm32f4xx_ll_pwr.h **** #define LL_PWR_PVDLEVEL_7                  (PWR_CR_PLS_LEV7)      /*!< Voltage threshold detected b
 135:Drivers/STM32F4xx_HAL_Driver/Inc/stm32f4xx_ll_pwr.h **** /**
 136:Drivers/STM32F4xx_HAL_Driver/Inc/stm32f4xx_ll_pwr.h ****   * @}
 137:Drivers/STM32F4xx_HAL_Driver/Inc/stm32f4xx_ll_pwr.h ****   */
 138:Drivers/STM32F4xx_HAL_Driver/Inc/stm32f4xx_ll_pwr.h **** /** @defgroup PWR_LL_EC_WAKEUP_PIN  Wakeup Pins
 139:Drivers/STM32F4xx_HAL_Driver/Inc/stm32f4xx_ll_pwr.h ****   * @{
 140:Drivers/STM32F4xx_HAL_Driver/Inc/stm32f4xx_ll_pwr.h ****   */
 141:Drivers/STM32F4xx_HAL_Driver/Inc/stm32f4xx_ll_pwr.h **** #if defined(PWR_CSR_EWUP)
 142:Drivers/STM32F4xx_HAL_Driver/Inc/stm32f4xx_ll_pwr.h **** #define LL_PWR_WAKEUP_PIN1                 (PWR_CSR_EWUP)         /*!< WKUP pin : PA0 */
 143:Drivers/STM32F4xx_HAL_Driver/Inc/stm32f4xx_ll_pwr.h **** #endif /* PWR_CSR_EWUP */
 144:Drivers/STM32F4xx_HAL_Driver/Inc/stm32f4xx_ll_pwr.h **** #if defined(PWR_CSR_EWUP1)
 145:Drivers/STM32F4xx_HAL_Driver/Inc/stm32f4xx_ll_pwr.h **** #define LL_PWR_WAKEUP_PIN1                 (PWR_CSR_EWUP1)        /*!< WKUP pin 1 : PA0 */
 146:Drivers/STM32F4xx_HAL_Driver/Inc/stm32f4xx_ll_pwr.h **** #endif /* PWR_CSR_EWUP1 */
 147:Drivers/STM32F4xx_HAL_Driver/Inc/stm32f4xx_ll_pwr.h **** #if defined(PWR_CSR_EWUP2)
 148:Drivers/STM32F4xx_HAL_Driver/Inc/stm32f4xx_ll_pwr.h **** #define LL_PWR_WAKEUP_PIN2                 (PWR_CSR_EWUP2)        /*!< WKUP pin 2 : PC0 or PC13 acc
 149:Drivers/STM32F4xx_HAL_Driver/Inc/stm32f4xx_ll_pwr.h **** #endif /* PWR_CSR_EWUP2 */
 150:Drivers/STM32F4xx_HAL_Driver/Inc/stm32f4xx_ll_pwr.h **** #if defined(PWR_CSR_EWUP3)
 151:Drivers/STM32F4xx_HAL_Driver/Inc/stm32f4xx_ll_pwr.h **** #define LL_PWR_WAKEUP_PIN3                 (PWR_CSR_EWUP3)        /*!< WKUP pin 3 : PC1 */
 152:Drivers/STM32F4xx_HAL_Driver/Inc/stm32f4xx_ll_pwr.h **** #endif /* PWR_CSR_EWUP3 */
 153:Drivers/STM32F4xx_HAL_Driver/Inc/stm32f4xx_ll_pwr.h **** /**
 154:Drivers/STM32F4xx_HAL_Driver/Inc/stm32f4xx_ll_pwr.h ****   * @}
 155:Drivers/STM32F4xx_HAL_Driver/Inc/stm32f4xx_ll_pwr.h ****   */
 156:Drivers/STM32F4xx_HAL_Driver/Inc/stm32f4xx_ll_pwr.h **** 
 157:Drivers/STM32F4xx_HAL_Driver/Inc/stm32f4xx_ll_pwr.h **** /**
 158:Drivers/STM32F4xx_HAL_Driver/Inc/stm32f4xx_ll_pwr.h ****   * @}
ARM GAS  /tmp/ccvq1yeG.s 			page 36


 159:Drivers/STM32F4xx_HAL_Driver/Inc/stm32f4xx_ll_pwr.h ****   */
 160:Drivers/STM32F4xx_HAL_Driver/Inc/stm32f4xx_ll_pwr.h **** 
 161:Drivers/STM32F4xx_HAL_Driver/Inc/stm32f4xx_ll_pwr.h **** 
 162:Drivers/STM32F4xx_HAL_Driver/Inc/stm32f4xx_ll_pwr.h **** /* Exported macro ------------------------------------------------------------*/
 163:Drivers/STM32F4xx_HAL_Driver/Inc/stm32f4xx_ll_pwr.h **** /** @defgroup PWR_LL_Exported_Macros PWR Exported Macros
 164:Drivers/STM32F4xx_HAL_Driver/Inc/stm32f4xx_ll_pwr.h ****   * @{
 165:Drivers/STM32F4xx_HAL_Driver/Inc/stm32f4xx_ll_pwr.h ****   */
 166:Drivers/STM32F4xx_HAL_Driver/Inc/stm32f4xx_ll_pwr.h **** 
 167:Drivers/STM32F4xx_HAL_Driver/Inc/stm32f4xx_ll_pwr.h **** /** @defgroup PWR_LL_EM_WRITE_READ Common write and read registers Macros
 168:Drivers/STM32F4xx_HAL_Driver/Inc/stm32f4xx_ll_pwr.h ****   * @{
 169:Drivers/STM32F4xx_HAL_Driver/Inc/stm32f4xx_ll_pwr.h ****   */
 170:Drivers/STM32F4xx_HAL_Driver/Inc/stm32f4xx_ll_pwr.h **** 
 171:Drivers/STM32F4xx_HAL_Driver/Inc/stm32f4xx_ll_pwr.h **** /**
 172:Drivers/STM32F4xx_HAL_Driver/Inc/stm32f4xx_ll_pwr.h ****   * @brief  Write a value in PWR register
 173:Drivers/STM32F4xx_HAL_Driver/Inc/stm32f4xx_ll_pwr.h ****   * @param  __REG__ Register to be written
 174:Drivers/STM32F4xx_HAL_Driver/Inc/stm32f4xx_ll_pwr.h ****   * @param  __VALUE__ Value to be written in the register
 175:Drivers/STM32F4xx_HAL_Driver/Inc/stm32f4xx_ll_pwr.h ****   * @retval None
 176:Drivers/STM32F4xx_HAL_Driver/Inc/stm32f4xx_ll_pwr.h ****   */
 177:Drivers/STM32F4xx_HAL_Driver/Inc/stm32f4xx_ll_pwr.h **** #define LL_PWR_WriteReg(__REG__, __VALUE__) WRITE_REG(PWR->__REG__, (__VALUE__))
 178:Drivers/STM32F4xx_HAL_Driver/Inc/stm32f4xx_ll_pwr.h **** 
 179:Drivers/STM32F4xx_HAL_Driver/Inc/stm32f4xx_ll_pwr.h **** /**
 180:Drivers/STM32F4xx_HAL_Driver/Inc/stm32f4xx_ll_pwr.h ****   * @brief  Read a value in PWR register
 181:Drivers/STM32F4xx_HAL_Driver/Inc/stm32f4xx_ll_pwr.h ****   * @param  __REG__ Register to be read
 182:Drivers/STM32F4xx_HAL_Driver/Inc/stm32f4xx_ll_pwr.h ****   * @retval Register value
 183:Drivers/STM32F4xx_HAL_Driver/Inc/stm32f4xx_ll_pwr.h ****   */
 184:Drivers/STM32F4xx_HAL_Driver/Inc/stm32f4xx_ll_pwr.h **** #define LL_PWR_ReadReg(__REG__) READ_REG(PWR->__REG__)
 185:Drivers/STM32F4xx_HAL_Driver/Inc/stm32f4xx_ll_pwr.h **** /**
 186:Drivers/STM32F4xx_HAL_Driver/Inc/stm32f4xx_ll_pwr.h ****   * @}
 187:Drivers/STM32F4xx_HAL_Driver/Inc/stm32f4xx_ll_pwr.h ****   */
 188:Drivers/STM32F4xx_HAL_Driver/Inc/stm32f4xx_ll_pwr.h **** 
 189:Drivers/STM32F4xx_HAL_Driver/Inc/stm32f4xx_ll_pwr.h **** /**
 190:Drivers/STM32F4xx_HAL_Driver/Inc/stm32f4xx_ll_pwr.h ****   * @}
 191:Drivers/STM32F4xx_HAL_Driver/Inc/stm32f4xx_ll_pwr.h ****   */
 192:Drivers/STM32F4xx_HAL_Driver/Inc/stm32f4xx_ll_pwr.h **** 
 193:Drivers/STM32F4xx_HAL_Driver/Inc/stm32f4xx_ll_pwr.h **** /* Exported functions --------------------------------------------------------*/
 194:Drivers/STM32F4xx_HAL_Driver/Inc/stm32f4xx_ll_pwr.h **** /** @defgroup PWR_LL_Exported_Functions PWR Exported Functions
 195:Drivers/STM32F4xx_HAL_Driver/Inc/stm32f4xx_ll_pwr.h ****   * @{
 196:Drivers/STM32F4xx_HAL_Driver/Inc/stm32f4xx_ll_pwr.h ****   */
 197:Drivers/STM32F4xx_HAL_Driver/Inc/stm32f4xx_ll_pwr.h **** 
 198:Drivers/STM32F4xx_HAL_Driver/Inc/stm32f4xx_ll_pwr.h **** /** @defgroup PWR_LL_EF_Configuration Configuration
 199:Drivers/STM32F4xx_HAL_Driver/Inc/stm32f4xx_ll_pwr.h ****   * @{
 200:Drivers/STM32F4xx_HAL_Driver/Inc/stm32f4xx_ll_pwr.h ****   */
 201:Drivers/STM32F4xx_HAL_Driver/Inc/stm32f4xx_ll_pwr.h **** #if defined(PWR_CR_FISSR)
 202:Drivers/STM32F4xx_HAL_Driver/Inc/stm32f4xx_ll_pwr.h **** /**
 203:Drivers/STM32F4xx_HAL_Driver/Inc/stm32f4xx_ll_pwr.h ****   * @brief  Enable FLASH interface STOP while system Run is ON
 204:Drivers/STM32F4xx_HAL_Driver/Inc/stm32f4xx_ll_pwr.h ****   * @rmtoll CR    FISSR       LL_PWR_EnableFLASHInterfaceSTOP
 205:Drivers/STM32F4xx_HAL_Driver/Inc/stm32f4xx_ll_pwr.h ****   * @note  This mode is enabled only with STOP low power mode.
 206:Drivers/STM32F4xx_HAL_Driver/Inc/stm32f4xx_ll_pwr.h ****   * @retval None
 207:Drivers/STM32F4xx_HAL_Driver/Inc/stm32f4xx_ll_pwr.h ****   */
 208:Drivers/STM32F4xx_HAL_Driver/Inc/stm32f4xx_ll_pwr.h **** __STATIC_INLINE void LL_PWR_EnableFLASHInterfaceSTOP(void)
 209:Drivers/STM32F4xx_HAL_Driver/Inc/stm32f4xx_ll_pwr.h **** {
 210:Drivers/STM32F4xx_HAL_Driver/Inc/stm32f4xx_ll_pwr.h ****   SET_BIT(PWR->CR, PWR_CR_FISSR);
 211:Drivers/STM32F4xx_HAL_Driver/Inc/stm32f4xx_ll_pwr.h **** }
 212:Drivers/STM32F4xx_HAL_Driver/Inc/stm32f4xx_ll_pwr.h **** 
 213:Drivers/STM32F4xx_HAL_Driver/Inc/stm32f4xx_ll_pwr.h **** /**
 214:Drivers/STM32F4xx_HAL_Driver/Inc/stm32f4xx_ll_pwr.h ****   * @brief  Disable FLASH Interface STOP while system Run is ON
 215:Drivers/STM32F4xx_HAL_Driver/Inc/stm32f4xx_ll_pwr.h ****   * @rmtoll CR    FISSR       LL_PWR_DisableFLASHInterfaceSTOP
ARM GAS  /tmp/ccvq1yeG.s 			page 37


 216:Drivers/STM32F4xx_HAL_Driver/Inc/stm32f4xx_ll_pwr.h ****   * @retval None
 217:Drivers/STM32F4xx_HAL_Driver/Inc/stm32f4xx_ll_pwr.h ****   */
 218:Drivers/STM32F4xx_HAL_Driver/Inc/stm32f4xx_ll_pwr.h **** __STATIC_INLINE void LL_PWR_DisableFLASHInterfaceSTOP(void)
 219:Drivers/STM32F4xx_HAL_Driver/Inc/stm32f4xx_ll_pwr.h **** {
 220:Drivers/STM32F4xx_HAL_Driver/Inc/stm32f4xx_ll_pwr.h ****   CLEAR_BIT(PWR->CR, PWR_CR_FISSR);
 221:Drivers/STM32F4xx_HAL_Driver/Inc/stm32f4xx_ll_pwr.h **** }
 222:Drivers/STM32F4xx_HAL_Driver/Inc/stm32f4xx_ll_pwr.h **** 
 223:Drivers/STM32F4xx_HAL_Driver/Inc/stm32f4xx_ll_pwr.h **** /**
 224:Drivers/STM32F4xx_HAL_Driver/Inc/stm32f4xx_ll_pwr.h ****   * @brief  Check if FLASH Interface STOP while system Run feature is enabled
 225:Drivers/STM32F4xx_HAL_Driver/Inc/stm32f4xx_ll_pwr.h ****   * @rmtoll CR    FISSR       LL_PWR_IsEnabledFLASHInterfaceSTOP
 226:Drivers/STM32F4xx_HAL_Driver/Inc/stm32f4xx_ll_pwr.h ****   * @retval State of bit (1 or 0).
 227:Drivers/STM32F4xx_HAL_Driver/Inc/stm32f4xx_ll_pwr.h ****   */
 228:Drivers/STM32F4xx_HAL_Driver/Inc/stm32f4xx_ll_pwr.h **** __STATIC_INLINE uint32_t LL_PWR_IsEnabledFLASHInterfaceSTOP(void)
 229:Drivers/STM32F4xx_HAL_Driver/Inc/stm32f4xx_ll_pwr.h **** {
 230:Drivers/STM32F4xx_HAL_Driver/Inc/stm32f4xx_ll_pwr.h ****   return (READ_BIT(PWR->CR, PWR_CR_FISSR) == (PWR_CR_FISSR));
 231:Drivers/STM32F4xx_HAL_Driver/Inc/stm32f4xx_ll_pwr.h **** }
 232:Drivers/STM32F4xx_HAL_Driver/Inc/stm32f4xx_ll_pwr.h **** #endif /* PWR_CR_FISSR */
 233:Drivers/STM32F4xx_HAL_Driver/Inc/stm32f4xx_ll_pwr.h **** 
 234:Drivers/STM32F4xx_HAL_Driver/Inc/stm32f4xx_ll_pwr.h **** #if defined(PWR_CR_FMSSR)
 235:Drivers/STM32F4xx_HAL_Driver/Inc/stm32f4xx_ll_pwr.h **** /**
 236:Drivers/STM32F4xx_HAL_Driver/Inc/stm32f4xx_ll_pwr.h ****   * @brief  Enable FLASH Memory STOP while system Run is ON
 237:Drivers/STM32F4xx_HAL_Driver/Inc/stm32f4xx_ll_pwr.h ****   * @rmtoll CR    FMSSR       LL_PWR_EnableFLASHMemorySTOP
 238:Drivers/STM32F4xx_HAL_Driver/Inc/stm32f4xx_ll_pwr.h ****   * @note  This mode is enabled only with STOP low power mode.
 239:Drivers/STM32F4xx_HAL_Driver/Inc/stm32f4xx_ll_pwr.h ****   * @retval None
 240:Drivers/STM32F4xx_HAL_Driver/Inc/stm32f4xx_ll_pwr.h ****   */
 241:Drivers/STM32F4xx_HAL_Driver/Inc/stm32f4xx_ll_pwr.h **** __STATIC_INLINE void LL_PWR_EnableFLASHMemorySTOP(void)
 242:Drivers/STM32F4xx_HAL_Driver/Inc/stm32f4xx_ll_pwr.h **** {
 243:Drivers/STM32F4xx_HAL_Driver/Inc/stm32f4xx_ll_pwr.h ****   SET_BIT(PWR->CR, PWR_CR_FMSSR);
 244:Drivers/STM32F4xx_HAL_Driver/Inc/stm32f4xx_ll_pwr.h **** }
 245:Drivers/STM32F4xx_HAL_Driver/Inc/stm32f4xx_ll_pwr.h **** 
 246:Drivers/STM32F4xx_HAL_Driver/Inc/stm32f4xx_ll_pwr.h **** /**
 247:Drivers/STM32F4xx_HAL_Driver/Inc/stm32f4xx_ll_pwr.h ****   * @brief  Disable FLASH Memory STOP while system Run is ON
 248:Drivers/STM32F4xx_HAL_Driver/Inc/stm32f4xx_ll_pwr.h ****   * @rmtoll CR    FMSSR       LL_PWR_DisableFLASHMemorySTOP
 249:Drivers/STM32F4xx_HAL_Driver/Inc/stm32f4xx_ll_pwr.h ****   * @retval None
 250:Drivers/STM32F4xx_HAL_Driver/Inc/stm32f4xx_ll_pwr.h ****   */
 251:Drivers/STM32F4xx_HAL_Driver/Inc/stm32f4xx_ll_pwr.h **** __STATIC_INLINE void LL_PWR_DisableFLASHMemorySTOP(void)
 252:Drivers/STM32F4xx_HAL_Driver/Inc/stm32f4xx_ll_pwr.h **** {
 253:Drivers/STM32F4xx_HAL_Driver/Inc/stm32f4xx_ll_pwr.h ****   CLEAR_BIT(PWR->CR, PWR_CR_FMSSR);
 254:Drivers/STM32F4xx_HAL_Driver/Inc/stm32f4xx_ll_pwr.h **** }
 255:Drivers/STM32F4xx_HAL_Driver/Inc/stm32f4xx_ll_pwr.h **** 
 256:Drivers/STM32F4xx_HAL_Driver/Inc/stm32f4xx_ll_pwr.h **** /**
 257:Drivers/STM32F4xx_HAL_Driver/Inc/stm32f4xx_ll_pwr.h ****   * @brief  Check if FLASH Memory STOP while system Run feature is enabled
 258:Drivers/STM32F4xx_HAL_Driver/Inc/stm32f4xx_ll_pwr.h ****   * @rmtoll CR    FMSSR       LL_PWR_IsEnabledFLASHMemorySTOP
 259:Drivers/STM32F4xx_HAL_Driver/Inc/stm32f4xx_ll_pwr.h ****   * @retval State of bit (1 or 0).
 260:Drivers/STM32F4xx_HAL_Driver/Inc/stm32f4xx_ll_pwr.h ****   */
 261:Drivers/STM32F4xx_HAL_Driver/Inc/stm32f4xx_ll_pwr.h **** __STATIC_INLINE uint32_t LL_PWR_IsEnabledFLASHMemorySTOP(void)
 262:Drivers/STM32F4xx_HAL_Driver/Inc/stm32f4xx_ll_pwr.h **** {
 263:Drivers/STM32F4xx_HAL_Driver/Inc/stm32f4xx_ll_pwr.h ****   return (READ_BIT(PWR->CR, PWR_CR_FMSSR) == (PWR_CR_FMSSR));
 264:Drivers/STM32F4xx_HAL_Driver/Inc/stm32f4xx_ll_pwr.h **** }
 265:Drivers/STM32F4xx_HAL_Driver/Inc/stm32f4xx_ll_pwr.h **** #endif /* PWR_CR_FMSSR */
 266:Drivers/STM32F4xx_HAL_Driver/Inc/stm32f4xx_ll_pwr.h **** #if defined(PWR_CR_UDEN)
 267:Drivers/STM32F4xx_HAL_Driver/Inc/stm32f4xx_ll_pwr.h **** /**
 268:Drivers/STM32F4xx_HAL_Driver/Inc/stm32f4xx_ll_pwr.h ****   * @brief  Enable Under Drive Mode
 269:Drivers/STM32F4xx_HAL_Driver/Inc/stm32f4xx_ll_pwr.h ****   * @rmtoll CR    UDEN       LL_PWR_EnableUnderDriveMode
 270:Drivers/STM32F4xx_HAL_Driver/Inc/stm32f4xx_ll_pwr.h ****   * @note  This mode is enabled only with STOP low power mode.
 271:Drivers/STM32F4xx_HAL_Driver/Inc/stm32f4xx_ll_pwr.h ****   *        In this mode, the 1.2V domain is preserved in reduced leakage mode. This 
 272:Drivers/STM32F4xx_HAL_Driver/Inc/stm32f4xx_ll_pwr.h ****   *        mode is only available when the main Regulator or the low power Regulator 
ARM GAS  /tmp/ccvq1yeG.s 			page 38


 273:Drivers/STM32F4xx_HAL_Driver/Inc/stm32f4xx_ll_pwr.h ****   *        is in low voltage mode.      
 274:Drivers/STM32F4xx_HAL_Driver/Inc/stm32f4xx_ll_pwr.h ****   * @note  If the Under-drive mode was enabled, it is automatically disabled after 
 275:Drivers/STM32F4xx_HAL_Driver/Inc/stm32f4xx_ll_pwr.h ****   *        exiting Stop mode. 
 276:Drivers/STM32F4xx_HAL_Driver/Inc/stm32f4xx_ll_pwr.h ****   *        When the voltage Regulator operates in Under-drive mode, an additional  
 277:Drivers/STM32F4xx_HAL_Driver/Inc/stm32f4xx_ll_pwr.h ****   *        startup delay is induced when waking up from Stop mode.
 278:Drivers/STM32F4xx_HAL_Driver/Inc/stm32f4xx_ll_pwr.h ****   * @retval None
 279:Drivers/STM32F4xx_HAL_Driver/Inc/stm32f4xx_ll_pwr.h ****   */
 280:Drivers/STM32F4xx_HAL_Driver/Inc/stm32f4xx_ll_pwr.h **** __STATIC_INLINE void LL_PWR_EnableUnderDriveMode(void)
 281:Drivers/STM32F4xx_HAL_Driver/Inc/stm32f4xx_ll_pwr.h **** {
 282:Drivers/STM32F4xx_HAL_Driver/Inc/stm32f4xx_ll_pwr.h ****   SET_BIT(PWR->CR, PWR_CR_UDEN);
 283:Drivers/STM32F4xx_HAL_Driver/Inc/stm32f4xx_ll_pwr.h **** }
 284:Drivers/STM32F4xx_HAL_Driver/Inc/stm32f4xx_ll_pwr.h **** 
 285:Drivers/STM32F4xx_HAL_Driver/Inc/stm32f4xx_ll_pwr.h **** /**
 286:Drivers/STM32F4xx_HAL_Driver/Inc/stm32f4xx_ll_pwr.h ****   * @brief  Disable Under Drive Mode
 287:Drivers/STM32F4xx_HAL_Driver/Inc/stm32f4xx_ll_pwr.h ****   * @rmtoll CR    UDEN       LL_PWR_DisableUnderDriveMode
 288:Drivers/STM32F4xx_HAL_Driver/Inc/stm32f4xx_ll_pwr.h ****   * @retval None
 289:Drivers/STM32F4xx_HAL_Driver/Inc/stm32f4xx_ll_pwr.h ****   */
 290:Drivers/STM32F4xx_HAL_Driver/Inc/stm32f4xx_ll_pwr.h **** __STATIC_INLINE void LL_PWR_DisableUnderDriveMode(void)
 291:Drivers/STM32F4xx_HAL_Driver/Inc/stm32f4xx_ll_pwr.h **** {
 292:Drivers/STM32F4xx_HAL_Driver/Inc/stm32f4xx_ll_pwr.h ****   CLEAR_BIT(PWR->CR, PWR_CR_UDEN);
 293:Drivers/STM32F4xx_HAL_Driver/Inc/stm32f4xx_ll_pwr.h **** }
 294:Drivers/STM32F4xx_HAL_Driver/Inc/stm32f4xx_ll_pwr.h **** 
 295:Drivers/STM32F4xx_HAL_Driver/Inc/stm32f4xx_ll_pwr.h **** /**
 296:Drivers/STM32F4xx_HAL_Driver/Inc/stm32f4xx_ll_pwr.h ****   * @brief  Check if Under Drive Mode is enabled
 297:Drivers/STM32F4xx_HAL_Driver/Inc/stm32f4xx_ll_pwr.h ****   * @rmtoll CR    UDEN       LL_PWR_IsEnabledUnderDriveMode
 298:Drivers/STM32F4xx_HAL_Driver/Inc/stm32f4xx_ll_pwr.h ****   * @retval State of bit (1 or 0).
 299:Drivers/STM32F4xx_HAL_Driver/Inc/stm32f4xx_ll_pwr.h ****   */
 300:Drivers/STM32F4xx_HAL_Driver/Inc/stm32f4xx_ll_pwr.h **** __STATIC_INLINE uint32_t LL_PWR_IsEnabledUnderDriveMode(void)
 301:Drivers/STM32F4xx_HAL_Driver/Inc/stm32f4xx_ll_pwr.h **** {
 302:Drivers/STM32F4xx_HAL_Driver/Inc/stm32f4xx_ll_pwr.h ****   return (READ_BIT(PWR->CR, PWR_CR_UDEN) == (PWR_CR_UDEN));
 303:Drivers/STM32F4xx_HAL_Driver/Inc/stm32f4xx_ll_pwr.h **** }
 304:Drivers/STM32F4xx_HAL_Driver/Inc/stm32f4xx_ll_pwr.h **** #endif /* PWR_CR_UDEN */
 305:Drivers/STM32F4xx_HAL_Driver/Inc/stm32f4xx_ll_pwr.h **** 
 306:Drivers/STM32F4xx_HAL_Driver/Inc/stm32f4xx_ll_pwr.h **** #if defined(PWR_CR_ODSWEN)
 307:Drivers/STM32F4xx_HAL_Driver/Inc/stm32f4xx_ll_pwr.h **** /**
 308:Drivers/STM32F4xx_HAL_Driver/Inc/stm32f4xx_ll_pwr.h ****   * @brief  Enable Over drive switching
 309:Drivers/STM32F4xx_HAL_Driver/Inc/stm32f4xx_ll_pwr.h ****   * @rmtoll CR    ODSWEN       LL_PWR_EnableOverDriveSwitching
 310:Drivers/STM32F4xx_HAL_Driver/Inc/stm32f4xx_ll_pwr.h ****   * @retval None
 311:Drivers/STM32F4xx_HAL_Driver/Inc/stm32f4xx_ll_pwr.h ****   */
 312:Drivers/STM32F4xx_HAL_Driver/Inc/stm32f4xx_ll_pwr.h **** __STATIC_INLINE void LL_PWR_EnableOverDriveSwitching(void)
 313:Drivers/STM32F4xx_HAL_Driver/Inc/stm32f4xx_ll_pwr.h **** {
 314:Drivers/STM32F4xx_HAL_Driver/Inc/stm32f4xx_ll_pwr.h ****   SET_BIT(PWR->CR, PWR_CR_ODSWEN);
 315:Drivers/STM32F4xx_HAL_Driver/Inc/stm32f4xx_ll_pwr.h **** }
 316:Drivers/STM32F4xx_HAL_Driver/Inc/stm32f4xx_ll_pwr.h **** 
 317:Drivers/STM32F4xx_HAL_Driver/Inc/stm32f4xx_ll_pwr.h **** /**
 318:Drivers/STM32F4xx_HAL_Driver/Inc/stm32f4xx_ll_pwr.h ****   * @brief  Disable Over drive switching
 319:Drivers/STM32F4xx_HAL_Driver/Inc/stm32f4xx_ll_pwr.h ****   * @rmtoll CR    ODSWEN       LL_PWR_DisableOverDriveSwitching
 320:Drivers/STM32F4xx_HAL_Driver/Inc/stm32f4xx_ll_pwr.h ****   * @retval None
 321:Drivers/STM32F4xx_HAL_Driver/Inc/stm32f4xx_ll_pwr.h ****   */
 322:Drivers/STM32F4xx_HAL_Driver/Inc/stm32f4xx_ll_pwr.h **** __STATIC_INLINE void LL_PWR_DisableOverDriveSwitching(void)
 323:Drivers/STM32F4xx_HAL_Driver/Inc/stm32f4xx_ll_pwr.h **** {
 324:Drivers/STM32F4xx_HAL_Driver/Inc/stm32f4xx_ll_pwr.h ****   CLEAR_BIT(PWR->CR, PWR_CR_ODSWEN);
 325:Drivers/STM32F4xx_HAL_Driver/Inc/stm32f4xx_ll_pwr.h **** }
 326:Drivers/STM32F4xx_HAL_Driver/Inc/stm32f4xx_ll_pwr.h **** 
 327:Drivers/STM32F4xx_HAL_Driver/Inc/stm32f4xx_ll_pwr.h **** /**
 328:Drivers/STM32F4xx_HAL_Driver/Inc/stm32f4xx_ll_pwr.h ****   * @brief  Check if Over drive switching is enabled
 329:Drivers/STM32F4xx_HAL_Driver/Inc/stm32f4xx_ll_pwr.h ****   * @rmtoll CR    ODSWEN       LL_PWR_IsEnabledOverDriveSwitching
ARM GAS  /tmp/ccvq1yeG.s 			page 39


 330:Drivers/STM32F4xx_HAL_Driver/Inc/stm32f4xx_ll_pwr.h ****   * @retval State of bit (1 or 0).
 331:Drivers/STM32F4xx_HAL_Driver/Inc/stm32f4xx_ll_pwr.h ****   */
 332:Drivers/STM32F4xx_HAL_Driver/Inc/stm32f4xx_ll_pwr.h **** __STATIC_INLINE uint32_t LL_PWR_IsEnabledOverDriveSwitching(void)
 333:Drivers/STM32F4xx_HAL_Driver/Inc/stm32f4xx_ll_pwr.h **** {
 334:Drivers/STM32F4xx_HAL_Driver/Inc/stm32f4xx_ll_pwr.h ****   return (READ_BIT(PWR->CR, PWR_CR_ODSWEN) == (PWR_CR_ODSWEN));
 335:Drivers/STM32F4xx_HAL_Driver/Inc/stm32f4xx_ll_pwr.h **** }
 336:Drivers/STM32F4xx_HAL_Driver/Inc/stm32f4xx_ll_pwr.h **** #endif /* PWR_CR_ODSWEN */
 337:Drivers/STM32F4xx_HAL_Driver/Inc/stm32f4xx_ll_pwr.h **** #if defined(PWR_CR_ODEN)
 338:Drivers/STM32F4xx_HAL_Driver/Inc/stm32f4xx_ll_pwr.h **** /**
 339:Drivers/STM32F4xx_HAL_Driver/Inc/stm32f4xx_ll_pwr.h ****   * @brief  Enable Over drive Mode
 340:Drivers/STM32F4xx_HAL_Driver/Inc/stm32f4xx_ll_pwr.h ****   * @rmtoll CR    ODEN       LL_PWR_EnableOverDriveMode
 341:Drivers/STM32F4xx_HAL_Driver/Inc/stm32f4xx_ll_pwr.h ****   * @retval None
 342:Drivers/STM32F4xx_HAL_Driver/Inc/stm32f4xx_ll_pwr.h ****   */
 343:Drivers/STM32F4xx_HAL_Driver/Inc/stm32f4xx_ll_pwr.h **** __STATIC_INLINE void LL_PWR_EnableOverDriveMode(void)
 344:Drivers/STM32F4xx_HAL_Driver/Inc/stm32f4xx_ll_pwr.h **** {
 345:Drivers/STM32F4xx_HAL_Driver/Inc/stm32f4xx_ll_pwr.h ****   SET_BIT(PWR->CR, PWR_CR_ODEN);
 346:Drivers/STM32F4xx_HAL_Driver/Inc/stm32f4xx_ll_pwr.h **** }
 347:Drivers/STM32F4xx_HAL_Driver/Inc/stm32f4xx_ll_pwr.h **** 
 348:Drivers/STM32F4xx_HAL_Driver/Inc/stm32f4xx_ll_pwr.h **** /**
 349:Drivers/STM32F4xx_HAL_Driver/Inc/stm32f4xx_ll_pwr.h ****   * @brief  Disable Over drive Mode
 350:Drivers/STM32F4xx_HAL_Driver/Inc/stm32f4xx_ll_pwr.h ****   * @rmtoll CR    ODEN       LL_PWR_DisableOverDriveMode
 351:Drivers/STM32F4xx_HAL_Driver/Inc/stm32f4xx_ll_pwr.h ****   * @retval None
 352:Drivers/STM32F4xx_HAL_Driver/Inc/stm32f4xx_ll_pwr.h ****   */
 353:Drivers/STM32F4xx_HAL_Driver/Inc/stm32f4xx_ll_pwr.h **** __STATIC_INLINE void LL_PWR_DisableOverDriveMode(void)
 354:Drivers/STM32F4xx_HAL_Driver/Inc/stm32f4xx_ll_pwr.h **** {
 355:Drivers/STM32F4xx_HAL_Driver/Inc/stm32f4xx_ll_pwr.h ****   CLEAR_BIT(PWR->CR, PWR_CR_ODEN);
 356:Drivers/STM32F4xx_HAL_Driver/Inc/stm32f4xx_ll_pwr.h **** }
 357:Drivers/STM32F4xx_HAL_Driver/Inc/stm32f4xx_ll_pwr.h **** 
 358:Drivers/STM32F4xx_HAL_Driver/Inc/stm32f4xx_ll_pwr.h **** /**
 359:Drivers/STM32F4xx_HAL_Driver/Inc/stm32f4xx_ll_pwr.h ****   * @brief  Check if Over drive switching is enabled
 360:Drivers/STM32F4xx_HAL_Driver/Inc/stm32f4xx_ll_pwr.h ****   * @rmtoll CR    ODEN       LL_PWR_IsEnabledOverDriveMode
 361:Drivers/STM32F4xx_HAL_Driver/Inc/stm32f4xx_ll_pwr.h ****   * @retval State of bit (1 or 0).
 362:Drivers/STM32F4xx_HAL_Driver/Inc/stm32f4xx_ll_pwr.h ****   */
 363:Drivers/STM32F4xx_HAL_Driver/Inc/stm32f4xx_ll_pwr.h **** __STATIC_INLINE uint32_t LL_PWR_IsEnabledOverDriveMode(void)
 364:Drivers/STM32F4xx_HAL_Driver/Inc/stm32f4xx_ll_pwr.h **** {
 365:Drivers/STM32F4xx_HAL_Driver/Inc/stm32f4xx_ll_pwr.h ****   return (READ_BIT(PWR->CR, PWR_CR_ODEN) == (PWR_CR_ODEN));
 366:Drivers/STM32F4xx_HAL_Driver/Inc/stm32f4xx_ll_pwr.h **** }
 367:Drivers/STM32F4xx_HAL_Driver/Inc/stm32f4xx_ll_pwr.h **** #endif /* PWR_CR_ODEN */
 368:Drivers/STM32F4xx_HAL_Driver/Inc/stm32f4xx_ll_pwr.h **** #if defined(PWR_CR_MRUDS)
 369:Drivers/STM32F4xx_HAL_Driver/Inc/stm32f4xx_ll_pwr.h **** /**
 370:Drivers/STM32F4xx_HAL_Driver/Inc/stm32f4xx_ll_pwr.h ****   * @brief  Enable Main Regulator in deepsleep under-drive Mode
 371:Drivers/STM32F4xx_HAL_Driver/Inc/stm32f4xx_ll_pwr.h ****   * @rmtoll CR    MRUDS       LL_PWR_EnableMainRegulatorDeepSleepUDMode
 372:Drivers/STM32F4xx_HAL_Driver/Inc/stm32f4xx_ll_pwr.h ****   * @retval None
 373:Drivers/STM32F4xx_HAL_Driver/Inc/stm32f4xx_ll_pwr.h ****   */
 374:Drivers/STM32F4xx_HAL_Driver/Inc/stm32f4xx_ll_pwr.h **** __STATIC_INLINE void LL_PWR_EnableMainRegulatorDeepSleepUDMode(void)
 375:Drivers/STM32F4xx_HAL_Driver/Inc/stm32f4xx_ll_pwr.h **** {
 376:Drivers/STM32F4xx_HAL_Driver/Inc/stm32f4xx_ll_pwr.h ****   SET_BIT(PWR->CR, PWR_CR_MRUDS);
 377:Drivers/STM32F4xx_HAL_Driver/Inc/stm32f4xx_ll_pwr.h **** }
 378:Drivers/STM32F4xx_HAL_Driver/Inc/stm32f4xx_ll_pwr.h **** 
 379:Drivers/STM32F4xx_HAL_Driver/Inc/stm32f4xx_ll_pwr.h **** /**
 380:Drivers/STM32F4xx_HAL_Driver/Inc/stm32f4xx_ll_pwr.h ****   * @brief  Disable Main Regulator in deepsleep under-drive Mode
 381:Drivers/STM32F4xx_HAL_Driver/Inc/stm32f4xx_ll_pwr.h ****   * @rmtoll CR    MRUDS       LL_PWR_DisableMainRegulatorDeepSleepUDMode
 382:Drivers/STM32F4xx_HAL_Driver/Inc/stm32f4xx_ll_pwr.h ****   * @retval None
 383:Drivers/STM32F4xx_HAL_Driver/Inc/stm32f4xx_ll_pwr.h ****   */
 384:Drivers/STM32F4xx_HAL_Driver/Inc/stm32f4xx_ll_pwr.h **** __STATIC_INLINE void LL_PWR_DisableMainRegulatorDeepSleepUDMode(void)
 385:Drivers/STM32F4xx_HAL_Driver/Inc/stm32f4xx_ll_pwr.h **** {
 386:Drivers/STM32F4xx_HAL_Driver/Inc/stm32f4xx_ll_pwr.h ****   CLEAR_BIT(PWR->CR, PWR_CR_MRUDS);
ARM GAS  /tmp/ccvq1yeG.s 			page 40


 387:Drivers/STM32F4xx_HAL_Driver/Inc/stm32f4xx_ll_pwr.h **** }
 388:Drivers/STM32F4xx_HAL_Driver/Inc/stm32f4xx_ll_pwr.h **** 
 389:Drivers/STM32F4xx_HAL_Driver/Inc/stm32f4xx_ll_pwr.h **** /**
 390:Drivers/STM32F4xx_HAL_Driver/Inc/stm32f4xx_ll_pwr.h ****   * @brief  Check if Main Regulator in deepsleep under-drive Mode is enabled
 391:Drivers/STM32F4xx_HAL_Driver/Inc/stm32f4xx_ll_pwr.h ****   * @rmtoll CR    MRUDS       LL_PWR_IsEnabledMainRegulatorDeepSleepUDMode
 392:Drivers/STM32F4xx_HAL_Driver/Inc/stm32f4xx_ll_pwr.h ****   * @retval State of bit (1 or 0).
 393:Drivers/STM32F4xx_HAL_Driver/Inc/stm32f4xx_ll_pwr.h ****   */
 394:Drivers/STM32F4xx_HAL_Driver/Inc/stm32f4xx_ll_pwr.h **** __STATIC_INLINE uint32_t LL_PWR_IsEnabledMainRegulatorDeepSleepUDMode(void)
 395:Drivers/STM32F4xx_HAL_Driver/Inc/stm32f4xx_ll_pwr.h **** {
 396:Drivers/STM32F4xx_HAL_Driver/Inc/stm32f4xx_ll_pwr.h ****   return (READ_BIT(PWR->CR, PWR_CR_MRUDS) == (PWR_CR_MRUDS));
 397:Drivers/STM32F4xx_HAL_Driver/Inc/stm32f4xx_ll_pwr.h **** }
 398:Drivers/STM32F4xx_HAL_Driver/Inc/stm32f4xx_ll_pwr.h **** #endif /* PWR_CR_MRUDS */
 399:Drivers/STM32F4xx_HAL_Driver/Inc/stm32f4xx_ll_pwr.h **** 
 400:Drivers/STM32F4xx_HAL_Driver/Inc/stm32f4xx_ll_pwr.h **** #if defined(PWR_CR_LPUDS)
 401:Drivers/STM32F4xx_HAL_Driver/Inc/stm32f4xx_ll_pwr.h **** /**
 402:Drivers/STM32F4xx_HAL_Driver/Inc/stm32f4xx_ll_pwr.h ****   * @brief  Enable Low Power Regulator in deepsleep under-drive Mode
 403:Drivers/STM32F4xx_HAL_Driver/Inc/stm32f4xx_ll_pwr.h ****   * @rmtoll CR    LPUDS       LL_PWR_EnableLowPowerRegulatorDeepSleepUDMode
 404:Drivers/STM32F4xx_HAL_Driver/Inc/stm32f4xx_ll_pwr.h ****   * @retval None
 405:Drivers/STM32F4xx_HAL_Driver/Inc/stm32f4xx_ll_pwr.h ****   */
 406:Drivers/STM32F4xx_HAL_Driver/Inc/stm32f4xx_ll_pwr.h **** __STATIC_INLINE void LL_PWR_EnableLowPowerRegulatorDeepSleepUDMode(void)
 407:Drivers/STM32F4xx_HAL_Driver/Inc/stm32f4xx_ll_pwr.h **** {
 408:Drivers/STM32F4xx_HAL_Driver/Inc/stm32f4xx_ll_pwr.h ****   SET_BIT(PWR->CR, PWR_CR_LPUDS);
 409:Drivers/STM32F4xx_HAL_Driver/Inc/stm32f4xx_ll_pwr.h **** }
 410:Drivers/STM32F4xx_HAL_Driver/Inc/stm32f4xx_ll_pwr.h **** 
 411:Drivers/STM32F4xx_HAL_Driver/Inc/stm32f4xx_ll_pwr.h **** /**
 412:Drivers/STM32F4xx_HAL_Driver/Inc/stm32f4xx_ll_pwr.h ****   * @brief  Disable Low Power Regulator in deepsleep under-drive Mode
 413:Drivers/STM32F4xx_HAL_Driver/Inc/stm32f4xx_ll_pwr.h ****   * @rmtoll CR    LPUDS       LL_PWR_DisableLowPowerRegulatorDeepSleepUDMode
 414:Drivers/STM32F4xx_HAL_Driver/Inc/stm32f4xx_ll_pwr.h ****   * @retval None
 415:Drivers/STM32F4xx_HAL_Driver/Inc/stm32f4xx_ll_pwr.h ****   */
 416:Drivers/STM32F4xx_HAL_Driver/Inc/stm32f4xx_ll_pwr.h **** __STATIC_INLINE void LL_PWR_DisableLowPowerRegulatorDeepSleepUDMode(void)
 417:Drivers/STM32F4xx_HAL_Driver/Inc/stm32f4xx_ll_pwr.h **** {
 418:Drivers/STM32F4xx_HAL_Driver/Inc/stm32f4xx_ll_pwr.h ****   CLEAR_BIT(PWR->CR, PWR_CR_LPUDS);
 419:Drivers/STM32F4xx_HAL_Driver/Inc/stm32f4xx_ll_pwr.h **** }
 420:Drivers/STM32F4xx_HAL_Driver/Inc/stm32f4xx_ll_pwr.h **** 
 421:Drivers/STM32F4xx_HAL_Driver/Inc/stm32f4xx_ll_pwr.h **** /**
 422:Drivers/STM32F4xx_HAL_Driver/Inc/stm32f4xx_ll_pwr.h ****   * @brief  Check if Low Power Regulator in deepsleep under-drive Mode is enabled
 423:Drivers/STM32F4xx_HAL_Driver/Inc/stm32f4xx_ll_pwr.h ****   * @rmtoll CR    LPUDS       LL_PWR_IsEnabledLowPowerRegulatorDeepSleepUDMode
 424:Drivers/STM32F4xx_HAL_Driver/Inc/stm32f4xx_ll_pwr.h ****   * @retval State of bit (1 or 0).
 425:Drivers/STM32F4xx_HAL_Driver/Inc/stm32f4xx_ll_pwr.h ****   */
 426:Drivers/STM32F4xx_HAL_Driver/Inc/stm32f4xx_ll_pwr.h **** __STATIC_INLINE uint32_t LL_PWR_IsEnabledLowPowerRegulatorDeepSleepUDMode(void)
 427:Drivers/STM32F4xx_HAL_Driver/Inc/stm32f4xx_ll_pwr.h **** {
 428:Drivers/STM32F4xx_HAL_Driver/Inc/stm32f4xx_ll_pwr.h ****   return (READ_BIT(PWR->CR, PWR_CR_LPUDS) == (PWR_CR_LPUDS));
 429:Drivers/STM32F4xx_HAL_Driver/Inc/stm32f4xx_ll_pwr.h **** }
 430:Drivers/STM32F4xx_HAL_Driver/Inc/stm32f4xx_ll_pwr.h **** #endif /* PWR_CR_LPUDS */
 431:Drivers/STM32F4xx_HAL_Driver/Inc/stm32f4xx_ll_pwr.h **** 
 432:Drivers/STM32F4xx_HAL_Driver/Inc/stm32f4xx_ll_pwr.h **** #if defined(PWR_CR_MRLVDS)
 433:Drivers/STM32F4xx_HAL_Driver/Inc/stm32f4xx_ll_pwr.h **** /**
 434:Drivers/STM32F4xx_HAL_Driver/Inc/stm32f4xx_ll_pwr.h ****   * @brief  Enable Main Regulator low voltage Mode
 435:Drivers/STM32F4xx_HAL_Driver/Inc/stm32f4xx_ll_pwr.h ****   * @rmtoll CR    MRLVDS       LL_PWR_EnableMainRegulatorLowVoltageMode
 436:Drivers/STM32F4xx_HAL_Driver/Inc/stm32f4xx_ll_pwr.h ****   * @retval None
 437:Drivers/STM32F4xx_HAL_Driver/Inc/stm32f4xx_ll_pwr.h ****   */
 438:Drivers/STM32F4xx_HAL_Driver/Inc/stm32f4xx_ll_pwr.h **** __STATIC_INLINE void LL_PWR_EnableMainRegulatorLowVoltageMode(void)
 439:Drivers/STM32F4xx_HAL_Driver/Inc/stm32f4xx_ll_pwr.h **** {
 440:Drivers/STM32F4xx_HAL_Driver/Inc/stm32f4xx_ll_pwr.h ****   SET_BIT(PWR->CR, PWR_CR_MRLVDS);
 441:Drivers/STM32F4xx_HAL_Driver/Inc/stm32f4xx_ll_pwr.h **** }
 442:Drivers/STM32F4xx_HAL_Driver/Inc/stm32f4xx_ll_pwr.h **** 
 443:Drivers/STM32F4xx_HAL_Driver/Inc/stm32f4xx_ll_pwr.h **** /**
ARM GAS  /tmp/ccvq1yeG.s 			page 41


 444:Drivers/STM32F4xx_HAL_Driver/Inc/stm32f4xx_ll_pwr.h ****   * @brief  Disable Main Regulator low voltage Mode
 445:Drivers/STM32F4xx_HAL_Driver/Inc/stm32f4xx_ll_pwr.h ****   * @rmtoll CR    MRLVDS       LL_PWR_DisableMainRegulatorLowVoltageMode
 446:Drivers/STM32F4xx_HAL_Driver/Inc/stm32f4xx_ll_pwr.h ****   * @retval None
 447:Drivers/STM32F4xx_HAL_Driver/Inc/stm32f4xx_ll_pwr.h ****   */
 448:Drivers/STM32F4xx_HAL_Driver/Inc/stm32f4xx_ll_pwr.h **** __STATIC_INLINE void LL_PWR_DisableMainRegulatorLowVoltageMode(void)
 449:Drivers/STM32F4xx_HAL_Driver/Inc/stm32f4xx_ll_pwr.h **** {
 450:Drivers/STM32F4xx_HAL_Driver/Inc/stm32f4xx_ll_pwr.h ****   CLEAR_BIT(PWR->CR, PWR_CR_MRLVDS);
 451:Drivers/STM32F4xx_HAL_Driver/Inc/stm32f4xx_ll_pwr.h **** }
 452:Drivers/STM32F4xx_HAL_Driver/Inc/stm32f4xx_ll_pwr.h **** 
 453:Drivers/STM32F4xx_HAL_Driver/Inc/stm32f4xx_ll_pwr.h **** /**
 454:Drivers/STM32F4xx_HAL_Driver/Inc/stm32f4xx_ll_pwr.h ****   * @brief  Check if Main Regulator low voltage Mode is enabled
 455:Drivers/STM32F4xx_HAL_Driver/Inc/stm32f4xx_ll_pwr.h ****   * @rmtoll CR    MRLVDS       LL_PWR_IsEnabledMainRegulatorLowVoltageMode
 456:Drivers/STM32F4xx_HAL_Driver/Inc/stm32f4xx_ll_pwr.h ****   * @retval State of bit (1 or 0).
 457:Drivers/STM32F4xx_HAL_Driver/Inc/stm32f4xx_ll_pwr.h ****   */
 458:Drivers/STM32F4xx_HAL_Driver/Inc/stm32f4xx_ll_pwr.h **** __STATIC_INLINE uint32_t LL_PWR_IsEnabledMainRegulatorLowVoltageMode(void)
 459:Drivers/STM32F4xx_HAL_Driver/Inc/stm32f4xx_ll_pwr.h **** {
 460:Drivers/STM32F4xx_HAL_Driver/Inc/stm32f4xx_ll_pwr.h ****   return (READ_BIT(PWR->CR, PWR_CR_MRLVDS) == (PWR_CR_MRLVDS));
 461:Drivers/STM32F4xx_HAL_Driver/Inc/stm32f4xx_ll_pwr.h **** }
 462:Drivers/STM32F4xx_HAL_Driver/Inc/stm32f4xx_ll_pwr.h **** #endif /* PWR_CR_MRLVDS */
 463:Drivers/STM32F4xx_HAL_Driver/Inc/stm32f4xx_ll_pwr.h **** 
 464:Drivers/STM32F4xx_HAL_Driver/Inc/stm32f4xx_ll_pwr.h **** #if defined(PWR_CR_LPLVDS)
 465:Drivers/STM32F4xx_HAL_Driver/Inc/stm32f4xx_ll_pwr.h **** /**
 466:Drivers/STM32F4xx_HAL_Driver/Inc/stm32f4xx_ll_pwr.h ****   * @brief  Enable Low Power Regulator low voltage Mode
 467:Drivers/STM32F4xx_HAL_Driver/Inc/stm32f4xx_ll_pwr.h ****   * @rmtoll CR    LPLVDS       LL_PWR_EnableLowPowerRegulatorLowVoltageMode
 468:Drivers/STM32F4xx_HAL_Driver/Inc/stm32f4xx_ll_pwr.h ****   * @retval None
 469:Drivers/STM32F4xx_HAL_Driver/Inc/stm32f4xx_ll_pwr.h ****   */
 470:Drivers/STM32F4xx_HAL_Driver/Inc/stm32f4xx_ll_pwr.h **** __STATIC_INLINE void LL_PWR_EnableLowPowerRegulatorLowVoltageMode(void)
 471:Drivers/STM32F4xx_HAL_Driver/Inc/stm32f4xx_ll_pwr.h **** {
 472:Drivers/STM32F4xx_HAL_Driver/Inc/stm32f4xx_ll_pwr.h ****   SET_BIT(PWR->CR, PWR_CR_LPLVDS);
 473:Drivers/STM32F4xx_HAL_Driver/Inc/stm32f4xx_ll_pwr.h **** }
 474:Drivers/STM32F4xx_HAL_Driver/Inc/stm32f4xx_ll_pwr.h **** 
 475:Drivers/STM32F4xx_HAL_Driver/Inc/stm32f4xx_ll_pwr.h **** /**
 476:Drivers/STM32F4xx_HAL_Driver/Inc/stm32f4xx_ll_pwr.h ****   * @brief  Disable Low Power Regulator low voltage Mode
 477:Drivers/STM32F4xx_HAL_Driver/Inc/stm32f4xx_ll_pwr.h ****   * @rmtoll CR    LPLVDS       LL_PWR_DisableLowPowerRegulatorLowVoltageMode
 478:Drivers/STM32F4xx_HAL_Driver/Inc/stm32f4xx_ll_pwr.h ****   * @retval None
 479:Drivers/STM32F4xx_HAL_Driver/Inc/stm32f4xx_ll_pwr.h ****   */
 480:Drivers/STM32F4xx_HAL_Driver/Inc/stm32f4xx_ll_pwr.h **** __STATIC_INLINE void LL_PWR_DisableLowPowerRegulatorLowVoltageMode(void)
 481:Drivers/STM32F4xx_HAL_Driver/Inc/stm32f4xx_ll_pwr.h **** {
 482:Drivers/STM32F4xx_HAL_Driver/Inc/stm32f4xx_ll_pwr.h ****   CLEAR_BIT(PWR->CR, PWR_CR_LPLVDS);
 483:Drivers/STM32F4xx_HAL_Driver/Inc/stm32f4xx_ll_pwr.h **** }
 484:Drivers/STM32F4xx_HAL_Driver/Inc/stm32f4xx_ll_pwr.h **** 
 485:Drivers/STM32F4xx_HAL_Driver/Inc/stm32f4xx_ll_pwr.h **** /**
 486:Drivers/STM32F4xx_HAL_Driver/Inc/stm32f4xx_ll_pwr.h ****   * @brief  Check if Low Power Regulator low voltage Mode is enabled
 487:Drivers/STM32F4xx_HAL_Driver/Inc/stm32f4xx_ll_pwr.h ****   * @rmtoll CR    LPLVDS       LL_PWR_IsEnabledLowPowerRegulatorLowVoltageMode
 488:Drivers/STM32F4xx_HAL_Driver/Inc/stm32f4xx_ll_pwr.h ****   * @retval State of bit (1 or 0).
 489:Drivers/STM32F4xx_HAL_Driver/Inc/stm32f4xx_ll_pwr.h ****   */
 490:Drivers/STM32F4xx_HAL_Driver/Inc/stm32f4xx_ll_pwr.h **** __STATIC_INLINE uint32_t LL_PWR_IsEnabledLowPowerRegulatorLowVoltageMode(void)
 491:Drivers/STM32F4xx_HAL_Driver/Inc/stm32f4xx_ll_pwr.h **** {
 492:Drivers/STM32F4xx_HAL_Driver/Inc/stm32f4xx_ll_pwr.h ****   return (READ_BIT(PWR->CR, PWR_CR_LPLVDS) == (PWR_CR_LPLVDS));
 493:Drivers/STM32F4xx_HAL_Driver/Inc/stm32f4xx_ll_pwr.h **** }
 494:Drivers/STM32F4xx_HAL_Driver/Inc/stm32f4xx_ll_pwr.h **** #endif /* PWR_CR_LPLVDS */
 495:Drivers/STM32F4xx_HAL_Driver/Inc/stm32f4xx_ll_pwr.h **** /**
 496:Drivers/STM32F4xx_HAL_Driver/Inc/stm32f4xx_ll_pwr.h ****   * @brief  Set the main internal Regulator output voltage
 497:Drivers/STM32F4xx_HAL_Driver/Inc/stm32f4xx_ll_pwr.h ****   * @rmtoll CR    VOS       LL_PWR_SetRegulVoltageScaling
 498:Drivers/STM32F4xx_HAL_Driver/Inc/stm32f4xx_ll_pwr.h ****   * @param  VoltageScaling This parameter can be one of the following values:
 499:Drivers/STM32F4xx_HAL_Driver/Inc/stm32f4xx_ll_pwr.h ****   *         @arg @ref LL_PWR_REGU_VOLTAGE_SCALE1 (*)
 500:Drivers/STM32F4xx_HAL_Driver/Inc/stm32f4xx_ll_pwr.h ****   *         @arg @ref LL_PWR_REGU_VOLTAGE_SCALE2
ARM GAS  /tmp/ccvq1yeG.s 			page 42


 501:Drivers/STM32F4xx_HAL_Driver/Inc/stm32f4xx_ll_pwr.h ****   *         @arg @ref LL_PWR_REGU_VOLTAGE_SCALE3
 502:Drivers/STM32F4xx_HAL_Driver/Inc/stm32f4xx_ll_pwr.h ****   *         (*) LL_PWR_REGU_VOLTAGE_SCALE1 is not available for STM32F401xx devices
 503:Drivers/STM32F4xx_HAL_Driver/Inc/stm32f4xx_ll_pwr.h ****   * @retval None
 504:Drivers/STM32F4xx_HAL_Driver/Inc/stm32f4xx_ll_pwr.h ****   */
 505:Drivers/STM32F4xx_HAL_Driver/Inc/stm32f4xx_ll_pwr.h **** __STATIC_INLINE void LL_PWR_SetRegulVoltageScaling(uint32_t VoltageScaling)
 258              		.loc 3 505 22 view .LVU35
 259              	.LBB47:
 506:Drivers/STM32F4xx_HAL_Driver/Inc/stm32f4xx_ll_pwr.h **** {
 507:Drivers/STM32F4xx_HAL_Driver/Inc/stm32f4xx_ll_pwr.h ****   MODIFY_REG(PWR->CR, PWR_CR_VOS, VoltageScaling);
 260              		.loc 3 507 3 view .LVU36
 261 001a 2A49     		ldr	r1, .L32+4
 262              	.LBE47:
 263              	.LBE46:
 264              	.LBB49:
 265              	.LBB50:
 266              		.file 4 "Drivers/STM32F4xx_HAL_Driver/Inc/stm32f4xx_ll_rcc.h"
   1:Drivers/STM32F4xx_HAL_Driver/Inc/stm32f4xx_ll_rcc.h **** /**
   2:Drivers/STM32F4xx_HAL_Driver/Inc/stm32f4xx_ll_rcc.h ****   ******************************************************************************
   3:Drivers/STM32F4xx_HAL_Driver/Inc/stm32f4xx_ll_rcc.h ****   * @file    stm32f4xx_ll_rcc.h
   4:Drivers/STM32F4xx_HAL_Driver/Inc/stm32f4xx_ll_rcc.h ****   * @author  MCD Application Team
   5:Drivers/STM32F4xx_HAL_Driver/Inc/stm32f4xx_ll_rcc.h ****   * @brief   Header file of RCC LL module.
   6:Drivers/STM32F4xx_HAL_Driver/Inc/stm32f4xx_ll_rcc.h ****   ******************************************************************************
   7:Drivers/STM32F4xx_HAL_Driver/Inc/stm32f4xx_ll_rcc.h ****   * @attention
   8:Drivers/STM32F4xx_HAL_Driver/Inc/stm32f4xx_ll_rcc.h ****   *
   9:Drivers/STM32F4xx_HAL_Driver/Inc/stm32f4xx_ll_rcc.h ****   * Copyright (c) 2017 STMicroelectronics.
  10:Drivers/STM32F4xx_HAL_Driver/Inc/stm32f4xx_ll_rcc.h ****   * All rights reserved.
  11:Drivers/STM32F4xx_HAL_Driver/Inc/stm32f4xx_ll_rcc.h ****   *
  12:Drivers/STM32F4xx_HAL_Driver/Inc/stm32f4xx_ll_rcc.h ****   * This software is licensed under terms that can be found in the LICENSE file in
  13:Drivers/STM32F4xx_HAL_Driver/Inc/stm32f4xx_ll_rcc.h ****   * the root directory of this software component.
  14:Drivers/STM32F4xx_HAL_Driver/Inc/stm32f4xx_ll_rcc.h ****   * If no LICENSE file comes with this software, it is provided AS-IS.
  15:Drivers/STM32F4xx_HAL_Driver/Inc/stm32f4xx_ll_rcc.h ****   ******************************************************************************
  16:Drivers/STM32F4xx_HAL_Driver/Inc/stm32f4xx_ll_rcc.h ****   */
  17:Drivers/STM32F4xx_HAL_Driver/Inc/stm32f4xx_ll_rcc.h **** 
  18:Drivers/STM32F4xx_HAL_Driver/Inc/stm32f4xx_ll_rcc.h **** /* Define to prevent recursive inclusion -------------------------------------*/
  19:Drivers/STM32F4xx_HAL_Driver/Inc/stm32f4xx_ll_rcc.h **** #ifndef __STM32F4xx_LL_RCC_H
  20:Drivers/STM32F4xx_HAL_Driver/Inc/stm32f4xx_ll_rcc.h **** #define __STM32F4xx_LL_RCC_H
  21:Drivers/STM32F4xx_HAL_Driver/Inc/stm32f4xx_ll_rcc.h **** 
  22:Drivers/STM32F4xx_HAL_Driver/Inc/stm32f4xx_ll_rcc.h **** #ifdef __cplusplus
  23:Drivers/STM32F4xx_HAL_Driver/Inc/stm32f4xx_ll_rcc.h **** extern "C" {
  24:Drivers/STM32F4xx_HAL_Driver/Inc/stm32f4xx_ll_rcc.h **** #endif
  25:Drivers/STM32F4xx_HAL_Driver/Inc/stm32f4xx_ll_rcc.h **** 
  26:Drivers/STM32F4xx_HAL_Driver/Inc/stm32f4xx_ll_rcc.h **** /* Includes ------------------------------------------------------------------*/
  27:Drivers/STM32F4xx_HAL_Driver/Inc/stm32f4xx_ll_rcc.h **** #include "stm32f4xx.h"
  28:Drivers/STM32F4xx_HAL_Driver/Inc/stm32f4xx_ll_rcc.h **** 
  29:Drivers/STM32F4xx_HAL_Driver/Inc/stm32f4xx_ll_rcc.h **** /** @addtogroup STM32F4xx_LL_Driver
  30:Drivers/STM32F4xx_HAL_Driver/Inc/stm32f4xx_ll_rcc.h ****   * @{
  31:Drivers/STM32F4xx_HAL_Driver/Inc/stm32f4xx_ll_rcc.h ****   */
  32:Drivers/STM32F4xx_HAL_Driver/Inc/stm32f4xx_ll_rcc.h **** 
  33:Drivers/STM32F4xx_HAL_Driver/Inc/stm32f4xx_ll_rcc.h **** #if defined(RCC)
  34:Drivers/STM32F4xx_HAL_Driver/Inc/stm32f4xx_ll_rcc.h **** 
  35:Drivers/STM32F4xx_HAL_Driver/Inc/stm32f4xx_ll_rcc.h **** /** @defgroup RCC_LL RCC
  36:Drivers/STM32F4xx_HAL_Driver/Inc/stm32f4xx_ll_rcc.h ****   * @{
  37:Drivers/STM32F4xx_HAL_Driver/Inc/stm32f4xx_ll_rcc.h ****   */
  38:Drivers/STM32F4xx_HAL_Driver/Inc/stm32f4xx_ll_rcc.h **** 
  39:Drivers/STM32F4xx_HAL_Driver/Inc/stm32f4xx_ll_rcc.h **** /* Private types -------------------------------------------------------------*/
  40:Drivers/STM32F4xx_HAL_Driver/Inc/stm32f4xx_ll_rcc.h **** /* Private variables ---------------------------------------------------------*/
  41:Drivers/STM32F4xx_HAL_Driver/Inc/stm32f4xx_ll_rcc.h **** /** @defgroup RCC_LL_Private_Variables RCC Private Variables
ARM GAS  /tmp/ccvq1yeG.s 			page 43


  42:Drivers/STM32F4xx_HAL_Driver/Inc/stm32f4xx_ll_rcc.h ****   * @{
  43:Drivers/STM32F4xx_HAL_Driver/Inc/stm32f4xx_ll_rcc.h ****   */
  44:Drivers/STM32F4xx_HAL_Driver/Inc/stm32f4xx_ll_rcc.h **** 
  45:Drivers/STM32F4xx_HAL_Driver/Inc/stm32f4xx_ll_rcc.h **** #if defined(RCC_DCKCFGR_PLLSAIDIVR)
  46:Drivers/STM32F4xx_HAL_Driver/Inc/stm32f4xx_ll_rcc.h **** static const uint8_t aRCC_PLLSAIDIVRPrescTable[4] = {2, 4, 8, 16};
  47:Drivers/STM32F4xx_HAL_Driver/Inc/stm32f4xx_ll_rcc.h **** #endif /* RCC_DCKCFGR_PLLSAIDIVR */
  48:Drivers/STM32F4xx_HAL_Driver/Inc/stm32f4xx_ll_rcc.h **** 
  49:Drivers/STM32F4xx_HAL_Driver/Inc/stm32f4xx_ll_rcc.h **** /**
  50:Drivers/STM32F4xx_HAL_Driver/Inc/stm32f4xx_ll_rcc.h ****   * @}
  51:Drivers/STM32F4xx_HAL_Driver/Inc/stm32f4xx_ll_rcc.h ****   */
  52:Drivers/STM32F4xx_HAL_Driver/Inc/stm32f4xx_ll_rcc.h **** /* Private constants ---------------------------------------------------------*/
  53:Drivers/STM32F4xx_HAL_Driver/Inc/stm32f4xx_ll_rcc.h **** /* Private macros ------------------------------------------------------------*/
  54:Drivers/STM32F4xx_HAL_Driver/Inc/stm32f4xx_ll_rcc.h **** #if defined(USE_FULL_LL_DRIVER)
  55:Drivers/STM32F4xx_HAL_Driver/Inc/stm32f4xx_ll_rcc.h **** /** @defgroup RCC_LL_Private_Macros RCC Private Macros
  56:Drivers/STM32F4xx_HAL_Driver/Inc/stm32f4xx_ll_rcc.h ****   * @{
  57:Drivers/STM32F4xx_HAL_Driver/Inc/stm32f4xx_ll_rcc.h ****   */
  58:Drivers/STM32F4xx_HAL_Driver/Inc/stm32f4xx_ll_rcc.h **** /**
  59:Drivers/STM32F4xx_HAL_Driver/Inc/stm32f4xx_ll_rcc.h ****   * @}
  60:Drivers/STM32F4xx_HAL_Driver/Inc/stm32f4xx_ll_rcc.h ****   */
  61:Drivers/STM32F4xx_HAL_Driver/Inc/stm32f4xx_ll_rcc.h **** #endif /*USE_FULL_LL_DRIVER*/
  62:Drivers/STM32F4xx_HAL_Driver/Inc/stm32f4xx_ll_rcc.h **** /* Exported types ------------------------------------------------------------*/
  63:Drivers/STM32F4xx_HAL_Driver/Inc/stm32f4xx_ll_rcc.h **** #if defined(USE_FULL_LL_DRIVER)
  64:Drivers/STM32F4xx_HAL_Driver/Inc/stm32f4xx_ll_rcc.h **** /** @defgroup RCC_LL_Exported_Types RCC Exported Types
  65:Drivers/STM32F4xx_HAL_Driver/Inc/stm32f4xx_ll_rcc.h ****   * @{
  66:Drivers/STM32F4xx_HAL_Driver/Inc/stm32f4xx_ll_rcc.h ****   */
  67:Drivers/STM32F4xx_HAL_Driver/Inc/stm32f4xx_ll_rcc.h **** 
  68:Drivers/STM32F4xx_HAL_Driver/Inc/stm32f4xx_ll_rcc.h **** /** @defgroup LL_ES_CLOCK_FREQ Clocks Frequency Structure
  69:Drivers/STM32F4xx_HAL_Driver/Inc/stm32f4xx_ll_rcc.h ****   * @{
  70:Drivers/STM32F4xx_HAL_Driver/Inc/stm32f4xx_ll_rcc.h ****   */
  71:Drivers/STM32F4xx_HAL_Driver/Inc/stm32f4xx_ll_rcc.h **** 
  72:Drivers/STM32F4xx_HAL_Driver/Inc/stm32f4xx_ll_rcc.h **** /**
  73:Drivers/STM32F4xx_HAL_Driver/Inc/stm32f4xx_ll_rcc.h ****   * @brief  RCC Clocks Frequency Structure
  74:Drivers/STM32F4xx_HAL_Driver/Inc/stm32f4xx_ll_rcc.h ****   */
  75:Drivers/STM32F4xx_HAL_Driver/Inc/stm32f4xx_ll_rcc.h **** typedef struct
  76:Drivers/STM32F4xx_HAL_Driver/Inc/stm32f4xx_ll_rcc.h **** {
  77:Drivers/STM32F4xx_HAL_Driver/Inc/stm32f4xx_ll_rcc.h ****   uint32_t SYSCLK_Frequency;        /*!< SYSCLK clock frequency */
  78:Drivers/STM32F4xx_HAL_Driver/Inc/stm32f4xx_ll_rcc.h ****   uint32_t HCLK_Frequency;          /*!< HCLK clock frequency */
  79:Drivers/STM32F4xx_HAL_Driver/Inc/stm32f4xx_ll_rcc.h ****   uint32_t PCLK1_Frequency;         /*!< PCLK1 clock frequency */
  80:Drivers/STM32F4xx_HAL_Driver/Inc/stm32f4xx_ll_rcc.h ****   uint32_t PCLK2_Frequency;         /*!< PCLK2 clock frequency */
  81:Drivers/STM32F4xx_HAL_Driver/Inc/stm32f4xx_ll_rcc.h **** } LL_RCC_ClocksTypeDef;
  82:Drivers/STM32F4xx_HAL_Driver/Inc/stm32f4xx_ll_rcc.h **** 
  83:Drivers/STM32F4xx_HAL_Driver/Inc/stm32f4xx_ll_rcc.h **** /**
  84:Drivers/STM32F4xx_HAL_Driver/Inc/stm32f4xx_ll_rcc.h ****   * @}
  85:Drivers/STM32F4xx_HAL_Driver/Inc/stm32f4xx_ll_rcc.h ****   */
  86:Drivers/STM32F4xx_HAL_Driver/Inc/stm32f4xx_ll_rcc.h **** 
  87:Drivers/STM32F4xx_HAL_Driver/Inc/stm32f4xx_ll_rcc.h **** /**
  88:Drivers/STM32F4xx_HAL_Driver/Inc/stm32f4xx_ll_rcc.h ****   * @}
  89:Drivers/STM32F4xx_HAL_Driver/Inc/stm32f4xx_ll_rcc.h ****   */
  90:Drivers/STM32F4xx_HAL_Driver/Inc/stm32f4xx_ll_rcc.h **** #endif /* USE_FULL_LL_DRIVER */
  91:Drivers/STM32F4xx_HAL_Driver/Inc/stm32f4xx_ll_rcc.h **** 
  92:Drivers/STM32F4xx_HAL_Driver/Inc/stm32f4xx_ll_rcc.h **** /* Exported constants --------------------------------------------------------*/
  93:Drivers/STM32F4xx_HAL_Driver/Inc/stm32f4xx_ll_rcc.h **** /** @defgroup RCC_LL_Exported_Constants RCC Exported Constants
  94:Drivers/STM32F4xx_HAL_Driver/Inc/stm32f4xx_ll_rcc.h ****   * @{
  95:Drivers/STM32F4xx_HAL_Driver/Inc/stm32f4xx_ll_rcc.h ****   */
  96:Drivers/STM32F4xx_HAL_Driver/Inc/stm32f4xx_ll_rcc.h **** 
  97:Drivers/STM32F4xx_HAL_Driver/Inc/stm32f4xx_ll_rcc.h **** /** @defgroup RCC_LL_EC_OSC_VALUES Oscillator Values adaptation
  98:Drivers/STM32F4xx_HAL_Driver/Inc/stm32f4xx_ll_rcc.h ****   * @brief    Defines used to adapt values of different oscillators
ARM GAS  /tmp/ccvq1yeG.s 			page 44


  99:Drivers/STM32F4xx_HAL_Driver/Inc/stm32f4xx_ll_rcc.h ****   * @note     These values could be modified in the user environment according to 
 100:Drivers/STM32F4xx_HAL_Driver/Inc/stm32f4xx_ll_rcc.h ****   *           HW set-up.
 101:Drivers/STM32F4xx_HAL_Driver/Inc/stm32f4xx_ll_rcc.h ****   * @{
 102:Drivers/STM32F4xx_HAL_Driver/Inc/stm32f4xx_ll_rcc.h ****   */
 103:Drivers/STM32F4xx_HAL_Driver/Inc/stm32f4xx_ll_rcc.h **** #if !defined  (HSE_VALUE)
 104:Drivers/STM32F4xx_HAL_Driver/Inc/stm32f4xx_ll_rcc.h **** #define HSE_VALUE    25000000U  /*!< Value of the HSE oscillator in Hz */
 105:Drivers/STM32F4xx_HAL_Driver/Inc/stm32f4xx_ll_rcc.h **** #endif /* HSE_VALUE */
 106:Drivers/STM32F4xx_HAL_Driver/Inc/stm32f4xx_ll_rcc.h **** 
 107:Drivers/STM32F4xx_HAL_Driver/Inc/stm32f4xx_ll_rcc.h **** #if !defined  (HSI_VALUE)
 108:Drivers/STM32F4xx_HAL_Driver/Inc/stm32f4xx_ll_rcc.h **** #define HSI_VALUE    16000000U  /*!< Value of the HSI oscillator in Hz */
 109:Drivers/STM32F4xx_HAL_Driver/Inc/stm32f4xx_ll_rcc.h **** #endif /* HSI_VALUE */
 110:Drivers/STM32F4xx_HAL_Driver/Inc/stm32f4xx_ll_rcc.h **** 
 111:Drivers/STM32F4xx_HAL_Driver/Inc/stm32f4xx_ll_rcc.h **** #if !defined  (LSE_VALUE)
 112:Drivers/STM32F4xx_HAL_Driver/Inc/stm32f4xx_ll_rcc.h **** #define LSE_VALUE    32768U     /*!< Value of the LSE oscillator in Hz */
 113:Drivers/STM32F4xx_HAL_Driver/Inc/stm32f4xx_ll_rcc.h **** #endif /* LSE_VALUE */
 114:Drivers/STM32F4xx_HAL_Driver/Inc/stm32f4xx_ll_rcc.h **** 
 115:Drivers/STM32F4xx_HAL_Driver/Inc/stm32f4xx_ll_rcc.h **** #if !defined  (LSI_VALUE)
 116:Drivers/STM32F4xx_HAL_Driver/Inc/stm32f4xx_ll_rcc.h **** #define LSI_VALUE    32000U     /*!< Value of the LSI oscillator in Hz */
 117:Drivers/STM32F4xx_HAL_Driver/Inc/stm32f4xx_ll_rcc.h **** #endif /* LSI_VALUE */
 118:Drivers/STM32F4xx_HAL_Driver/Inc/stm32f4xx_ll_rcc.h **** 
 119:Drivers/STM32F4xx_HAL_Driver/Inc/stm32f4xx_ll_rcc.h **** #if !defined  (EXTERNAL_CLOCK_VALUE)
 120:Drivers/STM32F4xx_HAL_Driver/Inc/stm32f4xx_ll_rcc.h **** #define EXTERNAL_CLOCK_VALUE    12288000U /*!< Value of the I2S_CKIN external oscillator in Hz */
 121:Drivers/STM32F4xx_HAL_Driver/Inc/stm32f4xx_ll_rcc.h **** #endif /* EXTERNAL_CLOCK_VALUE */
 122:Drivers/STM32F4xx_HAL_Driver/Inc/stm32f4xx_ll_rcc.h **** /**
 123:Drivers/STM32F4xx_HAL_Driver/Inc/stm32f4xx_ll_rcc.h ****   * @}
 124:Drivers/STM32F4xx_HAL_Driver/Inc/stm32f4xx_ll_rcc.h ****   */
 125:Drivers/STM32F4xx_HAL_Driver/Inc/stm32f4xx_ll_rcc.h **** 
 126:Drivers/STM32F4xx_HAL_Driver/Inc/stm32f4xx_ll_rcc.h **** /** @defgroup RCC_LL_EC_CLEAR_FLAG Clear Flags Defines
 127:Drivers/STM32F4xx_HAL_Driver/Inc/stm32f4xx_ll_rcc.h ****   * @brief    Flags defines which can be used with LL_RCC_WriteReg function
 128:Drivers/STM32F4xx_HAL_Driver/Inc/stm32f4xx_ll_rcc.h ****   * @{
 129:Drivers/STM32F4xx_HAL_Driver/Inc/stm32f4xx_ll_rcc.h ****   */
 130:Drivers/STM32F4xx_HAL_Driver/Inc/stm32f4xx_ll_rcc.h **** #define LL_RCC_CIR_LSIRDYC                RCC_CIR_LSIRDYC     /*!< LSI Ready Interrupt Clear */
 131:Drivers/STM32F4xx_HAL_Driver/Inc/stm32f4xx_ll_rcc.h **** #define LL_RCC_CIR_LSERDYC                RCC_CIR_LSERDYC     /*!< LSE Ready Interrupt Clear */
 132:Drivers/STM32F4xx_HAL_Driver/Inc/stm32f4xx_ll_rcc.h **** #define LL_RCC_CIR_HSIRDYC                RCC_CIR_HSIRDYC     /*!< HSI Ready Interrupt Clear */
 133:Drivers/STM32F4xx_HAL_Driver/Inc/stm32f4xx_ll_rcc.h **** #define LL_RCC_CIR_HSERDYC                RCC_CIR_HSERDYC     /*!< HSE Ready Interrupt Clear */
 134:Drivers/STM32F4xx_HAL_Driver/Inc/stm32f4xx_ll_rcc.h **** #define LL_RCC_CIR_PLLRDYC                RCC_CIR_PLLRDYC     /*!< PLL Ready Interrupt Clear */
 135:Drivers/STM32F4xx_HAL_Driver/Inc/stm32f4xx_ll_rcc.h **** #if defined(RCC_PLLI2S_SUPPORT)
 136:Drivers/STM32F4xx_HAL_Driver/Inc/stm32f4xx_ll_rcc.h **** #define LL_RCC_CIR_PLLI2SRDYC             RCC_CIR_PLLI2SRDYC  /*!< PLLI2S Ready Interrupt Clear */
 137:Drivers/STM32F4xx_HAL_Driver/Inc/stm32f4xx_ll_rcc.h **** #endif /* RCC_PLLI2S_SUPPORT */
 138:Drivers/STM32F4xx_HAL_Driver/Inc/stm32f4xx_ll_rcc.h **** #if defined(RCC_PLLSAI_SUPPORT)
 139:Drivers/STM32F4xx_HAL_Driver/Inc/stm32f4xx_ll_rcc.h **** #define LL_RCC_CIR_PLLSAIRDYC             RCC_CIR_PLLSAIRDYC  /*!< PLLSAI Ready Interrupt Clear */
 140:Drivers/STM32F4xx_HAL_Driver/Inc/stm32f4xx_ll_rcc.h **** #endif /* RCC_PLLSAI_SUPPORT */
 141:Drivers/STM32F4xx_HAL_Driver/Inc/stm32f4xx_ll_rcc.h **** #define LL_RCC_CIR_CSSC                   RCC_CIR_CSSC        /*!< Clock Security System Interrupt 
 142:Drivers/STM32F4xx_HAL_Driver/Inc/stm32f4xx_ll_rcc.h **** /**
 143:Drivers/STM32F4xx_HAL_Driver/Inc/stm32f4xx_ll_rcc.h ****   * @}
 144:Drivers/STM32F4xx_HAL_Driver/Inc/stm32f4xx_ll_rcc.h ****   */
 145:Drivers/STM32F4xx_HAL_Driver/Inc/stm32f4xx_ll_rcc.h **** 
 146:Drivers/STM32F4xx_HAL_Driver/Inc/stm32f4xx_ll_rcc.h **** /** @defgroup RCC_LL_EC_GET_FLAG Get Flags Defines
 147:Drivers/STM32F4xx_HAL_Driver/Inc/stm32f4xx_ll_rcc.h ****   * @brief    Flags defines which can be used with LL_RCC_ReadReg function
 148:Drivers/STM32F4xx_HAL_Driver/Inc/stm32f4xx_ll_rcc.h ****   * @{
 149:Drivers/STM32F4xx_HAL_Driver/Inc/stm32f4xx_ll_rcc.h ****   */
 150:Drivers/STM32F4xx_HAL_Driver/Inc/stm32f4xx_ll_rcc.h **** #define LL_RCC_CIR_LSIRDYF                RCC_CIR_LSIRDYF     /*!< LSI Ready Interrupt flag */
 151:Drivers/STM32F4xx_HAL_Driver/Inc/stm32f4xx_ll_rcc.h **** #define LL_RCC_CIR_LSERDYF                RCC_CIR_LSERDYF     /*!< LSE Ready Interrupt flag */
 152:Drivers/STM32F4xx_HAL_Driver/Inc/stm32f4xx_ll_rcc.h **** #define LL_RCC_CIR_HSIRDYF                RCC_CIR_HSIRDYF     /*!< HSI Ready Interrupt flag */
 153:Drivers/STM32F4xx_HAL_Driver/Inc/stm32f4xx_ll_rcc.h **** #define LL_RCC_CIR_HSERDYF                RCC_CIR_HSERDYF     /*!< HSE Ready Interrupt flag */
 154:Drivers/STM32F4xx_HAL_Driver/Inc/stm32f4xx_ll_rcc.h **** #define LL_RCC_CIR_PLLRDYF                RCC_CIR_PLLRDYF     /*!< PLL Ready Interrupt flag */
 155:Drivers/STM32F4xx_HAL_Driver/Inc/stm32f4xx_ll_rcc.h **** #if defined(RCC_PLLI2S_SUPPORT)
ARM GAS  /tmp/ccvq1yeG.s 			page 45


 156:Drivers/STM32F4xx_HAL_Driver/Inc/stm32f4xx_ll_rcc.h **** #define LL_RCC_CIR_PLLI2SRDYF             RCC_CIR_PLLI2SRDYF  /*!< PLLI2S Ready Interrupt flag */
 157:Drivers/STM32F4xx_HAL_Driver/Inc/stm32f4xx_ll_rcc.h **** #endif /* RCC_PLLI2S_SUPPORT */
 158:Drivers/STM32F4xx_HAL_Driver/Inc/stm32f4xx_ll_rcc.h **** #if defined(RCC_PLLSAI_SUPPORT)
 159:Drivers/STM32F4xx_HAL_Driver/Inc/stm32f4xx_ll_rcc.h **** #define LL_RCC_CIR_PLLSAIRDYF             RCC_CIR_PLLSAIRDYF  /*!< PLLSAI Ready Interrupt flag */
 160:Drivers/STM32F4xx_HAL_Driver/Inc/stm32f4xx_ll_rcc.h **** #endif /* RCC_PLLSAI_SUPPORT */
 161:Drivers/STM32F4xx_HAL_Driver/Inc/stm32f4xx_ll_rcc.h **** #define LL_RCC_CIR_CSSF                   RCC_CIR_CSSF        /*!< Clock Security System Interrupt 
 162:Drivers/STM32F4xx_HAL_Driver/Inc/stm32f4xx_ll_rcc.h **** #define LL_RCC_CSR_LPWRRSTF                RCC_CSR_LPWRRSTF   /*!< Low-Power reset flag */
 163:Drivers/STM32F4xx_HAL_Driver/Inc/stm32f4xx_ll_rcc.h **** #define LL_RCC_CSR_PINRSTF                 RCC_CSR_PINRSTF    /*!< PIN reset flag */
 164:Drivers/STM32F4xx_HAL_Driver/Inc/stm32f4xx_ll_rcc.h **** #define LL_RCC_CSR_PORRSTF                 RCC_CSR_PORRSTF    /*!< POR/PDR reset flag */
 165:Drivers/STM32F4xx_HAL_Driver/Inc/stm32f4xx_ll_rcc.h **** #define LL_RCC_CSR_SFTRSTF                 RCC_CSR_SFTRSTF    /*!< Software Reset flag */
 166:Drivers/STM32F4xx_HAL_Driver/Inc/stm32f4xx_ll_rcc.h **** #define LL_RCC_CSR_IWDGRSTF                RCC_CSR_IWDGRSTF   /*!< Independent Watchdog reset flag 
 167:Drivers/STM32F4xx_HAL_Driver/Inc/stm32f4xx_ll_rcc.h **** #define LL_RCC_CSR_WWDGRSTF                RCC_CSR_WWDGRSTF   /*!< Window watchdog reset flag */
 168:Drivers/STM32F4xx_HAL_Driver/Inc/stm32f4xx_ll_rcc.h **** #if defined(RCC_CSR_BORRSTF)
 169:Drivers/STM32F4xx_HAL_Driver/Inc/stm32f4xx_ll_rcc.h **** #define LL_RCC_CSR_BORRSTF                 RCC_CSR_BORRSTF    /*!< BOR reset flag */
 170:Drivers/STM32F4xx_HAL_Driver/Inc/stm32f4xx_ll_rcc.h **** #endif /* RCC_CSR_BORRSTF */
 171:Drivers/STM32F4xx_HAL_Driver/Inc/stm32f4xx_ll_rcc.h **** /**
 172:Drivers/STM32F4xx_HAL_Driver/Inc/stm32f4xx_ll_rcc.h ****   * @}
 173:Drivers/STM32F4xx_HAL_Driver/Inc/stm32f4xx_ll_rcc.h ****   */
 174:Drivers/STM32F4xx_HAL_Driver/Inc/stm32f4xx_ll_rcc.h **** 
 175:Drivers/STM32F4xx_HAL_Driver/Inc/stm32f4xx_ll_rcc.h **** /** @defgroup RCC_LL_EC_IT IT Defines
 176:Drivers/STM32F4xx_HAL_Driver/Inc/stm32f4xx_ll_rcc.h ****   * @brief    IT defines which can be used with LL_RCC_ReadReg and  LL_RCC_WriteReg functions
 177:Drivers/STM32F4xx_HAL_Driver/Inc/stm32f4xx_ll_rcc.h ****   * @{
 178:Drivers/STM32F4xx_HAL_Driver/Inc/stm32f4xx_ll_rcc.h ****   */
 179:Drivers/STM32F4xx_HAL_Driver/Inc/stm32f4xx_ll_rcc.h **** #define LL_RCC_CIR_LSIRDYIE               RCC_CIR_LSIRDYIE      /*!< LSI Ready Interrupt Enable */
 180:Drivers/STM32F4xx_HAL_Driver/Inc/stm32f4xx_ll_rcc.h **** #define LL_RCC_CIR_LSERDYIE               RCC_CIR_LSERDYIE      /*!< LSE Ready Interrupt Enable */
 181:Drivers/STM32F4xx_HAL_Driver/Inc/stm32f4xx_ll_rcc.h **** #define LL_RCC_CIR_HSIRDYIE               RCC_CIR_HSIRDYIE      /*!< HSI Ready Interrupt Enable */
 182:Drivers/STM32F4xx_HAL_Driver/Inc/stm32f4xx_ll_rcc.h **** #define LL_RCC_CIR_HSERDYIE               RCC_CIR_HSERDYIE      /*!< HSE Ready Interrupt Enable */
 183:Drivers/STM32F4xx_HAL_Driver/Inc/stm32f4xx_ll_rcc.h **** #define LL_RCC_CIR_PLLRDYIE               RCC_CIR_PLLRDYIE      /*!< PLL Ready Interrupt Enable */
 184:Drivers/STM32F4xx_HAL_Driver/Inc/stm32f4xx_ll_rcc.h **** #if defined(RCC_PLLI2S_SUPPORT)
 185:Drivers/STM32F4xx_HAL_Driver/Inc/stm32f4xx_ll_rcc.h **** #define LL_RCC_CIR_PLLI2SRDYIE            RCC_CIR_PLLI2SRDYIE   /*!< PLLI2S Ready Interrupt Enable 
 186:Drivers/STM32F4xx_HAL_Driver/Inc/stm32f4xx_ll_rcc.h **** #endif /* RCC_PLLI2S_SUPPORT */
 187:Drivers/STM32F4xx_HAL_Driver/Inc/stm32f4xx_ll_rcc.h **** #if defined(RCC_PLLSAI_SUPPORT)
 188:Drivers/STM32F4xx_HAL_Driver/Inc/stm32f4xx_ll_rcc.h **** #define LL_RCC_CIR_PLLSAIRDYIE            RCC_CIR_PLLSAIRDYIE   /*!< PLLSAI Ready Interrupt Enable 
 189:Drivers/STM32F4xx_HAL_Driver/Inc/stm32f4xx_ll_rcc.h **** #endif /* RCC_PLLSAI_SUPPORT */
 190:Drivers/STM32F4xx_HAL_Driver/Inc/stm32f4xx_ll_rcc.h **** /**
 191:Drivers/STM32F4xx_HAL_Driver/Inc/stm32f4xx_ll_rcc.h ****   * @}
 192:Drivers/STM32F4xx_HAL_Driver/Inc/stm32f4xx_ll_rcc.h ****   */
 193:Drivers/STM32F4xx_HAL_Driver/Inc/stm32f4xx_ll_rcc.h **** 
 194:Drivers/STM32F4xx_HAL_Driver/Inc/stm32f4xx_ll_rcc.h **** /** @defgroup RCC_LL_EC_SYS_CLKSOURCE  System clock switch
 195:Drivers/STM32F4xx_HAL_Driver/Inc/stm32f4xx_ll_rcc.h ****   * @{
 196:Drivers/STM32F4xx_HAL_Driver/Inc/stm32f4xx_ll_rcc.h ****   */
 197:Drivers/STM32F4xx_HAL_Driver/Inc/stm32f4xx_ll_rcc.h **** #define LL_RCC_SYS_CLKSOURCE_HSI           RCC_CFGR_SW_HSI    /*!< HSI selection as system clock */
 198:Drivers/STM32F4xx_HAL_Driver/Inc/stm32f4xx_ll_rcc.h **** #define LL_RCC_SYS_CLKSOURCE_HSE           RCC_CFGR_SW_HSE    /*!< HSE selection as system clock */
 199:Drivers/STM32F4xx_HAL_Driver/Inc/stm32f4xx_ll_rcc.h **** #define LL_RCC_SYS_CLKSOURCE_PLL           RCC_CFGR_SW_PLL    /*!< PLL selection as system clock */
 200:Drivers/STM32F4xx_HAL_Driver/Inc/stm32f4xx_ll_rcc.h **** #if defined(RCC_CFGR_SW_PLLR)
 201:Drivers/STM32F4xx_HAL_Driver/Inc/stm32f4xx_ll_rcc.h **** #define LL_RCC_SYS_CLKSOURCE_PLLR          RCC_CFGR_SW_PLLR   /*!< PLLR selection as system clock *
 202:Drivers/STM32F4xx_HAL_Driver/Inc/stm32f4xx_ll_rcc.h **** #endif /* RCC_CFGR_SW_PLLR */
 203:Drivers/STM32F4xx_HAL_Driver/Inc/stm32f4xx_ll_rcc.h **** /**
 204:Drivers/STM32F4xx_HAL_Driver/Inc/stm32f4xx_ll_rcc.h ****   * @}
 205:Drivers/STM32F4xx_HAL_Driver/Inc/stm32f4xx_ll_rcc.h ****   */
 206:Drivers/STM32F4xx_HAL_Driver/Inc/stm32f4xx_ll_rcc.h **** 
 207:Drivers/STM32F4xx_HAL_Driver/Inc/stm32f4xx_ll_rcc.h **** /** @defgroup RCC_LL_EC_SYS_CLKSOURCE_STATUS  System clock switch status
 208:Drivers/STM32F4xx_HAL_Driver/Inc/stm32f4xx_ll_rcc.h ****   * @{
 209:Drivers/STM32F4xx_HAL_Driver/Inc/stm32f4xx_ll_rcc.h ****   */
 210:Drivers/STM32F4xx_HAL_Driver/Inc/stm32f4xx_ll_rcc.h **** #define LL_RCC_SYS_CLKSOURCE_STATUS_HSI    RCC_CFGR_SWS_HSI   /*!< HSI used as system clock */
 211:Drivers/STM32F4xx_HAL_Driver/Inc/stm32f4xx_ll_rcc.h **** #define LL_RCC_SYS_CLKSOURCE_STATUS_HSE    RCC_CFGR_SWS_HSE   /*!< HSE used as system clock */
 212:Drivers/STM32F4xx_HAL_Driver/Inc/stm32f4xx_ll_rcc.h **** #define LL_RCC_SYS_CLKSOURCE_STATUS_PLL    RCC_CFGR_SWS_PLL   /*!< PLL used as system clock */
ARM GAS  /tmp/ccvq1yeG.s 			page 46


 213:Drivers/STM32F4xx_HAL_Driver/Inc/stm32f4xx_ll_rcc.h **** #if defined(RCC_PLLR_SYSCLK_SUPPORT)
