ARM GAS  /tmp/ccDYdWST.s 			page 1


   1              		.cpu cortex-m4
   2              		.arch armv7e-m
   3              		.fpu fpv4-sp-d16
   4              		.eabi_attribute 27, 1
   5              		.eabi_attribute 28, 1
   6              		.eabi_attribute 20, 1
   7              		.eabi_attribute 21, 1
   8              		.eabi_attribute 23, 3
   9              		.eabi_attribute 24, 1
  10              		.eabi_attribute 25, 1
  11              		.eabi_attribute 26, 1
  12              		.eabi_attribute 30, 2
  13              		.eabi_attribute 34, 1
  14              		.eabi_attribute 18, 4
  15              		.file	"stm32f4xx_hal_pcd.c"
  16              		.text
  17              	.Ltext0:
  18              		.cfi_sections	.debug_frame
  19              		.file 1 "Drivers/STM32F4xx_HAL_Driver/Src/stm32f4xx_hal_pcd.c"
  20              		.section	.text.HAL_PCD_MspInit,"ax",%progbits
  21              		.align	1
  22              		.p2align 2,,3
  23              		.weak	HAL_PCD_MspInit
  24              		.syntax unified
  25              		.thumb
  26              		.thumb_func
  28              	HAL_PCD_MspInit:
  29              	.LVL0:
  30              	.LFB136:
   1:Drivers/STM32F4xx_HAL_Driver/Src/stm32f4xx_hal_pcd.c **** /**
   2:Drivers/STM32F4xx_HAL_Driver/Src/stm32f4xx_hal_pcd.c ****   ******************************************************************************
   3:Drivers/STM32F4xx_HAL_Driver/Src/stm32f4xx_hal_pcd.c ****   * @file    stm32f4xx_hal_pcd.c
   4:Drivers/STM32F4xx_HAL_Driver/Src/stm32f4xx_hal_pcd.c ****   * @author  MCD Application Team
   5:Drivers/STM32F4xx_HAL_Driver/Src/stm32f4xx_hal_pcd.c ****   * @brief   PCD HAL module driver.
   6:Drivers/STM32F4xx_HAL_Driver/Src/stm32f4xx_hal_pcd.c ****   *          This file provides firmware functions to manage the following
   7:Drivers/STM32F4xx_HAL_Driver/Src/stm32f4xx_hal_pcd.c ****   *          functionalities of the USB Peripheral Controller:
   8:Drivers/STM32F4xx_HAL_Driver/Src/stm32f4xx_hal_pcd.c ****   *           + Initialization and de-initialization functions
   9:Drivers/STM32F4xx_HAL_Driver/Src/stm32f4xx_hal_pcd.c ****   *           + IO operation functions
  10:Drivers/STM32F4xx_HAL_Driver/Src/stm32f4xx_hal_pcd.c ****   *           + Peripheral Control functions
  11:Drivers/STM32F4xx_HAL_Driver/Src/stm32f4xx_hal_pcd.c ****   *           + Peripheral State functions
  12:Drivers/STM32F4xx_HAL_Driver/Src/stm32f4xx_hal_pcd.c ****   *
  13:Drivers/STM32F4xx_HAL_Driver/Src/stm32f4xx_hal_pcd.c ****   ******************************************************************************
  14:Drivers/STM32F4xx_HAL_Driver/Src/stm32f4xx_hal_pcd.c ****   * @attention
  15:Drivers/STM32F4xx_HAL_Driver/Src/stm32f4xx_hal_pcd.c ****   *
  16:Drivers/STM32F4xx_HAL_Driver/Src/stm32f4xx_hal_pcd.c ****   * Copyright (c) 2016 STMicroelectronics.
  17:Drivers/STM32F4xx_HAL_Driver/Src/stm32f4xx_hal_pcd.c ****   * All rights reserved.
  18:Drivers/STM32F4xx_HAL_Driver/Src/stm32f4xx_hal_pcd.c ****   *
  19:Drivers/STM32F4xx_HAL_Driver/Src/stm32f4xx_hal_pcd.c ****   * This software is licensed under terms that can be found in the LICENSE file
  20:Drivers/STM32F4xx_HAL_Driver/Src/stm32f4xx_hal_pcd.c ****   * in the root directory of this software component.
  21:Drivers/STM32F4xx_HAL_Driver/Src/stm32f4xx_hal_pcd.c ****   * If no LICENSE file comes with this software, it is provided AS-IS.
  22:Drivers/STM32F4xx_HAL_Driver/Src/stm32f4xx_hal_pcd.c ****   *
  23:Drivers/STM32F4xx_HAL_Driver/Src/stm32f4xx_hal_pcd.c ****   ******************************************************************************
  24:Drivers/STM32F4xx_HAL_Driver/Src/stm32f4xx_hal_pcd.c ****   @verbatim
  25:Drivers/STM32F4xx_HAL_Driver/Src/stm32f4xx_hal_pcd.c ****   ==============================================================================
  26:Drivers/STM32F4xx_HAL_Driver/Src/stm32f4xx_hal_pcd.c ****                     ##### How to use this driver #####
  27:Drivers/STM32F4xx_HAL_Driver/Src/stm32f4xx_hal_pcd.c ****   ==============================================================================
  28:Drivers/STM32F4xx_HAL_Driver/Src/stm32f4xx_hal_pcd.c ****     [..]
ARM GAS  /tmp/ccDYdWST.s 			page 2


  29:Drivers/STM32F4xx_HAL_Driver/Src/stm32f4xx_hal_pcd.c ****       The PCD HAL driver can be used as follows:
  30:Drivers/STM32F4xx_HAL_Driver/Src/stm32f4xx_hal_pcd.c **** 
  31:Drivers/STM32F4xx_HAL_Driver/Src/stm32f4xx_hal_pcd.c ****      (#) Declare a PCD_HandleTypeDef handle structure, for example:
  32:Drivers/STM32F4xx_HAL_Driver/Src/stm32f4xx_hal_pcd.c ****          PCD_HandleTypeDef  hpcd;
  33:Drivers/STM32F4xx_HAL_Driver/Src/stm32f4xx_hal_pcd.c **** 
  34:Drivers/STM32F4xx_HAL_Driver/Src/stm32f4xx_hal_pcd.c ****      (#) Fill parameters of Init structure in HCD handle
  35:Drivers/STM32F4xx_HAL_Driver/Src/stm32f4xx_hal_pcd.c **** 
  36:Drivers/STM32F4xx_HAL_Driver/Src/stm32f4xx_hal_pcd.c ****      (#) Call HAL_PCD_Init() API to initialize the PCD peripheral (Core, Device core, ...)
  37:Drivers/STM32F4xx_HAL_Driver/Src/stm32f4xx_hal_pcd.c **** 
  38:Drivers/STM32F4xx_HAL_Driver/Src/stm32f4xx_hal_pcd.c ****      (#) Initialize the PCD low level resources through the HAL_PCD_MspInit() API:
  39:Drivers/STM32F4xx_HAL_Driver/Src/stm32f4xx_hal_pcd.c ****          (##) Enable the PCD/USB Low Level interface clock using
  40:Drivers/STM32F4xx_HAL_Driver/Src/stm32f4xx_hal_pcd.c ****               (+++) __HAL_RCC_USB_OTG_FS_CLK_ENABLE();
  41:Drivers/STM32F4xx_HAL_Driver/Src/stm32f4xx_hal_pcd.c ****               (+++) __HAL_RCC_USB_OTG_HS_CLK_ENABLE(); (For High Speed Mode)
  42:Drivers/STM32F4xx_HAL_Driver/Src/stm32f4xx_hal_pcd.c **** 
  43:Drivers/STM32F4xx_HAL_Driver/Src/stm32f4xx_hal_pcd.c ****          (##) Initialize the related GPIO clocks
  44:Drivers/STM32F4xx_HAL_Driver/Src/stm32f4xx_hal_pcd.c ****          (##) Configure PCD pin-out
  45:Drivers/STM32F4xx_HAL_Driver/Src/stm32f4xx_hal_pcd.c ****          (##) Configure PCD NVIC interrupt
  46:Drivers/STM32F4xx_HAL_Driver/Src/stm32f4xx_hal_pcd.c **** 
  47:Drivers/STM32F4xx_HAL_Driver/Src/stm32f4xx_hal_pcd.c ****      (#)Associate the Upper USB device stack to the HAL PCD Driver:
  48:Drivers/STM32F4xx_HAL_Driver/Src/stm32f4xx_hal_pcd.c ****          (##) hpcd.pData = pdev;
  49:Drivers/STM32F4xx_HAL_Driver/Src/stm32f4xx_hal_pcd.c **** 
  50:Drivers/STM32F4xx_HAL_Driver/Src/stm32f4xx_hal_pcd.c ****      (#)Enable PCD transmission and reception:
  51:Drivers/STM32F4xx_HAL_Driver/Src/stm32f4xx_hal_pcd.c ****          (##) HAL_PCD_Start();
  52:Drivers/STM32F4xx_HAL_Driver/Src/stm32f4xx_hal_pcd.c **** 
  53:Drivers/STM32F4xx_HAL_Driver/Src/stm32f4xx_hal_pcd.c ****   @endverbatim
  54:Drivers/STM32F4xx_HAL_Driver/Src/stm32f4xx_hal_pcd.c ****   ******************************************************************************
  55:Drivers/STM32F4xx_HAL_Driver/Src/stm32f4xx_hal_pcd.c ****   */
  56:Drivers/STM32F4xx_HAL_Driver/Src/stm32f4xx_hal_pcd.c **** 
  57:Drivers/STM32F4xx_HAL_Driver/Src/stm32f4xx_hal_pcd.c **** /* Includes ------------------------------------------------------------------*/
  58:Drivers/STM32F4xx_HAL_Driver/Src/stm32f4xx_hal_pcd.c **** #include "stm32f4xx_hal.h"
  59:Drivers/STM32F4xx_HAL_Driver/Src/stm32f4xx_hal_pcd.c **** 
  60:Drivers/STM32F4xx_HAL_Driver/Src/stm32f4xx_hal_pcd.c **** /** @addtogroup STM32F4xx_HAL_Driver
  61:Drivers/STM32F4xx_HAL_Driver/Src/stm32f4xx_hal_pcd.c ****   * @{
  62:Drivers/STM32F4xx_HAL_Driver/Src/stm32f4xx_hal_pcd.c ****   */
  63:Drivers/STM32F4xx_HAL_Driver/Src/stm32f4xx_hal_pcd.c **** 
  64:Drivers/STM32F4xx_HAL_Driver/Src/stm32f4xx_hal_pcd.c **** /** @defgroup PCD PCD
  65:Drivers/STM32F4xx_HAL_Driver/Src/stm32f4xx_hal_pcd.c ****   * @brief PCD HAL module driver
  66:Drivers/STM32F4xx_HAL_Driver/Src/stm32f4xx_hal_pcd.c ****   * @{
  67:Drivers/STM32F4xx_HAL_Driver/Src/stm32f4xx_hal_pcd.c ****   */
  68:Drivers/STM32F4xx_HAL_Driver/Src/stm32f4xx_hal_pcd.c **** 
  69:Drivers/STM32F4xx_HAL_Driver/Src/stm32f4xx_hal_pcd.c **** #ifdef HAL_PCD_MODULE_ENABLED
  70:Drivers/STM32F4xx_HAL_Driver/Src/stm32f4xx_hal_pcd.c **** 
  71:Drivers/STM32F4xx_HAL_Driver/Src/stm32f4xx_hal_pcd.c **** #if defined (USB_OTG_FS) || defined (USB_OTG_HS)
  72:Drivers/STM32F4xx_HAL_Driver/Src/stm32f4xx_hal_pcd.c **** 
  73:Drivers/STM32F4xx_HAL_Driver/Src/stm32f4xx_hal_pcd.c **** /* Private types -------------------------------------------------------------*/
  74:Drivers/STM32F4xx_HAL_Driver/Src/stm32f4xx_hal_pcd.c **** /* Private variables ---------------------------------------------------------*/
  75:Drivers/STM32F4xx_HAL_Driver/Src/stm32f4xx_hal_pcd.c **** /* Private constants ---------------------------------------------------------*/
  76:Drivers/STM32F4xx_HAL_Driver/Src/stm32f4xx_hal_pcd.c **** /* Private macros ------------------------------------------------------------*/
  77:Drivers/STM32F4xx_HAL_Driver/Src/stm32f4xx_hal_pcd.c **** /** @defgroup PCD_Private_Macros PCD Private Macros
  78:Drivers/STM32F4xx_HAL_Driver/Src/stm32f4xx_hal_pcd.c ****   * @{
  79:Drivers/STM32F4xx_HAL_Driver/Src/stm32f4xx_hal_pcd.c ****   */
  80:Drivers/STM32F4xx_HAL_Driver/Src/stm32f4xx_hal_pcd.c **** #define PCD_MIN(a, b)  (((a) < (b)) ? (a) : (b))
  81:Drivers/STM32F4xx_HAL_Driver/Src/stm32f4xx_hal_pcd.c **** #define PCD_MAX(a, b)  (((a) > (b)) ? (a) : (b))
  82:Drivers/STM32F4xx_HAL_Driver/Src/stm32f4xx_hal_pcd.c **** /**
  83:Drivers/STM32F4xx_HAL_Driver/Src/stm32f4xx_hal_pcd.c ****   * @}
  84:Drivers/STM32F4xx_HAL_Driver/Src/stm32f4xx_hal_pcd.c ****   */
  85:Drivers/STM32F4xx_HAL_Driver/Src/stm32f4xx_hal_pcd.c **** 
ARM GAS  /tmp/ccDYdWST.s 			page 3


  86:Drivers/STM32F4xx_HAL_Driver/Src/stm32f4xx_hal_pcd.c **** /* Private functions prototypes ----------------------------------------------*/
  87:Drivers/STM32F4xx_HAL_Driver/Src/stm32f4xx_hal_pcd.c **** /** @defgroup PCD_Private_Functions PCD Private Functions
  88:Drivers/STM32F4xx_HAL_Driver/Src/stm32f4xx_hal_pcd.c ****   * @{
  89:Drivers/STM32F4xx_HAL_Driver/Src/stm32f4xx_hal_pcd.c ****   */
  90:Drivers/STM32F4xx_HAL_Driver/Src/stm32f4xx_hal_pcd.c **** #if defined (USB_OTG_FS) || defined (USB_OTG_HS)
  91:Drivers/STM32F4xx_HAL_Driver/Src/stm32f4xx_hal_pcd.c **** static HAL_StatusTypeDef PCD_WriteEmptyTxFifo(PCD_HandleTypeDef *hpcd, uint32_t epnum);
  92:Drivers/STM32F4xx_HAL_Driver/Src/stm32f4xx_hal_pcd.c **** static HAL_StatusTypeDef PCD_EP_OutXfrComplete_int(PCD_HandleTypeDef *hpcd, uint32_t epnum);
  93:Drivers/STM32F4xx_HAL_Driver/Src/stm32f4xx_hal_pcd.c **** static HAL_StatusTypeDef PCD_EP_OutSetupPacket_int(PCD_HandleTypeDef *hpcd, uint32_t epnum);
  94:Drivers/STM32F4xx_HAL_Driver/Src/stm32f4xx_hal_pcd.c **** #endif /* defined (USB_OTG_FS) || defined (USB_OTG_HS) */
  95:Drivers/STM32F4xx_HAL_Driver/Src/stm32f4xx_hal_pcd.c **** /**
  96:Drivers/STM32F4xx_HAL_Driver/Src/stm32f4xx_hal_pcd.c ****   * @}
  97:Drivers/STM32F4xx_HAL_Driver/Src/stm32f4xx_hal_pcd.c ****   */
  98:Drivers/STM32F4xx_HAL_Driver/Src/stm32f4xx_hal_pcd.c **** 
  99:Drivers/STM32F4xx_HAL_Driver/Src/stm32f4xx_hal_pcd.c **** /* Exported functions --------------------------------------------------------*/
 100:Drivers/STM32F4xx_HAL_Driver/Src/stm32f4xx_hal_pcd.c **** /** @defgroup PCD_Exported_Functions PCD Exported Functions
 101:Drivers/STM32F4xx_HAL_Driver/Src/stm32f4xx_hal_pcd.c ****   * @{
 102:Drivers/STM32F4xx_HAL_Driver/Src/stm32f4xx_hal_pcd.c ****   */
 103:Drivers/STM32F4xx_HAL_Driver/Src/stm32f4xx_hal_pcd.c **** 
 104:Drivers/STM32F4xx_HAL_Driver/Src/stm32f4xx_hal_pcd.c **** /** @defgroup PCD_Exported_Functions_Group1 Initialization and de-initialization functions
 105:Drivers/STM32F4xx_HAL_Driver/Src/stm32f4xx_hal_pcd.c ****   *  @brief    Initialization and Configuration functions
 106:Drivers/STM32F4xx_HAL_Driver/Src/stm32f4xx_hal_pcd.c ****   *
 107:Drivers/STM32F4xx_HAL_Driver/Src/stm32f4xx_hal_pcd.c **** @verbatim
 108:Drivers/STM32F4xx_HAL_Driver/Src/stm32f4xx_hal_pcd.c ****  ===============================================================================
 109:Drivers/STM32F4xx_HAL_Driver/Src/stm32f4xx_hal_pcd.c ****             ##### Initialization and de-initialization functions #####
 110:Drivers/STM32F4xx_HAL_Driver/Src/stm32f4xx_hal_pcd.c ****  ===============================================================================
 111:Drivers/STM32F4xx_HAL_Driver/Src/stm32f4xx_hal_pcd.c ****     [..]  This section provides functions allowing to:
 112:Drivers/STM32F4xx_HAL_Driver/Src/stm32f4xx_hal_pcd.c **** 
 113:Drivers/STM32F4xx_HAL_Driver/Src/stm32f4xx_hal_pcd.c **** @endverbatim
 114:Drivers/STM32F4xx_HAL_Driver/Src/stm32f4xx_hal_pcd.c ****   * @{
 115:Drivers/STM32F4xx_HAL_Driver/Src/stm32f4xx_hal_pcd.c ****   */
 116:Drivers/STM32F4xx_HAL_Driver/Src/stm32f4xx_hal_pcd.c **** 
 117:Drivers/STM32F4xx_HAL_Driver/Src/stm32f4xx_hal_pcd.c **** /**
 118:Drivers/STM32F4xx_HAL_Driver/Src/stm32f4xx_hal_pcd.c ****   * @brief  Initializes the PCD according to the specified
 119:Drivers/STM32F4xx_HAL_Driver/Src/stm32f4xx_hal_pcd.c ****   *         parameters in the PCD_InitTypeDef and initialize the associated handle.
 120:Drivers/STM32F4xx_HAL_Driver/Src/stm32f4xx_hal_pcd.c ****   * @param  hpcd PCD handle
 121:Drivers/STM32F4xx_HAL_Driver/Src/stm32f4xx_hal_pcd.c ****   * @retval HAL status
 122:Drivers/STM32F4xx_HAL_Driver/Src/stm32f4xx_hal_pcd.c ****   */
 123:Drivers/STM32F4xx_HAL_Driver/Src/stm32f4xx_hal_pcd.c **** HAL_StatusTypeDef HAL_PCD_Init(PCD_HandleTypeDef *hpcd)
 124:Drivers/STM32F4xx_HAL_Driver/Src/stm32f4xx_hal_pcd.c **** {
 125:Drivers/STM32F4xx_HAL_Driver/Src/stm32f4xx_hal_pcd.c **** #if defined (USB_OTG_FS)
 126:Drivers/STM32F4xx_HAL_Driver/Src/stm32f4xx_hal_pcd.c ****   const USB_OTG_GlobalTypeDef *USBx;
 127:Drivers/STM32F4xx_HAL_Driver/Src/stm32f4xx_hal_pcd.c **** #endif /* defined (USB_OTG_FS) */
 128:Drivers/STM32F4xx_HAL_Driver/Src/stm32f4xx_hal_pcd.c ****   uint8_t i;
 129:Drivers/STM32F4xx_HAL_Driver/Src/stm32f4xx_hal_pcd.c **** 
 130:Drivers/STM32F4xx_HAL_Driver/Src/stm32f4xx_hal_pcd.c ****   /* Check the PCD handle allocation */
 131:Drivers/STM32F4xx_HAL_Driver/Src/stm32f4xx_hal_pcd.c ****   if (hpcd == NULL)
 132:Drivers/STM32F4xx_HAL_Driver/Src/stm32f4xx_hal_pcd.c ****   {
 133:Drivers/STM32F4xx_HAL_Driver/Src/stm32f4xx_hal_pcd.c ****     return HAL_ERROR;
 134:Drivers/STM32F4xx_HAL_Driver/Src/stm32f4xx_hal_pcd.c ****   }
 135:Drivers/STM32F4xx_HAL_Driver/Src/stm32f4xx_hal_pcd.c **** 
 136:Drivers/STM32F4xx_HAL_Driver/Src/stm32f4xx_hal_pcd.c ****   /* Check the parameters */
 137:Drivers/STM32F4xx_HAL_Driver/Src/stm32f4xx_hal_pcd.c ****   assert_param(IS_PCD_ALL_INSTANCE(hpcd->Instance));
 138:Drivers/STM32F4xx_HAL_Driver/Src/stm32f4xx_hal_pcd.c **** 
 139:Drivers/STM32F4xx_HAL_Driver/Src/stm32f4xx_hal_pcd.c **** #if defined (USB_OTG_FS)
 140:Drivers/STM32F4xx_HAL_Driver/Src/stm32f4xx_hal_pcd.c ****   USBx = hpcd->Instance;
 141:Drivers/STM32F4xx_HAL_Driver/Src/stm32f4xx_hal_pcd.c **** #endif /* defined (USB_OTG_FS) */
 142:Drivers/STM32F4xx_HAL_Driver/Src/stm32f4xx_hal_pcd.c **** 
ARM GAS  /tmp/ccDYdWST.s 			page 4


 143:Drivers/STM32F4xx_HAL_Driver/Src/stm32f4xx_hal_pcd.c ****   if (hpcd->State == HAL_PCD_STATE_RESET)
 144:Drivers/STM32F4xx_HAL_Driver/Src/stm32f4xx_hal_pcd.c ****   {
 145:Drivers/STM32F4xx_HAL_Driver/Src/stm32f4xx_hal_pcd.c ****     /* Allocate lock resource and initialize it */
 146:Drivers/STM32F4xx_HAL_Driver/Src/stm32f4xx_hal_pcd.c ****     hpcd->Lock = HAL_UNLOCKED;
 147:Drivers/STM32F4xx_HAL_Driver/Src/stm32f4xx_hal_pcd.c **** 
 148:Drivers/STM32F4xx_HAL_Driver/Src/stm32f4xx_hal_pcd.c **** #if (USE_HAL_PCD_REGISTER_CALLBACKS == 1U)
 149:Drivers/STM32F4xx_HAL_Driver/Src/stm32f4xx_hal_pcd.c ****     hpcd->SOFCallback = HAL_PCD_SOFCallback;
 150:Drivers/STM32F4xx_HAL_Driver/Src/stm32f4xx_hal_pcd.c ****     hpcd->SetupStageCallback = HAL_PCD_SetupStageCallback;
 151:Drivers/STM32F4xx_HAL_Driver/Src/stm32f4xx_hal_pcd.c ****     hpcd->ResetCallback = HAL_PCD_ResetCallback;
 152:Drivers/STM32F4xx_HAL_Driver/Src/stm32f4xx_hal_pcd.c ****     hpcd->SuspendCallback = HAL_PCD_SuspendCallback;
 153:Drivers/STM32F4xx_HAL_Driver/Src/stm32f4xx_hal_pcd.c ****     hpcd->ResumeCallback = HAL_PCD_ResumeCallback;
 154:Drivers/STM32F4xx_HAL_Driver/Src/stm32f4xx_hal_pcd.c ****     hpcd->ConnectCallback = HAL_PCD_ConnectCallback;
 155:Drivers/STM32F4xx_HAL_Driver/Src/stm32f4xx_hal_pcd.c ****     hpcd->DisconnectCallback = HAL_PCD_DisconnectCallback;
 156:Drivers/STM32F4xx_HAL_Driver/Src/stm32f4xx_hal_pcd.c ****     hpcd->DataOutStageCallback = HAL_PCD_DataOutStageCallback;
 157:Drivers/STM32F4xx_HAL_Driver/Src/stm32f4xx_hal_pcd.c ****     hpcd->DataInStageCallback = HAL_PCD_DataInStageCallback;
 158:Drivers/STM32F4xx_HAL_Driver/Src/stm32f4xx_hal_pcd.c ****     hpcd->ISOOUTIncompleteCallback = HAL_PCD_ISOOUTIncompleteCallback;
 159:Drivers/STM32F4xx_HAL_Driver/Src/stm32f4xx_hal_pcd.c ****     hpcd->ISOINIncompleteCallback = HAL_PCD_ISOINIncompleteCallback;
 160:Drivers/STM32F4xx_HAL_Driver/Src/stm32f4xx_hal_pcd.c ****     hpcd->LPMCallback = HAL_PCDEx_LPM_Callback;
 161:Drivers/STM32F4xx_HAL_Driver/Src/stm32f4xx_hal_pcd.c ****     hpcd->BCDCallback = HAL_PCDEx_BCD_Callback;
 162:Drivers/STM32F4xx_HAL_Driver/Src/stm32f4xx_hal_pcd.c **** 
 163:Drivers/STM32F4xx_HAL_Driver/Src/stm32f4xx_hal_pcd.c ****     if (hpcd->MspInitCallback == NULL)
 164:Drivers/STM32F4xx_HAL_Driver/Src/stm32f4xx_hal_pcd.c ****     {
 165:Drivers/STM32F4xx_HAL_Driver/Src/stm32f4xx_hal_pcd.c ****       hpcd->MspInitCallback = HAL_PCD_MspInit;
 166:Drivers/STM32F4xx_HAL_Driver/Src/stm32f4xx_hal_pcd.c ****     }
 167:Drivers/STM32F4xx_HAL_Driver/Src/stm32f4xx_hal_pcd.c **** 
 168:Drivers/STM32F4xx_HAL_Driver/Src/stm32f4xx_hal_pcd.c ****     /* Init the low level hardware */
 169:Drivers/STM32F4xx_HAL_Driver/Src/stm32f4xx_hal_pcd.c ****     hpcd->MspInitCallback(hpcd);
 170:Drivers/STM32F4xx_HAL_Driver/Src/stm32f4xx_hal_pcd.c **** #else
 171:Drivers/STM32F4xx_HAL_Driver/Src/stm32f4xx_hal_pcd.c ****     /* Init the low level hardware : GPIO, CLOCK, NVIC... */
 172:Drivers/STM32F4xx_HAL_Driver/Src/stm32f4xx_hal_pcd.c ****     HAL_PCD_MspInit(hpcd);
 173:Drivers/STM32F4xx_HAL_Driver/Src/stm32f4xx_hal_pcd.c **** #endif /* (USE_HAL_PCD_REGISTER_CALLBACKS) */
 174:Drivers/STM32F4xx_HAL_Driver/Src/stm32f4xx_hal_pcd.c ****   }
 175:Drivers/STM32F4xx_HAL_Driver/Src/stm32f4xx_hal_pcd.c **** 
 176:Drivers/STM32F4xx_HAL_Driver/Src/stm32f4xx_hal_pcd.c ****   hpcd->State = HAL_PCD_STATE_BUSY;
 177:Drivers/STM32F4xx_HAL_Driver/Src/stm32f4xx_hal_pcd.c **** 
 178:Drivers/STM32F4xx_HAL_Driver/Src/stm32f4xx_hal_pcd.c **** #if defined (USB_OTG_FS)
 179:Drivers/STM32F4xx_HAL_Driver/Src/stm32f4xx_hal_pcd.c ****   /* Disable DMA mode for FS instance */
 180:Drivers/STM32F4xx_HAL_Driver/Src/stm32f4xx_hal_pcd.c ****   if (USBx == USB_OTG_FS)
 181:Drivers/STM32F4xx_HAL_Driver/Src/stm32f4xx_hal_pcd.c ****   {
 182:Drivers/STM32F4xx_HAL_Driver/Src/stm32f4xx_hal_pcd.c ****     hpcd->Init.dma_enable = 0U;
 183:Drivers/STM32F4xx_HAL_Driver/Src/stm32f4xx_hal_pcd.c ****   }
 184:Drivers/STM32F4xx_HAL_Driver/Src/stm32f4xx_hal_pcd.c **** #endif /* defined (USB_OTG_FS) */
 185:Drivers/STM32F4xx_HAL_Driver/Src/stm32f4xx_hal_pcd.c **** 
 186:Drivers/STM32F4xx_HAL_Driver/Src/stm32f4xx_hal_pcd.c ****   /* Disable the Interrupts */
 187:Drivers/STM32F4xx_HAL_Driver/Src/stm32f4xx_hal_pcd.c ****   __HAL_PCD_DISABLE(hpcd);
 188:Drivers/STM32F4xx_HAL_Driver/Src/stm32f4xx_hal_pcd.c **** 
 189:Drivers/STM32F4xx_HAL_Driver/Src/stm32f4xx_hal_pcd.c ****   /*Init the Core (common init.) */
 190:Drivers/STM32F4xx_HAL_Driver/Src/stm32f4xx_hal_pcd.c ****   if (USB_CoreInit(hpcd->Instance, hpcd->Init) != HAL_OK)
 191:Drivers/STM32F4xx_HAL_Driver/Src/stm32f4xx_hal_pcd.c ****   {
 192:Drivers/STM32F4xx_HAL_Driver/Src/stm32f4xx_hal_pcd.c ****     hpcd->State = HAL_PCD_STATE_ERROR;
 193:Drivers/STM32F4xx_HAL_Driver/Src/stm32f4xx_hal_pcd.c ****     return HAL_ERROR;
 194:Drivers/STM32F4xx_HAL_Driver/Src/stm32f4xx_hal_pcd.c ****   }
 195:Drivers/STM32F4xx_HAL_Driver/Src/stm32f4xx_hal_pcd.c **** 
 196:Drivers/STM32F4xx_HAL_Driver/Src/stm32f4xx_hal_pcd.c ****   /* Force Device Mode */
 197:Drivers/STM32F4xx_HAL_Driver/Src/stm32f4xx_hal_pcd.c ****   if (USB_SetCurrentMode(hpcd->Instance, USB_DEVICE_MODE) != HAL_OK)
 198:Drivers/STM32F4xx_HAL_Driver/Src/stm32f4xx_hal_pcd.c ****   {
 199:Drivers/STM32F4xx_HAL_Driver/Src/stm32f4xx_hal_pcd.c ****     hpcd->State = HAL_PCD_STATE_ERROR;
ARM GAS  /tmp/ccDYdWST.s 			page 5


 200:Drivers/STM32F4xx_HAL_Driver/Src/stm32f4xx_hal_pcd.c ****     return HAL_ERROR;
 201:Drivers/STM32F4xx_HAL_Driver/Src/stm32f4xx_hal_pcd.c ****   }
 202:Drivers/STM32F4xx_HAL_Driver/Src/stm32f4xx_hal_pcd.c **** 
 203:Drivers/STM32F4xx_HAL_Driver/Src/stm32f4xx_hal_pcd.c ****   /* Init endpoints structures */
 204:Drivers/STM32F4xx_HAL_Driver/Src/stm32f4xx_hal_pcd.c ****   for (i = 0U; i < hpcd->Init.dev_endpoints; i++)
 205:Drivers/STM32F4xx_HAL_Driver/Src/stm32f4xx_hal_pcd.c ****   {
 206:Drivers/STM32F4xx_HAL_Driver/Src/stm32f4xx_hal_pcd.c ****     /* Init ep structure */
 207:Drivers/STM32F4xx_HAL_Driver/Src/stm32f4xx_hal_pcd.c ****     hpcd->IN_ep[i].is_in = 1U;
 208:Drivers/STM32F4xx_HAL_Driver/Src/stm32f4xx_hal_pcd.c ****     hpcd->IN_ep[i].num = i;
 209:Drivers/STM32F4xx_HAL_Driver/Src/stm32f4xx_hal_pcd.c ****     hpcd->IN_ep[i].tx_fifo_num = i;
 210:Drivers/STM32F4xx_HAL_Driver/Src/stm32f4xx_hal_pcd.c ****     /* Control until ep is activated */
 211:Drivers/STM32F4xx_HAL_Driver/Src/stm32f4xx_hal_pcd.c ****     hpcd->IN_ep[i].type = EP_TYPE_CTRL;
 212:Drivers/STM32F4xx_HAL_Driver/Src/stm32f4xx_hal_pcd.c ****     hpcd->IN_ep[i].maxpacket = 0U;
 213:Drivers/STM32F4xx_HAL_Driver/Src/stm32f4xx_hal_pcd.c ****     hpcd->IN_ep[i].xfer_buff = 0U;
 214:Drivers/STM32F4xx_HAL_Driver/Src/stm32f4xx_hal_pcd.c ****     hpcd->IN_ep[i].xfer_len = 0U;
 215:Drivers/STM32F4xx_HAL_Driver/Src/stm32f4xx_hal_pcd.c ****   }
 216:Drivers/STM32F4xx_HAL_Driver/Src/stm32f4xx_hal_pcd.c **** 
 217:Drivers/STM32F4xx_HAL_Driver/Src/stm32f4xx_hal_pcd.c ****   for (i = 0U; i < hpcd->Init.dev_endpoints; i++)
 218:Drivers/STM32F4xx_HAL_Driver/Src/stm32f4xx_hal_pcd.c ****   {
 219:Drivers/STM32F4xx_HAL_Driver/Src/stm32f4xx_hal_pcd.c ****     hpcd->OUT_ep[i].is_in = 0U;
 220:Drivers/STM32F4xx_HAL_Driver/Src/stm32f4xx_hal_pcd.c ****     hpcd->OUT_ep[i].num = i;
 221:Drivers/STM32F4xx_HAL_Driver/Src/stm32f4xx_hal_pcd.c ****     /* Control until ep is activated */
 222:Drivers/STM32F4xx_HAL_Driver/Src/stm32f4xx_hal_pcd.c ****     hpcd->OUT_ep[i].type = EP_TYPE_CTRL;
 223:Drivers/STM32F4xx_HAL_Driver/Src/stm32f4xx_hal_pcd.c ****     hpcd->OUT_ep[i].maxpacket = 0U;
 224:Drivers/STM32F4xx_HAL_Driver/Src/stm32f4xx_hal_pcd.c ****     hpcd->OUT_ep[i].xfer_buff = 0U;
 225:Drivers/STM32F4xx_HAL_Driver/Src/stm32f4xx_hal_pcd.c ****     hpcd->OUT_ep[i].xfer_len = 0U;
 226:Drivers/STM32F4xx_HAL_Driver/Src/stm32f4xx_hal_pcd.c ****   }
 227:Drivers/STM32F4xx_HAL_Driver/Src/stm32f4xx_hal_pcd.c **** 
 228:Drivers/STM32F4xx_HAL_Driver/Src/stm32f4xx_hal_pcd.c ****   /* Init Device */
 229:Drivers/STM32F4xx_HAL_Driver/Src/stm32f4xx_hal_pcd.c ****   if (USB_DevInit(hpcd->Instance, hpcd->Init) != HAL_OK)
 230:Drivers/STM32F4xx_HAL_Driver/Src/stm32f4xx_hal_pcd.c ****   {
 231:Drivers/STM32F4xx_HAL_Driver/Src/stm32f4xx_hal_pcd.c ****     hpcd->State = HAL_PCD_STATE_ERROR;
 232:Drivers/STM32F4xx_HAL_Driver/Src/stm32f4xx_hal_pcd.c ****     return HAL_ERROR;
 233:Drivers/STM32F4xx_HAL_Driver/Src/stm32f4xx_hal_pcd.c ****   }
 234:Drivers/STM32F4xx_HAL_Driver/Src/stm32f4xx_hal_pcd.c **** 
 235:Drivers/STM32F4xx_HAL_Driver/Src/stm32f4xx_hal_pcd.c ****   hpcd->USB_Address = 0U;
 236:Drivers/STM32F4xx_HAL_Driver/Src/stm32f4xx_hal_pcd.c ****   hpcd->State = HAL_PCD_STATE_READY;
 237:Drivers/STM32F4xx_HAL_Driver/Src/stm32f4xx_hal_pcd.c **** #if defined(STM32F446xx) || defined(STM32F469xx) || defined(STM32F479xx) || defined(STM32F412Zx) \
 238:Drivers/STM32F4xx_HAL_Driver/Src/stm32f4xx_hal_pcd.c ****  || defined(STM32F412Vx) || defined(STM32F412Rx) || defined(STM32F412Cx) || defined(STM32F413xx) \
 239:Drivers/STM32F4xx_HAL_Driver/Src/stm32f4xx_hal_pcd.c ****  || defined(STM32F423xx)
 240:Drivers/STM32F4xx_HAL_Driver/Src/stm32f4xx_hal_pcd.c ****   /* Activate LPM */
 241:Drivers/STM32F4xx_HAL_Driver/Src/stm32f4xx_hal_pcd.c ****   if (hpcd->Init.lpm_enable == 1U)
 242:Drivers/STM32F4xx_HAL_Driver/Src/stm32f4xx_hal_pcd.c ****   {
 243:Drivers/STM32F4xx_HAL_Driver/Src/stm32f4xx_hal_pcd.c ****     (void)HAL_PCDEx_ActivateLPM(hpcd);
 244:Drivers/STM32F4xx_HAL_Driver/Src/stm32f4xx_hal_pcd.c ****   }
 245:Drivers/STM32F4xx_HAL_Driver/Src/stm32f4xx_hal_pcd.c **** #endif /* defined(STM32F446xx) || defined(STM32F469xx) || defined(STM32F479xx) || defined(STM32F412
 246:Drivers/STM32F4xx_HAL_Driver/Src/stm32f4xx_hal_pcd.c ****           defined(STM32F412Vx) || defined(STM32F412Rx) || defined(STM32F412Cx) || defined(STM32F413
 247:Drivers/STM32F4xx_HAL_Driver/Src/stm32f4xx_hal_pcd.c ****           defined(STM32F423xx) */
 248:Drivers/STM32F4xx_HAL_Driver/Src/stm32f4xx_hal_pcd.c ****   (void)USB_DevDisconnect(hpcd->Instance);
 249:Drivers/STM32F4xx_HAL_Driver/Src/stm32f4xx_hal_pcd.c **** 
 250:Drivers/STM32F4xx_HAL_Driver/Src/stm32f4xx_hal_pcd.c ****   return HAL_OK;
 251:Drivers/STM32F4xx_HAL_Driver/Src/stm32f4xx_hal_pcd.c **** }
 252:Drivers/STM32F4xx_HAL_Driver/Src/stm32f4xx_hal_pcd.c **** 
 253:Drivers/STM32F4xx_HAL_Driver/Src/stm32f4xx_hal_pcd.c **** /**
 254:Drivers/STM32F4xx_HAL_Driver/Src/stm32f4xx_hal_pcd.c ****   * @brief  DeInitializes the PCD peripheral.
 255:Drivers/STM32F4xx_HAL_Driver/Src/stm32f4xx_hal_pcd.c ****   * @param  hpcd PCD handle
 256:Drivers/STM32F4xx_HAL_Driver/Src/stm32f4xx_hal_pcd.c ****   * @retval HAL status
ARM GAS  /tmp/ccDYdWST.s 			page 6


 257:Drivers/STM32F4xx_HAL_Driver/Src/stm32f4xx_hal_pcd.c ****   */
 258:Drivers/STM32F4xx_HAL_Driver/Src/stm32f4xx_hal_pcd.c **** HAL_StatusTypeDef HAL_PCD_DeInit(PCD_HandleTypeDef *hpcd)
 259:Drivers/STM32F4xx_HAL_Driver/Src/stm32f4xx_hal_pcd.c **** {
 260:Drivers/STM32F4xx_HAL_Driver/Src/stm32f4xx_hal_pcd.c ****   /* Check the PCD handle allocation */
 261:Drivers/STM32F4xx_HAL_Driver/Src/stm32f4xx_hal_pcd.c ****   if (hpcd == NULL)
 262:Drivers/STM32F4xx_HAL_Driver/Src/stm32f4xx_hal_pcd.c ****   {
 263:Drivers/STM32F4xx_HAL_Driver/Src/stm32f4xx_hal_pcd.c ****     return HAL_ERROR;
 264:Drivers/STM32F4xx_HAL_Driver/Src/stm32f4xx_hal_pcd.c ****   }
 265:Drivers/STM32F4xx_HAL_Driver/Src/stm32f4xx_hal_pcd.c **** 
 266:Drivers/STM32F4xx_HAL_Driver/Src/stm32f4xx_hal_pcd.c ****   hpcd->State = HAL_PCD_STATE_BUSY;
 267:Drivers/STM32F4xx_HAL_Driver/Src/stm32f4xx_hal_pcd.c **** 
 268:Drivers/STM32F4xx_HAL_Driver/Src/stm32f4xx_hal_pcd.c ****   /* Stop Device */
 269:Drivers/STM32F4xx_HAL_Driver/Src/stm32f4xx_hal_pcd.c ****   if (USB_StopDevice(hpcd->Instance) != HAL_OK)
 270:Drivers/STM32F4xx_HAL_Driver/Src/stm32f4xx_hal_pcd.c ****   {
 271:Drivers/STM32F4xx_HAL_Driver/Src/stm32f4xx_hal_pcd.c ****     return HAL_ERROR;
 272:Drivers/STM32F4xx_HAL_Driver/Src/stm32f4xx_hal_pcd.c ****   }
 273:Drivers/STM32F4xx_HAL_Driver/Src/stm32f4xx_hal_pcd.c **** 
 274:Drivers/STM32F4xx_HAL_Driver/Src/stm32f4xx_hal_pcd.c **** #if (USE_HAL_PCD_REGISTER_CALLBACKS == 1U)
 275:Drivers/STM32F4xx_HAL_Driver/Src/stm32f4xx_hal_pcd.c ****   if (hpcd->MspDeInitCallback == NULL)
 276:Drivers/STM32F4xx_HAL_Driver/Src/stm32f4xx_hal_pcd.c ****   {
 277:Drivers/STM32F4xx_HAL_Driver/Src/stm32f4xx_hal_pcd.c ****     hpcd->MspDeInitCallback = HAL_PCD_MspDeInit; /* Legacy weak MspDeInit  */
 278:Drivers/STM32F4xx_HAL_Driver/Src/stm32f4xx_hal_pcd.c ****   }
 279:Drivers/STM32F4xx_HAL_Driver/Src/stm32f4xx_hal_pcd.c **** 
 280:Drivers/STM32F4xx_HAL_Driver/Src/stm32f4xx_hal_pcd.c ****   /* DeInit the low level hardware */
 281:Drivers/STM32F4xx_HAL_Driver/Src/stm32f4xx_hal_pcd.c ****   hpcd->MspDeInitCallback(hpcd);
 282:Drivers/STM32F4xx_HAL_Driver/Src/stm32f4xx_hal_pcd.c **** #else
 283:Drivers/STM32F4xx_HAL_Driver/Src/stm32f4xx_hal_pcd.c ****   /* DeInit the low level hardware: CLOCK, NVIC.*/
 284:Drivers/STM32F4xx_HAL_Driver/Src/stm32f4xx_hal_pcd.c ****   HAL_PCD_MspDeInit(hpcd);
 285:Drivers/STM32F4xx_HAL_Driver/Src/stm32f4xx_hal_pcd.c **** #endif /* USE_HAL_PCD_REGISTER_CALLBACKS */
 286:Drivers/STM32F4xx_HAL_Driver/Src/stm32f4xx_hal_pcd.c **** 
 287:Drivers/STM32F4xx_HAL_Driver/Src/stm32f4xx_hal_pcd.c ****   hpcd->State = HAL_PCD_STATE_RESET;
 288:Drivers/STM32F4xx_HAL_Driver/Src/stm32f4xx_hal_pcd.c **** 
 289:Drivers/STM32F4xx_HAL_Driver/Src/stm32f4xx_hal_pcd.c ****   return HAL_OK;
 290:Drivers/STM32F4xx_HAL_Driver/Src/stm32f4xx_hal_pcd.c **** }
 291:Drivers/STM32F4xx_HAL_Driver/Src/stm32f4xx_hal_pcd.c **** 
 292:Drivers/STM32F4xx_HAL_Driver/Src/stm32f4xx_hal_pcd.c **** /**
 293:Drivers/STM32F4xx_HAL_Driver/Src/stm32f4xx_hal_pcd.c ****   * @brief  Initializes the PCD MSP.
 294:Drivers/STM32F4xx_HAL_Driver/Src/stm32f4xx_hal_pcd.c ****   * @param  hpcd PCD handle
 295:Drivers/STM32F4xx_HAL_Driver/Src/stm32f4xx_hal_pcd.c ****   * @retval None
 296:Drivers/STM32F4xx_HAL_Driver/Src/stm32f4xx_hal_pcd.c ****   */
 297:Drivers/STM32F4xx_HAL_Driver/Src/stm32f4xx_hal_pcd.c **** __weak void HAL_PCD_MspInit(PCD_HandleTypeDef *hpcd)
 298:Drivers/STM32F4xx_HAL_Driver/Src/stm32f4xx_hal_pcd.c **** {
  31              		.loc 1 298 1 view -0
  32              		.cfi_startproc
  33              		@ args = 0, pretend = 0, frame = 0
  34              		@ frame_needed = 0, uses_anonymous_args = 0
  35              		@ link register save eliminated.
 299:Drivers/STM32F4xx_HAL_Driver/Src/stm32f4xx_hal_pcd.c ****   /* Prevent unused argument(s) compilation warning */
 300:Drivers/STM32F4xx_HAL_Driver/Src/stm32f4xx_hal_pcd.c ****   UNUSED(hpcd);
  36              		.loc 1 300 3 view .LVU1
 301:Drivers/STM32F4xx_HAL_Driver/Src/stm32f4xx_hal_pcd.c **** 
 302:Drivers/STM32F4xx_HAL_Driver/Src/stm32f4xx_hal_pcd.c ****   /* NOTE : This function should not be modified, when the callback is needed,
 303:Drivers/STM32F4xx_HAL_Driver/Src/stm32f4xx_hal_pcd.c ****             the HAL_PCD_MspInit could be implemented in the user file
 304:Drivers/STM32F4xx_HAL_Driver/Src/stm32f4xx_hal_pcd.c ****    */
 305:Drivers/STM32F4xx_HAL_Driver/Src/stm32f4xx_hal_pcd.c **** }
  37              		.loc 1 305 1 is_stmt 0 view .LVU2
  38 0000 7047     		bx	lr
ARM GAS  /tmp/ccDYdWST.s 			page 7


  39              		.cfi_endproc
  40              	.LFE136:
  42 0002 00BF     		.section	.text.HAL_PCD_Init,"ax",%progbits
  43              		.align	1
  44              		.p2align 2,,3
  45              		.global	HAL_PCD_Init
  46              		.syntax unified
  47              		.thumb
  48              		.thumb_func
  50              	HAL_PCD_Init:
  51              	.LVL1:
  52              	.LFB134:
 124:Drivers/STM32F4xx_HAL_Driver/Src/stm32f4xx_hal_pcd.c **** #if defined (USB_OTG_FS)
  53              		.loc 1 124 1 is_stmt 1 view -0
  54              		.cfi_startproc
  55              		@ args = 0, pretend = 0, frame = 0
  56              		@ frame_needed = 0, uses_anonymous_args = 0
 126:Drivers/STM32F4xx_HAL_Driver/Src/stm32f4xx_hal_pcd.c **** #endif /* defined (USB_OTG_FS) */
  57              		.loc 1 126 3 view .LVU4
 128:Drivers/STM32F4xx_HAL_Driver/Src/stm32f4xx_hal_pcd.c **** 
  58              		.loc 1 128 3 view .LVU5
 131:Drivers/STM32F4xx_HAL_Driver/Src/stm32f4xx_hal_pcd.c ****   {
  59              		.loc 1 131 3 view .LVU6
 124:Drivers/STM32F4xx_HAL_Driver/Src/stm32f4xx_hal_pcd.c **** #if defined (USB_OTG_FS)
  60              		.loc 1 124 1 is_stmt 0 view .LVU7
  61 0000 30B5     		push	{r4, r5, lr}
  62              	.LCFI0:
  63              		.cfi_def_cfa_offset 12
  64              		.cfi_offset 4, -12
  65              		.cfi_offset 5, -8
  66              		.cfi_offset 14, -4
  67 0002 83B0     		sub	sp, sp, #12
  68              	.LCFI1:
  69              		.cfi_def_cfa_offset 24
 131:Drivers/STM32F4xx_HAL_Driver/Src/stm32f4xx_hal_pcd.c ****   {
  70              		.loc 1 131 6 view .LVU8
  71 0004 08B3     		cbz	r0, .L4
 137:Drivers/STM32F4xx_HAL_Driver/Src/stm32f4xx_hal_pcd.c **** 
  72              		.loc 1 137 3 is_stmt 1 view .LVU9
 140:Drivers/STM32F4xx_HAL_Driver/Src/stm32f4xx_hal_pcd.c **** #endif /* defined (USB_OTG_FS) */
  73              		.loc 1 140 3 view .LVU10
 143:Drivers/STM32F4xx_HAL_Driver/Src/stm32f4xx_hal_pcd.c ****   {
  74              		.loc 1 143 11 is_stmt 0 view .LVU11
  75 0006 90F89534 		ldrb	r3, [r0, #1173]	@ zero_extendqisi2
 140:Drivers/STM32F4xx_HAL_Driver/Src/stm32f4xx_hal_pcd.c **** #endif /* defined (USB_OTG_FS) */
  76              		.loc 1 140 8 view .LVU12
  77 000a 0568     		ldr	r5, [r0]
  78              	.LVL2:
 143:Drivers/STM32F4xx_HAL_Driver/Src/stm32f4xx_hal_pcd.c ****   {
  79              		.loc 1 143 3 is_stmt 1 view .LVU13
  80 000c 0446     		mov	r4, r0
 143:Drivers/STM32F4xx_HAL_Driver/Src/stm32f4xx_hal_pcd.c ****   {
  81              		.loc 1 143 6 is_stmt 0 view .LVU14
  82 000e 03F0FF02 		and	r2, r3, #255
  83 0012 002B     		cmp	r3, #0
  84 0014 00F0EF81 		beq	.L108
  85 0018 2846     		mov	r0, r5
ARM GAS  /tmp/ccDYdWST.s 			page 8


  86              	.LVL3:
  87              	.L5:
 176:Drivers/STM32F4xx_HAL_Driver/Src/stm32f4xx_hal_pcd.c **** 
  88              		.loc 1 176 3 is_stmt 1 view .LVU15
 176:Drivers/STM32F4xx_HAL_Driver/Src/stm32f4xx_hal_pcd.c **** 
  89              		.loc 1 176 15 is_stmt 0 view .LVU16
  90 001a 0323     		movs	r3, #3
 180:Drivers/STM32F4xx_HAL_Driver/Src/stm32f4xx_hal_pcd.c ****   {
  91              		.loc 1 180 6 view .LVU17
  92 001c B5F1A04F 		cmp	r5, #1342177280
 176:Drivers/STM32F4xx_HAL_Driver/Src/stm32f4xx_hal_pcd.c **** 
  93              		.loc 1 176 15 view .LVU18
  94 0020 84F89534 		strb	r3, [r4, #1173]
 180:Drivers/STM32F4xx_HAL_Driver/Src/stm32f4xx_hal_pcd.c ****   {
  95              		.loc 1 180 3 is_stmt 1 view .LVU19
 182:Drivers/STM32F4xx_HAL_Driver/Src/stm32f4xx_hal_pcd.c ****   }
  96              		.loc 1 182 5 view .LVU20
 187:Drivers/STM32F4xx_HAL_Driver/Src/stm32f4xx_hal_pcd.c **** 
  97              		.loc 1 187 3 view .LVU21
 182:Drivers/STM32F4xx_HAL_Driver/Src/stm32f4xx_hal_pcd.c ****   }
  98              		.loc 1 182 27 is_stmt 0 view .LVU22
  99 0024 04BF     		itt	eq
 100 0026 0023     		moveq	r3, #0
 101 0028 A371     		strbeq	r3, [r4, #6]
 187:Drivers/STM32F4xx_HAL_Driver/Src/stm32f4xx_hal_pcd.c **** 
 102              		.loc 1 187 3 view .LVU23
 103 002a FFF7FEFF 		bl	USB_DisableGlobalInt
 104              	.LVL4:
 190:Drivers/STM32F4xx_HAL_Driver/Src/stm32f4xx_hal_pcd.c ****   {
 105              		.loc 1 190 3 is_stmt 1 view .LVU24
 190:Drivers/STM32F4xx_HAL_Driver/Src/stm32f4xx_hal_pcd.c ****   {
 106              		.loc 1 190 7 is_stmt 0 view .LVU25
 107 002e 237C     		ldrb	r3, [r4, #16]	@ zero_extendqisi2
 108 0030 8DF80030 		strb	r3, [sp]
 109 0034 251D     		adds	r5, r4, #4
 110              	.LVL5:
 190:Drivers/STM32F4xx_HAL_Driver/Src/stm32f4xx_hal_pcd.c ****   {
 111              		.loc 1 190 7 view .LVU26
 112 0036 95E80E00 		ldm	r5, {r1, r2, r3}
 113 003a 2068     		ldr	r0, [r4]
 114 003c FFF7FEFF 		bl	USB_CoreInit
 115              	.LVL6:
 190:Drivers/STM32F4xx_HAL_Driver/Src/stm32f4xx_hal_pcd.c ****   {
 116              		.loc 1 190 6 discriminator 1 view .LVU27
 117 0040 0146     		mov	r1, r0
 118 0042 30B1     		cbz	r0, .L7
 119              	.L107:
 192:Drivers/STM32F4xx_HAL_Driver/Src/stm32f4xx_hal_pcd.c ****     return HAL_ERROR;
 120              		.loc 1 192 5 is_stmt 1 view .LVU28
 192:Drivers/STM32F4xx_HAL_Driver/Src/stm32f4xx_hal_pcd.c ****     return HAL_ERROR;
 121              		.loc 1 192 17 is_stmt 0 view .LVU29
 122 0044 0223     		movs	r3, #2
 123 0046 84F89534 		strb	r3, [r4, #1173]
 193:Drivers/STM32F4xx_HAL_Driver/Src/stm32f4xx_hal_pcd.c ****   }
 124              		.loc 1 193 5 is_stmt 1 view .LVU30
 125              	.LVL7:
 126              	.L4:
ARM GAS  /tmp/ccDYdWST.s 			page 9


 133:Drivers/STM32F4xx_HAL_Driver/Src/stm32f4xx_hal_pcd.c ****   }
 127              		.loc 1 133 12 is_stmt 0 view .LVU31
 128 004a 0125     		movs	r5, #1
 251:Drivers/STM32F4xx_HAL_Driver/Src/stm32f4xx_hal_pcd.c **** 
 129              		.loc 1 251 1 view .LVU32
 130 004c 2846     		mov	r0, r5
 131 004e 03B0     		add	sp, sp, #12
 132              	.LCFI2:
 133              		.cfi_remember_state
 134              		.cfi_def_cfa_offset 12
 135              		@ sp needed
 136 0050 30BD     		pop	{r4, r5, pc}
 137              	.LVL8:
 138              	.L7:
 139              	.LCFI3:
 140              		.cfi_restore_state
 197:Drivers/STM32F4xx_HAL_Driver/Src/stm32f4xx_hal_pcd.c ****   {
 141              		.loc 1 197 3 is_stmt 1 view .LVU33
 197:Drivers/STM32F4xx_HAL_Driver/Src/stm32f4xx_hal_pcd.c ****   {
 142              		.loc 1 197 7 is_stmt 0 view .LVU34
 143 0052 2068     		ldr	r0, [r4]
 144 0054 FFF7FEFF 		bl	USB_SetCurrentMode
 145              	.LVL9:
 197:Drivers/STM32F4xx_HAL_Driver/Src/stm32f4xx_hal_pcd.c ****   {
 146              		.loc 1 197 6 discriminator 1 view .LVU35
 147 0058 0028     		cmp	r0, #0
 148 005a F3D1     		bne	.L107
 149              	.LVL10:
 204:Drivers/STM32F4xx_HAL_Driver/Src/stm32f4xx_hal_pcd.c ****   {
 150              		.loc 1 204 18 is_stmt 1 discriminator 1 view .LVU36
 204:Drivers/STM32F4xx_HAL_Driver/Src/stm32f4xx_hal_pcd.c ****   {
 151              		.loc 1 204 30 is_stmt 0 discriminator 1 view .LVU37
 152 005c 2279     		ldrb	r2, [r4, #4]	@ zero_extendqisi2
 204:Drivers/STM32F4xx_HAL_Driver/Src/stm32f4xx_hal_pcd.c ****   {
 153              		.loc 1 204 18 discriminator 1 view .LVU38
 154 005e 002A     		cmp	r2, #0
 155 0060 00F0B381 		beq	.L16
 207:Drivers/STM32F4xx_HAL_Driver/Src/stm32f4xx_hal_pcd.c ****     hpcd->IN_ep[i].num = i;
 156              		.loc 1 207 5 is_stmt 1 view .LVU39
 208:Drivers/STM32F4xx_HAL_Driver/Src/stm32f4xx_hal_pcd.c ****     hpcd->IN_ep[i].tx_fifo_num = i;
 157              		.loc 1 208 5 view .LVU40
 208:Drivers/STM32F4xx_HAL_Driver/Src/stm32f4xx_hal_pcd.c ****     hpcd->IN_ep[i].tx_fifo_num = i;
 158              		.loc 1 208 24 is_stmt 0 view .LVU41
 159 0064 4FF48073 		mov	r3, #256
 204:Drivers/STM32F4xx_HAL_Driver/Src/stm32f4xx_hal_pcd.c ****   {
 160              		.loc 1 204 18 discriminator 1 view .LVU42
 161 0068 012A     		cmp	r2, #1
 213:Drivers/STM32F4xx_HAL_Driver/Src/stm32f4xx_hal_pcd.c ****     hpcd->IN_ep[i].xfer_len = 0U;
 162              		.loc 1 213 30 view .LVU43
 163 006a C4E90700 		strd	r0, r0, [r4, #28]
 208:Drivers/STM32F4xx_HAL_Driver/Src/stm32f4xx_hal_pcd.c ****     hpcd->IN_ep[i].tx_fifo_num = i;
 164              		.loc 1 208 24 view .LVU44
 165 006e A382     		strh	r3, [r4, #20]	@ movhi
 209:Drivers/STM32F4xx_HAL_Driver/Src/stm32f4xx_hal_pcd.c ****     /* Control until ep is activated */
 166              		.loc 1 209 5 is_stmt 1 view .LVU45
 209:Drivers/STM32F4xx_HAL_Driver/Src/stm32f4xx_hal_pcd.c ****     /* Control until ep is activated */
 167              		.loc 1 209 32 is_stmt 0 view .LVU46
ARM GAS  /tmp/ccDYdWST.s 			page 10


 168 0070 E085     		strh	r0, [r4, #46]	@ movhi
 211:Drivers/STM32F4xx_HAL_Driver/Src/stm32f4xx_hal_pcd.c ****     hpcd->IN_ep[i].maxpacket = 0U;
 169              		.loc 1 211 5 is_stmt 1 view .LVU47
 211:Drivers/STM32F4xx_HAL_Driver/Src/stm32f4xx_hal_pcd.c ****     hpcd->IN_ep[i].maxpacket = 0U;
 170              		.loc 1 211 25 is_stmt 0 view .LVU48
 171 0072 2076     		strb	r0, [r4, #24]
 212:Drivers/STM32F4xx_HAL_Driver/Src/stm32f4xx_hal_pcd.c ****     hpcd->IN_ep[i].xfer_buff = 0U;
 172              		.loc 1 212 5 is_stmt 1 view .LVU49
 214:Drivers/STM32F4xx_HAL_Driver/Src/stm32f4xx_hal_pcd.c ****   }
 173              		.loc 1 214 5 view .LVU50
 214:Drivers/STM32F4xx_HAL_Driver/Src/stm32f4xx_hal_pcd.c ****   }
 174              		.loc 1 214 29 is_stmt 0 view .LVU51
 175 0074 6062     		str	r0, [r4, #36]
 204:Drivers/STM32F4xx_HAL_Driver/Src/stm32f4xx_hal_pcd.c ****   {
 176              		.loc 1 204 47 is_stmt 1 discriminator 3 view .LVU52
 177              	.LVL11:
 204:Drivers/STM32F4xx_HAL_Driver/Src/stm32f4xx_hal_pcd.c ****   {
 178              		.loc 1 204 18 discriminator 1 view .LVU53
 179 0076 00F0C481 		beq	.L109
 207:Drivers/STM32F4xx_HAL_Driver/Src/stm32f4xx_hal_pcd.c ****     hpcd->IN_ep[i].num = i;
 180              		.loc 1 207 5 view .LVU54
 208:Drivers/STM32F4xx_HAL_Driver/Src/stm32f4xx_hal_pcd.c ****     hpcd->IN_ep[i].tx_fifo_num = i;
 181              		.loc 1 208 5 view .LVU55
 208:Drivers/STM32F4xx_HAL_Driver/Src/stm32f4xx_hal_pcd.c ****     hpcd->IN_ep[i].tx_fifo_num = i;
 182              		.loc 1 208 24 is_stmt 0 view .LVU56
 183 007a 40F20113 		movw	r3, #257
 184 007e 2387     		strh	r3, [r4, #56]	@ movhi
 209:Drivers/STM32F4xx_HAL_Driver/Src/stm32f4xx_hal_pcd.c ****     /* Control until ep is activated */
 185              		.loc 1 209 5 is_stmt 1 view .LVU57
 204:Drivers/STM32F4xx_HAL_Driver/Src/stm32f4xx_hal_pcd.c ****   {
 186              		.loc 1 204 18 is_stmt 0 discriminator 1 view .LVU58
 187 0080 022A     		cmp	r2, #2
 209:Drivers/STM32F4xx_HAL_Driver/Src/stm32f4xx_hal_pcd.c ****     /* Control until ep is activated */
 188              		.loc 1 209 32 view .LVU59
 189 0082 4FF00103 		mov	r3, #1
 213:Drivers/STM32F4xx_HAL_Driver/Src/stm32f4xx_hal_pcd.c ****     hpcd->IN_ep[i].xfer_len = 0U;
 190              		.loc 1 213 30 view .LVU60
 191 0086 C4E91000 		strd	r0, r0, [r4, #64]
 209:Drivers/STM32F4xx_HAL_Driver/Src/stm32f4xx_hal_pcd.c ****     /* Control until ep is activated */
 192              		.loc 1 209 32 view .LVU61
 193 008a A4F85230 		strh	r3, [r4, #82]	@ movhi
 211:Drivers/STM32F4xx_HAL_Driver/Src/stm32f4xx_hal_pcd.c ****     hpcd->IN_ep[i].maxpacket = 0U;
 194              		.loc 1 211 5 is_stmt 1 view .LVU62
 211:Drivers/STM32F4xx_HAL_Driver/Src/stm32f4xx_hal_pcd.c ****     hpcd->IN_ep[i].maxpacket = 0U;
 195              		.loc 1 211 25 is_stmt 0 view .LVU63
 196 008e 84F83C00 		strb	r0, [r4, #60]
 212:Drivers/STM32F4xx_HAL_Driver/Src/stm32f4xx_hal_pcd.c ****     hpcd->IN_ep[i].xfer_buff = 0U;
 197              		.loc 1 212 5 is_stmt 1 view .LVU64
 214:Drivers/STM32F4xx_HAL_Driver/Src/stm32f4xx_hal_pcd.c ****   }
 198              		.loc 1 214 5 view .LVU65
 214:Drivers/STM32F4xx_HAL_Driver/Src/stm32f4xx_hal_pcd.c ****   }
 199              		.loc 1 214 29 is_stmt 0 view .LVU66
 200 0092 A064     		str	r0, [r4, #72]
 204:Drivers/STM32F4xx_HAL_Driver/Src/stm32f4xx_hal_pcd.c ****   {
 201              		.loc 1 204 47 is_stmt 1 discriminator 3 view .LVU67
 202              	.LVL12:
 204:Drivers/STM32F4xx_HAL_Driver/Src/stm32f4xx_hal_pcd.c ****   {
ARM GAS  /tmp/ccDYdWST.s 			page 11


 203              		.loc 1 204 18 discriminator 1 view .LVU68
 204 0094 00F0E280 		beq	.L15
 207:Drivers/STM32F4xx_HAL_Driver/Src/stm32f4xx_hal_pcd.c ****     hpcd->IN_ep[i].num = i;
 205              		.loc 1 207 5 view .LVU69
 208:Drivers/STM32F4xx_HAL_Driver/Src/stm32f4xx_hal_pcd.c ****     hpcd->IN_ep[i].tx_fifo_num = i;
 206              		.loc 1 208 5 view .LVU70
 208:Drivers/STM32F4xx_HAL_Driver/Src/stm32f4xx_hal_pcd.c ****     hpcd->IN_ep[i].tx_fifo_num = i;
 207              		.loc 1 208 24 is_stmt 0 view .LVU71
 208 0098 4FF48173 		mov	r3, #258
 209 009c A4F85C30 		strh	r3, [r4, #92]	@ movhi
 209:Drivers/STM32F4xx_HAL_Driver/Src/stm32f4xx_hal_pcd.c ****     /* Control until ep is activated */
 210              		.loc 1 209 5 is_stmt 1 view .LVU72
 204:Drivers/STM32F4xx_HAL_Driver/Src/stm32f4xx_hal_pcd.c ****   {
 211              		.loc 1 204 18 is_stmt 0 discriminator 1 view .LVU73
 212 00a0 032A     		cmp	r2, #3
 209:Drivers/STM32F4xx_HAL_Driver/Src/stm32f4xx_hal_pcd.c ****     /* Control until ep is activated */
 213              		.loc 1 209 32 view .LVU74
 214 00a2 4FF00203 		mov	r3, #2
 213:Drivers/STM32F4xx_HAL_Driver/Src/stm32f4xx_hal_pcd.c ****     hpcd->IN_ep[i].xfer_len = 0U;
 215              		.loc 1 213 30 view .LVU75
 216 00a6 C4E91900 		strd	r0, r0, [r4, #100]
 209:Drivers/STM32F4xx_HAL_Driver/Src/stm32f4xx_hal_pcd.c ****     /* Control until ep is activated */
 217              		.loc 1 209 32 view .LVU76
 218 00aa A4F87630 		strh	r3, [r4, #118]	@ movhi
 211:Drivers/STM32F4xx_HAL_Driver/Src/stm32f4xx_hal_pcd.c ****     hpcd->IN_ep[i].maxpacket = 0U;
 219              		.loc 1 211 5 is_stmt 1 view .LVU77
 211:Drivers/STM32F4xx_HAL_Driver/Src/stm32f4xx_hal_pcd.c ****     hpcd->IN_ep[i].maxpacket = 0U;
 220              		.loc 1 211 25 is_stmt 0 view .LVU78
 221 00ae 84F86000 		strb	r0, [r4, #96]
 212:Drivers/STM32F4xx_HAL_Driver/Src/stm32f4xx_hal_pcd.c ****     hpcd->IN_ep[i].xfer_buff = 0U;
 222              		.loc 1 212 5 is_stmt 1 view .LVU79
 214:Drivers/STM32F4xx_HAL_Driver/Src/stm32f4xx_hal_pcd.c ****   }
 223              		.loc 1 214 5 view .LVU80
 214:Drivers/STM32F4xx_HAL_Driver/Src/stm32f4xx_hal_pcd.c ****   }
 224              		.loc 1 214 29 is_stmt 0 view .LVU81
 225 00b2 E066     		str	r0, [r4, #108]
 204:Drivers/STM32F4xx_HAL_Driver/Src/stm32f4xx_hal_pcd.c ****   {
 226              		.loc 1 204 47 is_stmt 1 discriminator 3 view .LVU82
 227              	.LVL13:
 204:Drivers/STM32F4xx_HAL_Driver/Src/stm32f4xx_hal_pcd.c ****   {
 228              		.loc 1 204 18 discriminator 1 view .LVU83
 229 00b4 00F0D280 		beq	.L15
 207:Drivers/STM32F4xx_HAL_Driver/Src/stm32f4xx_hal_pcd.c ****     hpcd->IN_ep[i].num = i;
 230              		.loc 1 207 5 view .LVU84
 208:Drivers/STM32F4xx_HAL_Driver/Src/stm32f4xx_hal_pcd.c ****     hpcd->IN_ep[i].tx_fifo_num = i;
 231              		.loc 1 208 5 view .LVU85
 208:Drivers/STM32F4xx_HAL_Driver/Src/stm32f4xx_hal_pcd.c ****     hpcd->IN_ep[i].tx_fifo_num = i;
 232              		.loc 1 208 24 is_stmt 0 view .LVU86
 233 00b8 40F20313 		movw	r3, #259
 234 00bc A4F88030 		strh	r3, [r4, #128]	@ movhi
 209:Drivers/STM32F4xx_HAL_Driver/Src/stm32f4xx_hal_pcd.c ****     /* Control until ep is activated */
 235              		.loc 1 209 5 is_stmt 1 view .LVU87
 204:Drivers/STM32F4xx_HAL_Driver/Src/stm32f4xx_hal_pcd.c ****   {
 236              		.loc 1 204 18 is_stmt 0 discriminator 1 view .LVU88
 237 00c0 042A     		cmp	r2, #4
 209:Drivers/STM32F4xx_HAL_Driver/Src/stm32f4xx_hal_pcd.c ****     /* Control until ep is activated */
 238              		.loc 1 209 32 view .LVU89
ARM GAS  /tmp/ccDYdWST.s 			page 12


 239 00c2 4FF00303 		mov	r3, #3
 213:Drivers/STM32F4xx_HAL_Driver/Src/stm32f4xx_hal_pcd.c ****     hpcd->IN_ep[i].xfer_len = 0U;
 240              		.loc 1 213 30 view .LVU90
 241 00c6 C4E92200 		strd	r0, r0, [r4, #136]
 209:Drivers/STM32F4xx_HAL_Driver/Src/stm32f4xx_hal_pcd.c ****     /* Control until ep is activated */
 242              		.loc 1 209 32 view .LVU91
 243 00ca A4F89A30 		strh	r3, [r4, #154]	@ movhi
 211:Drivers/STM32F4xx_HAL_Driver/Src/stm32f4xx_hal_pcd.c ****     hpcd->IN_ep[i].maxpacket = 0U;
 244              		.loc 1 211 5 is_stmt 1 view .LVU92
 211:Drivers/STM32F4xx_HAL_Driver/Src/stm32f4xx_hal_pcd.c ****     hpcd->IN_ep[i].maxpacket = 0U;
 245              		.loc 1 211 25 is_stmt 0 view .LVU93
 246 00ce 84F88400 		strb	r0, [r4, #132]
 212:Drivers/STM32F4xx_HAL_Driver/Src/stm32f4xx_hal_pcd.c ****     hpcd->IN_ep[i].xfer_buff = 0U;
 247              		.loc 1 212 5 is_stmt 1 view .LVU94
 214:Drivers/STM32F4xx_HAL_Driver/Src/stm32f4xx_hal_pcd.c ****   }
 248              		.loc 1 214 5 view .LVU95
 214:Drivers/STM32F4xx_HAL_Driver/Src/stm32f4xx_hal_pcd.c ****   }
 249              		.loc 1 214 29 is_stmt 0 view .LVU96
 250 00d2 C4F89000 		str	r0, [r4, #144]
 204:Drivers/STM32F4xx_HAL_Driver/Src/stm32f4xx_hal_pcd.c ****   {
 251              		.loc 1 204 47 is_stmt 1 discriminator 3 view .LVU97
 252              	.LVL14:
 204:Drivers/STM32F4xx_HAL_Driver/Src/stm32f4xx_hal_pcd.c ****   {
 253              		.loc 1 204 18 discriminator 1 view .LVU98
 254 00d6 00F0C180 		beq	.L15
 207:Drivers/STM32F4xx_HAL_Driver/Src/stm32f4xx_hal_pcd.c ****     hpcd->IN_ep[i].num = i;
 255              		.loc 1 207 5 view .LVU99
 208:Drivers/STM32F4xx_HAL_Driver/Src/stm32f4xx_hal_pcd.c ****     hpcd->IN_ep[i].tx_fifo_num = i;
 256              		.loc 1 208 5 view .LVU100
 208:Drivers/STM32F4xx_HAL_Driver/Src/stm32f4xx_hal_pcd.c ****     hpcd->IN_ep[i].tx_fifo_num = i;
 257              		.loc 1 208 24 is_stmt 0 view .LVU101
 258 00da 4FF48273 		mov	r3, #260
 259 00de A4F8A430 		strh	r3, [r4, #164]	@ movhi
 209:Drivers/STM32F4xx_HAL_Driver/Src/stm32f4xx_hal_pcd.c ****     /* Control until ep is activated */
 260              		.loc 1 209 5 is_stmt 1 view .LVU102
 204:Drivers/STM32F4xx_HAL_Driver/Src/stm32f4xx_hal_pcd.c ****   {
 261              		.loc 1 204 18 is_stmt 0 discriminator 1 view .LVU103
 262 00e2 052A     		cmp	r2, #5
 209:Drivers/STM32F4xx_HAL_Driver/Src/stm32f4xx_hal_pcd.c ****     /* Control until ep is activated */
 263              		.loc 1 209 32 view .LVU104
 264 00e4 4FF00403 		mov	r3, #4
 213:Drivers/STM32F4xx_HAL_Driver/Src/stm32f4xx_hal_pcd.c ****     hpcd->IN_ep[i].xfer_len = 0U;
 265              		.loc 1 213 30 view .LVU105
 266 00e8 C4E92B00 		strd	r0, r0, [r4, #172]
 209:Drivers/STM32F4xx_HAL_Driver/Src/stm32f4xx_hal_pcd.c ****     /* Control until ep is activated */
 267              		.loc 1 209 32 view .LVU106
 268 00ec A4F8BE30 		strh	r3, [r4, #190]	@ movhi
 211:Drivers/STM32F4xx_HAL_Driver/Src/stm32f4xx_hal_pcd.c ****     hpcd->IN_ep[i].maxpacket = 0U;
 269              		.loc 1 211 5 is_stmt 1 view .LVU107
 211:Drivers/STM32F4xx_HAL_Driver/Src/stm32f4xx_hal_pcd.c ****     hpcd->IN_ep[i].maxpacket = 0U;
 270              		.loc 1 211 25 is_stmt 0 view .LVU108
 271 00f0 84F8A800 		strb	r0, [r4, #168]
 212:Drivers/STM32F4xx_HAL_Driver/Src/stm32f4xx_hal_pcd.c ****     hpcd->IN_ep[i].xfer_buff = 0U;
 272              		.loc 1 212 5 is_stmt 1 view .LVU109
 214:Drivers/STM32F4xx_HAL_Driver/Src/stm32f4xx_hal_pcd.c ****   }
 273              		.loc 1 214 5 view .LVU110
 214:Drivers/STM32F4xx_HAL_Driver/Src/stm32f4xx_hal_pcd.c ****   }
ARM GAS  /tmp/ccDYdWST.s 			page 13


 274              		.loc 1 214 29 is_stmt 0 view .LVU111
 275 00f4 C4F8B400 		str	r0, [r4, #180]
 204:Drivers/STM32F4xx_HAL_Driver/Src/stm32f4xx_hal_pcd.c ****   {
 276              		.loc 1 204 47 is_stmt 1 discriminator 3 view .LVU112
 277              	.LVL15:
 204:Drivers/STM32F4xx_HAL_Driver/Src/stm32f4xx_hal_pcd.c ****   {
 278              		.loc 1 204 18 discriminator 1 view .LVU113
 279 00f8 00F0B080 		beq	.L15
 207:Drivers/STM32F4xx_HAL_Driver/Src/stm32f4xx_hal_pcd.c ****     hpcd->IN_ep[i].num = i;
 280              		.loc 1 207 5 view .LVU114
 208:Drivers/STM32F4xx_HAL_Driver/Src/stm32f4xx_hal_pcd.c ****     hpcd->IN_ep[i].tx_fifo_num = i;
 281              		.loc 1 208 5 view .LVU115
 208:Drivers/STM32F4xx_HAL_Driver/Src/stm32f4xx_hal_pcd.c ****     hpcd->IN_ep[i].tx_fifo_num = i;
 282              		.loc 1 208 24 is_stmt 0 view .LVU116
 283 00fc 40F20513 		movw	r3, #261
 284 0100 A4F8C830 		strh	r3, [r4, #200]	@ movhi
 209:Drivers/STM32F4xx_HAL_Driver/Src/stm32f4xx_hal_pcd.c ****     /* Control until ep is activated */
 285              		.loc 1 209 5 is_stmt 1 view .LVU117
 204:Drivers/STM32F4xx_HAL_Driver/Src/stm32f4xx_hal_pcd.c ****   {
 286              		.loc 1 204 18 is_stmt 0 discriminator 1 view .LVU118
 287 0104 062A     		cmp	r2, #6
 209:Drivers/STM32F4xx_HAL_Driver/Src/stm32f4xx_hal_pcd.c ****     /* Control until ep is activated */
 288              		.loc 1 209 32 view .LVU119
 289 0106 4FF00503 		mov	r3, #5
 213:Drivers/STM32F4xx_HAL_Driver/Src/stm32f4xx_hal_pcd.c ****     hpcd->IN_ep[i].xfer_len = 0U;
 290              		.loc 1 213 30 view .LVU120
 291 010a C4E93400 		strd	r0, r0, [r4, #208]
 209:Drivers/STM32F4xx_HAL_Driver/Src/stm32f4xx_hal_pcd.c ****     /* Control until ep is activated */
 292              		.loc 1 209 32 view .LVU121
 293 010e A4F8E230 		strh	r3, [r4, #226]	@ movhi
 211:Drivers/STM32F4xx_HAL_Driver/Src/stm32f4xx_hal_pcd.c ****     hpcd->IN_ep[i].maxpacket = 0U;
 294              		.loc 1 211 5 is_stmt 1 view .LVU122
 211:Drivers/STM32F4xx_HAL_Driver/Src/stm32f4xx_hal_pcd.c ****     hpcd->IN_ep[i].maxpacket = 0U;
 295              		.loc 1 211 25 is_stmt 0 view .LVU123
 296 0112 84F8CC00 		strb	r0, [r4, #204]
 212:Drivers/STM32F4xx_HAL_Driver/Src/stm32f4xx_hal_pcd.c ****     hpcd->IN_ep[i].xfer_buff = 0U;
 297              		.loc 1 212 5 is_stmt 1 view .LVU124
 214:Drivers/STM32F4xx_HAL_Driver/Src/stm32f4xx_hal_pcd.c ****   }
 298              		.loc 1 214 5 view .LVU125
 214:Drivers/STM32F4xx_HAL_Driver/Src/stm32f4xx_hal_pcd.c ****   }
 299              		.loc 1 214 29 is_stmt 0 view .LVU126
 300 0116 C4F8D800 		str	r0, [r4, #216]
 204:Drivers/STM32F4xx_HAL_Driver/Src/stm32f4xx_hal_pcd.c ****   {
 301              		.loc 1 204 47 is_stmt 1 discriminator 3 view .LVU127
 302              	.LVL16:
 204:Drivers/STM32F4xx_HAL_Driver/Src/stm32f4xx_hal_pcd.c ****   {
 303              		.loc 1 204 18 discriminator 1 view .LVU128
 304 011a 00F09F80 		beq	.L15
 207:Drivers/STM32F4xx_HAL_Driver/Src/stm32f4xx_hal_pcd.c ****     hpcd->IN_ep[i].num = i;
 305              		.loc 1 207 5 view .LVU129
 208:Drivers/STM32F4xx_HAL_Driver/Src/stm32f4xx_hal_pcd.c ****     hpcd->IN_ep[i].tx_fifo_num = i;
 306              		.loc 1 208 5 view .LVU130
 208:Drivers/STM32F4xx_HAL_Driver/Src/stm32f4xx_hal_pcd.c ****     hpcd->IN_ep[i].tx_fifo_num = i;
 307              		.loc 1 208 24 is_stmt 0 view .LVU131
 308 011e 4FF48373 		mov	r3, #262
 309 0122 A4F8EC30 		strh	r3, [r4, #236]	@ movhi
 209:Drivers/STM32F4xx_HAL_Driver/Src/stm32f4xx_hal_pcd.c ****     /* Control until ep is activated */
ARM GAS  /tmp/ccDYdWST.s 			page 14


 310              		.loc 1 209 5 is_stmt 1 view .LVU132
 204:Drivers/STM32F4xx_HAL_Driver/Src/stm32f4xx_hal_pcd.c ****   {
 311              		.loc 1 204 18 is_stmt 0 discriminator 1 view .LVU133
 312 0126 072A     		cmp	r2, #7
 209:Drivers/STM32F4xx_HAL_Driver/Src/stm32f4xx_hal_pcd.c ****     /* Control until ep is activated */
 313              		.loc 1 209 32 view .LVU134
 314 0128 4FF00603 		mov	r3, #6
 213:Drivers/STM32F4xx_HAL_Driver/Src/stm32f4xx_hal_pcd.c ****     hpcd->IN_ep[i].xfer_len = 0U;
 315              		.loc 1 213 30 view .LVU135
 316 012c C4E93D00 		strd	r0, r0, [r4, #244]
 209:Drivers/STM32F4xx_HAL_Driver/Src/stm32f4xx_hal_pcd.c ****     /* Control until ep is activated */
 317              		.loc 1 209 32 view .LVU136
 318 0130 A4F80631 		strh	r3, [r4, #262]	@ movhi
 211:Drivers/STM32F4xx_HAL_Driver/Src/stm32f4xx_hal_pcd.c ****     hpcd->IN_ep[i].maxpacket = 0U;
 319              		.loc 1 211 5 is_stmt 1 view .LVU137
 211:Drivers/STM32F4xx_HAL_Driver/Src/stm32f4xx_hal_pcd.c ****     hpcd->IN_ep[i].maxpacket = 0U;
 320              		.loc 1 211 25 is_stmt 0 view .LVU138
 321 0134 84F8F000 		strb	r0, [r4, #240]
 212:Drivers/STM32F4xx_HAL_Driver/Src/stm32f4xx_hal_pcd.c ****     hpcd->IN_ep[i].xfer_buff = 0U;
 322              		.loc 1 212 5 is_stmt 1 view .LVU139
 214:Drivers/STM32F4xx_HAL_Driver/Src/stm32f4xx_hal_pcd.c ****   }
 323              		.loc 1 214 5 view .LVU140
 214:Drivers/STM32F4xx_HAL_Driver/Src/stm32f4xx_hal_pcd.c ****   }
 324              		.loc 1 214 29 is_stmt 0 view .LVU141
 325 0138 C4F8FC00 		str	r0, [r4, #252]
 204:Drivers/STM32F4xx_HAL_Driver/Src/stm32f4xx_hal_pcd.c ****   {
 326              		.loc 1 204 47 is_stmt 1 discriminator 3 view .LVU142
 327              	.LVL17:
 204:Drivers/STM32F4xx_HAL_Driver/Src/stm32f4xx_hal_pcd.c ****   {
 328              		.loc 1 204 18 discriminator 1 view .LVU143
 329 013c 00F08E80 		beq	.L15
 207:Drivers/STM32F4xx_HAL_Driver/Src/stm32f4xx_hal_pcd.c ****     hpcd->IN_ep[i].num = i;
 330              		.loc 1 207 5 view .LVU144
 208:Drivers/STM32F4xx_HAL_Driver/Src/stm32f4xx_hal_pcd.c ****     hpcd->IN_ep[i].tx_fifo_num = i;
 331              		.loc 1 208 5 view .LVU145
 208:Drivers/STM32F4xx_HAL_Driver/Src/stm32f4xx_hal_pcd.c ****     hpcd->IN_ep[i].tx_fifo_num = i;
 332              		.loc 1 208 24 is_stmt 0 view .LVU146
 333 0140 40F20711 		movw	r1, #263
 211:Drivers/STM32F4xx_HAL_Driver/Src/stm32f4xx_hal_pcd.c ****     hpcd->IN_ep[i].maxpacket = 0U;
 334              		.loc 1 211 25 view .LVU147
 335 0144 0023     		movs	r3, #0
 208:Drivers/STM32F4xx_HAL_Driver/Src/stm32f4xx_hal_pcd.c ****     hpcd->IN_ep[i].tx_fifo_num = i;
 336              		.loc 1 208 24 view .LVU148
 337 0146 A4F81011 		strh	r1, [r4, #272]	@ movhi
 209:Drivers/STM32F4xx_HAL_Driver/Src/stm32f4xx_hal_pcd.c ****     /* Control until ep is activated */
 338              		.loc 1 209 5 is_stmt 1 view .LVU149
 204:Drivers/STM32F4xx_HAL_Driver/Src/stm32f4xx_hal_pcd.c ****   {
 339              		.loc 1 204 18 is_stmt 0 discriminator 1 view .LVU150
 340 014a 082A     		cmp	r2, #8
 209:Drivers/STM32F4xx_HAL_Driver/Src/stm32f4xx_hal_pcd.c ****     /* Control until ep is activated */
 341              		.loc 1 209 32 view .LVU151
 342 014c 4FF00701 		mov	r1, #7
 213:Drivers/STM32F4xx_HAL_Driver/Src/stm32f4xx_hal_pcd.c ****     hpcd->IN_ep[i].xfer_len = 0U;
 343              		.loc 1 213 30 view .LVU152
 344 0150 C4E94633 		strd	r3, r3, [r4, #280]
 209:Drivers/STM32F4xx_HAL_Driver/Src/stm32f4xx_hal_pcd.c ****     /* Control until ep is activated */
 345              		.loc 1 209 32 view .LVU153
ARM GAS  /tmp/ccDYdWST.s 			page 15


 346 0154 A4F82A11 		strh	r1, [r4, #298]	@ movhi
 211:Drivers/STM32F4xx_HAL_Driver/Src/stm32f4xx_hal_pcd.c ****     hpcd->IN_ep[i].maxpacket = 0U;
 347              		.loc 1 211 5 is_stmt 1 view .LVU154
 211:Drivers/STM32F4xx_HAL_Driver/Src/stm32f4xx_hal_pcd.c ****     hpcd->IN_ep[i].maxpacket = 0U;
 348              		.loc 1 211 25 is_stmt 0 view .LVU155
 349 0158 84F81431 		strb	r3, [r4, #276]
 212:Drivers/STM32F4xx_HAL_Driver/Src/stm32f4xx_hal_pcd.c ****     hpcd->IN_ep[i].xfer_buff = 0U;
 350              		.loc 1 212 5 is_stmt 1 view .LVU156
 214:Drivers/STM32F4xx_HAL_Driver/Src/stm32f4xx_hal_pcd.c ****   }
 351              		.loc 1 214 5 view .LVU157
 214:Drivers/STM32F4xx_HAL_Driver/Src/stm32f4xx_hal_pcd.c ****   }
 352              		.loc 1 214 29 is_stmt 0 view .LVU158
 353 015c C4F82031 		str	r3, [r4, #288]
 204:Drivers/STM32F4xx_HAL_Driver/Src/stm32f4xx_hal_pcd.c ****   {
 354              		.loc 1 204 47 is_stmt 1 discriminator 3 view .LVU159
 355              	.LVL18:
 204:Drivers/STM32F4xx_HAL_Driver/Src/stm32f4xx_hal_pcd.c ****   {
 356              		.loc 1 204 18 discriminator 1 view .LVU160
 357 0160 7CD0     		beq	.L15
 207:Drivers/STM32F4xx_HAL_Driver/Src/stm32f4xx_hal_pcd.c ****     hpcd->IN_ep[i].num = i;
 358              		.loc 1 207 5 view .LVU161
 208:Drivers/STM32F4xx_HAL_Driver/Src/stm32f4xx_hal_pcd.c ****     hpcd->IN_ep[i].tx_fifo_num = i;
 359              		.loc 1 208 5 view .LVU162
 208:Drivers/STM32F4xx_HAL_Driver/Src/stm32f4xx_hal_pcd.c ****     hpcd->IN_ep[i].tx_fifo_num = i;
 360              		.loc 1 208 24 is_stmt 0 view .LVU163
 361 0162 4FF48471 		mov	r1, #264
 362 0166 A4F83411 		strh	r1, [r4, #308]	@ movhi
 209:Drivers/STM32F4xx_HAL_Driver/Src/stm32f4xx_hal_pcd.c ****     /* Control until ep is activated */
 363              		.loc 1 209 5 is_stmt 1 view .LVU164
 204:Drivers/STM32F4xx_HAL_Driver/Src/stm32f4xx_hal_pcd.c ****   {
 364              		.loc 1 204 18 is_stmt 0 discriminator 1 view .LVU165
 365 016a 092A     		cmp	r2, #9
 209:Drivers/STM32F4xx_HAL_Driver/Src/stm32f4xx_hal_pcd.c ****     /* Control until ep is activated */
 366              		.loc 1 209 32 view .LVU166
 367 016c 4FF00801 		mov	r1, #8
 213:Drivers/STM32F4xx_HAL_Driver/Src/stm32f4xx_hal_pcd.c ****     hpcd->IN_ep[i].xfer_len = 0U;
 368              		.loc 1 213 30 view .LVU167
 369 0170 C4E94F33 		strd	r3, r3, [r4, #316]
 209:Drivers/STM32F4xx_HAL_Driver/Src/stm32f4xx_hal_pcd.c ****     /* Control until ep is activated */
 370              		.loc 1 209 32 view .LVU168
 371 0174 A4F84E11 		strh	r1, [r4, #334]	@ movhi
 211:Drivers/STM32F4xx_HAL_Driver/Src/stm32f4xx_hal_pcd.c ****     hpcd->IN_ep[i].maxpacket = 0U;
 372              		.loc 1 211 5 is_stmt 1 view .LVU169
 211:Drivers/STM32F4xx_HAL_Driver/Src/stm32f4xx_hal_pcd.c ****     hpcd->IN_ep[i].maxpacket = 0U;
 373              		.loc 1 211 25 is_stmt 0 view .LVU170
 374 0178 84F83831 		strb	r3, [r4, #312]
 212:Drivers/STM32F4xx_HAL_Driver/Src/stm32f4xx_hal_pcd.c ****     hpcd->IN_ep[i].xfer_buff = 0U;
 375              		.loc 1 212 5 is_stmt 1 view .LVU171
 214:Drivers/STM32F4xx_HAL_Driver/Src/stm32f4xx_hal_pcd.c ****   }
 376              		.loc 1 214 5 view .LVU172
 214:Drivers/STM32F4xx_HAL_Driver/Src/stm32f4xx_hal_pcd.c ****   }
 377              		.loc 1 214 29 is_stmt 0 view .LVU173
 378 017c C4F84431 		str	r3, [r4, #324]
 204:Drivers/STM32F4xx_HAL_Driver/Src/stm32f4xx_hal_pcd.c ****   {
 379              		.loc 1 204 47 is_stmt 1 discriminator 3 view .LVU174
 380              	.LVL19:
 204:Drivers/STM32F4xx_HAL_Driver/Src/stm32f4xx_hal_pcd.c ****   {
ARM GAS  /tmp/ccDYdWST.s 			page 16


 381              		.loc 1 204 18 discriminator 1 view .LVU175
 382 0180 6CD0     		beq	.L15
 207:Drivers/STM32F4xx_HAL_Driver/Src/stm32f4xx_hal_pcd.c ****     hpcd->IN_ep[i].num = i;
 383              		.loc 1 207 5 view .LVU176
 208:Drivers/STM32F4xx_HAL_Driver/Src/stm32f4xx_hal_pcd.c ****     hpcd->IN_ep[i].tx_fifo_num = i;
 384              		.loc 1 208 5 view .LVU177
 208:Drivers/STM32F4xx_HAL_Driver/Src/stm32f4xx_hal_pcd.c ****     hpcd->IN_ep[i].tx_fifo_num = i;
 385              		.loc 1 208 24 is_stmt 0 view .LVU178
 386 0182 40F20911 		movw	r1, #265
 387 0186 A4F85811 		strh	r1, [r4, #344]	@ movhi
 209:Drivers/STM32F4xx_HAL_Driver/Src/stm32f4xx_hal_pcd.c ****     /* Control until ep is activated */
 388              		.loc 1 209 5 is_stmt 1 view .LVU179
 204:Drivers/STM32F4xx_HAL_Driver/Src/stm32f4xx_hal_pcd.c ****   {
 389              		.loc 1 204 18 is_stmt 0 discriminator 1 view .LVU180
 390 018a 0A2A     		cmp	r2, #10
 209:Drivers/STM32F4xx_HAL_Driver/Src/stm32f4xx_hal_pcd.c ****     /* Control until ep is activated */
 391              		.loc 1 209 32 view .LVU181
 392 018c 4FF00901 		mov	r1, #9
 213:Drivers/STM32F4xx_HAL_Driver/Src/stm32f4xx_hal_pcd.c ****     hpcd->IN_ep[i].xfer_len = 0U;
 393              		.loc 1 213 30 view .LVU182
 394 0190 C4E95833 		strd	r3, r3, [r4, #352]
 209:Drivers/STM32F4xx_HAL_Driver/Src/stm32f4xx_hal_pcd.c ****     /* Control until ep is activated */
 395              		.loc 1 209 32 view .LVU183
 396 0194 A4F87211 		strh	r1, [r4, #370]	@ movhi
 211:Drivers/STM32F4xx_HAL_Driver/Src/stm32f4xx_hal_pcd.c ****     hpcd->IN_ep[i].maxpacket = 0U;
 397              		.loc 1 211 5 is_stmt 1 view .LVU184
 211:Drivers/STM32F4xx_HAL_Driver/Src/stm32f4xx_hal_pcd.c ****     hpcd->IN_ep[i].maxpacket = 0U;
 398              		.loc 1 211 25 is_stmt 0 view .LVU185
 399 0198 84F85C31 		strb	r3, [r4, #348]
 212:Drivers/STM32F4xx_HAL_Driver/Src/stm32f4xx_hal_pcd.c ****     hpcd->IN_ep[i].xfer_buff = 0U;
 400              		.loc 1 212 5 is_stmt 1 view .LVU186
 214:Drivers/STM32F4xx_HAL_Driver/Src/stm32f4xx_hal_pcd.c ****   }
 401              		.loc 1 214 5 view .LVU187
 214:Drivers/STM32F4xx_HAL_Driver/Src/stm32f4xx_hal_pcd.c ****   }
 402              		.loc 1 214 29 is_stmt 0 view .LVU188
 403 019c C4F86831 		str	r3, [r4, #360]
 204:Drivers/STM32F4xx_HAL_Driver/Src/stm32f4xx_hal_pcd.c ****   {
 404              		.loc 1 204 47 is_stmt 1 discriminator 3 view .LVU189
 405              	.LVL20:
 204:Drivers/STM32F4xx_HAL_Driver/Src/stm32f4xx_hal_pcd.c ****   {
 406              		.loc 1 204 18 discriminator 1 view .LVU190
 407 01a0 5CD0     		beq	.L15
 207:Drivers/STM32F4xx_HAL_Driver/Src/stm32f4xx_hal_pcd.c ****     hpcd->IN_ep[i].num = i;
 408              		.loc 1 207 5 view .LVU191
 208:Drivers/STM32F4xx_HAL_Driver/Src/stm32f4xx_hal_pcd.c ****     hpcd->IN_ep[i].tx_fifo_num = i;
 409              		.loc 1 208 5 view .LVU192
 208:Drivers/STM32F4xx_HAL_Driver/Src/stm32f4xx_hal_pcd.c ****     hpcd->IN_ep[i].tx_fifo_num = i;
 410              		.loc 1 208 24 is_stmt 0 view .LVU193
 411 01a2 4FF48571 		mov	r1, #266
 412 01a6 A4F87C11 		strh	r1, [r4, #380]	@ movhi
 209:Drivers/STM32F4xx_HAL_Driver/Src/stm32f4xx_hal_pcd.c ****     /* Control until ep is activated */
 413              		.loc 1 209 5 is_stmt 1 view .LVU194
 204:Drivers/STM32F4xx_HAL_Driver/Src/stm32f4xx_hal_pcd.c ****   {
 414              		.loc 1 204 18 is_stmt 0 discriminator 1 view .LVU195
 415 01aa 0B2A     		cmp	r2, #11
 209:Drivers/STM32F4xx_HAL_Driver/Src/stm32f4xx_hal_pcd.c ****     /* Control until ep is activated */
 416              		.loc 1 209 32 view .LVU196
ARM GAS  /tmp/ccDYdWST.s 			page 17


 417 01ac 4FF00A01 		mov	r1, #10
 213:Drivers/STM32F4xx_HAL_Driver/Src/stm32f4xx_hal_pcd.c ****     hpcd->IN_ep[i].xfer_len = 0U;
 418              		.loc 1 213 30 view .LVU197
 419 01b0 C4E96133 		strd	r3, r3, [r4, #388]
 209:Drivers/STM32F4xx_HAL_Driver/Src/stm32f4xx_hal_pcd.c ****     /* Control until ep is activated */
 420              		.loc 1 209 32 view .LVU198
 421 01b4 A4F89611 		strh	r1, [r4, #406]	@ movhi
 211:Drivers/STM32F4xx_HAL_Driver/Src/stm32f4xx_hal_pcd.c ****     hpcd->IN_ep[i].maxpacket = 0U;
 422              		.loc 1 211 5 is_stmt 1 view .LVU199
 211:Drivers/STM32F4xx_HAL_Driver/Src/stm32f4xx_hal_pcd.c ****     hpcd->IN_ep[i].maxpacket = 0U;
 423              		.loc 1 211 25 is_stmt 0 view .LVU200
 424 01b8 84F88031 		strb	r3, [r4, #384]
 212:Drivers/STM32F4xx_HAL_Driver/Src/stm32f4xx_hal_pcd.c ****     hpcd->IN_ep[i].xfer_buff = 0U;
 425              		.loc 1 212 5 is_stmt 1 view .LVU201
 214:Drivers/STM32F4xx_HAL_Driver/Src/stm32f4xx_hal_pcd.c ****   }
 426              		.loc 1 214 5 view .LVU202
 214:Drivers/STM32F4xx_HAL_Driver/Src/stm32f4xx_hal_pcd.c ****   }
 427              		.loc 1 214 29 is_stmt 0 view .LVU203
 428 01bc C4F88C31 		str	r3, [r4, #396]
 204:Drivers/STM32F4xx_HAL_Driver/Src/stm32f4xx_hal_pcd.c ****   {
 429              		.loc 1 204 47 is_stmt 1 discriminator 3 view .LVU204
 430              	.LVL21:
 204:Drivers/STM32F4xx_HAL_Driver/Src/stm32f4xx_hal_pcd.c ****   {
 431              		.loc 1 204 18 discriminator 1 view .LVU205
 432 01c0 4CD0     		beq	.L15
 207:Drivers/STM32F4xx_HAL_Driver/Src/stm32f4xx_hal_pcd.c ****     hpcd->IN_ep[i].num = i;
 433              		.loc 1 207 5 view .LVU206
 208:Drivers/STM32F4xx_HAL_Driver/Src/stm32f4xx_hal_pcd.c ****     hpcd->IN_ep[i].tx_fifo_num = i;
 434              		.loc 1 208 5 view .LVU207
 208:Drivers/STM32F4xx_HAL_Driver/Src/stm32f4xx_hal_pcd.c ****     hpcd->IN_ep[i].tx_fifo_num = i;
 435              		.loc 1 208 24 is_stmt 0 view .LVU208
 436 01c2 40F20B11 		movw	r1, #267
 437 01c6 A4F8A011 		strh	r1, [r4, #416]	@ movhi
 209:Drivers/STM32F4xx_HAL_Driver/Src/stm32f4xx_hal_pcd.c ****     /* Control until ep is activated */
 438              		.loc 1 209 5 is_stmt 1 view .LVU209
 204:Drivers/STM32F4xx_HAL_Driver/Src/stm32f4xx_hal_pcd.c ****   {
 439              		.loc 1 204 18 is_stmt 0 discriminator 1 view .LVU210
 440 01ca 0C2A     		cmp	r2, #12
 209:Drivers/STM32F4xx_HAL_Driver/Src/stm32f4xx_hal_pcd.c ****     /* Control until ep is activated */
 441              		.loc 1 209 32 view .LVU211
 442 01cc 4FF00B01 		mov	r1, #11
 213:Drivers/STM32F4xx_HAL_Driver/Src/stm32f4xx_hal_pcd.c ****     hpcd->IN_ep[i].xfer_len = 0U;
 443              		.loc 1 213 30 view .LVU212
 444 01d0 C4E96A33 		strd	r3, r3, [r4, #424]
 209:Drivers/STM32F4xx_HAL_Driver/Src/stm32f4xx_hal_pcd.c ****     /* Control until ep is activated */
 445              		.loc 1 209 32 view .LVU213
 446 01d4 A4F8BA11 		strh	r1, [r4, #442]	@ movhi
 211:Drivers/STM32F4xx_HAL_Driver/Src/stm32f4xx_hal_pcd.c ****     hpcd->IN_ep[i].maxpacket = 0U;
 447              		.loc 1 211 5 is_stmt 1 view .LVU214
 211:Drivers/STM32F4xx_HAL_Driver/Src/stm32f4xx_hal_pcd.c ****     hpcd->IN_ep[i].maxpacket = 0U;
 448              		.loc 1 211 25 is_stmt 0 view .LVU215
 449 01d8 84F8A431 		strb	r3, [r4, #420]
 212:Drivers/STM32F4xx_HAL_Driver/Src/stm32f4xx_hal_pcd.c ****     hpcd->IN_ep[i].xfer_buff = 0U;
 450              		.loc 1 212 5 is_stmt 1 view .LVU216
 214:Drivers/STM32F4xx_HAL_Driver/Src/stm32f4xx_hal_pcd.c ****   }
 451              		.loc 1 214 5 view .LVU217
 214:Drivers/STM32F4xx_HAL_Driver/Src/stm32f4xx_hal_pcd.c ****   }
ARM GAS  /tmp/ccDYdWST.s 			page 18


 452              		.loc 1 214 29 is_stmt 0 view .LVU218
 453 01dc C4F8B031 		str	r3, [r4, #432]
 204:Drivers/STM32F4xx_HAL_Driver/Src/stm32f4xx_hal_pcd.c ****   {
 454              		.loc 1 204 47 is_stmt 1 discriminator 3 view .LVU219
 455              	.LVL22:
 204:Drivers/STM32F4xx_HAL_Driver/Src/stm32f4xx_hal_pcd.c ****   {
 456              		.loc 1 204 18 discriminator 1 view .LVU220
 457 01e0 3CD0     		beq	.L15
 207:Drivers/STM32F4xx_HAL_Driver/Src/stm32f4xx_hal_pcd.c ****     hpcd->IN_ep[i].num = i;
 458              		.loc 1 207 5 view .LVU221
 208:Drivers/STM32F4xx_HAL_Driver/Src/stm32f4xx_hal_pcd.c ****     hpcd->IN_ep[i].tx_fifo_num = i;
 459              		.loc 1 208 5 view .LVU222
 208:Drivers/STM32F4xx_HAL_Driver/Src/stm32f4xx_hal_pcd.c ****     hpcd->IN_ep[i].tx_fifo_num = i;
 460              		.loc 1 208 24 is_stmt 0 view .LVU223
 461 01e2 4FF48671 		mov	r1, #268
 462 01e6 A4F8C411 		strh	r1, [r4, #452]	@ movhi
 209:Drivers/STM32F4xx_HAL_Driver/Src/stm32f4xx_hal_pcd.c ****     /* Control until ep is activated */
 463              		.loc 1 209 5 is_stmt 1 view .LVU224
 204:Drivers/STM32F4xx_HAL_Driver/Src/stm32f4xx_hal_pcd.c ****   {
 464              		.loc 1 204 18 is_stmt 0 discriminator 1 view .LVU225
 465 01ea 0D2A     		cmp	r2, #13
 209:Drivers/STM32F4xx_HAL_Driver/Src/stm32f4xx_hal_pcd.c ****     /* Control until ep is activated */
 466              		.loc 1 209 32 view .LVU226
 467 01ec 4FF00C01 		mov	r1, #12
 213:Drivers/STM32F4xx_HAL_Driver/Src/stm32f4xx_hal_pcd.c ****     hpcd->IN_ep[i].xfer_len = 0U;
 468              		.loc 1 213 30 view .LVU227
 469 01f0 C4E97333 		strd	r3, r3, [r4, #460]
 209:Drivers/STM32F4xx_HAL_Driver/Src/stm32f4xx_hal_pcd.c ****     /* Control until ep is activated */
 470              		.loc 1 209 32 view .LVU228
 471 01f4 A4F8DE11 		strh	r1, [r4, #478]	@ movhi
 211:Drivers/STM32F4xx_HAL_Driver/Src/stm32f4xx_hal_pcd.c ****     hpcd->IN_ep[i].maxpacket = 0U;
 472              		.loc 1 211 5 is_stmt 1 view .LVU229
 211:Drivers/STM32F4xx_HAL_Driver/Src/stm32f4xx_hal_pcd.c ****     hpcd->IN_ep[i].maxpacket = 0U;
 473              		.loc 1 211 25 is_stmt 0 view .LVU230
 474 01f8 84F8C831 		strb	r3, [r4, #456]
 212:Drivers/STM32F4xx_HAL_Driver/Src/stm32f4xx_hal_pcd.c ****     hpcd->IN_ep[i].xfer_buff = 0U;
 475              		.loc 1 212 5 is_stmt 1 view .LVU231
 214:Drivers/STM32F4xx_HAL_Driver/Src/stm32f4xx_hal_pcd.c ****   }
 476              		.loc 1 214 5 view .LVU232
 214:Drivers/STM32F4xx_HAL_Driver/Src/stm32f4xx_hal_pcd.c ****   }
 477              		.loc 1 214 29 is_stmt 0 view .LVU233
 478 01fc C4F8D431 		str	r3, [r4, #468]
 204:Drivers/STM32F4xx_HAL_Driver/Src/stm32f4xx_hal_pcd.c ****   {
 479              		.loc 1 204 47 is_stmt 1 discriminator 3 view .LVU234
 480              	.LVL23:
 204:Drivers/STM32F4xx_HAL_Driver/Src/stm32f4xx_hal_pcd.c ****   {
 481              		.loc 1 204 18 discriminator 1 view .LVU235
 482 0200 2CD0     		beq	.L15
 207:Drivers/STM32F4xx_HAL_Driver/Src/stm32f4xx_hal_pcd.c ****     hpcd->IN_ep[i].num = i;
 483              		.loc 1 207 5 view .LVU236
 208:Drivers/STM32F4xx_HAL_Driver/Src/stm32f4xx_hal_pcd.c ****     hpcd->IN_ep[i].tx_fifo_num = i;
 484              		.loc 1 208 5 view .LVU237
 208:Drivers/STM32F4xx_HAL_Driver/Src/stm32f4xx_hal_pcd.c ****     hpcd->IN_ep[i].tx_fifo_num = i;
 485              		.loc 1 208 24 is_stmt 0 view .LVU238
 486 0202 40F20D11 		movw	r1, #269
 487 0206 A4F8E811 		strh	r1, [r4, #488]	@ movhi
 209:Drivers/STM32F4xx_HAL_Driver/Src/stm32f4xx_hal_pcd.c ****     /* Control until ep is activated */
ARM GAS  /tmp/ccDYdWST.s 			page 19


 488              		.loc 1 209 5 is_stmt 1 view .LVU239
 204:Drivers/STM32F4xx_HAL_Driver/Src/stm32f4xx_hal_pcd.c ****   {
 489              		.loc 1 204 18 is_stmt 0 discriminator 1 view .LVU240
 490 020a 0E2A     		cmp	r2, #14
 209:Drivers/STM32F4xx_HAL_Driver/Src/stm32f4xx_hal_pcd.c ****     /* Control until ep is activated */
 491              		.loc 1 209 32 view .LVU241
 492 020c 4FF00D01 		mov	r1, #13
 213:Drivers/STM32F4xx_HAL_Driver/Src/stm32f4xx_hal_pcd.c ****     hpcd->IN_ep[i].xfer_len = 0U;
 493              		.loc 1 213 30 view .LVU242
 494 0210 C4E97C33 		strd	r3, r3, [r4, #496]
 209:Drivers/STM32F4xx_HAL_Driver/Src/stm32f4xx_hal_pcd.c ****     /* Control until ep is activated */
 495              		.loc 1 209 32 view .LVU243
 496 0214 A4F80212 		strh	r1, [r4, #514]	@ movhi
 211:Drivers/STM32F4xx_HAL_Driver/Src/stm32f4xx_hal_pcd.c ****     hpcd->IN_ep[i].maxpacket = 0U;
 497              		.loc 1 211 5 is_stmt 1 view .LVU244
 211:Drivers/STM32F4xx_HAL_Driver/Src/stm32f4xx_hal_pcd.c ****     hpcd->IN_ep[i].maxpacket = 0U;
 498              		.loc 1 211 25 is_stmt 0 view .LVU245
 499 0218 84F8EC31 		strb	r3, [r4, #492]
 212:Drivers/STM32F4xx_HAL_Driver/Src/stm32f4xx_hal_pcd.c ****     hpcd->IN_ep[i].xfer_buff = 0U;
 500              		.loc 1 212 5 is_stmt 1 view .LVU246
 214:Drivers/STM32F4xx_HAL_Driver/Src/stm32f4xx_hal_pcd.c ****   }
 501              		.loc 1 214 5 view .LVU247
 214:Drivers/STM32F4xx_HAL_Driver/Src/stm32f4xx_hal_pcd.c ****   }
 502              		.loc 1 214 29 is_stmt 0 view .LVU248
 503 021c C4F8F831 		str	r3, [r4, #504]
 204:Drivers/STM32F4xx_HAL_Driver/Src/stm32f4xx_hal_pcd.c ****   {
 504              		.loc 1 204 47 is_stmt 1 discriminator 3 view .LVU249
 505              	.LVL24:
 204:Drivers/STM32F4xx_HAL_Driver/Src/stm32f4xx_hal_pcd.c ****   {
 506              		.loc 1 204 18 discriminator 1 view .LVU250
 507 0220 1CD0     		beq	.L15
 207:Drivers/STM32F4xx_HAL_Driver/Src/stm32f4xx_hal_pcd.c ****     hpcd->IN_ep[i].num = i;
 508              		.loc 1 207 5 view .LVU251
 208:Drivers/STM32F4xx_HAL_Driver/Src/stm32f4xx_hal_pcd.c ****     hpcd->IN_ep[i].tx_fifo_num = i;
 509              		.loc 1 208 5 view .LVU252
 208:Drivers/STM32F4xx_HAL_Driver/Src/stm32f4xx_hal_pcd.c ****     hpcd->IN_ep[i].tx_fifo_num = i;
 510              		.loc 1 208 24 is_stmt 0 view .LVU253
 511 0222 4FF48771 		mov	r1, #270
 512 0226 A4F80C12 		strh	r1, [r4, #524]	@ movhi
 209:Drivers/STM32F4xx_HAL_Driver/Src/stm32f4xx_hal_pcd.c ****     /* Control until ep is activated */
 513              		.loc 1 209 5 is_stmt 1 view .LVU254
 204:Drivers/STM32F4xx_HAL_Driver/Src/stm32f4xx_hal_pcd.c ****   {
 514              		.loc 1 204 18 is_stmt 0 discriminator 1 view .LVU255
 515 022a 0F2A     		cmp	r2, #15
 209:Drivers/STM32F4xx_HAL_Driver/Src/stm32f4xx_hal_pcd.c ****     /* Control until ep is activated */
 516              		.loc 1 209 32 view .LVU256
 517 022c 4FF00E01 		mov	r1, #14
 213:Drivers/STM32F4xx_HAL_Driver/Src/stm32f4xx_hal_pcd.c ****     hpcd->IN_ep[i].xfer_len = 0U;
 518              		.loc 1 213 30 view .LVU257
 519 0230 C4E98533 		strd	r3, r3, [r4, #532]
 209:Drivers/STM32F4xx_HAL_Driver/Src/stm32f4xx_hal_pcd.c ****     /* Control until ep is activated */
 520              		.loc 1 209 32 view .LVU258
 521 0234 A4F82612 		strh	r1, [r4, #550]	@ movhi
 211:Drivers/STM32F4xx_HAL_Driver/Src/stm32f4xx_hal_pcd.c ****     hpcd->IN_ep[i].maxpacket = 0U;
 522              		.loc 1 211 5 is_stmt 1 view .LVU259
 211:Drivers/STM32F4xx_HAL_Driver/Src/stm32f4xx_hal_pcd.c ****     hpcd->IN_ep[i].maxpacket = 0U;
 523              		.loc 1 211 25 is_stmt 0 view .LVU260
ARM GAS  /tmp/ccDYdWST.s 			page 20


 524 0238 84F81032 		strb	r3, [r4, #528]
 212:Drivers/STM32F4xx_HAL_Driver/Src/stm32f4xx_hal_pcd.c ****     hpcd->IN_ep[i].xfer_buff = 0U;
 525              		.loc 1 212 5 is_stmt 1 view .LVU261
 214:Drivers/STM32F4xx_HAL_Driver/Src/stm32f4xx_hal_pcd.c ****   }
 526              		.loc 1 214 5 view .LVU262
 214:Drivers/STM32F4xx_HAL_Driver/Src/stm32f4xx_hal_pcd.c ****   }
 527              		.loc 1 214 29 is_stmt 0 view .LVU263
 528 023c C4F81C32 		str	r3, [r4, #540]
 204:Drivers/STM32F4xx_HAL_Driver/Src/stm32f4xx_hal_pcd.c ****   {
 529              		.loc 1 204 47 is_stmt 1 discriminator 3 view .LVU264
 530              	.LVL25:
 204:Drivers/STM32F4xx_HAL_Driver/Src/stm32f4xx_hal_pcd.c ****   {
 531              		.loc 1 204 18 discriminator 1 view .LVU265
 532 0240 0CD0     		beq	.L15
 207:Drivers/STM32F4xx_HAL_Driver/Src/stm32f4xx_hal_pcd.c ****     hpcd->IN_ep[i].num = i;
 533              		.loc 1 207 5 view .LVU266
 208:Drivers/STM32F4xx_HAL_Driver/Src/stm32f4xx_hal_pcd.c ****     hpcd->IN_ep[i].tx_fifo_num = i;
 534              		.loc 1 208 5 view .LVU267
 208:Drivers/STM32F4xx_HAL_Driver/Src/stm32f4xx_hal_pcd.c ****     hpcd->IN_ep[i].tx_fifo_num = i;
 535              		.loc 1 208 24 is_stmt 0 view .LVU268
 536 0242 40F20F11 		movw	r1, #271
 213:Drivers/STM32F4xx_HAL_Driver/Src/stm32f4xx_hal_pcd.c ****     hpcd->IN_ep[i].xfer_len = 0U;
 537              		.loc 1 213 30 view .LVU269
 538 0246 C4E98E33 		strd	r3, r3, [r4, #568]
 208:Drivers/STM32F4xx_HAL_Driver/Src/stm32f4xx_hal_pcd.c ****     hpcd->IN_ep[i].tx_fifo_num = i;
 539              		.loc 1 208 24 view .LVU270
 540 024a A4F83012 		strh	r1, [r4, #560]	@ movhi
 209:Drivers/STM32F4xx_HAL_Driver/Src/stm32f4xx_hal_pcd.c ****     /* Control until ep is activated */
 541              		.loc 1 209 5 is_stmt 1 view .LVU271
 209:Drivers/STM32F4xx_HAL_Driver/Src/stm32f4xx_hal_pcd.c ****     /* Control until ep is activated */
 542              		.loc 1 209 32 is_stmt 0 view .LVU272
 543 024e 0F21     		movs	r1, #15
 544 0250 A4F84A12 		strh	r1, [r4, #586]	@ movhi
 211:Drivers/STM32F4xx_HAL_Driver/Src/stm32f4xx_hal_pcd.c ****     hpcd->IN_ep[i].maxpacket = 0U;
 545              		.loc 1 211 5 is_stmt 1 view .LVU273
 211:Drivers/STM32F4xx_HAL_Driver/Src/stm32f4xx_hal_pcd.c ****     hpcd->IN_ep[i].maxpacket = 0U;
 546              		.loc 1 211 25 is_stmt 0 view .LVU274
 547 0254 84F83432 		strb	r3, [r4, #564]
 212:Drivers/STM32F4xx_HAL_Driver/Src/stm32f4xx_hal_pcd.c ****     hpcd->IN_ep[i].xfer_buff = 0U;
 548              		.loc 1 212 5 is_stmt 1 view .LVU275
 214:Drivers/STM32F4xx_HAL_Driver/Src/stm32f4xx_hal_pcd.c ****   }
 549              		.loc 1 214 5 view .LVU276
 214:Drivers/STM32F4xx_HAL_Driver/Src/stm32f4xx_hal_pcd.c ****   }
 550              		.loc 1 214 29 is_stmt 0 view .LVU277
 551 0258 C4F84032 		str	r3, [r4, #576]
 204:Drivers/STM32F4xx_HAL_Driver/Src/stm32f4xx_hal_pcd.c ****   {
 552              		.loc 1 204 47 is_stmt 1 discriminator 3 view .LVU278
 553              	.LVL26:
 204:Drivers/STM32F4xx_HAL_Driver/Src/stm32f4xx_hal_pcd.c ****   {
 554              		.loc 1 204 18 discriminator 1 view .LVU279
 555              	.L15:
 219:Drivers/STM32F4xx_HAL_Driver/Src/stm32f4xx_hal_pcd.c ****     hpcd->OUT_ep[i].num = i;
 556              		.loc 1 219 5 view .LVU280
 220:Drivers/STM32F4xx_HAL_Driver/Src/stm32f4xx_hal_pcd.c ****     /* Control until ep is activated */
 557              		.loc 1 220 5 view .LVU281
 220:Drivers/STM32F4xx_HAL_Driver/Src/stm32f4xx_hal_pcd.c ****     /* Control until ep is activated */
 558              		.loc 1 220 25 is_stmt 0 view .LVU282
ARM GAS  /tmp/ccDYdWST.s 			page 21


 559 025c 0023     		movs	r3, #0
 560 025e 0121     		movs	r1, #1
 217:Drivers/STM32F4xx_HAL_Driver/Src/stm32f4xx_hal_pcd.c ****   {
 561              		.loc 1 217 18 discriminator 1 view .LVU283
 562 0260 022A     		cmp	r2, #2
 224:Drivers/STM32F4xx_HAL_Driver/Src/stm32f4xx_hal_pcd.c ****     hpcd->OUT_ep[i].xfer_len = 0U;
 563              		.loc 1 224 31 view .LVU284
 564 0262 C4E99733 		strd	r3, r3, [r4, #604]
 565 0266 C4E9A033 		strd	r3, r3, [r4, #640]
 220:Drivers/STM32F4xx_HAL_Driver/Src/stm32f4xx_hal_pcd.c ****     /* Control until ep is activated */
 566              		.loc 1 220 25 view .LVU285
 567 026a A4F85432 		strh	r3, [r4, #596]	@ movhi
 222:Drivers/STM32F4xx_HAL_Driver/Src/stm32f4xx_hal_pcd.c ****     hpcd->OUT_ep[i].maxpacket = 0U;
 568              		.loc 1 222 5 is_stmt 1 view .LVU286
 222:Drivers/STM32F4xx_HAL_Driver/Src/stm32f4xx_hal_pcd.c ****     hpcd->OUT_ep[i].maxpacket = 0U;
 569              		.loc 1 222 26 is_stmt 0 view .LVU287
 570 026e 84F85832 		strb	r3, [r4, #600]
 223:Drivers/STM32F4xx_HAL_Driver/Src/stm32f4xx_hal_pcd.c ****     hpcd->OUT_ep[i].xfer_buff = 0U;
 571              		.loc 1 223 5 is_stmt 1 view .LVU288
 225:Drivers/STM32F4xx_HAL_Driver/Src/stm32f4xx_hal_pcd.c ****   }
 572              		.loc 1 225 5 view .LVU289
 225:Drivers/STM32F4xx_HAL_Driver/Src/stm32f4xx_hal_pcd.c ****   }
 573              		.loc 1 225 30 is_stmt 0 view .LVU290
 574 0272 C4F86432 		str	r3, [r4, #612]
 217:Drivers/STM32F4xx_HAL_Driver/Src/stm32f4xx_hal_pcd.c ****   {
 575              		.loc 1 217 47 is_stmt 1 discriminator 3 view .LVU291
 576              	.LVL27:
 217:Drivers/STM32F4xx_HAL_Driver/Src/stm32f4xx_hal_pcd.c ****   {
 577              		.loc 1 217 18 discriminator 1 view .LVU292
 219:Drivers/STM32F4xx_HAL_Driver/Src/stm32f4xx_hal_pcd.c ****     hpcd->OUT_ep[i].num = i;
 578              		.loc 1 219 5 view .LVU293
 220:Drivers/STM32F4xx_HAL_Driver/Src/stm32f4xx_hal_pcd.c ****     /* Control until ep is activated */
 579              		.loc 1 220 5 view .LVU294
 220:Drivers/STM32F4xx_HAL_Driver/Src/stm32f4xx_hal_pcd.c ****     /* Control until ep is activated */
 580              		.loc 1 220 25 is_stmt 0 view .LVU295
 581 0276 A4F87812 		strh	r1, [r4, #632]	@ movhi
 222:Drivers/STM32F4xx_HAL_Driver/Src/stm32f4xx_hal_pcd.c ****     hpcd->OUT_ep[i].maxpacket = 0U;
 582              		.loc 1 222 5 is_stmt 1 view .LVU296
 222:Drivers/STM32F4xx_HAL_Driver/Src/stm32f4xx_hal_pcd.c ****     hpcd->OUT_ep[i].maxpacket = 0U;
 583              		.loc 1 222 26 is_stmt 0 view .LVU297
 584 027a 84F87C32 		strb	r3, [r4, #636]
 223:Drivers/STM32F4xx_HAL_Driver/Src/stm32f4xx_hal_pcd.c ****     hpcd->OUT_ep[i].xfer_buff = 0U;
 585              		.loc 1 223 5 is_stmt 1 view .LVU298
 225:Drivers/STM32F4xx_HAL_Driver/Src/stm32f4xx_hal_pcd.c ****   }
 586              		.loc 1 225 5 view .LVU299
 225:Drivers/STM32F4xx_HAL_Driver/Src/stm32f4xx_hal_pcd.c ****   }
 587              		.loc 1 225 30 is_stmt 0 view .LVU300
 588 027e C4F88832 		str	r3, [r4, #648]
 217:Drivers/STM32F4xx_HAL_Driver/Src/stm32f4xx_hal_pcd.c ****   {
 589              		.loc 1 217 47 is_stmt 1 discriminator 3 view .LVU301
 590              	.LVL28:
 217:Drivers/STM32F4xx_HAL_Driver/Src/stm32f4xx_hal_pcd.c ****   {
 591              		.loc 1 217 18 discriminator 1 view .LVU302
 592 0282 00F0A280 		beq	.L16
 219:Drivers/STM32F4xx_HAL_Driver/Src/stm32f4xx_hal_pcd.c ****     hpcd->OUT_ep[i].num = i;
 593              		.loc 1 219 5 view .LVU303
 220:Drivers/STM32F4xx_HAL_Driver/Src/stm32f4xx_hal_pcd.c ****     /* Control until ep is activated */
ARM GAS  /tmp/ccDYdWST.s 			page 22


 594              		.loc 1 220 5 view .LVU304
 220:Drivers/STM32F4xx_HAL_Driver/Src/stm32f4xx_hal_pcd.c ****     /* Control until ep is activated */
 595              		.loc 1 220 25 is_stmt 0 view .LVU305
 596 0286 0221     		movs	r1, #2
 217:Drivers/STM32F4xx_HAL_Driver/Src/stm32f4xx_hal_pcd.c ****   {
 597              		.loc 1 217 18 discriminator 1 view .LVU306
 598 0288 032A     		cmp	r2, #3
 224:Drivers/STM32F4xx_HAL_Driver/Src/stm32f4xx_hal_pcd.c ****     hpcd->OUT_ep[i].xfer_len = 0U;
 599              		.loc 1 224 31 view .LVU307
 600 028a C4E9A933 		strd	r3, r3, [r4, #676]
 220:Drivers/STM32F4xx_HAL_Driver/Src/stm32f4xx_hal_pcd.c ****     /* Control until ep is activated */
 601              		.loc 1 220 25 view .LVU308
 602 028e A4F89C12 		strh	r1, [r4, #668]	@ movhi
 222:Drivers/STM32F4xx_HAL_Driver/Src/stm32f4xx_hal_pcd.c ****     hpcd->OUT_ep[i].maxpacket = 0U;
 603              		.loc 1 222 5 is_stmt 1 view .LVU309
 222:Drivers/STM32F4xx_HAL_Driver/Src/stm32f4xx_hal_pcd.c ****     hpcd->OUT_ep[i].maxpacket = 0U;
 604              		.loc 1 222 26 is_stmt 0 view .LVU310
 605 0292 84F8A032 		strb	r3, [r4, #672]
 223:Drivers/STM32F4xx_HAL_Driver/Src/stm32f4xx_hal_pcd.c ****     hpcd->OUT_ep[i].xfer_buff = 0U;
 606              		.loc 1 223 5 is_stmt 1 view .LVU311
 225:Drivers/STM32F4xx_HAL_Driver/Src/stm32f4xx_hal_pcd.c ****   }
 607              		.loc 1 225 5 view .LVU312
 225:Drivers/STM32F4xx_HAL_Driver/Src/stm32f4xx_hal_pcd.c ****   }
 608              		.loc 1 225 30 is_stmt 0 view .LVU313
 609 0296 C4F8AC32 		str	r3, [r4, #684]
 217:Drivers/STM32F4xx_HAL_Driver/Src/stm32f4xx_hal_pcd.c ****   {
 610              		.loc 1 217 47 is_stmt 1 discriminator 3 view .LVU314
 611              	.LVL29:
 217:Drivers/STM32F4xx_HAL_Driver/Src/stm32f4xx_hal_pcd.c ****   {
 612              		.loc 1 217 18 discriminator 1 view .LVU315
 613 029a 00F09680 		beq	.L16
 219:Drivers/STM32F4xx_HAL_Driver/Src/stm32f4xx_hal_pcd.c ****     hpcd->OUT_ep[i].num = i;
 614              		.loc 1 219 5 view .LVU316
 220:Drivers/STM32F4xx_HAL_Driver/Src/stm32f4xx_hal_pcd.c ****     /* Control until ep is activated */
 615              		.loc 1 220 5 view .LVU317
 220:Drivers/STM32F4xx_HAL_Driver/Src/stm32f4xx_hal_pcd.c ****     /* Control until ep is activated */
 616              		.loc 1 220 25 is_stmt 0 view .LVU318
 617 029e 0321     		movs	r1, #3
 217:Drivers/STM32F4xx_HAL_Driver/Src/stm32f4xx_hal_pcd.c ****   {
 618              		.loc 1 217 18 discriminator 1 view .LVU319
 619 02a0 042A     		cmp	r2, #4
 224:Drivers/STM32F4xx_HAL_Driver/Src/stm32f4xx_hal_pcd.c ****     hpcd->OUT_ep[i].xfer_len = 0U;
 620              		.loc 1 224 31 view .LVU320
 621 02a2 C4E9B233 		strd	r3, r3, [r4, #712]
 220:Drivers/STM32F4xx_HAL_Driver/Src/stm32f4xx_hal_pcd.c ****     /* Control until ep is activated */
 622              		.loc 1 220 25 view .LVU321
 623 02a6 A4F8C012 		strh	r1, [r4, #704]	@ movhi
 222:Drivers/STM32F4xx_HAL_Driver/Src/stm32f4xx_hal_pcd.c ****     hpcd->OUT_ep[i].maxpacket = 0U;
 624              		.loc 1 222 5 is_stmt 1 view .LVU322
 222:Drivers/STM32F4xx_HAL_Driver/Src/stm32f4xx_hal_pcd.c ****     hpcd->OUT_ep[i].maxpacket = 0U;
 625              		.loc 1 222 26 is_stmt 0 view .LVU323
 626 02aa 84F8C432 		strb	r3, [r4, #708]
 223:Drivers/STM32F4xx_HAL_Driver/Src/stm32f4xx_hal_pcd.c ****     hpcd->OUT_ep[i].xfer_buff = 0U;
 627              		.loc 1 223 5 is_stmt 1 view .LVU324
 225:Drivers/STM32F4xx_HAL_Driver/Src/stm32f4xx_hal_pcd.c ****   }
 628              		.loc 1 225 5 view .LVU325
 225:Drivers/STM32F4xx_HAL_Driver/Src/stm32f4xx_hal_pcd.c ****   }
ARM GAS  /tmp/ccDYdWST.s 			page 23


 629              		.loc 1 225 30 is_stmt 0 view .LVU326
 630 02ae C4F8D032 		str	r3, [r4, #720]
 217:Drivers/STM32F4xx_HAL_Driver/Src/stm32f4xx_hal_pcd.c ****   {
 631              		.loc 1 217 47 is_stmt 1 discriminator 3 view .LVU327
 632              	.LVL30:
 217:Drivers/STM32F4xx_HAL_Driver/Src/stm32f4xx_hal_pcd.c ****   {
 633              		.loc 1 217 18 discriminator 1 view .LVU328
 634 02b2 00F08A80 		beq	.L16
 219:Drivers/STM32F4xx_HAL_Driver/Src/stm32f4xx_hal_pcd.c ****     hpcd->OUT_ep[i].num = i;
 635              		.loc 1 219 5 view .LVU329
 220:Drivers/STM32F4xx_HAL_Driver/Src/stm32f4xx_hal_pcd.c ****     /* Control until ep is activated */
 636              		.loc 1 220 5 view .LVU330
 220:Drivers/STM32F4xx_HAL_Driver/Src/stm32f4xx_hal_pcd.c ****     /* Control until ep is activated */
 637              		.loc 1 220 25 is_stmt 0 view .LVU331
 638 02b6 0421     		movs	r1, #4
 217:Drivers/STM32F4xx_HAL_Driver/Src/stm32f4xx_hal_pcd.c ****   {
 639              		.loc 1 217 18 discriminator 1 view .LVU332
 640 02b8 052A     		cmp	r2, #5
 224:Drivers/STM32F4xx_HAL_Driver/Src/stm32f4xx_hal_pcd.c ****     hpcd->OUT_ep[i].xfer_len = 0U;
 641              		.loc 1 224 31 view .LVU333
 642 02ba C4E9BB33 		strd	r3, r3, [r4, #748]
 220:Drivers/STM32F4xx_HAL_Driver/Src/stm32f4xx_hal_pcd.c ****     /* Control until ep is activated */
 643              		.loc 1 220 25 view .LVU334
 644 02be A4F8E412 		strh	r1, [r4, #740]	@ movhi
 222:Drivers/STM32F4xx_HAL_Driver/Src/stm32f4xx_hal_pcd.c ****     hpcd->OUT_ep[i].maxpacket = 0U;
 645              		.loc 1 222 5 is_stmt 1 view .LVU335
 222:Drivers/STM32F4xx_HAL_Driver/Src/stm32f4xx_hal_pcd.c ****     hpcd->OUT_ep[i].maxpacket = 0U;
 646              		.loc 1 222 26 is_stmt 0 view .LVU336
 647 02c2 84F8E832 		strb	r3, [r4, #744]
 223:Drivers/STM32F4xx_HAL_Driver/Src/stm32f4xx_hal_pcd.c ****     hpcd->OUT_ep[i].xfer_buff = 0U;
 648              		.loc 1 223 5 is_stmt 1 view .LVU337
 225:Drivers/STM32F4xx_HAL_Driver/Src/stm32f4xx_hal_pcd.c ****   }
 649              		.loc 1 225 5 view .LVU338
 225:Drivers/STM32F4xx_HAL_Driver/Src/stm32f4xx_hal_pcd.c ****   }
 650              		.loc 1 225 30 is_stmt 0 view .LVU339
 651 02c6 C4F8F432 		str	r3, [r4, #756]
 217:Drivers/STM32F4xx_HAL_Driver/Src/stm32f4xx_hal_pcd.c ****   {
 652              		.loc 1 217 47 is_stmt 1 discriminator 3 view .LVU340
 653              	.LVL31:
 217:Drivers/STM32F4xx_HAL_Driver/Src/stm32f4xx_hal_pcd.c ****   {
 654              		.loc 1 217 18 discriminator 1 view .LVU341
 655 02ca 7ED0     		beq	.L16
 219:Drivers/STM32F4xx_HAL_Driver/Src/stm32f4xx_hal_pcd.c ****     hpcd->OUT_ep[i].num = i;
 656              		.loc 1 219 5 view .LVU342
 220:Drivers/STM32F4xx_HAL_Driver/Src/stm32f4xx_hal_pcd.c ****     /* Control until ep is activated */
 657              		.loc 1 220 5 view .LVU343
 220:Drivers/STM32F4xx_HAL_Driver/Src/stm32f4xx_hal_pcd.c ****     /* Control until ep is activated */
 658              		.loc 1 220 25 is_stmt 0 view .LVU344
 659 02cc 0521     		movs	r1, #5
 217:Drivers/STM32F4xx_HAL_Driver/Src/stm32f4xx_hal_pcd.c ****   {
 660              		.loc 1 217 18 discriminator 1 view .LVU345
 661 02ce 062A     		cmp	r2, #6
 224:Drivers/STM32F4xx_HAL_Driver/Src/stm32f4xx_hal_pcd.c ****     hpcd->OUT_ep[i].xfer_len = 0U;
 662              		.loc 1 224 31 view .LVU346
 663 02d0 C4E9C433 		strd	r3, r3, [r4, #784]
 220:Drivers/STM32F4xx_HAL_Driver/Src/stm32f4xx_hal_pcd.c ****     /* Control until ep is activated */
 664              		.loc 1 220 25 view .LVU347
ARM GAS  /tmp/ccDYdWST.s 			page 24


 665 02d4 A4F80813 		strh	r1, [r4, #776]	@ movhi
 222:Drivers/STM32F4xx_HAL_Driver/Src/stm32f4xx_hal_pcd.c ****     hpcd->OUT_ep[i].maxpacket = 0U;
 666              		.loc 1 222 5 is_stmt 1 view .LVU348
 222:Drivers/STM32F4xx_HAL_Driver/Src/stm32f4xx_hal_pcd.c ****     hpcd->OUT_ep[i].maxpacket = 0U;
 667              		.loc 1 222 26 is_stmt 0 view .LVU349
 668 02d8 84F80C33 		strb	r3, [r4, #780]
 223:Drivers/STM32F4xx_HAL_Driver/Src/stm32f4xx_hal_pcd.c ****     hpcd->OUT_ep[i].xfer_buff = 0U;
 669              		.loc 1 223 5 is_stmt 1 view .LVU350
 225:Drivers/STM32F4xx_HAL_Driver/Src/stm32f4xx_hal_pcd.c ****   }
 670              		.loc 1 225 5 view .LVU351
 225:Drivers/STM32F4xx_HAL_Driver/Src/stm32f4xx_hal_pcd.c ****   }
 671              		.loc 1 225 30 is_stmt 0 view .LVU352
 672 02dc C4F81833 		str	r3, [r4, #792]
 217:Drivers/STM32F4xx_HAL_Driver/Src/stm32f4xx_hal_pcd.c ****   {
 673              		.loc 1 217 47 is_stmt 1 discriminator 3 view .LVU353
 674              	.LVL32:
 217:Drivers/STM32F4xx_HAL_Driver/Src/stm32f4xx_hal_pcd.c ****   {
 675              		.loc 1 217 18 discriminator 1 view .LVU354
 676 02e0 73D0     		beq	.L16
 219:Drivers/STM32F4xx_HAL_Driver/Src/stm32f4xx_hal_pcd.c ****     hpcd->OUT_ep[i].num = i;
 677              		.loc 1 219 5 view .LVU355
 220:Drivers/STM32F4xx_HAL_Driver/Src/stm32f4xx_hal_pcd.c ****     /* Control until ep is activated */
 678              		.loc 1 220 5 view .LVU356
 220:Drivers/STM32F4xx_HAL_Driver/Src/stm32f4xx_hal_pcd.c ****     /* Control until ep is activated */
 679              		.loc 1 220 25 is_stmt 0 view .LVU357
 680 02e2 0621     		movs	r1, #6
 217:Drivers/STM32F4xx_HAL_Driver/Src/stm32f4xx_hal_pcd.c ****   {
 681              		.loc 1 217 18 discriminator 1 view .LVU358
 682 02e4 072A     		cmp	r2, #7
 224:Drivers/STM32F4xx_HAL_Driver/Src/stm32f4xx_hal_pcd.c ****     hpcd->OUT_ep[i].xfer_len = 0U;
 683              		.loc 1 224 31 view .LVU359
 684 02e6 C4E9CD33 		strd	r3, r3, [r4, #820]
 220:Drivers/STM32F4xx_HAL_Driver/Src/stm32f4xx_hal_pcd.c ****     /* Control until ep is activated */
 685              		.loc 1 220 25 view .LVU360
 686 02ea A4F82C13 		strh	r1, [r4, #812]	@ movhi
 222:Drivers/STM32F4xx_HAL_Driver/Src/stm32f4xx_hal_pcd.c ****     hpcd->OUT_ep[i].maxpacket = 0U;
 687              		.loc 1 222 5 is_stmt 1 view .LVU361
 222:Drivers/STM32F4xx_HAL_Driver/Src/stm32f4xx_hal_pcd.c ****     hpcd->OUT_ep[i].maxpacket = 0U;
 688              		.loc 1 222 26 is_stmt 0 view .LVU362
 689 02ee 84F83033 		strb	r3, [r4, #816]
 223:Drivers/STM32F4xx_HAL_Driver/Src/stm32f4xx_hal_pcd.c ****     hpcd->OUT_ep[i].xfer_buff = 0U;
 690              		.loc 1 223 5 is_stmt 1 view .LVU363
 225:Drivers/STM32F4xx_HAL_Driver/Src/stm32f4xx_hal_pcd.c ****   }
 691              		.loc 1 225 5 view .LVU364
 225:Drivers/STM32F4xx_HAL_Driver/Src/stm32f4xx_hal_pcd.c ****   }
 692              		.loc 1 225 30 is_stmt 0 view .LVU365
 693 02f2 C4F83C33 		str	r3, [r4, #828]
 217:Drivers/STM32F4xx_HAL_Driver/Src/stm32f4xx_hal_pcd.c ****   {
 694              		.loc 1 217 47 is_stmt 1 discriminator 3 view .LVU366
 695              	.LVL33:
 217:Drivers/STM32F4xx_HAL_Driver/Src/stm32f4xx_hal_pcd.c ****   {
 696              		.loc 1 217 18 discriminator 1 view .LVU367
 697 02f6 68D0     		beq	.L16
 219:Drivers/STM32F4xx_HAL_Driver/Src/stm32f4xx_hal_pcd.c ****     hpcd->OUT_ep[i].num = i;
 698              		.loc 1 219 5 view .LVU368
 220:Drivers/STM32F4xx_HAL_Driver/Src/stm32f4xx_hal_pcd.c ****     /* Control until ep is activated */
 699              		.loc 1 220 5 view .LVU369
ARM GAS  /tmp/ccDYdWST.s 			page 25


 220:Drivers/STM32F4xx_HAL_Driver/Src/stm32f4xx_hal_pcd.c ****     /* Control until ep is activated */
 700              		.loc 1 220 25 is_stmt 0 view .LVU370
 701 02f8 0721     		movs	r1, #7
 217:Drivers/STM32F4xx_HAL_Driver/Src/stm32f4xx_hal_pcd.c ****   {
 702              		.loc 1 217 18 discriminator 1 view .LVU371
 703 02fa 082A     		cmp	r2, #8
 224:Drivers/STM32F4xx_HAL_Driver/Src/stm32f4xx_hal_pcd.c ****     hpcd->OUT_ep[i].xfer_len = 0U;
 704              		.loc 1 224 31 view .LVU372
 705 02fc C4E9D633 		strd	r3, r3, [r4, #856]
 220:Drivers/STM32F4xx_HAL_Driver/Src/stm32f4xx_hal_pcd.c ****     /* Control until ep is activated */
 706              		.loc 1 220 25 view .LVU373
 707 0300 A4F85013 		strh	r1, [r4, #848]	@ movhi
 222:Drivers/STM32F4xx_HAL_Driver/Src/stm32f4xx_hal_pcd.c ****     hpcd->OUT_ep[i].maxpacket = 0U;
 708              		.loc 1 222 5 is_stmt 1 view .LVU374
 222:Drivers/STM32F4xx_HAL_Driver/Src/stm32f4xx_hal_pcd.c ****     hpcd->OUT_ep[i].maxpacket = 0U;
 709              		.loc 1 222 26 is_stmt 0 view .LVU375
 710 0304 84F85433 		strb	r3, [r4, #852]
 223:Drivers/STM32F4xx_HAL_Driver/Src/stm32f4xx_hal_pcd.c ****     hpcd->OUT_ep[i].xfer_buff = 0U;
 711              		.loc 1 223 5 is_stmt 1 view .LVU376
 225:Drivers/STM32F4xx_HAL_Driver/Src/stm32f4xx_hal_pcd.c ****   }
 712              		.loc 1 225 5 view .LVU377
 225:Drivers/STM32F4xx_HAL_Driver/Src/stm32f4xx_hal_pcd.c ****   }
 713              		.loc 1 225 30 is_stmt 0 view .LVU378
 714 0308 C4F86033 		str	r3, [r4, #864]
 217:Drivers/STM32F4xx_HAL_Driver/Src/stm32f4xx_hal_pcd.c ****   {
 715              		.loc 1 217 47 is_stmt 1 discriminator 3 view .LVU379
 716              	.LVL34:
 217:Drivers/STM32F4xx_HAL_Driver/Src/stm32f4xx_hal_pcd.c ****   {
 717              		.loc 1 217 18 discriminator 1 view .LVU380
 718 030c 5DD0     		beq	.L16
 219:Drivers/STM32F4xx_HAL_Driver/Src/stm32f4xx_hal_pcd.c ****     hpcd->OUT_ep[i].num = i;
 719              		.loc 1 219 5 view .LVU381
 220:Drivers/STM32F4xx_HAL_Driver/Src/stm32f4xx_hal_pcd.c ****     /* Control until ep is activated */
 720              		.loc 1 220 5 view .LVU382
 220:Drivers/STM32F4xx_HAL_Driver/Src/stm32f4xx_hal_pcd.c ****     /* Control until ep is activated */
 721              		.loc 1 220 25 is_stmt 0 view .LVU383
 722 030e 0821     		movs	r1, #8
 217:Drivers/STM32F4xx_HAL_Driver/Src/stm32f4xx_hal_pcd.c ****   {
 723              		.loc 1 217 18 discriminator 1 view .LVU384
 724 0310 092A     		cmp	r2, #9
 224:Drivers/STM32F4xx_HAL_Driver/Src/stm32f4xx_hal_pcd.c ****     hpcd->OUT_ep[i].xfer_len = 0U;
 725              		.loc 1 224 31 view .LVU385
 726 0312 C4E9DF33 		strd	r3, r3, [r4, #892]
 220:Drivers/STM32F4xx_HAL_Driver/Src/stm32f4xx_hal_pcd.c ****     /* Control until ep is activated */
 727              		.loc 1 220 25 view .LVU386
 728 0316 A4F87413 		strh	r1, [r4, #884]	@ movhi
 222:Drivers/STM32F4xx_HAL_Driver/Src/stm32f4xx_hal_pcd.c ****     hpcd->OUT_ep[i].maxpacket = 0U;
 729              		.loc 1 222 5 is_stmt 1 view .LVU387
 222:Drivers/STM32F4xx_HAL_Driver/Src/stm32f4xx_hal_pcd.c ****     hpcd->OUT_ep[i].maxpacket = 0U;
 730              		.loc 1 222 26 is_stmt 0 view .LVU388
 731 031a 84F87833 		strb	r3, [r4, #888]
 223:Drivers/STM32F4xx_HAL_Driver/Src/stm32f4xx_hal_pcd.c ****     hpcd->OUT_ep[i].xfer_buff = 0U;
 732              		.loc 1 223 5 is_stmt 1 view .LVU389
 225:Drivers/STM32F4xx_HAL_Driver/Src/stm32f4xx_hal_pcd.c ****   }
 733              		.loc 1 225 5 view .LVU390
 225:Drivers/STM32F4xx_HAL_Driver/Src/stm32f4xx_hal_pcd.c ****   }
 734              		.loc 1 225 30 is_stmt 0 view .LVU391
ARM GAS  /tmp/ccDYdWST.s 			page 26


 735 031e C4F88433 		str	r3, [r4, #900]
 217:Drivers/STM32F4xx_HAL_Driver/Src/stm32f4xx_hal_pcd.c ****   {
 736              		.loc 1 217 47 is_stmt 1 discriminator 3 view .LVU392
 737              	.LVL35:
 217:Drivers/STM32F4xx_HAL_Driver/Src/stm32f4xx_hal_pcd.c ****   {
 738              		.loc 1 217 18 discriminator 1 view .LVU393
 739 0322 52D0     		beq	.L16
 219:Drivers/STM32F4xx_HAL_Driver/Src/stm32f4xx_hal_pcd.c ****     hpcd->OUT_ep[i].num = i;
 740              		.loc 1 219 5 view .LVU394
 220:Drivers/STM32F4xx_HAL_Driver/Src/stm32f4xx_hal_pcd.c ****     /* Control until ep is activated */
 741              		.loc 1 220 5 view .LVU395
 220:Drivers/STM32F4xx_HAL_Driver/Src/stm32f4xx_hal_pcd.c ****     /* Control until ep is activated */
 742              		.loc 1 220 25 is_stmt 0 view .LVU396
 743 0324 0921     		movs	r1, #9
 217:Drivers/STM32F4xx_HAL_Driver/Src/stm32f4xx_hal_pcd.c ****   {
 744              		.loc 1 217 18 discriminator 1 view .LVU397
 745 0326 0A2A     		cmp	r2, #10
 224:Drivers/STM32F4xx_HAL_Driver/Src/stm32f4xx_hal_pcd.c ****     hpcd->OUT_ep[i].xfer_len = 0U;
 746              		.loc 1 224 31 view .LVU398
 747 0328 C4E9E833 		strd	r3, r3, [r4, #928]
 220:Drivers/STM32F4xx_HAL_Driver/Src/stm32f4xx_hal_pcd.c ****     /* Control until ep is activated */
 748              		.loc 1 220 25 view .LVU399
 749 032c A4F89813 		strh	r1, [r4, #920]	@ movhi
 222:Drivers/STM32F4xx_HAL_Driver/Src/stm32f4xx_hal_pcd.c ****     hpcd->OUT_ep[i].maxpacket = 0U;
 750              		.loc 1 222 5 is_stmt 1 view .LVU400
 222:Drivers/STM32F4xx_HAL_Driver/Src/stm32f4xx_hal_pcd.c ****     hpcd->OUT_ep[i].maxpacket = 0U;
 751              		.loc 1 222 26 is_stmt 0 view .LVU401
 752 0330 84F89C33 		strb	r3, [r4, #924]
 223:Drivers/STM32F4xx_HAL_Driver/Src/stm32f4xx_hal_pcd.c ****     hpcd->OUT_ep[i].xfer_buff = 0U;
 753              		.loc 1 223 5 is_stmt 1 view .LVU402
 225:Drivers/STM32F4xx_HAL_Driver/Src/stm32f4xx_hal_pcd.c ****   }
 754              		.loc 1 225 5 view .LVU403
 225:Drivers/STM32F4xx_HAL_Driver/Src/stm32f4xx_hal_pcd.c ****   }
 755              		.loc 1 225 30 is_stmt 0 view .LVU404
 756 0334 C4F8A833 		str	r3, [r4, #936]
 217:Drivers/STM32F4xx_HAL_Driver/Src/stm32f4xx_hal_pcd.c ****   {
 757              		.loc 1 217 47 is_stmt 1 discriminator 3 view .LVU405
 758              	.LVL36:
 217:Drivers/STM32F4xx_HAL_Driver/Src/stm32f4xx_hal_pcd.c ****   {
 759              		.loc 1 217 18 discriminator 1 view .LVU406
 760 0338 47D0     		beq	.L16
 219:Drivers/STM32F4xx_HAL_Driver/Src/stm32f4xx_hal_pcd.c ****     hpcd->OUT_ep[i].num = i;
 761              		.loc 1 219 5 view .LVU407
 220:Drivers/STM32F4xx_HAL_Driver/Src/stm32f4xx_hal_pcd.c ****     /* Control until ep is activated */
 762              		.loc 1 220 5 view .LVU408
 220:Drivers/STM32F4xx_HAL_Driver/Src/stm32f4xx_hal_pcd.c ****     /* Control until ep is activated */
 763              		.loc 1 220 25 is_stmt 0 view .LVU409
 764 033a 0A21     		movs	r1, #10
 217:Drivers/STM32F4xx_HAL_Driver/Src/stm32f4xx_hal_pcd.c ****   {
 765              		.loc 1 217 18 discriminator 1 view .LVU410
 766 033c 0B2A     		cmp	r2, #11
 224:Drivers/STM32F4xx_HAL_Driver/Src/stm32f4xx_hal_pcd.c ****     hpcd->OUT_ep[i].xfer_len = 0U;
 767              		.loc 1 224 31 view .LVU411
 768 033e C4E9F133 		strd	r3, r3, [r4, #964]
 220:Drivers/STM32F4xx_HAL_Driver/Src/stm32f4xx_hal_pcd.c ****     /* Control until ep is activated */
 769              		.loc 1 220 25 view .LVU412
 770 0342 A4F8BC13 		strh	r1, [r4, #956]	@ movhi
ARM GAS  /tmp/ccDYdWST.s 			page 27


 222:Drivers/STM32F4xx_HAL_Driver/Src/stm32f4xx_hal_pcd.c ****     hpcd->OUT_ep[i].maxpacket = 0U;
 771              		.loc 1 222 5 is_stmt 1 view .LVU413
 222:Drivers/STM32F4xx_HAL_Driver/Src/stm32f4xx_hal_pcd.c ****     hpcd->OUT_ep[i].maxpacket = 0U;
 772              		.loc 1 222 26 is_stmt 0 view .LVU414
 773 0346 84F8C033 		strb	r3, [r4, #960]
 223:Drivers/STM32F4xx_HAL_Driver/Src/stm32f4xx_hal_pcd.c ****     hpcd->OUT_ep[i].xfer_buff = 0U;
 774              		.loc 1 223 5 is_stmt 1 view .LVU415
 225:Drivers/STM32F4xx_HAL_Driver/Src/stm32f4xx_hal_pcd.c ****   }
 775              		.loc 1 225 5 view .LVU416
 225:Drivers/STM32F4xx_HAL_Driver/Src/stm32f4xx_hal_pcd.c ****   }
 776              		.loc 1 225 30 is_stmt 0 view .LVU417
 777 034a C4F8CC33 		str	r3, [r4, #972]
 217:Drivers/STM32F4xx_HAL_Driver/Src/stm32f4xx_hal_pcd.c ****   {
 778              		.loc 1 217 47 is_stmt 1 discriminator 3 view .LVU418
 779              	.LVL37:
 217:Drivers/STM32F4xx_HAL_Driver/Src/stm32f4xx_hal_pcd.c ****   {
 780              		.loc 1 217 18 discriminator 1 view .LVU419
 781 034e 3CD0     		beq	.L16
 219:Drivers/STM32F4xx_HAL_Driver/Src/stm32f4xx_hal_pcd.c ****     hpcd->OUT_ep[i].num = i;
 782              		.loc 1 219 5 view .LVU420
 220:Drivers/STM32F4xx_HAL_Driver/Src/stm32f4xx_hal_pcd.c ****     /* Control until ep is activated */
 783              		.loc 1 220 5 view .LVU421
 220:Drivers/STM32F4xx_HAL_Driver/Src/stm32f4xx_hal_pcd.c ****     /* Control until ep is activated */
 784              		.loc 1 220 25 is_stmt 0 view .LVU422
 785 0350 0B21     		movs	r1, #11
 217:Drivers/STM32F4xx_HAL_Driver/Src/stm32f4xx_hal_pcd.c ****   {
 786              		.loc 1 217 18 discriminator 1 view .LVU423
 787 0352 0C2A     		cmp	r2, #12
 224:Drivers/STM32F4xx_HAL_Driver/Src/stm32f4xx_hal_pcd.c ****     hpcd->OUT_ep[i].xfer_len = 0U;
 788              		.loc 1 224 31 view .LVU424
 789 0354 C4E9FA33 		strd	r3, r3, [r4, #1000]
 220:Drivers/STM32F4xx_HAL_Driver/Src/stm32f4xx_hal_pcd.c ****     /* Control until ep is activated */
 790              		.loc 1 220 25 view .LVU425
 791 0358 A4F8E013 		strh	r1, [r4, #992]	@ movhi
 222:Drivers/STM32F4xx_HAL_Driver/Src/stm32f4xx_hal_pcd.c ****     hpcd->OUT_ep[i].maxpacket = 0U;
 792              		.loc 1 222 5 is_stmt 1 view .LVU426
 222:Drivers/STM32F4xx_HAL_Driver/Src/stm32f4xx_hal_pcd.c ****     hpcd->OUT_ep[i].maxpacket = 0U;
 793              		.loc 1 222 26 is_stmt 0 view .LVU427
 794 035c 84F8E433 		strb	r3, [r4, #996]
 223:Drivers/STM32F4xx_HAL_Driver/Src/stm32f4xx_hal_pcd.c ****     hpcd->OUT_ep[i].xfer_buff = 0U;
 795              		.loc 1 223 5 is_stmt 1 view .LVU428
 225:Drivers/STM32F4xx_HAL_Driver/Src/stm32f4xx_hal_pcd.c ****   }
 796              		.loc 1 225 5 view .LVU429
 225:Drivers/STM32F4xx_HAL_Driver/Src/stm32f4xx_hal_pcd.c ****   }
 797              		.loc 1 225 30 is_stmt 0 view .LVU430
 798 0360 C4F8F033 		str	r3, [r4, #1008]
 217:Drivers/STM32F4xx_HAL_Driver/Src/stm32f4xx_hal_pcd.c ****   {
 799              		.loc 1 217 47 is_stmt 1 discriminator 3 view .LVU431
 800              	.LVL38:
 217:Drivers/STM32F4xx_HAL_Driver/Src/stm32f4xx_hal_pcd.c ****   {
 801              		.loc 1 217 18 discriminator 1 view .LVU432
 802 0364 31D0     		beq	.L16
 219:Drivers/STM32F4xx_HAL_Driver/Src/stm32f4xx_hal_pcd.c ****     hpcd->OUT_ep[i].num = i;
 803              		.loc 1 219 5 view .LVU433
 220:Drivers/STM32F4xx_HAL_Driver/Src/stm32f4xx_hal_pcd.c ****     /* Control until ep is activated */
 804              		.loc 1 220 5 view .LVU434
 220:Drivers/STM32F4xx_HAL_Driver/Src/stm32f4xx_hal_pcd.c ****     /* Control until ep is activated */
ARM GAS  /tmp/ccDYdWST.s 			page 28


 805              		.loc 1 220 25 is_stmt 0 view .LVU435
 806 0366 0C21     		movs	r1, #12
 217:Drivers/STM32F4xx_HAL_Driver/Src/stm32f4xx_hal_pcd.c ****   {
 807              		.loc 1 217 18 discriminator 1 view .LVU436
 808 0368 0D2A     		cmp	r2, #13
 220:Drivers/STM32F4xx_HAL_Driver/Src/stm32f4xx_hal_pcd.c ****     /* Control until ep is activated */
 809              		.loc 1 220 25 view .LVU437
 810 036a A4F80414 		strh	r1, [r4, #1028]	@ movhi
 222:Drivers/STM32F4xx_HAL_Driver/Src/stm32f4xx_hal_pcd.c ****     hpcd->OUT_ep[i].maxpacket = 0U;
 811              		.loc 1 222 5 is_stmt 1 view .LVU438
 222:Drivers/STM32F4xx_HAL_Driver/Src/stm32f4xx_hal_pcd.c ****     hpcd->OUT_ep[i].maxpacket = 0U;
 812              		.loc 1 222 26 is_stmt 0 view .LVU439
 813 036e 84F80834 		strb	r3, [r4, #1032]
 223:Drivers/STM32F4xx_HAL_Driver/Src/stm32f4xx_hal_pcd.c ****     hpcd->OUT_ep[i].xfer_buff = 0U;
 814              		.loc 1 223 5 is_stmt 1 view .LVU440
 223:Drivers/STM32F4xx_HAL_Driver/Src/stm32f4xx_hal_pcd.c ****     hpcd->OUT_ep[i].xfer_buff = 0U;
 815              		.loc 1 223 31 is_stmt 0 view .LVU441
 816 0372 C4F80C34 		str	r3, [r4, #1036]
 224:Drivers/STM32F4xx_HAL_Driver/Src/stm32f4xx_hal_pcd.c ****     hpcd->OUT_ep[i].xfer_len = 0U;
 817              		.loc 1 224 5 is_stmt 1 view .LVU442
 224:Drivers/STM32F4xx_HAL_Driver/Src/stm32f4xx_hal_pcd.c ****     hpcd->OUT_ep[i].xfer_len = 0U;
 818              		.loc 1 224 31 is_stmt 0 view .LVU443
 819 0376 C4F81034 		str	r3, [r4, #1040]
 225:Drivers/STM32F4xx_HAL_Driver/Src/stm32f4xx_hal_pcd.c ****   }
 820              		.loc 1 225 5 is_stmt 1 view .LVU444
 225:Drivers/STM32F4xx_HAL_Driver/Src/stm32f4xx_hal_pcd.c ****   }
 821              		.loc 1 225 30 is_stmt 0 view .LVU445
 822 037a C4F81434 		str	r3, [r4, #1044]
 217:Drivers/STM32F4xx_HAL_Driver/Src/stm32f4xx_hal_pcd.c ****   {
 823              		.loc 1 217 47 is_stmt 1 discriminator 3 view .LVU446
 824              	.LVL39:
 217:Drivers/STM32F4xx_HAL_Driver/Src/stm32f4xx_hal_pcd.c ****   {
 825              		.loc 1 217 18 discriminator 1 view .LVU447
 826 037e 24D0     		beq	.L16
 219:Drivers/STM32F4xx_HAL_Driver/Src/stm32f4xx_hal_pcd.c ****     hpcd->OUT_ep[i].num = i;
 827              		.loc 1 219 5 view .LVU448
 220:Drivers/STM32F4xx_HAL_Driver/Src/stm32f4xx_hal_pcd.c ****     /* Control until ep is activated */
 828              		.loc 1 220 5 view .LVU449
 220:Drivers/STM32F4xx_HAL_Driver/Src/stm32f4xx_hal_pcd.c ****     /* Control until ep is activated */
 829              		.loc 1 220 25 is_stmt 0 view .LVU450
 830 0380 0D21     		movs	r1, #13
 217:Drivers/STM32F4xx_HAL_Driver/Src/stm32f4xx_hal_pcd.c ****   {
 831              		.loc 1 217 18 discriminator 1 view .LVU451
 832 0382 0E2A     		cmp	r2, #14
 220:Drivers/STM32F4xx_HAL_Driver/Src/stm32f4xx_hal_pcd.c ****     /* Control until ep is activated */
 833              		.loc 1 220 25 view .LVU452
 834 0384 A4F82814 		strh	r1, [r4, #1064]	@ movhi
 222:Drivers/STM32F4xx_HAL_Driver/Src/stm32f4xx_hal_pcd.c ****     hpcd->OUT_ep[i].maxpacket = 0U;
 835              		.loc 1 222 5 is_stmt 1 view .LVU453
 222:Drivers/STM32F4xx_HAL_Driver/Src/stm32f4xx_hal_pcd.c ****     hpcd->OUT_ep[i].maxpacket = 0U;
 836              		.loc 1 222 26 is_stmt 0 view .LVU454
 837 0388 84F82C34 		strb	r3, [r4, #1068]
 223:Drivers/STM32F4xx_HAL_Driver/Src/stm32f4xx_hal_pcd.c ****     hpcd->OUT_ep[i].xfer_buff = 0U;
 838              		.loc 1 223 5 is_stmt 1 view .LVU455
 223:Drivers/STM32F4xx_HAL_Driver/Src/stm32f4xx_hal_pcd.c ****     hpcd->OUT_ep[i].xfer_buff = 0U;
 839              		.loc 1 223 31 is_stmt 0 view .LVU456
 840 038c C4F83034 		str	r3, [r4, #1072]
ARM GAS  /tmp/ccDYdWST.s 			page 29


 224:Drivers/STM32F4xx_HAL_Driver/Src/stm32f4xx_hal_pcd.c ****     hpcd->OUT_ep[i].xfer_len = 0U;
 841              		.loc 1 224 5 is_stmt 1 view .LVU457
 224:Drivers/STM32F4xx_HAL_Driver/Src/stm32f4xx_hal_pcd.c ****     hpcd->OUT_ep[i].xfer_len = 0U;
 842              		.loc 1 224 31 is_stmt 0 view .LVU458
 843 0390 C4F83434 		str	r3, [r4, #1076]
 225:Drivers/STM32F4xx_HAL_Driver/Src/stm32f4xx_hal_pcd.c ****   }
 844              		.loc 1 225 5 is_stmt 1 view .LVU459
 225:Drivers/STM32F4xx_HAL_Driver/Src/stm32f4xx_hal_pcd.c ****   }
 845              		.loc 1 225 30 is_stmt 0 view .LVU460
 846 0394 C4F83834 		str	r3, [r4, #1080]
 217:Drivers/STM32F4xx_HAL_Driver/Src/stm32f4xx_hal_pcd.c ****   {
 847              		.loc 1 217 47 is_stmt 1 discriminator 3 view .LVU461
 848              	.LVL40:
 217:Drivers/STM32F4xx_HAL_Driver/Src/stm32f4xx_hal_pcd.c ****   {
 849              		.loc 1 217 18 discriminator 1 view .LVU462
 850 0398 17D0     		beq	.L16
 219:Drivers/STM32F4xx_HAL_Driver/Src/stm32f4xx_hal_pcd.c ****     hpcd->OUT_ep[i].num = i;
 851              		.loc 1 219 5 view .LVU463
 220:Drivers/STM32F4xx_HAL_Driver/Src/stm32f4xx_hal_pcd.c ****     /* Control until ep is activated */
 852              		.loc 1 220 5 view .LVU464
 220:Drivers/STM32F4xx_HAL_Driver/Src/stm32f4xx_hal_pcd.c ****     /* Control until ep is activated */
 853              		.loc 1 220 25 is_stmt 0 view .LVU465
 854 039a 0E21     		movs	r1, #14
 217:Drivers/STM32F4xx_HAL_Driver/Src/stm32f4xx_hal_pcd.c ****   {
 855              		.loc 1 217 18 discriminator 1 view .LVU466
 856 039c 0F2A     		cmp	r2, #15
 220:Drivers/STM32F4xx_HAL_Driver/Src/stm32f4xx_hal_pcd.c ****     /* Control until ep is activated */
 857              		.loc 1 220 25 view .LVU467
 858 039e A4F84C14 		strh	r1, [r4, #1100]	@ movhi
 222:Drivers/STM32F4xx_HAL_Driver/Src/stm32f4xx_hal_pcd.c ****     hpcd->OUT_ep[i].maxpacket = 0U;
 859              		.loc 1 222 5 is_stmt 1 view .LVU468
 222:Drivers/STM32F4xx_HAL_Driver/Src/stm32f4xx_hal_pcd.c ****     hpcd->OUT_ep[i].maxpacket = 0U;
 860              		.loc 1 222 26 is_stmt 0 view .LVU469
 861 03a2 84F85034 		strb	r3, [r4, #1104]
 223:Drivers/STM32F4xx_HAL_Driver/Src/stm32f4xx_hal_pcd.c ****     hpcd->OUT_ep[i].xfer_buff = 0U;
 862              		.loc 1 223 5 is_stmt 1 view .LVU470
 223:Drivers/STM32F4xx_HAL_Driver/Src/stm32f4xx_hal_pcd.c ****     hpcd->OUT_ep[i].xfer_buff = 0U;
 863              		.loc 1 223 31 is_stmt 0 view .LVU471
 864 03a6 C4F85434 		str	r3, [r4, #1108]
 224:Drivers/STM32F4xx_HAL_Driver/Src/stm32f4xx_hal_pcd.c ****     hpcd->OUT_ep[i].xfer_len = 0U;
 865              		.loc 1 224 5 is_stmt 1 view .LVU472
 224:Drivers/STM32F4xx_HAL_Driver/Src/stm32f4xx_hal_pcd.c ****     hpcd->OUT_ep[i].xfer_len = 0U;
 866              		.loc 1 224 31 is_stmt 0 view .LVU473
 867 03aa C4F85834 		str	r3, [r4, #1112]
 225:Drivers/STM32F4xx_HAL_Driver/Src/stm32f4xx_hal_pcd.c ****   }
 868              		.loc 1 225 5 is_stmt 1 view .LVU474
 225:Drivers/STM32F4xx_HAL_Driver/Src/stm32f4xx_hal_pcd.c ****   }
 869              		.loc 1 225 30 is_stmt 0 view .LVU475
 870 03ae C4F85C34 		str	r3, [r4, #1116]
 217:Drivers/STM32F4xx_HAL_Driver/Src/stm32f4xx_hal_pcd.c ****   {
 871              		.loc 1 217 47 is_stmt 1 discriminator 3 view .LVU476
 872              	.LVL41:
 217:Drivers/STM32F4xx_HAL_Driver/Src/stm32f4xx_hal_pcd.c ****   {
 873              		.loc 1 217 18 discriminator 1 view .LVU477
 874 03b2 0AD0     		beq	.L16
 219:Drivers/STM32F4xx_HAL_Driver/Src/stm32f4xx_hal_pcd.c ****     hpcd->OUT_ep[i].num = i;
 875              		.loc 1 219 5 view .LVU478
ARM GAS  /tmp/ccDYdWST.s 			page 30


 220:Drivers/STM32F4xx_HAL_Driver/Src/stm32f4xx_hal_pcd.c ****     /* Control until ep is activated */
 876              		.loc 1 220 5 view .LVU479
 220:Drivers/STM32F4xx_HAL_Driver/Src/stm32f4xx_hal_pcd.c ****     /* Control until ep is activated */
 877              		.loc 1 220 25 is_stmt 0 view .LVU480
 878 03b4 0F22     		movs	r2, #15
 879 03b6 A4F87024 		strh	r2, [r4, #1136]	@ movhi
 222:Drivers/STM32F4xx_HAL_Driver/Src/stm32f4xx_hal_pcd.c ****     hpcd->OUT_ep[i].maxpacket = 0U;
 880              		.loc 1 222 5 is_stmt 1 view .LVU481
 222:Drivers/STM32F4xx_HAL_Driver/Src/stm32f4xx_hal_pcd.c ****     hpcd->OUT_ep[i].maxpacket = 0U;
 881              		.loc 1 222 26 is_stmt 0 view .LVU482
 882 03ba 84F87434 		strb	r3, [r4, #1140]
 223:Drivers/STM32F4xx_HAL_Driver/Src/stm32f4xx_hal_pcd.c ****     hpcd->OUT_ep[i].xfer_buff = 0U;
 883              		.loc 1 223 5 is_stmt 1 view .LVU483
 223:Drivers/STM32F4xx_HAL_Driver/Src/stm32f4xx_hal_pcd.c ****     hpcd->OUT_ep[i].xfer_buff = 0U;
 884              		.loc 1 223 31 is_stmt 0 view .LVU484
 885 03be C4F87834 		str	r3, [r4, #1144]
 224:Drivers/STM32F4xx_HAL_Driver/Src/stm32f4xx_hal_pcd.c ****     hpcd->OUT_ep[i].xfer_len = 0U;
 886              		.loc 1 224 5 is_stmt 1 view .LVU485
 224:Drivers/STM32F4xx_HAL_Driver/Src/stm32f4xx_hal_pcd.c ****     hpcd->OUT_ep[i].xfer_len = 0U;
 887              		.loc 1 224 31 is_stmt 0 view .LVU486
 888 03c2 C4F87C34 		str	r3, [r4, #1148]
 225:Drivers/STM32F4xx_HAL_Driver/Src/stm32f4xx_hal_pcd.c ****   }
 889              		.loc 1 225 5 is_stmt 1 view .LVU487
 225:Drivers/STM32F4xx_HAL_Driver/Src/stm32f4xx_hal_pcd.c ****   }
 890              		.loc 1 225 30 is_stmt 0 view .LVU488
 891 03c6 C4F88034 		str	r3, [r4, #1152]
 217:Drivers/STM32F4xx_HAL_Driver/Src/stm32f4xx_hal_pcd.c ****   {
 892              		.loc 1 217 47 is_stmt 1 discriminator 3 view .LVU489
 893              	.LVL42:
 217:Drivers/STM32F4xx_HAL_Driver/Src/stm32f4xx_hal_pcd.c ****   {
 894              		.loc 1 217 18 discriminator 1 view .LVU490
 895              	.L16:
 229:Drivers/STM32F4xx_HAL_Driver/Src/stm32f4xx_hal_pcd.c ****   {
 896              		.loc 1 229 3 view .LVU491
 229:Drivers/STM32F4xx_HAL_Driver/Src/stm32f4xx_hal_pcd.c ****   {
 897              		.loc 1 229 7 is_stmt 0 view .LVU492
 898 03ca 207C     		ldrb	r0, [r4, #16]	@ zero_extendqisi2
 899 03cc 95E80E00 		ldm	r5, {r1, r2, r3}
 900 03d0 8DF80000 		strb	r0, [sp]
 901 03d4 2068     		ldr	r0, [r4]
 902 03d6 FFF7FEFF 		bl	USB_DevInit
 903              	.LVL43:
 229:Drivers/STM32F4xx_HAL_Driver/Src/stm32f4xx_hal_pcd.c ****   {
 904              		.loc 1 229 6 discriminator 1 view .LVU493
 905 03da 0546     		mov	r5, r0
 906 03dc 0028     		cmp	r0, #0
 907 03de 7FF431AE 		bne	.L107
 235:Drivers/STM32F4xx_HAL_Driver/Src/stm32f4xx_hal_pcd.c ****   hpcd->State = HAL_PCD_STATE_READY;
 908              		.loc 1 235 3 is_stmt 1 view .LVU494
 236:Drivers/STM32F4xx_HAL_Driver/Src/stm32f4xx_hal_pcd.c **** #if defined(STM32F446xx) || defined(STM32F469xx) || defined(STM32F479xx) || defined(STM32F412Zx) \
 909              		.loc 1 236 15 is_stmt 0 view .LVU495
 910 03e2 0123     		movs	r3, #1
 235:Drivers/STM32F4xx_HAL_Driver/Src/stm32f4xx_hal_pcd.c ****   hpcd->State = HAL_PCD_STATE_READY;
 911              		.loc 1 235 21 view .LVU496
 912 03e4 6074     		strb	r0, [r4, #17]
 236:Drivers/STM32F4xx_HAL_Driver/Src/stm32f4xx_hal_pcd.c **** #if defined(STM32F446xx) || defined(STM32F469xx) || defined(STM32F479xx) || defined(STM32F412Zx) \
 913              		.loc 1 236 3 is_stmt 1 view .LVU497
ARM GAS  /tmp/ccDYdWST.s 			page 31


 248:Drivers/STM32F4xx_HAL_Driver/Src/stm32f4xx_hal_pcd.c **** 
 914              		.loc 1 248 9 is_stmt 0 view .LVU498
 915 03e6 2068     		ldr	r0, [r4]
 236:Drivers/STM32F4xx_HAL_Driver/Src/stm32f4xx_hal_pcd.c **** #if defined(STM32F446xx) || defined(STM32F469xx) || defined(STM32F479xx) || defined(STM32F412Zx) \
 916              		.loc 1 236 15 view .LVU499
 917 03e8 84F89534 		strb	r3, [r4, #1173]
 248:Drivers/STM32F4xx_HAL_Driver/Src/stm32f4xx_hal_pcd.c **** 
 918              		.loc 1 248 3 is_stmt 1 view .LVU500
 248:Drivers/STM32F4xx_HAL_Driver/Src/stm32f4xx_hal_pcd.c **** 
 919              		.loc 1 248 9 is_stmt 0 view .LVU501
 920 03ec FFF7FEFF 		bl	USB_DevDisconnect
 921              	.LVL44:
 250:Drivers/STM32F4xx_HAL_Driver/Src/stm32f4xx_hal_pcd.c **** }
 922              		.loc 1 250 3 is_stmt 1 view .LVU502
 251:Drivers/STM32F4xx_HAL_Driver/Src/stm32f4xx_hal_pcd.c **** 
 923              		.loc 1 251 1 is_stmt 0 view .LVU503
 924 03f0 2846     		mov	r0, r5
 925 03f2 03B0     		add	sp, sp, #12
 926              	.LCFI4:
 927              		.cfi_remember_state
 928              		.cfi_def_cfa_offset 12
 929              		@ sp needed
 930 03f4 30BD     		pop	{r4, r5, pc}
 931              	.LVL45:
 932              	.L108:
 933              	.LCFI5:
 934              		.cfi_restore_state
 146:Drivers/STM32F4xx_HAL_Driver/Src/stm32f4xx_hal_pcd.c **** 
 935              		.loc 1 146 5 is_stmt 1 view .LVU504
 146:Drivers/STM32F4xx_HAL_Driver/Src/stm32f4xx_hal_pcd.c **** 
 936              		.loc 1 146 16 is_stmt 0 view .LVU505
 937 03f6 80F89424 		strb	r2, [r0, #1172]
 172:Drivers/STM32F4xx_HAL_Driver/Src/stm32f4xx_hal_pcd.c **** #endif /* (USE_HAL_PCD_REGISTER_CALLBACKS) */
 938              		.loc 1 172 5 is_stmt 1 view .LVU506
 939 03fa FFF7FEFF 		bl	HAL_PCD_MspInit
 940              	.LVL46:
 187:Drivers/STM32F4xx_HAL_Driver/Src/stm32f4xx_hal_pcd.c **** 
 941              		.loc 1 187 3 is_stmt 0 view .LVU507
 942 03fe 2068     		ldr	r0, [r4]
 943 0400 0BE6     		b	.L5
 944              	.LVL47:
 945              	.L109:
 219:Drivers/STM32F4xx_HAL_Driver/Src/stm32f4xx_hal_pcd.c ****     hpcd->OUT_ep[i].num = i;
 946              		.loc 1 219 5 is_stmt 1 view .LVU508
 220:Drivers/STM32F4xx_HAL_Driver/Src/stm32f4xx_hal_pcd.c ****     /* Control until ep is activated */
 947              		.loc 1 220 5 view .LVU509
 224:Drivers/STM32F4xx_HAL_Driver/Src/stm32f4xx_hal_pcd.c ****     hpcd->OUT_ep[i].xfer_len = 0U;
 948              		.loc 1 224 31 is_stmt 0 view .LVU510
 949 0402 C4E99700 		strd	r0, r0, [r4, #604]
 220:Drivers/STM32F4xx_HAL_Driver/Src/stm32f4xx_hal_pcd.c ****     /* Control until ep is activated */
 950              		.loc 1 220 25 view .LVU511
 951 0406 A4F85402 		strh	r0, [r4, #596]	@ movhi
 222:Drivers/STM32F4xx_HAL_Driver/Src/stm32f4xx_hal_pcd.c ****     hpcd->OUT_ep[i].maxpacket = 0U;
 952              		.loc 1 222 5 is_stmt 1 view .LVU512
 222:Drivers/STM32F4xx_HAL_Driver/Src/stm32f4xx_hal_pcd.c ****     hpcd->OUT_ep[i].maxpacket = 0U;
 953              		.loc 1 222 26 is_stmt 0 view .LVU513
 954 040a 84F85802 		strb	r0, [r4, #600]
ARM GAS  /tmp/ccDYdWST.s 			page 32


 223:Drivers/STM32F4xx_HAL_Driver/Src/stm32f4xx_hal_pcd.c ****     hpcd->OUT_ep[i].xfer_buff = 0U;
 955              		.loc 1 223 5 is_stmt 1 view .LVU514
 225:Drivers/STM32F4xx_HAL_Driver/Src/stm32f4xx_hal_pcd.c ****   }
 956              		.loc 1 225 5 view .LVU515
 225:Drivers/STM32F4xx_HAL_Driver/Src/stm32f4xx_hal_pcd.c ****   }
 957              		.loc 1 225 30 is_stmt 0 view .LVU516
 958 040e C4F86402 		str	r0, [r4, #612]
 217:Drivers/STM32F4xx_HAL_Driver/Src/stm32f4xx_hal_pcd.c ****   {
 959              		.loc 1 217 47 is_stmt 1 discriminator 3 view .LVU517
 960              	.LVL48:
 217:Drivers/STM32F4xx_HAL_Driver/Src/stm32f4xx_hal_pcd.c ****   {
 961              		.loc 1 217 18 discriminator 1 view .LVU518
 962 0412 DAE7     		b	.L16
 963              		.cfi_endproc
 964              	.LFE134:
 966              		.section	.text.HAL_PCD_MspDeInit,"ax",%progbits
 967              		.align	1
 968              		.p2align 2,,3
 969              		.weak	HAL_PCD_MspDeInit
 970              		.syntax unified
 971              		.thumb
 972              		.thumb_func
 974              	HAL_PCD_MspDeInit:
 975              	.LFB173:
 976              		.cfi_startproc
 306:Drivers/STM32F4xx_HAL_Driver/Src/stm32f4xx_hal_pcd.c **** 
 307:Drivers/STM32F4xx_HAL_Driver/Src/stm32f4xx_hal_pcd.c **** /**
 308:Drivers/STM32F4xx_HAL_Driver/Src/stm32f4xx_hal_pcd.c ****   * @brief  DeInitializes PCD MSP.
 309:Drivers/STM32F4xx_HAL_Driver/Src/stm32f4xx_hal_pcd.c ****   * @param  hpcd PCD handle
 310:Drivers/STM32F4xx_HAL_Driver/Src/stm32f4xx_hal_pcd.c ****   * @retval None
 311:Drivers/STM32F4xx_HAL_Driver/Src/stm32f4xx_hal_pcd.c ****   */
 312:Drivers/STM32F4xx_HAL_Driver/Src/stm32f4xx_hal_pcd.c **** __weak void HAL_PCD_MspDeInit(PCD_HandleTypeDef *hpcd)
 977              		.loc 1 312 13 view -0
 978              		@ args = 0, pretend = 0, frame = 0
 979              		@ frame_needed = 0, uses_anonymous_args = 0
 980              		@ link register save eliminated.
 981 0000 7047     		bx	lr
 982              		.cfi_endproc
 983              	.LFE173:
 985 0002 00BF     		.section	.text.HAL_PCD_DeInit,"ax",%progbits
 986              		.align	1
 987              		.p2align 2,,3
 988              		.global	HAL_PCD_DeInit
 989              		.syntax unified
 990              		.thumb
 991              		.thumb_func
 993              	HAL_PCD_DeInit:
 994              	.LVL49:
 995              	.LFB135:
 259:Drivers/STM32F4xx_HAL_Driver/Src/stm32f4xx_hal_pcd.c ****   /* Check the PCD handle allocation */
 996              		.loc 1 259 1 view -0
 997              		.cfi_startproc
 998              		@ args = 0, pretend = 0, frame = 0
 999              		@ frame_needed = 0, uses_anonymous_args = 0
 261:Drivers/STM32F4xx_HAL_Driver/Src/stm32f4xx_hal_pcd.c ****   {
 1000              		.loc 1 261 3 view .LVU521
 259:Drivers/STM32F4xx_HAL_Driver/Src/stm32f4xx_hal_pcd.c ****   /* Check the PCD handle allocation */
ARM GAS  /tmp/ccDYdWST.s 			page 33


 1001              		.loc 1 259 1 is_stmt 0 view .LVU522
 1002 0000 38B5     		push	{r3, r4, r5, lr}
 1003              	.LCFI6:
 1004              		.cfi_def_cfa_offset 16
 1005              		.cfi_offset 3, -16
 1006              		.cfi_offset 4, -12
 1007              		.cfi_offset 5, -8
 1008              		.cfi_offset 14, -4
 261:Drivers/STM32F4xx_HAL_Driver/Src/stm32f4xx_hal_pcd.c ****   {
 1009              		.loc 1 261 6 view .LVU523
 1010 0002 40B1     		cbz	r0, .L114
 266:Drivers/STM32F4xx_HAL_Driver/Src/stm32f4xx_hal_pcd.c **** 
 1011              		.loc 1 266 3 is_stmt 1 view .LVU524
 1012 0004 0446     		mov	r4, r0
 266:Drivers/STM32F4xx_HAL_Driver/Src/stm32f4xx_hal_pcd.c **** 
 1013              		.loc 1 266 15 is_stmt 0 view .LVU525
 1014 0006 0323     		movs	r3, #3
 269:Drivers/STM32F4xx_HAL_Driver/Src/stm32f4xx_hal_pcd.c ****   {
 1015              		.loc 1 269 7 view .LVU526
 1016 0008 0068     		ldr	r0, [r0]
 1017              	.LVL50:
 266:Drivers/STM32F4xx_HAL_Driver/Src/stm32f4xx_hal_pcd.c **** 
 1018              		.loc 1 266 15 view .LVU527
 1019 000a 84F89534 		strb	r3, [r4, #1173]
 269:Drivers/STM32F4xx_HAL_Driver/Src/stm32f4xx_hal_pcd.c ****   {
 1020              		.loc 1 269 3 is_stmt 1 view .LVU528
 269:Drivers/STM32F4xx_HAL_Driver/Src/stm32f4xx_hal_pcd.c ****   {
 1021              		.loc 1 269 7 is_stmt 0 view .LVU529
 1022 000e FFF7FEFF 		bl	USB_StopDevice
 1023              	.LVL51:
 269:Drivers/STM32F4xx_HAL_Driver/Src/stm32f4xx_hal_pcd.c ****   {
 1024              		.loc 1 269 6 discriminator 1 view .LVU530
 1025 0012 0546     		mov	r5, r0
 1026 0014 10B1     		cbz	r0, .L116
 1027              	.LVL52:
 1028              	.L114:
 263:Drivers/STM32F4xx_HAL_Driver/Src/stm32f4xx_hal_pcd.c ****   }
 1029              		.loc 1 263 12 view .LVU531
 1030 0016 0125     		movs	r5, #1
 290:Drivers/STM32F4xx_HAL_Driver/Src/stm32f4xx_hal_pcd.c **** 
 1031              		.loc 1 290 1 view .LVU532
 1032 0018 2846     		mov	r0, r5
 1033 001a 38BD     		pop	{r3, r4, r5, pc}
 1034              	.LVL53:
 1035              	.L116:
 284:Drivers/STM32F4xx_HAL_Driver/Src/stm32f4xx_hal_pcd.c **** #endif /* USE_HAL_PCD_REGISTER_CALLBACKS */
 1036              		.loc 1 284 3 is_stmt 1 view .LVU533
 1037 001c 2046     		mov	r0, r4
 1038 001e FFF7FEFF 		bl	HAL_PCD_MspDeInit
 1039              	.LVL54:
 287:Drivers/STM32F4xx_HAL_Driver/Src/stm32f4xx_hal_pcd.c **** 
 1040              		.loc 1 287 3 view .LVU534
 287:Drivers/STM32F4xx_HAL_Driver/Src/stm32f4xx_hal_pcd.c **** 
 1041              		.loc 1 287 15 is_stmt 0 view .LVU535
 1042 0022 84F89554 		strb	r5, [r4, #1173]
 289:Drivers/STM32F4xx_HAL_Driver/Src/stm32f4xx_hal_pcd.c **** }
 1043              		.loc 1 289 3 is_stmt 1 view .LVU536
ARM GAS  /tmp/ccDYdWST.s 			page 34


 290:Drivers/STM32F4xx_HAL_Driver/Src/stm32f4xx_hal_pcd.c **** 
 1044              		.loc 1 290 1 is_stmt 0 view .LVU537
 1045 0026 2846     		mov	r0, r5
 1046 0028 38BD     		pop	{r3, r4, r5, pc}
 290:Drivers/STM32F4xx_HAL_Driver/Src/stm32f4xx_hal_pcd.c **** 
 1047              		.loc 1 290 1 view .LVU538
 1048              		.cfi_endproc
 1049              	.LFE135:
 1051 002a 00BF     		.section	.text.HAL_PCD_Start,"ax",%progbits
 1052              		.align	1
 1053              		.p2align 2,,3
 1054              		.global	HAL_PCD_Start
 1055              		.syntax unified
 1056              		.thumb
 1057              		.thumb_func
 1059              	HAL_PCD_Start:
 1060              	.LVL55:
 1061              	.LFB138:
 313:Drivers/STM32F4xx_HAL_Driver/Src/stm32f4xx_hal_pcd.c **** {
 314:Drivers/STM32F4xx_HAL_Driver/Src/stm32f4xx_hal_pcd.c ****   /* Prevent unused argument(s) compilation warning */
 315:Drivers/STM32F4xx_HAL_Driver/Src/stm32f4xx_hal_pcd.c ****   UNUSED(hpcd);
 316:Drivers/STM32F4xx_HAL_Driver/Src/stm32f4xx_hal_pcd.c **** 
 317:Drivers/STM32F4xx_HAL_Driver/Src/stm32f4xx_hal_pcd.c ****   /* NOTE : This function should not be modified, when the callback is needed,
 318:Drivers/STM32F4xx_HAL_Driver/Src/stm32f4xx_hal_pcd.c ****             the HAL_PCD_MspDeInit could be implemented in the user file
 319:Drivers/STM32F4xx_HAL_Driver/Src/stm32f4xx_hal_pcd.c ****    */
 320:Drivers/STM32F4xx_HAL_Driver/Src/stm32f4xx_hal_pcd.c **** }
 321:Drivers/STM32F4xx_HAL_Driver/Src/stm32f4xx_hal_pcd.c **** 
 322:Drivers/STM32F4xx_HAL_Driver/Src/stm32f4xx_hal_pcd.c **** #if (USE_HAL_PCD_REGISTER_CALLBACKS == 1U)
 323:Drivers/STM32F4xx_HAL_Driver/Src/stm32f4xx_hal_pcd.c **** /**
 324:Drivers/STM32F4xx_HAL_Driver/Src/stm32f4xx_hal_pcd.c ****   * @brief  Register a User USB PCD Callback
 325:Drivers/STM32F4xx_HAL_Driver/Src/stm32f4xx_hal_pcd.c ****   *         To be used instead of the weak predefined callback
 326:Drivers/STM32F4xx_HAL_Driver/Src/stm32f4xx_hal_pcd.c ****   * @param  hpcd USB PCD handle
 327:Drivers/STM32F4xx_HAL_Driver/Src/stm32f4xx_hal_pcd.c ****   * @param  CallbackID ID of the callback to be registered
 328:Drivers/STM32F4xx_HAL_Driver/Src/stm32f4xx_hal_pcd.c ****   *         This parameter can be one of the following values:
 329:Drivers/STM32F4xx_HAL_Driver/Src/stm32f4xx_hal_pcd.c ****   *          @arg @ref HAL_PCD_SOF_CB_ID USB PCD SOF callback ID
 330:Drivers/STM32F4xx_HAL_Driver/Src/stm32f4xx_hal_pcd.c ****   *          @arg @ref HAL_PCD_SETUPSTAGE_CB_ID USB PCD Setup callback ID
 331:Drivers/STM32F4xx_HAL_Driver/Src/stm32f4xx_hal_pcd.c ****   *          @arg @ref HAL_PCD_RESET_CB_ID USB PCD Reset callback ID
 332:Drivers/STM32F4xx_HAL_Driver/Src/stm32f4xx_hal_pcd.c ****   *          @arg @ref HAL_PCD_SUSPEND_CB_ID USB PCD Suspend callback ID
 333:Drivers/STM32F4xx_HAL_Driver/Src/stm32f4xx_hal_pcd.c ****   *          @arg @ref HAL_PCD_RESUME_CB_ID USB PCD Resume callback ID
 334:Drivers/STM32F4xx_HAL_Driver/Src/stm32f4xx_hal_pcd.c ****   *          @arg @ref HAL_PCD_CONNECT_CB_ID USB PCD Connect callback ID
 335:Drivers/STM32F4xx_HAL_Driver/Src/stm32f4xx_hal_pcd.c ****   *          @arg @ref HAL_PCD_DISCONNECT_CB_ID USB PCD Disconnect callback ID
 336:Drivers/STM32F4xx_HAL_Driver/Src/stm32f4xx_hal_pcd.c ****   *          @arg @ref HAL_PCD_MSPINIT_CB_ID MspDeInit callback ID
 337:Drivers/STM32F4xx_HAL_Driver/Src/stm32f4xx_hal_pcd.c ****   *          @arg @ref HAL_PCD_MSPDEINIT_CB_ID MspDeInit callback ID
 338:Drivers/STM32F4xx_HAL_Driver/Src/stm32f4xx_hal_pcd.c ****   * @param  pCallback pointer to the Callback function
 339:Drivers/STM32F4xx_HAL_Driver/Src/stm32f4xx_hal_pcd.c ****   * @retval HAL status
 340:Drivers/STM32F4xx_HAL_Driver/Src/stm32f4xx_hal_pcd.c ****   */
 341:Drivers/STM32F4xx_HAL_Driver/Src/stm32f4xx_hal_pcd.c **** HAL_StatusTypeDef HAL_PCD_RegisterCallback(PCD_HandleTypeDef *hpcd,
 342:Drivers/STM32F4xx_HAL_Driver/Src/stm32f4xx_hal_pcd.c ****                                            HAL_PCD_CallbackIDTypeDef CallbackID,
 343:Drivers/STM32F4xx_HAL_Driver/Src/stm32f4xx_hal_pcd.c ****                                            pPCD_CallbackTypeDef pCallback)
 344:Drivers/STM32F4xx_HAL_Driver/Src/stm32f4xx_hal_pcd.c **** {
 345:Drivers/STM32F4xx_HAL_Driver/Src/stm32f4xx_hal_pcd.c ****   HAL_StatusTypeDef status = HAL_OK;
 346:Drivers/STM32F4xx_HAL_Driver/Src/stm32f4xx_hal_pcd.c **** 
 347:Drivers/STM32F4xx_HAL_Driver/Src/stm32f4xx_hal_pcd.c ****   if (pCallback == NULL)
 348:Drivers/STM32F4xx_HAL_Driver/Src/stm32f4xx_hal_pcd.c ****   {
 349:Drivers/STM32F4xx_HAL_Driver/Src/stm32f4xx_hal_pcd.c ****     /* Update the error code */
 350:Drivers/STM32F4xx_HAL_Driver/Src/stm32f4xx_hal_pcd.c ****     hpcd->ErrorCode |= HAL_PCD_ERROR_INVALID_CALLBACK;
 351:Drivers/STM32F4xx_HAL_Driver/Src/stm32f4xx_hal_pcd.c ****     return HAL_ERROR;
ARM GAS  /tmp/ccDYdWST.s 			page 35


 352:Drivers/STM32F4xx_HAL_Driver/Src/stm32f4xx_hal_pcd.c ****   }
 353:Drivers/STM32F4xx_HAL_Driver/Src/stm32f4xx_hal_pcd.c ****   /* Process locked */
 354:Drivers/STM32F4xx_HAL_Driver/Src/stm32f4xx_hal_pcd.c ****   __HAL_LOCK(hpcd);
 355:Drivers/STM32F4xx_HAL_Driver/Src/stm32f4xx_hal_pcd.c **** 
 356:Drivers/STM32F4xx_HAL_Driver/Src/stm32f4xx_hal_pcd.c ****   if (hpcd->State == HAL_PCD_STATE_READY)
 357:Drivers/STM32F4xx_HAL_Driver/Src/stm32f4xx_hal_pcd.c ****   {
 358:Drivers/STM32F4xx_HAL_Driver/Src/stm32f4xx_hal_pcd.c ****     switch (CallbackID)
 359:Drivers/STM32F4xx_HAL_Driver/Src/stm32f4xx_hal_pcd.c ****     {
 360:Drivers/STM32F4xx_HAL_Driver/Src/stm32f4xx_hal_pcd.c ****       case HAL_PCD_SOF_CB_ID :
 361:Drivers/STM32F4xx_HAL_Driver/Src/stm32f4xx_hal_pcd.c ****         hpcd->SOFCallback = pCallback;
 362:Drivers/STM32F4xx_HAL_Driver/Src/stm32f4xx_hal_pcd.c ****         break;
 363:Drivers/STM32F4xx_HAL_Driver/Src/stm32f4xx_hal_pcd.c **** 
 364:Drivers/STM32F4xx_HAL_Driver/Src/stm32f4xx_hal_pcd.c ****       case HAL_PCD_SETUPSTAGE_CB_ID :
 365:Drivers/STM32F4xx_HAL_Driver/Src/stm32f4xx_hal_pcd.c ****         hpcd->SetupStageCallback = pCallback;
 366:Drivers/STM32F4xx_HAL_Driver/Src/stm32f4xx_hal_pcd.c ****         break;
 367:Drivers/STM32F4xx_HAL_Driver/Src/stm32f4xx_hal_pcd.c **** 
 368:Drivers/STM32F4xx_HAL_Driver/Src/stm32f4xx_hal_pcd.c ****       case HAL_PCD_RESET_CB_ID :
 369:Drivers/STM32F4xx_HAL_Driver/Src/stm32f4xx_hal_pcd.c ****         hpcd->ResetCallback = pCallback;
 370:Drivers/STM32F4xx_HAL_Driver/Src/stm32f4xx_hal_pcd.c ****         break;
 371:Drivers/STM32F4xx_HAL_Driver/Src/stm32f4xx_hal_pcd.c **** 
 372:Drivers/STM32F4xx_HAL_Driver/Src/stm32f4xx_hal_pcd.c ****       case HAL_PCD_SUSPEND_CB_ID :
 373:Drivers/STM32F4xx_HAL_Driver/Src/stm32f4xx_hal_pcd.c ****         hpcd->SuspendCallback = pCallback;
 374:Drivers/STM32F4xx_HAL_Driver/Src/stm32f4xx_hal_pcd.c ****         break;
 375:Drivers/STM32F4xx_HAL_Driver/Src/stm32f4xx_hal_pcd.c **** 
 376:Drivers/STM32F4xx_HAL_Driver/Src/stm32f4xx_hal_pcd.c ****       case HAL_PCD_RESUME_CB_ID :
 377:Drivers/STM32F4xx_HAL_Driver/Src/stm32f4xx_hal_pcd.c ****         hpcd->ResumeCallback = pCallback;
 378:Drivers/STM32F4xx_HAL_Driver/Src/stm32f4xx_hal_pcd.c ****         break;
 379:Drivers/STM32F4xx_HAL_Driver/Src/stm32f4xx_hal_pcd.c **** 
 380:Drivers/STM32F4xx_HAL_Driver/Src/stm32f4xx_hal_pcd.c ****       case HAL_PCD_CONNECT_CB_ID :
 381:Drivers/STM32F4xx_HAL_Driver/Src/stm32f4xx_hal_pcd.c ****         hpcd->ConnectCallback = pCallback;
 382:Drivers/STM32F4xx_HAL_Driver/Src/stm32f4xx_hal_pcd.c ****         break;
 383:Drivers/STM32F4xx_HAL_Driver/Src/stm32f4xx_hal_pcd.c **** 
 384:Drivers/STM32F4xx_HAL_Driver/Src/stm32f4xx_hal_pcd.c ****       case HAL_PCD_DISCONNECT_CB_ID :
 385:Drivers/STM32F4xx_HAL_Driver/Src/stm32f4xx_hal_pcd.c ****         hpcd->DisconnectCallback = pCallback;
 386:Drivers/STM32F4xx_HAL_Driver/Src/stm32f4xx_hal_pcd.c ****         break;
 387:Drivers/STM32F4xx_HAL_Driver/Src/stm32f4xx_hal_pcd.c **** 
 388:Drivers/STM32F4xx_HAL_Driver/Src/stm32f4xx_hal_pcd.c ****       case HAL_PCD_MSPINIT_CB_ID :
 389:Drivers/STM32F4xx_HAL_Driver/Src/stm32f4xx_hal_pcd.c ****         hpcd->MspInitCallback = pCallback;
 390:Drivers/STM32F4xx_HAL_Driver/Src/stm32f4xx_hal_pcd.c ****         break;
 391:Drivers/STM32F4xx_HAL_Driver/Src/stm32f4xx_hal_pcd.c **** 
 392:Drivers/STM32F4xx_HAL_Driver/Src/stm32f4xx_hal_pcd.c ****       case HAL_PCD_MSPDEINIT_CB_ID :
 393:Drivers/STM32F4xx_HAL_Driver/Src/stm32f4xx_hal_pcd.c ****         hpcd->MspDeInitCallback = pCallback;
 394:Drivers/STM32F4xx_HAL_Driver/Src/stm32f4xx_hal_pcd.c ****         break;
 395:Drivers/STM32F4xx_HAL_Driver/Src/stm32f4xx_hal_pcd.c **** 
 396:Drivers/STM32F4xx_HAL_Driver/Src/stm32f4xx_hal_pcd.c ****       default :
 397:Drivers/STM32F4xx_HAL_Driver/Src/stm32f4xx_hal_pcd.c ****         /* Update the error code */
 398:Drivers/STM32F4xx_HAL_Driver/Src/stm32f4xx_hal_pcd.c ****         hpcd->ErrorCode |= HAL_PCD_ERROR_INVALID_CALLBACK;
 399:Drivers/STM32F4xx_HAL_Driver/Src/stm32f4xx_hal_pcd.c ****         /* Return error status */
 400:Drivers/STM32F4xx_HAL_Driver/Src/stm32f4xx_hal_pcd.c ****         status =  HAL_ERROR;
 401:Drivers/STM32F4xx_HAL_Driver/Src/stm32f4xx_hal_pcd.c ****         break;
 402:Drivers/STM32F4xx_HAL_Driver/Src/stm32f4xx_hal_pcd.c ****     }
 403:Drivers/STM32F4xx_HAL_Driver/Src/stm32f4xx_hal_pcd.c ****   }
 404:Drivers/STM32F4xx_HAL_Driver/Src/stm32f4xx_hal_pcd.c ****   else if (hpcd->State == HAL_PCD_STATE_RESET)
 405:Drivers/STM32F4xx_HAL_Driver/Src/stm32f4xx_hal_pcd.c ****   {
 406:Drivers/STM32F4xx_HAL_Driver/Src/stm32f4xx_hal_pcd.c ****     switch (CallbackID)
 407:Drivers/STM32F4xx_HAL_Driver/Src/stm32f4xx_hal_pcd.c ****     {
 408:Drivers/STM32F4xx_HAL_Driver/Src/stm32f4xx_hal_pcd.c ****       case HAL_PCD_MSPINIT_CB_ID :
ARM GAS  /tmp/ccDYdWST.s 			page 36


 409:Drivers/STM32F4xx_HAL_Driver/Src/stm32f4xx_hal_pcd.c ****         hpcd->MspInitCallback = pCallback;
 410:Drivers/STM32F4xx_HAL_Driver/Src/stm32f4xx_hal_pcd.c ****         break;
 411:Drivers/STM32F4xx_HAL_Driver/Src/stm32f4xx_hal_pcd.c **** 
 412:Drivers/STM32F4xx_HAL_Driver/Src/stm32f4xx_hal_pcd.c ****       case HAL_PCD_MSPDEINIT_CB_ID :
 413:Drivers/STM32F4xx_HAL_Driver/Src/stm32f4xx_hal_pcd.c ****         hpcd->MspDeInitCallback = pCallback;
 414:Drivers/STM32F4xx_HAL_Driver/Src/stm32f4xx_hal_pcd.c ****         break;
 415:Drivers/STM32F4xx_HAL_Driver/Src/stm32f4xx_hal_pcd.c **** 
 416:Drivers/STM32F4xx_HAL_Driver/Src/stm32f4xx_hal_pcd.c ****       default :
 417:Drivers/STM32F4xx_HAL_Driver/Src/stm32f4xx_hal_pcd.c ****         /* Update the error code */
 418:Drivers/STM32F4xx_HAL_Driver/Src/stm32f4xx_hal_pcd.c ****         hpcd->ErrorCode |= HAL_PCD_ERROR_INVALID_CALLBACK;
 419:Drivers/STM32F4xx_HAL_Driver/Src/stm32f4xx_hal_pcd.c ****         /* Return error status */
 420:Drivers/STM32F4xx_HAL_Driver/Src/stm32f4xx_hal_pcd.c ****         status =  HAL_ERROR;
 421:Drivers/STM32F4xx_HAL_Driver/Src/stm32f4xx_hal_pcd.c ****         break;
 422:Drivers/STM32F4xx_HAL_Driver/Src/stm32f4xx_hal_pcd.c ****     }
 423:Drivers/STM32F4xx_HAL_Driver/Src/stm32f4xx_hal_pcd.c ****   }
 424:Drivers/STM32F4xx_HAL_Driver/Src/stm32f4xx_hal_pcd.c ****   else
 425:Drivers/STM32F4xx_HAL_Driver/Src/stm32f4xx_hal_pcd.c ****   {
 426:Drivers/STM32F4xx_HAL_Driver/Src/stm32f4xx_hal_pcd.c ****     /* Update the error code */
 427:Drivers/STM32F4xx_HAL_Driver/Src/stm32f4xx_hal_pcd.c ****     hpcd->ErrorCode |= HAL_PCD_ERROR_INVALID_CALLBACK;
 428:Drivers/STM32F4xx_HAL_Driver/Src/stm32f4xx_hal_pcd.c ****     /* Return error status */
 429:Drivers/STM32F4xx_HAL_Driver/Src/stm32f4xx_hal_pcd.c ****     status =  HAL_ERROR;
 430:Drivers/STM32F4xx_HAL_Driver/Src/stm32f4xx_hal_pcd.c ****   }
 431:Drivers/STM32F4xx_HAL_Driver/Src/stm32f4xx_hal_pcd.c **** 
 432:Drivers/STM32F4xx_HAL_Driver/Src/stm32f4xx_hal_pcd.c ****   /* Release Lock */
 433:Drivers/STM32F4xx_HAL_Driver/Src/stm32f4xx_hal_pcd.c ****   __HAL_UNLOCK(hpcd);
 434:Drivers/STM32F4xx_HAL_Driver/Src/stm32f4xx_hal_pcd.c ****   return status;
 435:Drivers/STM32F4xx_HAL_Driver/Src/stm32f4xx_hal_pcd.c **** }
 436:Drivers/STM32F4xx_HAL_Driver/Src/stm32f4xx_hal_pcd.c **** 
 437:Drivers/STM32F4xx_HAL_Driver/Src/stm32f4xx_hal_pcd.c **** /**
 438:Drivers/STM32F4xx_HAL_Driver/Src/stm32f4xx_hal_pcd.c ****   * @brief  Unregister an USB PCD Callback
 439:Drivers/STM32F4xx_HAL_Driver/Src/stm32f4xx_hal_pcd.c ****   *         USB PCD callback is redirected to the weak predefined callback
 440:Drivers/STM32F4xx_HAL_Driver/Src/stm32f4xx_hal_pcd.c ****   * @param  hpcd USB PCD handle
 441:Drivers/STM32F4xx_HAL_Driver/Src/stm32f4xx_hal_pcd.c ****   * @param  CallbackID ID of the callback to be unregistered
 442:Drivers/STM32F4xx_HAL_Driver/Src/stm32f4xx_hal_pcd.c ****   *         This parameter can be one of the following values:
 443:Drivers/STM32F4xx_HAL_Driver/Src/stm32f4xx_hal_pcd.c ****   *          @arg @ref HAL_PCD_SOF_CB_ID USB PCD SOF callback ID
 444:Drivers/STM32F4xx_HAL_Driver/Src/stm32f4xx_hal_pcd.c ****   *          @arg @ref HAL_PCD_SETUPSTAGE_CB_ID USB PCD Setup callback ID
 445:Drivers/STM32F4xx_HAL_Driver/Src/stm32f4xx_hal_pcd.c ****   *          @arg @ref HAL_PCD_RESET_CB_ID USB PCD Reset callback ID
 446:Drivers/STM32F4xx_HAL_Driver/Src/stm32f4xx_hal_pcd.c ****   *          @arg @ref HAL_PCD_SUSPEND_CB_ID USB PCD Suspend callback ID
 447:Drivers/STM32F4xx_HAL_Driver/Src/stm32f4xx_hal_pcd.c ****   *          @arg @ref HAL_PCD_RESUME_CB_ID USB PCD Resume callback ID
 448:Drivers/STM32F4xx_HAL_Driver/Src/stm32f4xx_hal_pcd.c ****   *          @arg @ref HAL_PCD_CONNECT_CB_ID USB PCD Connect callback ID
 449:Drivers/STM32F4xx_HAL_Driver/Src/stm32f4xx_hal_pcd.c ****   *          @arg @ref HAL_PCD_DISCONNECT_CB_ID USB PCD Disconnect callback ID
 450:Drivers/STM32F4xx_HAL_Driver/Src/stm32f4xx_hal_pcd.c ****   *          @arg @ref HAL_PCD_MSPINIT_CB_ID MspDeInit callback ID
 451:Drivers/STM32F4xx_HAL_Driver/Src/stm32f4xx_hal_pcd.c ****   *          @arg @ref HAL_PCD_MSPDEINIT_CB_ID MspDeInit callback ID
 452:Drivers/STM32F4xx_HAL_Driver/Src/stm32f4xx_hal_pcd.c ****   * @retval HAL status
 453:Drivers/STM32F4xx_HAL_Driver/Src/stm32f4xx_hal_pcd.c ****   */
 454:Drivers/STM32F4xx_HAL_Driver/Src/stm32f4xx_hal_pcd.c **** HAL_StatusTypeDef HAL_PCD_UnRegisterCallback(PCD_HandleTypeDef *hpcd, HAL_PCD_CallbackIDTypeDef Cal
 455:Drivers/STM32F4xx_HAL_Driver/Src/stm32f4xx_hal_pcd.c **** {
 456:Drivers/STM32F4xx_HAL_Driver/Src/stm32f4xx_hal_pcd.c ****   HAL_StatusTypeDef status = HAL_OK;
 457:Drivers/STM32F4xx_HAL_Driver/Src/stm32f4xx_hal_pcd.c **** 
 458:Drivers/STM32F4xx_HAL_Driver/Src/stm32f4xx_hal_pcd.c ****   /* Process locked */
 459:Drivers/STM32F4xx_HAL_Driver/Src/stm32f4xx_hal_pcd.c ****   __HAL_LOCK(hpcd);
 460:Drivers/STM32F4xx_HAL_Driver/Src/stm32f4xx_hal_pcd.c **** 
 461:Drivers/STM32F4xx_HAL_Driver/Src/stm32f4xx_hal_pcd.c ****   /* Setup Legacy weak Callbacks  */
 462:Drivers/STM32F4xx_HAL_Driver/Src/stm32f4xx_hal_pcd.c ****   if (hpcd->State == HAL_PCD_STATE_READY)
 463:Drivers/STM32F4xx_HAL_Driver/Src/stm32f4xx_hal_pcd.c ****   {
 464:Drivers/STM32F4xx_HAL_Driver/Src/stm32f4xx_hal_pcd.c ****     switch (CallbackID)
 465:Drivers/STM32F4xx_HAL_Driver/Src/stm32f4xx_hal_pcd.c ****     {
ARM GAS  /tmp/ccDYdWST.s 			page 37


 466:Drivers/STM32F4xx_HAL_Driver/Src/stm32f4xx_hal_pcd.c ****       case HAL_PCD_SOF_CB_ID :
 467:Drivers/STM32F4xx_HAL_Driver/Src/stm32f4xx_hal_pcd.c ****         hpcd->SOFCallback = HAL_PCD_SOFCallback;
 468:Drivers/STM32F4xx_HAL_Driver/Src/stm32f4xx_hal_pcd.c ****         break;
 469:Drivers/STM32F4xx_HAL_Driver/Src/stm32f4xx_hal_pcd.c **** 
 470:Drivers/STM32F4xx_HAL_Driver/Src/stm32f4xx_hal_pcd.c ****       case HAL_PCD_SETUPSTAGE_CB_ID :
 471:Drivers/STM32F4xx_HAL_Driver/Src/stm32f4xx_hal_pcd.c ****         hpcd->SetupStageCallback = HAL_PCD_SetupStageCallback;
 472:Drivers/STM32F4xx_HAL_Driver/Src/stm32f4xx_hal_pcd.c ****         break;
 473:Drivers/STM32F4xx_HAL_Driver/Src/stm32f4xx_hal_pcd.c **** 
 474:Drivers/STM32F4xx_HAL_Driver/Src/stm32f4xx_hal_pcd.c ****       case HAL_PCD_RESET_CB_ID :
 475:Drivers/STM32F4xx_HAL_Driver/Src/stm32f4xx_hal_pcd.c ****         hpcd->ResetCallback = HAL_PCD_ResetCallback;
 476:Drivers/STM32F4xx_HAL_Driver/Src/stm32f4xx_hal_pcd.c ****         break;
 477:Drivers/STM32F4xx_HAL_Driver/Src/stm32f4xx_hal_pcd.c **** 
 478:Drivers/STM32F4xx_HAL_Driver/Src/stm32f4xx_hal_pcd.c ****       case HAL_PCD_SUSPEND_CB_ID :
 479:Drivers/STM32F4xx_HAL_Driver/Src/stm32f4xx_hal_pcd.c ****         hpcd->SuspendCallback = HAL_PCD_SuspendCallback;
 480:Drivers/STM32F4xx_HAL_Driver/Src/stm32f4xx_hal_pcd.c ****         break;
 481:Drivers/STM32F4xx_HAL_Driver/Src/stm32f4xx_hal_pcd.c **** 
 482:Drivers/STM32F4xx_HAL_Driver/Src/stm32f4xx_hal_pcd.c ****       case HAL_PCD_RESUME_CB_ID :
 483:Drivers/STM32F4xx_HAL_Driver/Src/stm32f4xx_hal_pcd.c ****         hpcd->ResumeCallback = HAL_PCD_ResumeCallback;
 484:Drivers/STM32F4xx_HAL_Driver/Src/stm32f4xx_hal_pcd.c ****         break;
 485:Drivers/STM32F4xx_HAL_Driver/Src/stm32f4xx_hal_pcd.c **** 
 486:Drivers/STM32F4xx_HAL_Driver/Src/stm32f4xx_hal_pcd.c ****       case HAL_PCD_CONNECT_CB_ID :
 487:Drivers/STM32F4xx_HAL_Driver/Src/stm32f4xx_hal_pcd.c ****         hpcd->ConnectCallback = HAL_PCD_ConnectCallback;
 488:Drivers/STM32F4xx_HAL_Driver/Src/stm32f4xx_hal_pcd.c ****         break;
 489:Drivers/STM32F4xx_HAL_Driver/Src/stm32f4xx_hal_pcd.c **** 
 490:Drivers/STM32F4xx_HAL_Driver/Src/stm32f4xx_hal_pcd.c ****       case HAL_PCD_DISCONNECT_CB_ID :
 491:Drivers/STM32F4xx_HAL_Driver/Src/stm32f4xx_hal_pcd.c ****         hpcd->DisconnectCallback = HAL_PCD_DisconnectCallback;
 492:Drivers/STM32F4xx_HAL_Driver/Src/stm32f4xx_hal_pcd.c ****         break;
 493:Drivers/STM32F4xx_HAL_Driver/Src/stm32f4xx_hal_pcd.c **** 
 494:Drivers/STM32F4xx_HAL_Driver/Src/stm32f4xx_hal_pcd.c ****       case HAL_PCD_MSPINIT_CB_ID :
 495:Drivers/STM32F4xx_HAL_Driver/Src/stm32f4xx_hal_pcd.c ****         hpcd->MspInitCallback = HAL_PCD_MspInit;
 496:Drivers/STM32F4xx_HAL_Driver/Src/stm32f4xx_hal_pcd.c ****         break;
 497:Drivers/STM32F4xx_HAL_Driver/Src/stm32f4xx_hal_pcd.c **** 
 498:Drivers/STM32F4xx_HAL_Driver/Src/stm32f4xx_hal_pcd.c ****       case HAL_PCD_MSPDEINIT_CB_ID :
 499:Drivers/STM32F4xx_HAL_Driver/Src/stm32f4xx_hal_pcd.c ****         hpcd->MspDeInitCallback = HAL_PCD_MspDeInit;
 500:Drivers/STM32F4xx_HAL_Driver/Src/stm32f4xx_hal_pcd.c ****         break;
 501:Drivers/STM32F4xx_HAL_Driver/Src/stm32f4xx_hal_pcd.c **** 
 502:Drivers/STM32F4xx_HAL_Driver/Src/stm32f4xx_hal_pcd.c ****       default :
 503:Drivers/STM32F4xx_HAL_Driver/Src/stm32f4xx_hal_pcd.c ****         /* Update the error code */
 504:Drivers/STM32F4xx_HAL_Driver/Src/stm32f4xx_hal_pcd.c ****         hpcd->ErrorCode |= HAL_PCD_ERROR_INVALID_CALLBACK;
 505:Drivers/STM32F4xx_HAL_Driver/Src/stm32f4xx_hal_pcd.c **** 
 506:Drivers/STM32F4xx_HAL_Driver/Src/stm32f4xx_hal_pcd.c ****         /* Return error status */
 507:Drivers/STM32F4xx_HAL_Driver/Src/stm32f4xx_hal_pcd.c ****         status =  HAL_ERROR;
 508:Drivers/STM32F4xx_HAL_Driver/Src/stm32f4xx_hal_pcd.c ****         break;
 509:Drivers/STM32F4xx_HAL_Driver/Src/stm32f4xx_hal_pcd.c ****     }
 510:Drivers/STM32F4xx_HAL_Driver/Src/stm32f4xx_hal_pcd.c ****   }
 511:Drivers/STM32F4xx_HAL_Driver/Src/stm32f4xx_hal_pcd.c ****   else if (hpcd->State == HAL_PCD_STATE_RESET)
 512:Drivers/STM32F4xx_HAL_Driver/Src/stm32f4xx_hal_pcd.c ****   {
 513:Drivers/STM32F4xx_HAL_Driver/Src/stm32f4xx_hal_pcd.c ****     switch (CallbackID)
 514:Drivers/STM32F4xx_HAL_Driver/Src/stm32f4xx_hal_pcd.c ****     {
 515:Drivers/STM32F4xx_HAL_Driver/Src/stm32f4xx_hal_pcd.c ****       case HAL_PCD_MSPINIT_CB_ID :
 516:Drivers/STM32F4xx_HAL_Driver/Src/stm32f4xx_hal_pcd.c ****         hpcd->MspInitCallback = HAL_PCD_MspInit;
 517:Drivers/STM32F4xx_HAL_Driver/Src/stm32f4xx_hal_pcd.c ****         break;
 518:Drivers/STM32F4xx_HAL_Driver/Src/stm32f4xx_hal_pcd.c **** 
 519:Drivers/STM32F4xx_HAL_Driver/Src/stm32f4xx_hal_pcd.c ****       case HAL_PCD_MSPDEINIT_CB_ID :
 520:Drivers/STM32F4xx_HAL_Driver/Src/stm32f4xx_hal_pcd.c ****         hpcd->MspDeInitCallback = HAL_PCD_MspDeInit;
 521:Drivers/STM32F4xx_HAL_Driver/Src/stm32f4xx_hal_pcd.c ****         break;
 522:Drivers/STM32F4xx_HAL_Driver/Src/stm32f4xx_hal_pcd.c **** 
ARM GAS  /tmp/ccDYdWST.s 			page 38


 523:Drivers/STM32F4xx_HAL_Driver/Src/stm32f4xx_hal_pcd.c ****       default :
 524:Drivers/STM32F4xx_HAL_Driver/Src/stm32f4xx_hal_pcd.c ****         /* Update the error code */
 525:Drivers/STM32F4xx_HAL_Driver/Src/stm32f4xx_hal_pcd.c ****         hpcd->ErrorCode |= HAL_PCD_ERROR_INVALID_CALLBACK;
 526:Drivers/STM32F4xx_HAL_Driver/Src/stm32f4xx_hal_pcd.c **** 
 527:Drivers/STM32F4xx_HAL_Driver/Src/stm32f4xx_hal_pcd.c ****         /* Return error status */
 528:Drivers/STM32F4xx_HAL_Driver/Src/stm32f4xx_hal_pcd.c ****         status =  HAL_ERROR;
 529:Drivers/STM32F4xx_HAL_Driver/Src/stm32f4xx_hal_pcd.c ****         break;
 530:Drivers/STM32F4xx_HAL_Driver/Src/stm32f4xx_hal_pcd.c ****     }
 531:Drivers/STM32F4xx_HAL_Driver/Src/stm32f4xx_hal_pcd.c ****   }
 532:Drivers/STM32F4xx_HAL_Driver/Src/stm32f4xx_hal_pcd.c ****   else
 533:Drivers/STM32F4xx_HAL_Driver/Src/stm32f4xx_hal_pcd.c ****   {
 534:Drivers/STM32F4xx_HAL_Driver/Src/stm32f4xx_hal_pcd.c ****     /* Update the error code */
 535:Drivers/STM32F4xx_HAL_Driver/Src/stm32f4xx_hal_pcd.c ****     hpcd->ErrorCode |= HAL_PCD_ERROR_INVALID_CALLBACK;
 536:Drivers/STM32F4xx_HAL_Driver/Src/stm32f4xx_hal_pcd.c **** 
 537:Drivers/STM32F4xx_HAL_Driver/Src/stm32f4xx_hal_pcd.c ****     /* Return error status */
 538:Drivers/STM32F4xx_HAL_Driver/Src/stm32f4xx_hal_pcd.c ****     status =  HAL_ERROR;
 539:Drivers/STM32F4xx_HAL_Driver/Src/stm32f4xx_hal_pcd.c ****   }
 540:Drivers/STM32F4xx_HAL_Driver/Src/stm32f4xx_hal_pcd.c **** 
 541:Drivers/STM32F4xx_HAL_Driver/Src/stm32f4xx_hal_pcd.c ****   /* Release Lock */
 542:Drivers/STM32F4xx_HAL_Driver/Src/stm32f4xx_hal_pcd.c ****   __HAL_UNLOCK(hpcd);
 543:Drivers/STM32F4xx_HAL_Driver/Src/stm32f4xx_hal_pcd.c ****   return status;
 544:Drivers/STM32F4xx_HAL_Driver/Src/stm32f4xx_hal_pcd.c **** }
 545:Drivers/STM32F4xx_HAL_Driver/Src/stm32f4xx_hal_pcd.c **** 
 546:Drivers/STM32F4xx_HAL_Driver/Src/stm32f4xx_hal_pcd.c **** /**
 547:Drivers/STM32F4xx_HAL_Driver/Src/stm32f4xx_hal_pcd.c ****   * @brief  Register USB PCD Data OUT Stage Callback
 548:Drivers/STM32F4xx_HAL_Driver/Src/stm32f4xx_hal_pcd.c ****   *         To be used instead of the weak HAL_PCD_DataOutStageCallback() predefined callback
 549:Drivers/STM32F4xx_HAL_Driver/Src/stm32f4xx_hal_pcd.c ****   * @param  hpcd PCD handle
 550:Drivers/STM32F4xx_HAL_Driver/Src/stm32f4xx_hal_pcd.c ****   * @param  pCallback pointer to the USB PCD Data OUT Stage Callback function
 551:Drivers/STM32F4xx_HAL_Driver/Src/stm32f4xx_hal_pcd.c ****   * @retval HAL status
 552:Drivers/STM32F4xx_HAL_Driver/Src/stm32f4xx_hal_pcd.c ****   */
 553:Drivers/STM32F4xx_HAL_Driver/Src/stm32f4xx_hal_pcd.c **** HAL_StatusTypeDef HAL_PCD_RegisterDataOutStageCallback(PCD_HandleTypeDef *hpcd,
 554:Drivers/STM32F4xx_HAL_Driver/Src/stm32f4xx_hal_pcd.c ****                                                        pPCD_DataOutStageCallbackTypeDef pCallback)
 555:Drivers/STM32F4xx_HAL_Driver/Src/stm32f4xx_hal_pcd.c **** {
 556:Drivers/STM32F4xx_HAL_Driver/Src/stm32f4xx_hal_pcd.c ****   HAL_StatusTypeDef status = HAL_OK;
 557:Drivers/STM32F4xx_HAL_Driver/Src/stm32f4xx_hal_pcd.c **** 
 558:Drivers/STM32F4xx_HAL_Driver/Src/stm32f4xx_hal_pcd.c ****   if (pCallback == NULL)
 559:Drivers/STM32F4xx_HAL_Driver/Src/stm32f4xx_hal_pcd.c ****   {
 560:Drivers/STM32F4xx_HAL_Driver/Src/stm32f4xx_hal_pcd.c ****     /* Update the error code */
 561:Drivers/STM32F4xx_HAL_Driver/Src/stm32f4xx_hal_pcd.c ****     hpcd->ErrorCode |= HAL_PCD_ERROR_INVALID_CALLBACK;
 562:Drivers/STM32F4xx_HAL_Driver/Src/stm32f4xx_hal_pcd.c **** 
 563:Drivers/STM32F4xx_HAL_Driver/Src/stm32f4xx_hal_pcd.c ****     return HAL_ERROR;
 564:Drivers/STM32F4xx_HAL_Driver/Src/stm32f4xx_hal_pcd.c ****   }
 565:Drivers/STM32F4xx_HAL_Driver/Src/stm32f4xx_hal_pcd.c **** 
 566:Drivers/STM32F4xx_HAL_Driver/Src/stm32f4xx_hal_pcd.c ****   /* Process locked */
 567:Drivers/STM32F4xx_HAL_Driver/Src/stm32f4xx_hal_pcd.c ****   __HAL_LOCK(hpcd);
 568:Drivers/STM32F4xx_HAL_Driver/Src/stm32f4xx_hal_pcd.c **** 
 569:Drivers/STM32F4xx_HAL_Driver/Src/stm32f4xx_hal_pcd.c ****   if (hpcd->State == HAL_PCD_STATE_READY)
 570:Drivers/STM32F4xx_HAL_Driver/Src/stm32f4xx_hal_pcd.c ****   {
 571:Drivers/STM32F4xx_HAL_Driver/Src/stm32f4xx_hal_pcd.c ****     hpcd->DataOutStageCallback = pCallback;
 572:Drivers/STM32F4xx_HAL_Driver/Src/stm32f4xx_hal_pcd.c ****   }
 573:Drivers/STM32F4xx_HAL_Driver/Src/stm32f4xx_hal_pcd.c ****   else
 574:Drivers/STM32F4xx_HAL_Driver/Src/stm32f4xx_hal_pcd.c ****   {
 575:Drivers/STM32F4xx_HAL_Driver/Src/stm32f4xx_hal_pcd.c ****     /* Update the error code */
 576:Drivers/STM32F4xx_HAL_Driver/Src/stm32f4xx_hal_pcd.c ****     hpcd->ErrorCode |= HAL_PCD_ERROR_INVALID_CALLBACK;
 577:Drivers/STM32F4xx_HAL_Driver/Src/stm32f4xx_hal_pcd.c **** 
 578:Drivers/STM32F4xx_HAL_Driver/Src/stm32f4xx_hal_pcd.c ****     /* Return error status */
 579:Drivers/STM32F4xx_HAL_Driver/Src/stm32f4xx_hal_pcd.c ****     status =  HAL_ERROR;
ARM GAS  /tmp/ccDYdWST.s 			page 39


 580:Drivers/STM32F4xx_HAL_Driver/Src/stm32f4xx_hal_pcd.c ****   }
 581:Drivers/STM32F4xx_HAL_Driver/Src/stm32f4xx_hal_pcd.c **** 
 582:Drivers/STM32F4xx_HAL_Driver/Src/stm32f4xx_hal_pcd.c ****   /* Release Lock */
 583:Drivers/STM32F4xx_HAL_Driver/Src/stm32f4xx_hal_pcd.c ****   __HAL_UNLOCK(hpcd);
 584:Drivers/STM32F4xx_HAL_Driver/Src/stm32f4xx_hal_pcd.c **** 
 585:Drivers/STM32F4xx_HAL_Driver/Src/stm32f4xx_hal_pcd.c ****   return status;
 586:Drivers/STM32F4xx_HAL_Driver/Src/stm32f4xx_hal_pcd.c **** }
 587:Drivers/STM32F4xx_HAL_Driver/Src/stm32f4xx_hal_pcd.c **** 
 588:Drivers/STM32F4xx_HAL_Driver/Src/stm32f4xx_hal_pcd.c **** /**
 589:Drivers/STM32F4xx_HAL_Driver/Src/stm32f4xx_hal_pcd.c ****   * @brief  Unregister the USB PCD Data OUT Stage Callback
 590:Drivers/STM32F4xx_HAL_Driver/Src/stm32f4xx_hal_pcd.c ****   *         USB PCD Data OUT Stage Callback is redirected to the weak HAL_PCD_DataOutStageCallback(
 591:Drivers/STM32F4xx_HAL_Driver/Src/stm32f4xx_hal_pcd.c ****   * @param  hpcd PCD handle
 592:Drivers/STM32F4xx_HAL_Driver/Src/stm32f4xx_hal_pcd.c ****   * @retval HAL status
 593:Drivers/STM32F4xx_HAL_Driver/Src/stm32f4xx_hal_pcd.c ****   */
 594:Drivers/STM32F4xx_HAL_Driver/Src/stm32f4xx_hal_pcd.c **** HAL_StatusTypeDef HAL_PCD_UnRegisterDataOutStageCallback(PCD_HandleTypeDef *hpcd)
 595:Drivers/STM32F4xx_HAL_Driver/Src/stm32f4xx_hal_pcd.c **** {
 596:Drivers/STM32F4xx_HAL_Driver/Src/stm32f4xx_hal_pcd.c ****   HAL_StatusTypeDef status = HAL_OK;
 597:Drivers/STM32F4xx_HAL_Driver/Src/stm32f4xx_hal_pcd.c **** 
 598:Drivers/STM32F4xx_HAL_Driver/Src/stm32f4xx_hal_pcd.c ****   /* Process locked */
 599:Drivers/STM32F4xx_HAL_Driver/Src/stm32f4xx_hal_pcd.c ****   __HAL_LOCK(hpcd);
 600:Drivers/STM32F4xx_HAL_Driver/Src/stm32f4xx_hal_pcd.c **** 
 601:Drivers/STM32F4xx_HAL_Driver/Src/stm32f4xx_hal_pcd.c ****   if (hpcd->State == HAL_PCD_STATE_READY)
 602:Drivers/STM32F4xx_HAL_Driver/Src/stm32f4xx_hal_pcd.c ****   {
 603:Drivers/STM32F4xx_HAL_Driver/Src/stm32f4xx_hal_pcd.c ****     hpcd->DataOutStageCallback = HAL_PCD_DataOutStageCallback; /* Legacy weak DataOutStageCallback 
 604:Drivers/STM32F4xx_HAL_Driver/Src/stm32f4xx_hal_pcd.c ****   }
 605:Drivers/STM32F4xx_HAL_Driver/Src/stm32f4xx_hal_pcd.c ****   else
 606:Drivers/STM32F4xx_HAL_Driver/Src/stm32f4xx_hal_pcd.c ****   {
 607:Drivers/STM32F4xx_HAL_Driver/Src/stm32f4xx_hal_pcd.c ****     /* Update the error code */
 608:Drivers/STM32F4xx_HAL_Driver/Src/stm32f4xx_hal_pcd.c ****     hpcd->ErrorCode |= HAL_PCD_ERROR_INVALID_CALLBACK;
 609:Drivers/STM32F4xx_HAL_Driver/Src/stm32f4xx_hal_pcd.c **** 
 610:Drivers/STM32F4xx_HAL_Driver/Src/stm32f4xx_hal_pcd.c ****     /* Return error status */
 611:Drivers/STM32F4xx_HAL_Driver/Src/stm32f4xx_hal_pcd.c ****     status =  HAL_ERROR;
 612:Drivers/STM32F4xx_HAL_Driver/Src/stm32f4xx_hal_pcd.c ****   }
 613:Drivers/STM32F4xx_HAL_Driver/Src/stm32f4xx_hal_pcd.c **** 
 614:Drivers/STM32F4xx_HAL_Driver/Src/stm32f4xx_hal_pcd.c ****   /* Release Lock */
 615:Drivers/STM32F4xx_HAL_Driver/Src/stm32f4xx_hal_pcd.c ****   __HAL_UNLOCK(hpcd);
 616:Drivers/STM32F4xx_HAL_Driver/Src/stm32f4xx_hal_pcd.c **** 
 617:Drivers/STM32F4xx_HAL_Driver/Src/stm32f4xx_hal_pcd.c ****   return status;
 618:Drivers/STM32F4xx_HAL_Driver/Src/stm32f4xx_hal_pcd.c **** }
 619:Drivers/STM32F4xx_HAL_Driver/Src/stm32f4xx_hal_pcd.c **** 
 620:Drivers/STM32F4xx_HAL_Driver/Src/stm32f4xx_hal_pcd.c **** /**
 621:Drivers/STM32F4xx_HAL_Driver/Src/stm32f4xx_hal_pcd.c ****   * @brief  Register USB PCD Data IN Stage Callback
 622:Drivers/STM32F4xx_HAL_Driver/Src/stm32f4xx_hal_pcd.c ****   *         To be used instead of the weak HAL_PCD_DataInStageCallback() predefined callback
 623:Drivers/STM32F4xx_HAL_Driver/Src/stm32f4xx_hal_pcd.c ****   * @param  hpcd PCD handle
 624:Drivers/STM32F4xx_HAL_Driver/Src/stm32f4xx_hal_pcd.c ****   * @param  pCallback pointer to the USB PCD Data IN Stage Callback function
 625:Drivers/STM32F4xx_HAL_Driver/Src/stm32f4xx_hal_pcd.c ****   * @retval HAL status
 626:Drivers/STM32F4xx_HAL_Driver/Src/stm32f4xx_hal_pcd.c ****   */
 627:Drivers/STM32F4xx_HAL_Driver/Src/stm32f4xx_hal_pcd.c **** HAL_StatusTypeDef HAL_PCD_RegisterDataInStageCallback(PCD_HandleTypeDef *hpcd,
 628:Drivers/STM32F4xx_HAL_Driver/Src/stm32f4xx_hal_pcd.c ****                                                       pPCD_DataInStageCallbackTypeDef pCallback)
 629:Drivers/STM32F4xx_HAL_Driver/Src/stm32f4xx_hal_pcd.c **** {
 630:Drivers/STM32F4xx_HAL_Driver/Src/stm32f4xx_hal_pcd.c ****   HAL_StatusTypeDef status = HAL_OK;
 631:Drivers/STM32F4xx_HAL_Driver/Src/stm32f4xx_hal_pcd.c **** 
 632:Drivers/STM32F4xx_HAL_Driver/Src/stm32f4xx_hal_pcd.c ****   if (pCallback == NULL)
 633:Drivers/STM32F4xx_HAL_Driver/Src/stm32f4xx_hal_pcd.c ****   {
 634:Drivers/STM32F4xx_HAL_Driver/Src/stm32f4xx_hal_pcd.c ****     /* Update the error code */
 635:Drivers/STM32F4xx_HAL_Driver/Src/stm32f4xx_hal_pcd.c ****     hpcd->ErrorCode |= HAL_PCD_ERROR_INVALID_CALLBACK;
 636:Drivers/STM32F4xx_HAL_Driver/Src/stm32f4xx_hal_pcd.c **** 
ARM GAS  /tmp/ccDYdWST.s 			page 40


 637:Drivers/STM32F4xx_HAL_Driver/Src/stm32f4xx_hal_pcd.c ****     return HAL_ERROR;
 638:Drivers/STM32F4xx_HAL_Driver/Src/stm32f4xx_hal_pcd.c ****   }
 639:Drivers/STM32F4xx_HAL_Driver/Src/stm32f4xx_hal_pcd.c **** 
 640:Drivers/STM32F4xx_HAL_Driver/Src/stm32f4xx_hal_pcd.c ****   /* Process locked */
 641:Drivers/STM32F4xx_HAL_Driver/Src/stm32f4xx_hal_pcd.c ****   __HAL_LOCK(hpcd);
 642:Drivers/STM32F4xx_HAL_Driver/Src/stm32f4xx_hal_pcd.c **** 
 643:Drivers/STM32F4xx_HAL_Driver/Src/stm32f4xx_hal_pcd.c ****   if (hpcd->State == HAL_PCD_STATE_READY)
 644:Drivers/STM32F4xx_HAL_Driver/Src/stm32f4xx_hal_pcd.c ****   {
 645:Drivers/STM32F4xx_HAL_Driver/Src/stm32f4xx_hal_pcd.c ****     hpcd->DataInStageCallback = pCallback;
 646:Drivers/STM32F4xx_HAL_Driver/Src/stm32f4xx_hal_pcd.c ****   }
 647:Drivers/STM32F4xx_HAL_Driver/Src/stm32f4xx_hal_pcd.c ****   else
 648:Drivers/STM32F4xx_HAL_Driver/Src/stm32f4xx_hal_pcd.c ****   {
 649:Drivers/STM32F4xx_HAL_Driver/Src/stm32f4xx_hal_pcd.c ****     /* Update the error code */
 650:Drivers/STM32F4xx_HAL_Driver/Src/stm32f4xx_hal_pcd.c ****     hpcd->ErrorCode |= HAL_PCD_ERROR_INVALID_CALLBACK;
 651:Drivers/STM32F4xx_HAL_Driver/Src/stm32f4xx_hal_pcd.c **** 
 652:Drivers/STM32F4xx_HAL_Driver/Src/stm32f4xx_hal_pcd.c ****     /* Return error status */
 653:Drivers/STM32F4xx_HAL_Driver/Src/stm32f4xx_hal_pcd.c ****     status =  HAL_ERROR;
 654:Drivers/STM32F4xx_HAL_Driver/Src/stm32f4xx_hal_pcd.c ****   }
 655:Drivers/STM32F4xx_HAL_Driver/Src/stm32f4xx_hal_pcd.c **** 
 656:Drivers/STM32F4xx_HAL_Driver/Src/stm32f4xx_hal_pcd.c ****   /* Release Lock */
 657:Drivers/STM32F4xx_HAL_Driver/Src/stm32f4xx_hal_pcd.c ****   __HAL_UNLOCK(hpcd);
 658:Drivers/STM32F4xx_HAL_Driver/Src/stm32f4xx_hal_pcd.c **** 
 659:Drivers/STM32F4xx_HAL_Driver/Src/stm32f4xx_hal_pcd.c ****   return status;
 660:Drivers/STM32F4xx_HAL_Driver/Src/stm32f4xx_hal_pcd.c **** }
 661:Drivers/STM32F4xx_HAL_Driver/Src/stm32f4xx_hal_pcd.c **** 
 662:Drivers/STM32F4xx_HAL_Driver/Src/stm32f4xx_hal_pcd.c **** /**
 663:Drivers/STM32F4xx_HAL_Driver/Src/stm32f4xx_hal_pcd.c ****   * @brief  Unregister the USB PCD Data IN Stage Callback
 664:Drivers/STM32F4xx_HAL_Driver/Src/stm32f4xx_hal_pcd.c ****   *         USB PCD Data OUT Stage Callback is redirected to the weak HAL_PCD_DataInStageCallback()
 665:Drivers/STM32F4xx_HAL_Driver/Src/stm32f4xx_hal_pcd.c ****   * @param  hpcd PCD handle
 666:Drivers/STM32F4xx_HAL_Driver/Src/stm32f4xx_hal_pcd.c ****   * @retval HAL status
 667:Drivers/STM32F4xx_HAL_Driver/Src/stm32f4xx_hal_pcd.c ****   */
 668:Drivers/STM32F4xx_HAL_Driver/Src/stm32f4xx_hal_pcd.c **** HAL_StatusTypeDef HAL_PCD_UnRegisterDataInStageCallback(PCD_HandleTypeDef *hpcd)
 669:Drivers/STM32F4xx_HAL_Driver/Src/stm32f4xx_hal_pcd.c **** {
 670:Drivers/STM32F4xx_HAL_Driver/Src/stm32f4xx_hal_pcd.c ****   HAL_StatusTypeDef status = HAL_OK;
 671:Drivers/STM32F4xx_HAL_Driver/Src/stm32f4xx_hal_pcd.c **** 
 672:Drivers/STM32F4xx_HAL_Driver/Src/stm32f4xx_hal_pcd.c ****   /* Process locked */
 673:Drivers/STM32F4xx_HAL_Driver/Src/stm32f4xx_hal_pcd.c ****   __HAL_LOCK(hpcd);
 674:Drivers/STM32F4xx_HAL_Driver/Src/stm32f4xx_hal_pcd.c **** 
 675:Drivers/STM32F4xx_HAL_Driver/Src/stm32f4xx_hal_pcd.c ****   if (hpcd->State == HAL_PCD_STATE_READY)
 676:Drivers/STM32F4xx_HAL_Driver/Src/stm32f4xx_hal_pcd.c ****   {
 677:Drivers/STM32F4xx_HAL_Driver/Src/stm32f4xx_hal_pcd.c ****     hpcd->DataInStageCallback = HAL_PCD_DataInStageCallback; /* Legacy weak DataInStageCallback  */
 678:Drivers/STM32F4xx_HAL_Driver/Src/stm32f4xx_hal_pcd.c ****   }
 679:Drivers/STM32F4xx_HAL_Driver/Src/stm32f4xx_hal_pcd.c ****   else
 680:Drivers/STM32F4xx_HAL_Driver/Src/stm32f4xx_hal_pcd.c ****   {
 681:Drivers/STM32F4xx_HAL_Driver/Src/stm32f4xx_hal_pcd.c ****     /* Update the error code */
 682:Drivers/STM32F4xx_HAL_Driver/Src/stm32f4xx_hal_pcd.c ****     hpcd->ErrorCode |= HAL_PCD_ERROR_INVALID_CALLBACK;
 683:Drivers/STM32F4xx_HAL_Driver/Src/stm32f4xx_hal_pcd.c **** 
 684:Drivers/STM32F4xx_HAL_Driver/Src/stm32f4xx_hal_pcd.c ****     /* Return error status */
 685:Drivers/STM32F4xx_HAL_Driver/Src/stm32f4xx_hal_pcd.c ****     status =  HAL_ERROR;
 686:Drivers/STM32F4xx_HAL_Driver/Src/stm32f4xx_hal_pcd.c ****   }
 687:Drivers/STM32F4xx_HAL_Driver/Src/stm32f4xx_hal_pcd.c **** 
 688:Drivers/STM32F4xx_HAL_Driver/Src/stm32f4xx_hal_pcd.c ****   /* Release Lock */
 689:Drivers/STM32F4xx_HAL_Driver/Src/stm32f4xx_hal_pcd.c ****   __HAL_UNLOCK(hpcd);
 690:Drivers/STM32F4xx_HAL_Driver/Src/stm32f4xx_hal_pcd.c **** 
 691:Drivers/STM32F4xx_HAL_Driver/Src/stm32f4xx_hal_pcd.c ****   return status;
 692:Drivers/STM32F4xx_HAL_Driver/Src/stm32f4xx_hal_pcd.c **** }
 693:Drivers/STM32F4xx_HAL_Driver/Src/stm32f4xx_hal_pcd.c **** 
ARM GAS  /tmp/ccDYdWST.s 			page 41


 694:Drivers/STM32F4xx_HAL_Driver/Src/stm32f4xx_hal_pcd.c **** /**
 695:Drivers/STM32F4xx_HAL_Driver/Src/stm32f4xx_hal_pcd.c ****   * @brief  Register USB PCD Iso OUT incomplete Callback
 696:Drivers/STM32F4xx_HAL_Driver/Src/stm32f4xx_hal_pcd.c ****   *         To be used instead of the weak HAL_PCD_ISOOUTIncompleteCallback() predefined callback
 697:Drivers/STM32F4xx_HAL_Driver/Src/stm32f4xx_hal_pcd.c ****   * @param  hpcd PCD handle
 698:Drivers/STM32F4xx_HAL_Driver/Src/stm32f4xx_hal_pcd.c ****   * @param  pCallback pointer to the USB PCD Iso OUT incomplete Callback function
 699:Drivers/STM32F4xx_HAL_Driver/Src/stm32f4xx_hal_pcd.c ****   * @retval HAL status
 700:Drivers/STM32F4xx_HAL_Driver/Src/stm32f4xx_hal_pcd.c ****   */
 701:Drivers/STM32F4xx_HAL_Driver/Src/stm32f4xx_hal_pcd.c **** HAL_StatusTypeDef HAL_PCD_RegisterIsoOutIncpltCallback(PCD_HandleTypeDef *hpcd,
 702:Drivers/STM32F4xx_HAL_Driver/Src/stm32f4xx_hal_pcd.c ****                                                        pPCD_IsoOutIncpltCallbackTypeDef pCallback)
 703:Drivers/STM32F4xx_HAL_Driver/Src/stm32f4xx_hal_pcd.c **** {
 704:Drivers/STM32F4xx_HAL_Driver/Src/stm32f4xx_hal_pcd.c ****   HAL_StatusTypeDef status = HAL_OK;
 705:Drivers/STM32F4xx_HAL_Driver/Src/stm32f4xx_hal_pcd.c **** 
 706:Drivers/STM32F4xx_HAL_Driver/Src/stm32f4xx_hal_pcd.c ****   if (pCallback == NULL)
 707:Drivers/STM32F4xx_HAL_Driver/Src/stm32f4xx_hal_pcd.c ****   {
 708:Drivers/STM32F4xx_HAL_Driver/Src/stm32f4xx_hal_pcd.c ****     /* Update the error code */
 709:Drivers/STM32F4xx_HAL_Driver/Src/stm32f4xx_hal_pcd.c ****     hpcd->ErrorCode |= HAL_PCD_ERROR_INVALID_CALLBACK;
 710:Drivers/STM32F4xx_HAL_Driver/Src/stm32f4xx_hal_pcd.c **** 
 711:Drivers/STM32F4xx_HAL_Driver/Src/stm32f4xx_hal_pcd.c ****     return HAL_ERROR;
 712:Drivers/STM32F4xx_HAL_Driver/Src/stm32f4xx_hal_pcd.c ****   }
 713:Drivers/STM32F4xx_HAL_Driver/Src/stm32f4xx_hal_pcd.c **** 
 714:Drivers/STM32F4xx_HAL_Driver/Src/stm32f4xx_hal_pcd.c ****   /* Process locked */
 715:Drivers/STM32F4xx_HAL_Driver/Src/stm32f4xx_hal_pcd.c ****   __HAL_LOCK(hpcd);
 716:Drivers/STM32F4xx_HAL_Driver/Src/stm32f4xx_hal_pcd.c **** 
 717:Drivers/STM32F4xx_HAL_Driver/Src/stm32f4xx_hal_pcd.c ****   if (hpcd->State == HAL_PCD_STATE_READY)
 718:Drivers/STM32F4xx_HAL_Driver/Src/stm32f4xx_hal_pcd.c ****   {
 719:Drivers/STM32F4xx_HAL_Driver/Src/stm32f4xx_hal_pcd.c ****     hpcd->ISOOUTIncompleteCallback = pCallback;
 720:Drivers/STM32F4xx_HAL_Driver/Src/stm32f4xx_hal_pcd.c ****   }
 721:Drivers/STM32F4xx_HAL_Driver/Src/stm32f4xx_hal_pcd.c ****   else
 722:Drivers/STM32F4xx_HAL_Driver/Src/stm32f4xx_hal_pcd.c ****   {
 723:Drivers/STM32F4xx_HAL_Driver/Src/stm32f4xx_hal_pcd.c ****     /* Update the error code */
 724:Drivers/STM32F4xx_HAL_Driver/Src/stm32f4xx_hal_pcd.c ****     hpcd->ErrorCode |= HAL_PCD_ERROR_INVALID_CALLBACK;
 725:Drivers/STM32F4xx_HAL_Driver/Src/stm32f4xx_hal_pcd.c **** 
 726:Drivers/STM32F4xx_HAL_Driver/Src/stm32f4xx_hal_pcd.c ****     /* Return error status */
 727:Drivers/STM32F4xx_HAL_Driver/Src/stm32f4xx_hal_pcd.c ****     status =  HAL_ERROR;
 728:Drivers/STM32F4xx_HAL_Driver/Src/stm32f4xx_hal_pcd.c ****   }
 729:Drivers/STM32F4xx_HAL_Driver/Src/stm32f4xx_hal_pcd.c **** 
 730:Drivers/STM32F4xx_HAL_Driver/Src/stm32f4xx_hal_pcd.c ****   /* Release Lock */
 731:Drivers/STM32F4xx_HAL_Driver/Src/stm32f4xx_hal_pcd.c ****   __HAL_UNLOCK(hpcd);
 732:Drivers/STM32F4xx_HAL_Driver/Src/stm32f4xx_hal_pcd.c **** 
 733:Drivers/STM32F4xx_HAL_Driver/Src/stm32f4xx_hal_pcd.c ****   return status;
 734:Drivers/STM32F4xx_HAL_Driver/Src/stm32f4xx_hal_pcd.c **** }
 735:Drivers/STM32F4xx_HAL_Driver/Src/stm32f4xx_hal_pcd.c **** 
 736:Drivers/STM32F4xx_HAL_Driver/Src/stm32f4xx_hal_pcd.c **** /**
 737:Drivers/STM32F4xx_HAL_Driver/Src/stm32f4xx_hal_pcd.c ****   * @brief  Unregister the USB PCD Iso OUT incomplete Callback
 738:Drivers/STM32F4xx_HAL_Driver/Src/stm32f4xx_hal_pcd.c ****   *         USB PCD Iso OUT incomplete Callback is redirected
 739:Drivers/STM32F4xx_HAL_Driver/Src/stm32f4xx_hal_pcd.c ****   *         to the weak HAL_PCD_ISOOUTIncompleteCallback() predefined callback
 740:Drivers/STM32F4xx_HAL_Driver/Src/stm32f4xx_hal_pcd.c ****   * @param  hpcd PCD handle
 741:Drivers/STM32F4xx_HAL_Driver/Src/stm32f4xx_hal_pcd.c ****   * @retval HAL status
 742:Drivers/STM32F4xx_HAL_Driver/Src/stm32f4xx_hal_pcd.c ****   */
 743:Drivers/STM32F4xx_HAL_Driver/Src/stm32f4xx_hal_pcd.c **** HAL_StatusTypeDef HAL_PCD_UnRegisterIsoOutIncpltCallback(PCD_HandleTypeDef *hpcd)
 744:Drivers/STM32F4xx_HAL_Driver/Src/stm32f4xx_hal_pcd.c **** {
 745:Drivers/STM32F4xx_HAL_Driver/Src/stm32f4xx_hal_pcd.c ****   HAL_StatusTypeDef status = HAL_OK;
 746:Drivers/STM32F4xx_HAL_Driver/Src/stm32f4xx_hal_pcd.c **** 
 747:Drivers/STM32F4xx_HAL_Driver/Src/stm32f4xx_hal_pcd.c ****   /* Process locked */
 748:Drivers/STM32F4xx_HAL_Driver/Src/stm32f4xx_hal_pcd.c ****   __HAL_LOCK(hpcd);
 749:Drivers/STM32F4xx_HAL_Driver/Src/stm32f4xx_hal_pcd.c **** 
 750:Drivers/STM32F4xx_HAL_Driver/Src/stm32f4xx_hal_pcd.c ****   if (hpcd->State == HAL_PCD_STATE_READY)
ARM GAS  /tmp/ccDYdWST.s 			page 42


 751:Drivers/STM32F4xx_HAL_Driver/Src/stm32f4xx_hal_pcd.c ****   {
 752:Drivers/STM32F4xx_HAL_Driver/Src/stm32f4xx_hal_pcd.c ****     hpcd->ISOOUTIncompleteCallback = HAL_PCD_ISOOUTIncompleteCallback; /* Legacy weak ISOOUTIncompl
 753:Drivers/STM32F4xx_HAL_Driver/Src/stm32f4xx_hal_pcd.c ****   }
 754:Drivers/STM32F4xx_HAL_Driver/Src/stm32f4xx_hal_pcd.c ****   else
 755:Drivers/STM32F4xx_HAL_Driver/Src/stm32f4xx_hal_pcd.c ****   {
 756:Drivers/STM32F4xx_HAL_Driver/Src/stm32f4xx_hal_pcd.c ****     /* Update the error code */
 757:Drivers/STM32F4xx_HAL_Driver/Src/stm32f4xx_hal_pcd.c ****     hpcd->ErrorCode |= HAL_PCD_ERROR_INVALID_CALLBACK;
 758:Drivers/STM32F4xx_HAL_Driver/Src/stm32f4xx_hal_pcd.c **** 
 759:Drivers/STM32F4xx_HAL_Driver/Src/stm32f4xx_hal_pcd.c ****     /* Return error status */
 760:Drivers/STM32F4xx_HAL_Driver/Src/stm32f4xx_hal_pcd.c ****     status =  HAL_ERROR;
 761:Drivers/STM32F4xx_HAL_Driver/Src/stm32f4xx_hal_pcd.c ****   }
 762:Drivers/STM32F4xx_HAL_Driver/Src/stm32f4xx_hal_pcd.c **** 
 763:Drivers/STM32F4xx_HAL_Driver/Src/stm32f4xx_hal_pcd.c ****   /* Release Lock */
 764:Drivers/STM32F4xx_HAL_Driver/Src/stm32f4xx_hal_pcd.c ****   __HAL_UNLOCK(hpcd);
 765:Drivers/STM32F4xx_HAL_Driver/Src/stm32f4xx_hal_pcd.c **** 
 766:Drivers/STM32F4xx_HAL_Driver/Src/stm32f4xx_hal_pcd.c ****   return status;
 767:Drivers/STM32F4xx_HAL_Driver/Src/stm32f4xx_hal_pcd.c **** }
 768:Drivers/STM32F4xx_HAL_Driver/Src/stm32f4xx_hal_pcd.c **** 
 769:Drivers/STM32F4xx_HAL_Driver/Src/stm32f4xx_hal_pcd.c **** /**
 770:Drivers/STM32F4xx_HAL_Driver/Src/stm32f4xx_hal_pcd.c ****   * @brief  Register USB PCD Iso IN incomplete Callback
 771:Drivers/STM32F4xx_HAL_Driver/Src/stm32f4xx_hal_pcd.c ****   *         To be used instead of the weak HAL_PCD_ISOINIncompleteCallback() predefined callback
 772:Drivers/STM32F4xx_HAL_Driver/Src/stm32f4xx_hal_pcd.c ****   * @param  hpcd PCD handle
 773:Drivers/STM32F4xx_HAL_Driver/Src/stm32f4xx_hal_pcd.c ****   * @param  pCallback pointer to the USB PCD Iso IN incomplete Callback function
 774:Drivers/STM32F4xx_HAL_Driver/Src/stm32f4xx_hal_pcd.c ****   * @retval HAL status
 775:Drivers/STM32F4xx_HAL_Driver/Src/stm32f4xx_hal_pcd.c ****   */
 776:Drivers/STM32F4xx_HAL_Driver/Src/stm32f4xx_hal_pcd.c **** HAL_StatusTypeDef HAL_PCD_RegisterIsoInIncpltCallback(PCD_HandleTypeDef *hpcd,
 777:Drivers/STM32F4xx_HAL_Driver/Src/stm32f4xx_hal_pcd.c ****                                                       pPCD_IsoInIncpltCallbackTypeDef pCallback)
 778:Drivers/STM32F4xx_HAL_Driver/Src/stm32f4xx_hal_pcd.c **** {
 779:Drivers/STM32F4xx_HAL_Driver/Src/stm32f4xx_hal_pcd.c ****   HAL_StatusTypeDef status = HAL_OK;
 780:Drivers/STM32F4xx_HAL_Driver/Src/stm32f4xx_hal_pcd.c **** 
 781:Drivers/STM32F4xx_HAL_Driver/Src/stm32f4xx_hal_pcd.c ****   if (pCallback == NULL)
 782:Drivers/STM32F4xx_HAL_Driver/Src/stm32f4xx_hal_pcd.c ****   {
 783:Drivers/STM32F4xx_HAL_Driver/Src/stm32f4xx_hal_pcd.c ****     /* Update the error code */
 784:Drivers/STM32F4xx_HAL_Driver/Src/stm32f4xx_hal_pcd.c ****     hpcd->ErrorCode |= HAL_PCD_ERROR_INVALID_CALLBACK;
 785:Drivers/STM32F4xx_HAL_Driver/Src/stm32f4xx_hal_pcd.c **** 
 786:Drivers/STM32F4xx_HAL_Driver/Src/stm32f4xx_hal_pcd.c ****     return HAL_ERROR;
 787:Drivers/STM32F4xx_HAL_Driver/Src/stm32f4xx_hal_pcd.c ****   }
 788:Drivers/STM32F4xx_HAL_Driver/Src/stm32f4xx_hal_pcd.c **** 
 789:Drivers/STM32F4xx_HAL_Driver/Src/stm32f4xx_hal_pcd.c ****   /* Process locked */
 790:Drivers/STM32F4xx_HAL_Driver/Src/stm32f4xx_hal_pcd.c ****   __HAL_LOCK(hpcd);
 791:Drivers/STM32F4xx_HAL_Driver/Src/stm32f4xx_hal_pcd.c **** 
 792:Drivers/STM32F4xx_HAL_Driver/Src/stm32f4xx_hal_pcd.c ****   if (hpcd->State == HAL_PCD_STATE_READY)
 793:Drivers/STM32F4xx_HAL_Driver/Src/stm32f4xx_hal_pcd.c ****   {
 794:Drivers/STM32F4xx_HAL_Driver/Src/stm32f4xx_hal_pcd.c ****     hpcd->ISOINIncompleteCallback = pCallback;
 795:Drivers/STM32F4xx_HAL_Driver/Src/stm32f4xx_hal_pcd.c ****   }
 796:Drivers/STM32F4xx_HAL_Driver/Src/stm32f4xx_hal_pcd.c ****   else
 797:Drivers/STM32F4xx_HAL_Driver/Src/stm32f4xx_hal_pcd.c ****   {
 798:Drivers/STM32F4xx_HAL_Driver/Src/stm32f4xx_hal_pcd.c ****     /* Update the error code */
 799:Drivers/STM32F4xx_HAL_Driver/Src/stm32f4xx_hal_pcd.c ****     hpcd->ErrorCode |= HAL_PCD_ERROR_INVALID_CALLBACK;
 800:Drivers/STM32F4xx_HAL_Driver/Src/stm32f4xx_hal_pcd.c **** 
 801:Drivers/STM32F4xx_HAL_Driver/Src/stm32f4xx_hal_pcd.c ****     /* Return error status */
 802:Drivers/STM32F4xx_HAL_Driver/Src/stm32f4xx_hal_pcd.c ****     status =  HAL_ERROR;
 803:Drivers/STM32F4xx_HAL_Driver/Src/stm32f4xx_hal_pcd.c ****   }
 804:Drivers/STM32F4xx_HAL_Driver/Src/stm32f4xx_hal_pcd.c **** 
 805:Drivers/STM32F4xx_HAL_Driver/Src/stm32f4xx_hal_pcd.c ****   /* Release Lock */
 806:Drivers/STM32F4xx_HAL_Driver/Src/stm32f4xx_hal_pcd.c ****   __HAL_UNLOCK(hpcd);
 807:Drivers/STM32F4xx_HAL_Driver/Src/stm32f4xx_hal_pcd.c **** 
ARM GAS  /tmp/ccDYdWST.s 			page 43


 808:Drivers/STM32F4xx_HAL_Driver/Src/stm32f4xx_hal_pcd.c ****   return status;
 809:Drivers/STM32F4xx_HAL_Driver/Src/stm32f4xx_hal_pcd.c **** }
 810:Drivers/STM32F4xx_HAL_Driver/Src/stm32f4xx_hal_pcd.c **** 
 811:Drivers/STM32F4xx_HAL_Driver/Src/stm32f4xx_hal_pcd.c **** /**
 812:Drivers/STM32F4xx_HAL_Driver/Src/stm32f4xx_hal_pcd.c ****   * @brief  Unregister the USB PCD Iso IN incomplete Callback
 813:Drivers/STM32F4xx_HAL_Driver/Src/stm32f4xx_hal_pcd.c ****   *         USB PCD Iso IN incomplete Callback is redirected
 814:Drivers/STM32F4xx_HAL_Driver/Src/stm32f4xx_hal_pcd.c ****   *         to the weak HAL_PCD_ISOINIncompleteCallback() predefined callback
 815:Drivers/STM32F4xx_HAL_Driver/Src/stm32f4xx_hal_pcd.c ****   * @param  hpcd PCD handle
 816:Drivers/STM32F4xx_HAL_Driver/Src/stm32f4xx_hal_pcd.c ****   * @retval HAL status
 817:Drivers/STM32F4xx_HAL_Driver/Src/stm32f4xx_hal_pcd.c ****   */
 818:Drivers/STM32F4xx_HAL_Driver/Src/stm32f4xx_hal_pcd.c **** HAL_StatusTypeDef HAL_PCD_UnRegisterIsoInIncpltCallback(PCD_HandleTypeDef *hpcd)
 819:Drivers/STM32F4xx_HAL_Driver/Src/stm32f4xx_hal_pcd.c **** {
 820:Drivers/STM32F4xx_HAL_Driver/Src/stm32f4xx_hal_pcd.c ****   HAL_StatusTypeDef status = HAL_OK;
 821:Drivers/STM32F4xx_HAL_Driver/Src/stm32f4xx_hal_pcd.c **** 
 822:Drivers/STM32F4xx_HAL_Driver/Src/stm32f4xx_hal_pcd.c ****   /* Process locked */
 823:Drivers/STM32F4xx_HAL_Driver/Src/stm32f4xx_hal_pcd.c ****   __HAL_LOCK(hpcd);
 824:Drivers/STM32F4xx_HAL_Driver/Src/stm32f4xx_hal_pcd.c **** 
 825:Drivers/STM32F4xx_HAL_Driver/Src/stm32f4xx_hal_pcd.c ****   if (hpcd->State == HAL_PCD_STATE_READY)
 826:Drivers/STM32F4xx_HAL_Driver/Src/stm32f4xx_hal_pcd.c ****   {
 827:Drivers/STM32F4xx_HAL_Driver/Src/stm32f4xx_hal_pcd.c ****     hpcd->ISOINIncompleteCallback = HAL_PCD_ISOINIncompleteCallback; /* Legacy weak ISOINIncomplete
 828:Drivers/STM32F4xx_HAL_Driver/Src/stm32f4xx_hal_pcd.c ****   }
 829:Drivers/STM32F4xx_HAL_Driver/Src/stm32f4xx_hal_pcd.c ****   else
 830:Drivers/STM32F4xx_HAL_Driver/Src/stm32f4xx_hal_pcd.c ****   {
 831:Drivers/STM32F4xx_HAL_Driver/Src/stm32f4xx_hal_pcd.c ****     /* Update the error code */
 832:Drivers/STM32F4xx_HAL_Driver/Src/stm32f4xx_hal_pcd.c ****     hpcd->ErrorCode |= HAL_PCD_ERROR_INVALID_CALLBACK;
 833:Drivers/STM32F4xx_HAL_Driver/Src/stm32f4xx_hal_pcd.c **** 
 834:Drivers/STM32F4xx_HAL_Driver/Src/stm32f4xx_hal_pcd.c ****     /* Return error status */
 835:Drivers/STM32F4xx_HAL_Driver/Src/stm32f4xx_hal_pcd.c ****     status =  HAL_ERROR;
 836:Drivers/STM32F4xx_HAL_Driver/Src/stm32f4xx_hal_pcd.c ****   }
 837:Drivers/STM32F4xx_HAL_Driver/Src/stm32f4xx_hal_pcd.c **** 
 838:Drivers/STM32F4xx_HAL_Driver/Src/stm32f4xx_hal_pcd.c ****   /* Release Lock */
 839:Drivers/STM32F4xx_HAL_Driver/Src/stm32f4xx_hal_pcd.c ****   __HAL_UNLOCK(hpcd);
 840:Drivers/STM32F4xx_HAL_Driver/Src/stm32f4xx_hal_pcd.c **** 
 841:Drivers/STM32F4xx_HAL_Driver/Src/stm32f4xx_hal_pcd.c ****   return status;
 842:Drivers/STM32F4xx_HAL_Driver/Src/stm32f4xx_hal_pcd.c **** }
 843:Drivers/STM32F4xx_HAL_Driver/Src/stm32f4xx_hal_pcd.c **** 
 844:Drivers/STM32F4xx_HAL_Driver/Src/stm32f4xx_hal_pcd.c **** /**
 845:Drivers/STM32F4xx_HAL_Driver/Src/stm32f4xx_hal_pcd.c ****   * @brief  Register USB PCD BCD Callback
 846:Drivers/STM32F4xx_HAL_Driver/Src/stm32f4xx_hal_pcd.c ****   *         To be used instead of the weak HAL_PCDEx_BCD_Callback() predefined callback
 847:Drivers/STM32F4xx_HAL_Driver/Src/stm32f4xx_hal_pcd.c ****   * @param  hpcd PCD handle
 848:Drivers/STM32F4xx_HAL_Driver/Src/stm32f4xx_hal_pcd.c ****   * @param  pCallback pointer to the USB PCD BCD Callback function
 849:Drivers/STM32F4xx_HAL_Driver/Src/stm32f4xx_hal_pcd.c ****   * @retval HAL status
 850:Drivers/STM32F4xx_HAL_Driver/Src/stm32f4xx_hal_pcd.c ****   */
 851:Drivers/STM32F4xx_HAL_Driver/Src/stm32f4xx_hal_pcd.c **** HAL_StatusTypeDef HAL_PCD_RegisterBcdCallback(PCD_HandleTypeDef *hpcd, pPCD_BcdCallbackTypeDef pCal
 852:Drivers/STM32F4xx_HAL_Driver/Src/stm32f4xx_hal_pcd.c **** {
 853:Drivers/STM32F4xx_HAL_Driver/Src/stm32f4xx_hal_pcd.c ****   HAL_StatusTypeDef status = HAL_OK;
 854:Drivers/STM32F4xx_HAL_Driver/Src/stm32f4xx_hal_pcd.c **** 
 855:Drivers/STM32F4xx_HAL_Driver/Src/stm32f4xx_hal_pcd.c ****   if (pCallback == NULL)
 856:Drivers/STM32F4xx_HAL_Driver/Src/stm32f4xx_hal_pcd.c ****   {
 857:Drivers/STM32F4xx_HAL_Driver/Src/stm32f4xx_hal_pcd.c ****     /* Update the error code */
 858:Drivers/STM32F4xx_HAL_Driver/Src/stm32f4xx_hal_pcd.c ****     hpcd->ErrorCode |= HAL_PCD_ERROR_INVALID_CALLBACK;
 859:Drivers/STM32F4xx_HAL_Driver/Src/stm32f4xx_hal_pcd.c **** 
 860:Drivers/STM32F4xx_HAL_Driver/Src/stm32f4xx_hal_pcd.c ****     return HAL_ERROR;
 861:Drivers/STM32F4xx_HAL_Driver/Src/stm32f4xx_hal_pcd.c ****   }
 862:Drivers/STM32F4xx_HAL_Driver/Src/stm32f4xx_hal_pcd.c **** 
 863:Drivers/STM32F4xx_HAL_Driver/Src/stm32f4xx_hal_pcd.c ****   /* Process locked */
 864:Drivers/STM32F4xx_HAL_Driver/Src/stm32f4xx_hal_pcd.c ****   __HAL_LOCK(hpcd);
ARM GAS  /tmp/ccDYdWST.s 			page 44


 865:Drivers/STM32F4xx_HAL_Driver/Src/stm32f4xx_hal_pcd.c **** 
 866:Drivers/STM32F4xx_HAL_Driver/Src/stm32f4xx_hal_pcd.c ****   if (hpcd->State == HAL_PCD_STATE_READY)
 867:Drivers/STM32F4xx_HAL_Driver/Src/stm32f4xx_hal_pcd.c ****   {
 868:Drivers/STM32F4xx_HAL_Driver/Src/stm32f4xx_hal_pcd.c ****     hpcd->BCDCallback = pCallback;
 869:Drivers/STM32F4xx_HAL_Driver/Src/stm32f4xx_hal_pcd.c ****   }
 870:Drivers/STM32F4xx_HAL_Driver/Src/stm32f4xx_hal_pcd.c ****   else
 871:Drivers/STM32F4xx_HAL_Driver/Src/stm32f4xx_hal_pcd.c ****   {
 872:Drivers/STM32F4xx_HAL_Driver/Src/stm32f4xx_hal_pcd.c ****     /* Update the error code */
 873:Drivers/STM32F4xx_HAL_Driver/Src/stm32f4xx_hal_pcd.c ****     hpcd->ErrorCode |= HAL_PCD_ERROR_INVALID_CALLBACK;
 874:Drivers/STM32F4xx_HAL_Driver/Src/stm32f4xx_hal_pcd.c **** 
 875:Drivers/STM32F4xx_HAL_Driver/Src/stm32f4xx_hal_pcd.c ****     /* Return error status */
 876:Drivers/STM32F4xx_HAL_Driver/Src/stm32f4xx_hal_pcd.c ****     status =  HAL_ERROR;
 877:Drivers/STM32F4xx_HAL_Driver/Src/stm32f4xx_hal_pcd.c ****   }
 878:Drivers/STM32F4xx_HAL_Driver/Src/stm32f4xx_hal_pcd.c **** 
 879:Drivers/STM32F4xx_HAL_Driver/Src/stm32f4xx_hal_pcd.c ****   /* Release Lock */
 880:Drivers/STM32F4xx_HAL_Driver/Src/stm32f4xx_hal_pcd.c ****   __HAL_UNLOCK(hpcd);
 881:Drivers/STM32F4xx_HAL_Driver/Src/stm32f4xx_hal_pcd.c **** 
 882:Drivers/STM32F4xx_HAL_Driver/Src/stm32f4xx_hal_pcd.c ****   return status;
 883:Drivers/STM32F4xx_HAL_Driver/Src/stm32f4xx_hal_pcd.c **** }
 884:Drivers/STM32F4xx_HAL_Driver/Src/stm32f4xx_hal_pcd.c **** 
 885:Drivers/STM32F4xx_HAL_Driver/Src/stm32f4xx_hal_pcd.c **** /**
 886:Drivers/STM32F4xx_HAL_Driver/Src/stm32f4xx_hal_pcd.c ****   * @brief  Unregister the USB PCD BCD Callback
 887:Drivers/STM32F4xx_HAL_Driver/Src/stm32f4xx_hal_pcd.c ****   *         USB BCD Callback is redirected to the weak HAL_PCDEx_BCD_Callback() predefined callback
 888:Drivers/STM32F4xx_HAL_Driver/Src/stm32f4xx_hal_pcd.c ****   * @param  hpcd PCD handle
 889:Drivers/STM32F4xx_HAL_Driver/Src/stm32f4xx_hal_pcd.c ****   * @retval HAL status
 890:Drivers/STM32F4xx_HAL_Driver/Src/stm32f4xx_hal_pcd.c ****   */
 891:Drivers/STM32F4xx_HAL_Driver/Src/stm32f4xx_hal_pcd.c **** HAL_StatusTypeDef HAL_PCD_UnRegisterBcdCallback(PCD_HandleTypeDef *hpcd)
 892:Drivers/STM32F4xx_HAL_Driver/Src/stm32f4xx_hal_pcd.c **** {
 893:Drivers/STM32F4xx_HAL_Driver/Src/stm32f4xx_hal_pcd.c ****   HAL_StatusTypeDef status = HAL_OK;
 894:Drivers/STM32F4xx_HAL_Driver/Src/stm32f4xx_hal_pcd.c **** 
 895:Drivers/STM32F4xx_HAL_Driver/Src/stm32f4xx_hal_pcd.c ****   /* Process locked */
 896:Drivers/STM32F4xx_HAL_Driver/Src/stm32f4xx_hal_pcd.c ****   __HAL_LOCK(hpcd);
 897:Drivers/STM32F4xx_HAL_Driver/Src/stm32f4xx_hal_pcd.c **** 
 898:Drivers/STM32F4xx_HAL_Driver/Src/stm32f4xx_hal_pcd.c ****   if (hpcd->State == HAL_PCD_STATE_READY)
 899:Drivers/STM32F4xx_HAL_Driver/Src/stm32f4xx_hal_pcd.c ****   {
 900:Drivers/STM32F4xx_HAL_Driver/Src/stm32f4xx_hal_pcd.c ****     hpcd->BCDCallback = HAL_PCDEx_BCD_Callback; /* Legacy weak HAL_PCDEx_BCD_Callback  */
 901:Drivers/STM32F4xx_HAL_Driver/Src/stm32f4xx_hal_pcd.c ****   }
 902:Drivers/STM32F4xx_HAL_Driver/Src/stm32f4xx_hal_pcd.c ****   else
 903:Drivers/STM32F4xx_HAL_Driver/Src/stm32f4xx_hal_pcd.c ****   {
 904:Drivers/STM32F4xx_HAL_Driver/Src/stm32f4xx_hal_pcd.c ****     /* Update the error code */
 905:Drivers/STM32F4xx_HAL_Driver/Src/stm32f4xx_hal_pcd.c ****     hpcd->ErrorCode |= HAL_PCD_ERROR_INVALID_CALLBACK;
 906:Drivers/STM32F4xx_HAL_Driver/Src/stm32f4xx_hal_pcd.c **** 
 907:Drivers/STM32F4xx_HAL_Driver/Src/stm32f4xx_hal_pcd.c ****     /* Return error status */
 908:Drivers/STM32F4xx_HAL_Driver/Src/stm32f4xx_hal_pcd.c ****     status =  HAL_ERROR;
 909:Drivers/STM32F4xx_HAL_Driver/Src/stm32f4xx_hal_pcd.c ****   }
 910:Drivers/STM32F4xx_HAL_Driver/Src/stm32f4xx_hal_pcd.c **** 
 911:Drivers/STM32F4xx_HAL_Driver/Src/stm32f4xx_hal_pcd.c ****   /* Release Lock */
 912:Drivers/STM32F4xx_HAL_Driver/Src/stm32f4xx_hal_pcd.c ****   __HAL_UNLOCK(hpcd);
 913:Drivers/STM32F4xx_HAL_Driver/Src/stm32f4xx_hal_pcd.c **** 
 914:Drivers/STM32F4xx_HAL_Driver/Src/stm32f4xx_hal_pcd.c ****   return status;
 915:Drivers/STM32F4xx_HAL_Driver/Src/stm32f4xx_hal_pcd.c **** }
 916:Drivers/STM32F4xx_HAL_Driver/Src/stm32f4xx_hal_pcd.c **** 
 917:Drivers/STM32F4xx_HAL_Driver/Src/stm32f4xx_hal_pcd.c **** /**
 918:Drivers/STM32F4xx_HAL_Driver/Src/stm32f4xx_hal_pcd.c ****   * @brief  Register USB PCD LPM Callback
 919:Drivers/STM32F4xx_HAL_Driver/Src/stm32f4xx_hal_pcd.c ****   *         To be used instead of the weak HAL_PCDEx_LPM_Callback() predefined callback
 920:Drivers/STM32F4xx_HAL_Driver/Src/stm32f4xx_hal_pcd.c ****   * @param  hpcd PCD handle
 921:Drivers/STM32F4xx_HAL_Driver/Src/stm32f4xx_hal_pcd.c ****   * @param  pCallback pointer to the USB PCD LPM Callback function
ARM GAS  /tmp/ccDYdWST.s 			page 45


 922:Drivers/STM32F4xx_HAL_Driver/Src/stm32f4xx_hal_pcd.c ****   * @retval HAL status
 923:Drivers/STM32F4xx_HAL_Driver/Src/stm32f4xx_hal_pcd.c ****   */
 924:Drivers/STM32F4xx_HAL_Driver/Src/stm32f4xx_hal_pcd.c **** HAL_StatusTypeDef HAL_PCD_RegisterLpmCallback(PCD_HandleTypeDef *hpcd, pPCD_LpmCallbackTypeDef pCal
 925:Drivers/STM32F4xx_HAL_Driver/Src/stm32f4xx_hal_pcd.c **** {
 926:Drivers/STM32F4xx_HAL_Driver/Src/stm32f4xx_hal_pcd.c ****   HAL_StatusTypeDef status = HAL_OK;
 927:Drivers/STM32F4xx_HAL_Driver/Src/stm32f4xx_hal_pcd.c **** 
 928:Drivers/STM32F4xx_HAL_Driver/Src/stm32f4xx_hal_pcd.c ****   if (pCallback == NULL)
 929:Drivers/STM32F4xx_HAL_Driver/Src/stm32f4xx_hal_pcd.c ****   {
 930:Drivers/STM32F4xx_HAL_Driver/Src/stm32f4xx_hal_pcd.c ****     /* Update the error code */
 931:Drivers/STM32F4xx_HAL_Driver/Src/stm32f4xx_hal_pcd.c ****     hpcd->ErrorCode |= HAL_PCD_ERROR_INVALID_CALLBACK;
 932:Drivers/STM32F4xx_HAL_Driver/Src/stm32f4xx_hal_pcd.c **** 
 933:Drivers/STM32F4xx_HAL_Driver/Src/stm32f4xx_hal_pcd.c ****     return HAL_ERROR;
 934:Drivers/STM32F4xx_HAL_Driver/Src/stm32f4xx_hal_pcd.c ****   }
 935:Drivers/STM32F4xx_HAL_Driver/Src/stm32f4xx_hal_pcd.c **** 
 936:Drivers/STM32F4xx_HAL_Driver/Src/stm32f4xx_hal_pcd.c ****   /* Process locked */
 937:Drivers/STM32F4xx_HAL_Driver/Src/stm32f4xx_hal_pcd.c ****   __HAL_LOCK(hpcd);
 938:Drivers/STM32F4xx_HAL_Driver/Src/stm32f4xx_hal_pcd.c **** 
 939:Drivers/STM32F4xx_HAL_Driver/Src/stm32f4xx_hal_pcd.c ****   if (hpcd->State == HAL_PCD_STATE_READY)
 940:Drivers/STM32F4xx_HAL_Driver/Src/stm32f4xx_hal_pcd.c ****   {
 941:Drivers/STM32F4xx_HAL_Driver/Src/stm32f4xx_hal_pcd.c ****     hpcd->LPMCallback = pCallback;
 942:Drivers/STM32F4xx_HAL_Driver/Src/stm32f4xx_hal_pcd.c ****   }
 943:Drivers/STM32F4xx_HAL_Driver/Src/stm32f4xx_hal_pcd.c ****   else
 944:Drivers/STM32F4xx_HAL_Driver/Src/stm32f4xx_hal_pcd.c ****   {
 945:Drivers/STM32F4xx_HAL_Driver/Src/stm32f4xx_hal_pcd.c ****     /* Update the error code */
 946:Drivers/STM32F4xx_HAL_Driver/Src/stm32f4xx_hal_pcd.c ****     hpcd->ErrorCode |= HAL_PCD_ERROR_INVALID_CALLBACK;
 947:Drivers/STM32F4xx_HAL_Driver/Src/stm32f4xx_hal_pcd.c **** 
 948:Drivers/STM32F4xx_HAL_Driver/Src/stm32f4xx_hal_pcd.c ****     /* Return error status */
 949:Drivers/STM32F4xx_HAL_Driver/Src/stm32f4xx_hal_pcd.c ****     status =  HAL_ERROR;
 950:Drivers/STM32F4xx_HAL_Driver/Src/stm32f4xx_hal_pcd.c ****   }
 951:Drivers/STM32F4xx_HAL_Driver/Src/stm32f4xx_hal_pcd.c **** 
 952:Drivers/STM32F4xx_HAL_Driver/Src/stm32f4xx_hal_pcd.c ****   /* Release Lock */
 953:Drivers/STM32F4xx_HAL_Driver/Src/stm32f4xx_hal_pcd.c ****   __HAL_UNLOCK(hpcd);
 954:Drivers/STM32F4xx_HAL_Driver/Src/stm32f4xx_hal_pcd.c **** 
 955:Drivers/STM32F4xx_HAL_Driver/Src/stm32f4xx_hal_pcd.c ****   return status;
 956:Drivers/STM32F4xx_HAL_Driver/Src/stm32f4xx_hal_pcd.c **** }
 957:Drivers/STM32F4xx_HAL_Driver/Src/stm32f4xx_hal_pcd.c **** 
 958:Drivers/STM32F4xx_HAL_Driver/Src/stm32f4xx_hal_pcd.c **** /**
 959:Drivers/STM32F4xx_HAL_Driver/Src/stm32f4xx_hal_pcd.c ****   * @brief  Unregister the USB PCD LPM Callback
 960:Drivers/STM32F4xx_HAL_Driver/Src/stm32f4xx_hal_pcd.c ****   *         USB LPM Callback is redirected to the weak HAL_PCDEx_LPM_Callback() predefined callback
 961:Drivers/STM32F4xx_HAL_Driver/Src/stm32f4xx_hal_pcd.c ****   * @param  hpcd PCD handle
 962:Drivers/STM32F4xx_HAL_Driver/Src/stm32f4xx_hal_pcd.c ****   * @retval HAL status
 963:Drivers/STM32F4xx_HAL_Driver/Src/stm32f4xx_hal_pcd.c ****   */
 964:Drivers/STM32F4xx_HAL_Driver/Src/stm32f4xx_hal_pcd.c **** HAL_StatusTypeDef HAL_PCD_UnRegisterLpmCallback(PCD_HandleTypeDef *hpcd)
 965:Drivers/STM32F4xx_HAL_Driver/Src/stm32f4xx_hal_pcd.c **** {
 966:Drivers/STM32F4xx_HAL_Driver/Src/stm32f4xx_hal_pcd.c ****   HAL_StatusTypeDef status = HAL_OK;
 967:Drivers/STM32F4xx_HAL_Driver/Src/stm32f4xx_hal_pcd.c **** 
 968:Drivers/STM32F4xx_HAL_Driver/Src/stm32f4xx_hal_pcd.c ****   /* Process locked */
 969:Drivers/STM32F4xx_HAL_Driver/Src/stm32f4xx_hal_pcd.c ****   __HAL_LOCK(hpcd);
 970:Drivers/STM32F4xx_HAL_Driver/Src/stm32f4xx_hal_pcd.c **** 
 971:Drivers/STM32F4xx_HAL_Driver/Src/stm32f4xx_hal_pcd.c ****   if (hpcd->State == HAL_PCD_STATE_READY)
 972:Drivers/STM32F4xx_HAL_Driver/Src/stm32f4xx_hal_pcd.c ****   {
 973:Drivers/STM32F4xx_HAL_Driver/Src/stm32f4xx_hal_pcd.c ****     hpcd->LPMCallback = HAL_PCDEx_LPM_Callback; /* Legacy weak HAL_PCDEx_LPM_Callback  */
 974:Drivers/STM32F4xx_HAL_Driver/Src/stm32f4xx_hal_pcd.c ****   }
 975:Drivers/STM32F4xx_HAL_Driver/Src/stm32f4xx_hal_pcd.c ****   else
 976:Drivers/STM32F4xx_HAL_Driver/Src/stm32f4xx_hal_pcd.c ****   {
 977:Drivers/STM32F4xx_HAL_Driver/Src/stm32f4xx_hal_pcd.c ****     /* Update the error code */
 978:Drivers/STM32F4xx_HAL_Driver/Src/stm32f4xx_hal_pcd.c ****     hpcd->ErrorCode |= HAL_PCD_ERROR_INVALID_CALLBACK;
ARM GAS  /tmp/ccDYdWST.s 			page 46


 979:Drivers/STM32F4xx_HAL_Driver/Src/stm32f4xx_hal_pcd.c **** 
 980:Drivers/STM32F4xx_HAL_Driver/Src/stm32f4xx_hal_pcd.c ****     /* Return error status */
 981:Drivers/STM32F4xx_HAL_Driver/Src/stm32f4xx_hal_pcd.c ****     status =  HAL_ERROR;
 982:Drivers/STM32F4xx_HAL_Driver/Src/stm32f4xx_hal_pcd.c ****   }
 983:Drivers/STM32F4xx_HAL_Driver/Src/stm32f4xx_hal_pcd.c **** 
 984:Drivers/STM32F4xx_HAL_Driver/Src/stm32f4xx_hal_pcd.c ****   /* Release Lock */
 985:Drivers/STM32F4xx_HAL_Driver/Src/stm32f4xx_hal_pcd.c ****   __HAL_UNLOCK(hpcd);
 986:Drivers/STM32F4xx_HAL_Driver/Src/stm32f4xx_hal_pcd.c **** 
 987:Drivers/STM32F4xx_HAL_Driver/Src/stm32f4xx_hal_pcd.c ****   return status;
 988:Drivers/STM32F4xx_HAL_Driver/Src/stm32f4xx_hal_pcd.c **** }
 989:Drivers/STM32F4xx_HAL_Driver/Src/stm32f4xx_hal_pcd.c **** #endif /* USE_HAL_PCD_REGISTER_CALLBACKS */
 990:Drivers/STM32F4xx_HAL_Driver/Src/stm32f4xx_hal_pcd.c **** 
 991:Drivers/STM32F4xx_HAL_Driver/Src/stm32f4xx_hal_pcd.c **** /**
 992:Drivers/STM32F4xx_HAL_Driver/Src/stm32f4xx_hal_pcd.c ****   * @}
 993:Drivers/STM32F4xx_HAL_Driver/Src/stm32f4xx_hal_pcd.c ****   */
 994:Drivers/STM32F4xx_HAL_Driver/Src/stm32f4xx_hal_pcd.c **** 
 995:Drivers/STM32F4xx_HAL_Driver/Src/stm32f4xx_hal_pcd.c **** /** @defgroup PCD_Exported_Functions_Group2 Input and Output operation functions
 996:Drivers/STM32F4xx_HAL_Driver/Src/stm32f4xx_hal_pcd.c ****   *  @brief   Data transfers functions
 997:Drivers/STM32F4xx_HAL_Driver/Src/stm32f4xx_hal_pcd.c ****   *
 998:Drivers/STM32F4xx_HAL_Driver/Src/stm32f4xx_hal_pcd.c **** @verbatim
 999:Drivers/STM32F4xx_HAL_Driver/Src/stm32f4xx_hal_pcd.c ****  ===============================================================================
1000:Drivers/STM32F4xx_HAL_Driver/Src/stm32f4xx_hal_pcd.c ****                       ##### IO operation functions #####
1001:Drivers/STM32F4xx_HAL_Driver/Src/stm32f4xx_hal_pcd.c ****  ===============================================================================
1002:Drivers/STM32F4xx_HAL_Driver/Src/stm32f4xx_hal_pcd.c ****     [..]
1003:Drivers/STM32F4xx_HAL_Driver/Src/stm32f4xx_hal_pcd.c ****     This subsection provides a set of functions allowing to manage the PCD data
1004:Drivers/STM32F4xx_HAL_Driver/Src/stm32f4xx_hal_pcd.c ****     transfers.
1005:Drivers/STM32F4xx_HAL_Driver/Src/stm32f4xx_hal_pcd.c **** 
1006:Drivers/STM32F4xx_HAL_Driver/Src/stm32f4xx_hal_pcd.c **** @endverbatim
1007:Drivers/STM32F4xx_HAL_Driver/Src/stm32f4xx_hal_pcd.c ****   * @{
1008:Drivers/STM32F4xx_HAL_Driver/Src/stm32f4xx_hal_pcd.c ****   */
1009:Drivers/STM32F4xx_HAL_Driver/Src/stm32f4xx_hal_pcd.c **** 
1010:Drivers/STM32F4xx_HAL_Driver/Src/stm32f4xx_hal_pcd.c **** /**
1011:Drivers/STM32F4xx_HAL_Driver/Src/stm32f4xx_hal_pcd.c ****   * @brief  Start the USB device
1012:Drivers/STM32F4xx_HAL_Driver/Src/stm32f4xx_hal_pcd.c ****   * @param  hpcd PCD handle
1013:Drivers/STM32F4xx_HAL_Driver/Src/stm32f4xx_hal_pcd.c ****   * @retval HAL status
1014:Drivers/STM32F4xx_HAL_Driver/Src/stm32f4xx_hal_pcd.c ****   */
1015:Drivers/STM32F4xx_HAL_Driver/Src/stm32f4xx_hal_pcd.c **** HAL_StatusTypeDef HAL_PCD_Start(PCD_HandleTypeDef *hpcd)
1016:Drivers/STM32F4xx_HAL_Driver/Src/stm32f4xx_hal_pcd.c **** {
 1062              		.loc 1 1016 1 is_stmt 1 view -0
 1063              		.cfi_startproc
 1064              		@ args = 0, pretend = 0, frame = 0
 1065              		@ frame_needed = 0, uses_anonymous_args = 0
1017:Drivers/STM32F4xx_HAL_Driver/Src/stm32f4xx_hal_pcd.c ****   USB_OTG_GlobalTypeDef *USBx = hpcd->Instance;
 1066              		.loc 1 1017 3 view .LVU540
1016:Drivers/STM32F4xx_HAL_Driver/Src/stm32f4xx_hal_pcd.c ****   USB_OTG_GlobalTypeDef *USBx = hpcd->Instance;
 1067              		.loc 1 1016 1 is_stmt 0 view .LVU541
 1068 0000 10B5     		push	{r4, lr}
 1069              	.LCFI7:
 1070              		.cfi_def_cfa_offset 8
 1071              		.cfi_offset 4, -8
 1072              		.cfi_offset 14, -4
1018:Drivers/STM32F4xx_HAL_Driver/Src/stm32f4xx_hal_pcd.c **** 
1019:Drivers/STM32F4xx_HAL_Driver/Src/stm32f4xx_hal_pcd.c ****   __HAL_LOCK(hpcd);
 1073              		.loc 1 1019 3 view .LVU542
 1074 0002 90F89434 		ldrb	r3, [r0, #1172]	@ zero_extendqisi2
 1075 0006 012B     		cmp	r3, #1
1016:Drivers/STM32F4xx_HAL_Driver/Src/stm32f4xx_hal_pcd.c ****   USB_OTG_GlobalTypeDef *USBx = hpcd->Instance;
ARM GAS  /tmp/ccDYdWST.s 			page 47


 1076              		.loc 1 1016 1 view .LVU543
 1077 0008 0446     		mov	r4, r0
1017:Drivers/STM32F4xx_HAL_Driver/Src/stm32f4xx_hal_pcd.c **** 
 1078              		.loc 1 1017 26 view .LVU544
 1079 000a 0068     		ldr	r0, [r0]
 1080              	.LVL56:
 1081              		.loc 1 1019 3 is_stmt 1 view .LVU545
 1082              		.loc 1 1019 3 view .LVU546
 1083 000c 17D0     		beq	.L120
 1084              		.loc 1 1019 3 discriminator 2 view .LVU547
 1085 000e 0123     		movs	r3, #1
 1086 0010 84F89434 		strb	r3, [r4, #1172]
 1087              		.loc 1 1019 3 discriminator 2 view .LVU548
1020:Drivers/STM32F4xx_HAL_Driver/Src/stm32f4xx_hal_pcd.c **** 
1021:Drivers/STM32F4xx_HAL_Driver/Src/stm32f4xx_hal_pcd.c ****   if (((USBx->GUSBCFG & USB_OTG_GUSBCFG_PHYSEL) != 0U) &&
 1088              		.loc 1 1021 3 view .LVU549
 1089              		.loc 1 1021 13 is_stmt 0 view .LVU550
 1090 0014 C368     		ldr	r3, [r0, #12]
 1091              		.loc 1 1021 6 view .LVU551
 1092 0016 5B06     		lsls	r3, r3, #25
 1093 0018 02D5     		bpl	.L119
 1094              		.loc 1 1021 56 discriminator 1 view .LVU552
 1095 001a 637B     		ldrb	r3, [r4, #13]	@ zero_extendqisi2
 1096 001c 012B     		cmp	r3, #1
 1097 001e 09D0     		beq	.L125
 1098              	.L119:
1022:Drivers/STM32F4xx_HAL_Driver/Src/stm32f4xx_hal_pcd.c ****       (hpcd->Init.battery_charging_enable == 1U))
1023:Drivers/STM32F4xx_HAL_Driver/Src/stm32f4xx_hal_pcd.c ****   {
1024:Drivers/STM32F4xx_HAL_Driver/Src/stm32f4xx_hal_pcd.c ****     /* Enable USB Transceiver */
1025:Drivers/STM32F4xx_HAL_Driver/Src/stm32f4xx_hal_pcd.c ****     USBx->GCCFG |= USB_OTG_GCCFG_PWRDWN;
1026:Drivers/STM32F4xx_HAL_Driver/Src/stm32f4xx_hal_pcd.c ****   }
1027:Drivers/STM32F4xx_HAL_Driver/Src/stm32f4xx_hal_pcd.c **** 
1028:Drivers/STM32F4xx_HAL_Driver/Src/stm32f4xx_hal_pcd.c ****   __HAL_PCD_ENABLE(hpcd);
 1099              		.loc 1 1028 3 is_stmt 1 view .LVU553
 1100 0020 FFF7FEFF 		bl	USB_EnableGlobalInt
 1101              	.LVL57:
1029:Drivers/STM32F4xx_HAL_Driver/Src/stm32f4xx_hal_pcd.c ****   (void)USB_DevConnect(hpcd->Instance);
 1102              		.loc 1 1029 3 view .LVU554
 1103              		.loc 1 1029 9 is_stmt 0 view .LVU555
 1104 0024 2068     		ldr	r0, [r4]
 1105 0026 FFF7FEFF 		bl	USB_DevConnect
 1106              	.LVL58:
1030:Drivers/STM32F4xx_HAL_Driver/Src/stm32f4xx_hal_pcd.c ****   __HAL_UNLOCK(hpcd);
 1107              		.loc 1 1030 3 is_stmt 1 view .LVU556
 1108              		.loc 1 1030 3 view .LVU557
 1109 002a 0023     		movs	r3, #0
 1110 002c 84F89434 		strb	r3, [r4, #1172]
 1111              		.loc 1 1030 3 view .LVU558
1031:Drivers/STM32F4xx_HAL_Driver/Src/stm32f4xx_hal_pcd.c **** 
1032:Drivers/STM32F4xx_HAL_Driver/Src/stm32f4xx_hal_pcd.c ****   return HAL_OK;
 1112              		.loc 1 1032 3 view .LVU559
 1113              		.loc 1 1032 10 is_stmt 0 view .LVU560
 1114 0030 1846     		mov	r0, r3
1033:Drivers/STM32F4xx_HAL_Driver/Src/stm32f4xx_hal_pcd.c **** }
 1115              		.loc 1 1033 1 view .LVU561
 1116 0032 10BD     		pop	{r4, pc}
 1117              	.LVL59:
ARM GAS  /tmp/ccDYdWST.s 			page 48


 1118              	.L125:
1025:Drivers/STM32F4xx_HAL_Driver/Src/stm32f4xx_hal_pcd.c ****   }
 1119              		.loc 1 1025 5 is_stmt 1 view .LVU562
1025:Drivers/STM32F4xx_HAL_Driver/Src/stm32f4xx_hal_pcd.c ****   }
 1120              		.loc 1 1025 9 is_stmt 0 view .LVU563
 1121 0034 836B     		ldr	r3, [r0, #56]
1025:Drivers/STM32F4xx_HAL_Driver/Src/stm32f4xx_hal_pcd.c ****   }
 1122              		.loc 1 1025 17 view .LVU564
 1123 0036 43F48033 		orr	r3, r3, #65536
 1124 003a 8363     		str	r3, [r0, #56]
 1125 003c F0E7     		b	.L119
 1126              	.L120:
1019:Drivers/STM32F4xx_HAL_Driver/Src/stm32f4xx_hal_pcd.c **** 
 1127              		.loc 1 1019 3 discriminator 1 view .LVU565
 1128 003e 0220     		movs	r0, #2
 1129              	.LVL60:
 1130              		.loc 1 1033 1 view .LVU566
 1131 0040 10BD     		pop	{r4, pc}
 1132              		.loc 1 1033 1 view .LVU567
 1133              		.cfi_endproc
 1134              	.LFE138:
 1136 0042 00BF     		.section	.text.HAL_PCD_Stop,"ax",%progbits
 1137              		.align	1
 1138              		.p2align 2,,3
 1139              		.global	HAL_PCD_Stop
 1140              		.syntax unified
 1141              		.thumb
 1142              		.thumb_func
 1144              	HAL_PCD_Stop:
 1145              	.LVL61:
 1146              	.LFB139:
1034:Drivers/STM32F4xx_HAL_Driver/Src/stm32f4xx_hal_pcd.c **** 
1035:Drivers/STM32F4xx_HAL_Driver/Src/stm32f4xx_hal_pcd.c **** /**
1036:Drivers/STM32F4xx_HAL_Driver/Src/stm32f4xx_hal_pcd.c ****   * @brief  Stop the USB device.
1037:Drivers/STM32F4xx_HAL_Driver/Src/stm32f4xx_hal_pcd.c ****   * @param  hpcd PCD handle
1038:Drivers/STM32F4xx_HAL_Driver/Src/stm32f4xx_hal_pcd.c ****   * @retval HAL status
1039:Drivers/STM32F4xx_HAL_Driver/Src/stm32f4xx_hal_pcd.c ****   */
1040:Drivers/STM32F4xx_HAL_Driver/Src/stm32f4xx_hal_pcd.c **** HAL_StatusTypeDef HAL_PCD_Stop(PCD_HandleTypeDef *hpcd)
1041:Drivers/STM32F4xx_HAL_Driver/Src/stm32f4xx_hal_pcd.c **** {
 1147              		.loc 1 1041 1 is_stmt 1 view -0
 1148              		.cfi_startproc
 1149              		@ args = 0, pretend = 0, frame = 0
 1150              		@ frame_needed = 0, uses_anonymous_args = 0
1042:Drivers/STM32F4xx_HAL_Driver/Src/stm32f4xx_hal_pcd.c ****   USB_OTG_GlobalTypeDef *USBx = hpcd->Instance;
 1151              		.loc 1 1042 3 view .LVU569
1043:Drivers/STM32F4xx_HAL_Driver/Src/stm32f4xx_hal_pcd.c **** 
1044:Drivers/STM32F4xx_HAL_Driver/Src/stm32f4xx_hal_pcd.c ****   __HAL_LOCK(hpcd);
 1152              		.loc 1 1044 3 view .LVU570
 1153              		.loc 1 1044 3 view .LVU571
1041:Drivers/STM32F4xx_HAL_Driver/Src/stm32f4xx_hal_pcd.c ****   USB_OTG_GlobalTypeDef *USBx = hpcd->Instance;
 1154              		.loc 1 1041 1 is_stmt 0 view .LVU572
 1155 0000 38B5     		push	{r3, r4, r5, lr}
 1156              	.LCFI8:
 1157              		.cfi_def_cfa_offset 16
 1158              		.cfi_offset 3, -16
 1159              		.cfi_offset 4, -12
 1160              		.cfi_offset 5, -8
ARM GAS  /tmp/ccDYdWST.s 			page 49


 1161              		.cfi_offset 14, -4
 1162              		.loc 1 1044 3 view .LVU573
 1163 0002 90F89434 		ldrb	r3, [r0, #1172]	@ zero_extendqisi2
 1164 0006 012B     		cmp	r3, #1
 1165 0008 18D0     		beq	.L129
1042:Drivers/STM32F4xx_HAL_Driver/Src/stm32f4xx_hal_pcd.c ****   USB_OTG_GlobalTypeDef *USBx = hpcd->Instance;
 1166              		.loc 1 1042 26 view .LVU574
 1167 000a 0568     		ldr	r5, [r0]
 1168              		.loc 1 1044 3 is_stmt 1 discriminator 2 view .LVU575
 1169 000c 0123     		movs	r3, #1
 1170 000e 0446     		mov	r4, r0
 1171 0010 80F89434 		strb	r3, [r0, #1172]
 1172              	.LVL62:
 1173              		.loc 1 1044 3 discriminator 2 view .LVU576
1045:Drivers/STM32F4xx_HAL_Driver/Src/stm32f4xx_hal_pcd.c ****   __HAL_PCD_DISABLE(hpcd);
 1174              		.loc 1 1045 3 view .LVU577
 1175 0014 2846     		mov	r0, r5
 1176              	.LVL63:
 1177              		.loc 1 1045 3 is_stmt 0 view .LVU578
 1178 0016 FFF7FEFF 		bl	USB_DisableGlobalInt
 1179              	.LVL64:
1046:Drivers/STM32F4xx_HAL_Driver/Src/stm32f4xx_hal_pcd.c ****   (void)USB_DevDisconnect(hpcd->Instance);
 1180              		.loc 1 1046 3 is_stmt 1 view .LVU579
 1181              		.loc 1 1046 9 is_stmt 0 view .LVU580
 1182 001a 2068     		ldr	r0, [r4]
 1183 001c FFF7FEFF 		bl	USB_DevDisconnect
 1184              	.LVL65:
1047:Drivers/STM32F4xx_HAL_Driver/Src/stm32f4xx_hal_pcd.c **** 
1048:Drivers/STM32F4xx_HAL_Driver/Src/stm32f4xx_hal_pcd.c ****   (void)USB_FlushTxFifo(hpcd->Instance, 0x10U);
 1185              		.loc 1 1048 3 is_stmt 1 view .LVU581
 1186              		.loc 1 1048 9 is_stmt 0 view .LVU582
 1187 0020 2068     		ldr	r0, [r4]
 1188 0022 1021     		movs	r1, #16
 1189 0024 FFF7FEFF 		bl	USB_FlushTxFifo
 1190              	.LVL66:
1049:Drivers/STM32F4xx_HAL_Driver/Src/stm32f4xx_hal_pcd.c **** 
1050:Drivers/STM32F4xx_HAL_Driver/Src/stm32f4xx_hal_pcd.c ****   if (((USBx->GUSBCFG & USB_OTG_GUSBCFG_PHYSEL) != 0U) &&
 1191              		.loc 1 1050 3 is_stmt 1 view .LVU583
 1192              		.loc 1 1050 13 is_stmt 0 view .LVU584
 1193 0028 EB68     		ldr	r3, [r5, #12]
 1194              		.loc 1 1050 6 view .LVU585
 1195 002a 5B06     		lsls	r3, r3, #25
 1196 002c 02D5     		bpl	.L128
 1197              		.loc 1 1050 56 discriminator 1 view .LVU586
 1198 002e 637B     		ldrb	r3, [r4, #13]	@ zero_extendqisi2
 1199 0030 012B     		cmp	r3, #1
 1200 0032 05D0     		beq	.L134
 1201              	.L128:
1051:Drivers/STM32F4xx_HAL_Driver/Src/stm32f4xx_hal_pcd.c ****       (hpcd->Init.battery_charging_enable == 1U))
1052:Drivers/STM32F4xx_HAL_Driver/Src/stm32f4xx_hal_pcd.c ****   {
1053:Drivers/STM32F4xx_HAL_Driver/Src/stm32f4xx_hal_pcd.c ****     /* Disable USB Transceiver */
1054:Drivers/STM32F4xx_HAL_Driver/Src/stm32f4xx_hal_pcd.c ****     USBx->GCCFG &= ~(USB_OTG_GCCFG_PWRDWN);
1055:Drivers/STM32F4xx_HAL_Driver/Src/stm32f4xx_hal_pcd.c ****   }
1056:Drivers/STM32F4xx_HAL_Driver/Src/stm32f4xx_hal_pcd.c **** 
1057:Drivers/STM32F4xx_HAL_Driver/Src/stm32f4xx_hal_pcd.c ****   __HAL_UNLOCK(hpcd);
 1202              		.loc 1 1057 3 is_stmt 1 view .LVU587
 1203              		.loc 1 1057 3 view .LVU588
ARM GAS  /tmp/ccDYdWST.s 			page 50


 1204 0034 0020     		movs	r0, #0
 1205 0036 84F89404 		strb	r0, [r4, #1172]
 1206              		.loc 1 1057 3 view .LVU589
1058:Drivers/STM32F4xx_HAL_Driver/Src/stm32f4xx_hal_pcd.c **** 
1059:Drivers/STM32F4xx_HAL_Driver/Src/stm32f4xx_hal_pcd.c ****   return HAL_OK;
 1207              		.loc 1 1059 3 view .LVU590
 1208              	.L127:
1060:Drivers/STM32F4xx_HAL_Driver/Src/stm32f4xx_hal_pcd.c **** }
 1209              		.loc 1 1060 1 is_stmt 0 view .LVU591
 1210 003a 38BD     		pop	{r3, r4, r5, pc}
 1211              	.LVL67:
 1212              	.L129:
1044:Drivers/STM32F4xx_HAL_Driver/Src/stm32f4xx_hal_pcd.c ****   __HAL_PCD_DISABLE(hpcd);
 1213              		.loc 1 1044 3 discriminator 1 view .LVU592
 1214 003c 0220     		movs	r0, #2
 1215              	.LVL68:
 1216              		.loc 1 1060 1 view .LVU593
 1217 003e 38BD     		pop	{r3, r4, r5, pc}
 1218              	.LVL69:
 1219              	.L134:
1054:Drivers/STM32F4xx_HAL_Driver/Src/stm32f4xx_hal_pcd.c ****   }
 1220              		.loc 1 1054 5 is_stmt 1 view .LVU594
1054:Drivers/STM32F4xx_HAL_Driver/Src/stm32f4xx_hal_pcd.c ****   }
 1221              		.loc 1 1054 9 is_stmt 0 view .LVU595
 1222 0040 AB6B     		ldr	r3, [r5, #56]
1057:Drivers/STM32F4xx_HAL_Driver/Src/stm32f4xx_hal_pcd.c **** 
 1223              		.loc 1 1057 3 view .LVU596
 1224 0042 0020     		movs	r0, #0
1054:Drivers/STM32F4xx_HAL_Driver/Src/stm32f4xx_hal_pcd.c ****   }
 1225              		.loc 1 1054 17 view .LVU597
 1226 0044 23F48033 		bic	r3, r3, #65536
 1227 0048 AB63     		str	r3, [r5, #56]
1057:Drivers/STM32F4xx_HAL_Driver/Src/stm32f4xx_hal_pcd.c **** 
 1228              		.loc 1 1057 3 is_stmt 1 view .LVU598
1057:Drivers/STM32F4xx_HAL_Driver/Src/stm32f4xx_hal_pcd.c **** 
 1229              		.loc 1 1057 3 view .LVU599
 1230 004a 84F89404 		strb	r0, [r4, #1172]
1057:Drivers/STM32F4xx_HAL_Driver/Src/stm32f4xx_hal_pcd.c **** 
 1231              		.loc 1 1057 3 view .LVU600
1059:Drivers/STM32F4xx_HAL_Driver/Src/stm32f4xx_hal_pcd.c **** }
 1232              		.loc 1 1059 3 view .LVU601
 1233 004e F4E7     		b	.L127
 1234              		.cfi_endproc
 1235              	.LFE139:
 1237              		.section	.text.HAL_PCD_WKUP_IRQHandler,"ax",%progbits
 1238              		.align	1
 1239              		.p2align 2,,3
 1240              		.global	HAL_PCD_WKUP_IRQHandler
 1241              		.syntax unified
 1242              		.thumb
 1243              		.thumb_func
 1245              	HAL_PCD_WKUP_IRQHandler:
 1246              	.LVL70:
 1247              	.LFB141:
1061:Drivers/STM32F4xx_HAL_Driver/Src/stm32f4xx_hal_pcd.c **** 
1062:Drivers/STM32F4xx_HAL_Driver/Src/stm32f4xx_hal_pcd.c **** #if defined (USB_OTG_FS) || defined (USB_OTG_HS)
1063:Drivers/STM32F4xx_HAL_Driver/Src/stm32f4xx_hal_pcd.c **** /**
ARM GAS  /tmp/ccDYdWST.s 			page 51


1064:Drivers/STM32F4xx_HAL_Driver/Src/stm32f4xx_hal_pcd.c ****   * @brief  Handles PCD interrupt request.
1065:Drivers/STM32F4xx_HAL_Driver/Src/stm32f4xx_hal_pcd.c ****   * @param  hpcd PCD handle
1066:Drivers/STM32F4xx_HAL_Driver/Src/stm32f4xx_hal_pcd.c ****   * @retval HAL status
1067:Drivers/STM32F4xx_HAL_Driver/Src/stm32f4xx_hal_pcd.c ****   */
1068:Drivers/STM32F4xx_HAL_Driver/Src/stm32f4xx_hal_pcd.c **** void HAL_PCD_IRQHandler(PCD_HandleTypeDef *hpcd)
1069:Drivers/STM32F4xx_HAL_Driver/Src/stm32f4xx_hal_pcd.c **** {
1070:Drivers/STM32F4xx_HAL_Driver/Src/stm32f4xx_hal_pcd.c ****   USB_OTG_GlobalTypeDef *USBx = hpcd->Instance;
1071:Drivers/STM32F4xx_HAL_Driver/Src/stm32f4xx_hal_pcd.c ****   uint32_t USBx_BASE = (uint32_t)USBx;
1072:Drivers/STM32F4xx_HAL_Driver/Src/stm32f4xx_hal_pcd.c ****   USB_OTG_EPTypeDef *ep;
1073:Drivers/STM32F4xx_HAL_Driver/Src/stm32f4xx_hal_pcd.c ****   uint32_t i;
1074:Drivers/STM32F4xx_HAL_Driver/Src/stm32f4xx_hal_pcd.c ****   uint32_t ep_intr;
1075:Drivers/STM32F4xx_HAL_Driver/Src/stm32f4xx_hal_pcd.c ****   uint32_t epint;
1076:Drivers/STM32F4xx_HAL_Driver/Src/stm32f4xx_hal_pcd.c ****   uint32_t epnum;
1077:Drivers/STM32F4xx_HAL_Driver/Src/stm32f4xx_hal_pcd.c ****   uint32_t fifoemptymsk;
1078:Drivers/STM32F4xx_HAL_Driver/Src/stm32f4xx_hal_pcd.c ****   uint32_t RegVal;
1079:Drivers/STM32F4xx_HAL_Driver/Src/stm32f4xx_hal_pcd.c **** 
1080:Drivers/STM32F4xx_HAL_Driver/Src/stm32f4xx_hal_pcd.c ****   /* ensure that we are in device mode */
1081:Drivers/STM32F4xx_HAL_Driver/Src/stm32f4xx_hal_pcd.c ****   if (USB_GetMode(hpcd->Instance) == USB_OTG_MODE_DEVICE)
1082:Drivers/STM32F4xx_HAL_Driver/Src/stm32f4xx_hal_pcd.c ****   {
1083:Drivers/STM32F4xx_HAL_Driver/Src/stm32f4xx_hal_pcd.c ****     /* avoid spurious interrupt */
1084:Drivers/STM32F4xx_HAL_Driver/Src/stm32f4xx_hal_pcd.c ****     if (__HAL_PCD_IS_INVALID_INTERRUPT(hpcd))
1085:Drivers/STM32F4xx_HAL_Driver/Src/stm32f4xx_hal_pcd.c ****     {
1086:Drivers/STM32F4xx_HAL_Driver/Src/stm32f4xx_hal_pcd.c ****       return;
1087:Drivers/STM32F4xx_HAL_Driver/Src/stm32f4xx_hal_pcd.c ****     }
1088:Drivers/STM32F4xx_HAL_Driver/Src/stm32f4xx_hal_pcd.c **** 
1089:Drivers/STM32F4xx_HAL_Driver/Src/stm32f4xx_hal_pcd.c ****     /* store current frame number */
1090:Drivers/STM32F4xx_HAL_Driver/Src/stm32f4xx_hal_pcd.c ****     hpcd->FrameNumber = (USBx_DEVICE->DSTS & USB_OTG_DSTS_FNSOF_Msk) >> USB_OTG_DSTS_FNSOF_Pos;
1091:Drivers/STM32F4xx_HAL_Driver/Src/stm32f4xx_hal_pcd.c **** 
1092:Drivers/STM32F4xx_HAL_Driver/Src/stm32f4xx_hal_pcd.c ****     if (__HAL_PCD_GET_FLAG(hpcd, USB_OTG_GINTSTS_MMIS))
1093:Drivers/STM32F4xx_HAL_Driver/Src/stm32f4xx_hal_pcd.c ****     {
1094:Drivers/STM32F4xx_HAL_Driver/Src/stm32f4xx_hal_pcd.c ****       /* incorrect mode, acknowledge the interrupt */
1095:Drivers/STM32F4xx_HAL_Driver/Src/stm32f4xx_hal_pcd.c ****       __HAL_PCD_CLEAR_FLAG(hpcd, USB_OTG_GINTSTS_MMIS);
1096:Drivers/STM32F4xx_HAL_Driver/Src/stm32f4xx_hal_pcd.c ****     }
1097:Drivers/STM32F4xx_HAL_Driver/Src/stm32f4xx_hal_pcd.c **** 
1098:Drivers/STM32F4xx_HAL_Driver/Src/stm32f4xx_hal_pcd.c ****     /* Handle RxQLevel Interrupt */
1099:Drivers/STM32F4xx_HAL_Driver/Src/stm32f4xx_hal_pcd.c ****     if (__HAL_PCD_GET_FLAG(hpcd, USB_OTG_GINTSTS_RXFLVL))
1100:Drivers/STM32F4xx_HAL_Driver/Src/stm32f4xx_hal_pcd.c ****     {
1101:Drivers/STM32F4xx_HAL_Driver/Src/stm32f4xx_hal_pcd.c ****       USB_MASK_INTERRUPT(hpcd->Instance, USB_OTG_GINTSTS_RXFLVL);
1102:Drivers/STM32F4xx_HAL_Driver/Src/stm32f4xx_hal_pcd.c **** 
1103:Drivers/STM32F4xx_HAL_Driver/Src/stm32f4xx_hal_pcd.c ****       RegVal = USBx->GRXSTSP;
1104:Drivers/STM32F4xx_HAL_Driver/Src/stm32f4xx_hal_pcd.c **** 
1105:Drivers/STM32F4xx_HAL_Driver/Src/stm32f4xx_hal_pcd.c ****       ep = &hpcd->OUT_ep[RegVal & USB_OTG_GRXSTSP_EPNUM];
1106:Drivers/STM32F4xx_HAL_Driver/Src/stm32f4xx_hal_pcd.c **** 
1107:Drivers/STM32F4xx_HAL_Driver/Src/stm32f4xx_hal_pcd.c ****       if (((RegVal & USB_OTG_GRXSTSP_PKTSTS) >> 17) ==  STS_DATA_UPDT)
1108:Drivers/STM32F4xx_HAL_Driver/Src/stm32f4xx_hal_pcd.c ****       {
1109:Drivers/STM32F4xx_HAL_Driver/Src/stm32f4xx_hal_pcd.c ****         if ((RegVal & USB_OTG_GRXSTSP_BCNT) != 0U)
1110:Drivers/STM32F4xx_HAL_Driver/Src/stm32f4xx_hal_pcd.c ****         {
1111:Drivers/STM32F4xx_HAL_Driver/Src/stm32f4xx_hal_pcd.c ****           (void)USB_ReadPacket(USBx, ep->xfer_buff,
1112:Drivers/STM32F4xx_HAL_Driver/Src/stm32f4xx_hal_pcd.c ****                                (uint16_t)((RegVal & USB_OTG_GRXSTSP_BCNT) >> 4));
1113:Drivers/STM32F4xx_HAL_Driver/Src/stm32f4xx_hal_pcd.c **** 
1114:Drivers/STM32F4xx_HAL_Driver/Src/stm32f4xx_hal_pcd.c ****           ep->xfer_buff += (RegVal & USB_OTG_GRXSTSP_BCNT) >> 4;
1115:Drivers/STM32F4xx_HAL_Driver/Src/stm32f4xx_hal_pcd.c ****           ep->xfer_count += (RegVal & USB_OTG_GRXSTSP_BCNT) >> 4;
1116:Drivers/STM32F4xx_HAL_Driver/Src/stm32f4xx_hal_pcd.c ****         }
1117:Drivers/STM32F4xx_HAL_Driver/Src/stm32f4xx_hal_pcd.c ****       }
1118:Drivers/STM32F4xx_HAL_Driver/Src/stm32f4xx_hal_pcd.c ****       else if (((RegVal & USB_OTG_GRXSTSP_PKTSTS) >> 17) == STS_SETUP_UPDT)
1119:Drivers/STM32F4xx_HAL_Driver/Src/stm32f4xx_hal_pcd.c ****       {
1120:Drivers/STM32F4xx_HAL_Driver/Src/stm32f4xx_hal_pcd.c ****         (void)USB_ReadPacket(USBx, (uint8_t *)hpcd->Setup, 8U);
ARM GAS  /tmp/ccDYdWST.s 			page 52


1121:Drivers/STM32F4xx_HAL_Driver/Src/stm32f4xx_hal_pcd.c ****         ep->xfer_count += (RegVal & USB_OTG_GRXSTSP_BCNT) >> 4;
1122:Drivers/STM32F4xx_HAL_Driver/Src/stm32f4xx_hal_pcd.c ****       }
1123:Drivers/STM32F4xx_HAL_Driver/Src/stm32f4xx_hal_pcd.c ****       else
1124:Drivers/STM32F4xx_HAL_Driver/Src/stm32f4xx_hal_pcd.c ****       {
1125:Drivers/STM32F4xx_HAL_Driver/Src/stm32f4xx_hal_pcd.c ****         /* ... */
1126:Drivers/STM32F4xx_HAL_Driver/Src/stm32f4xx_hal_pcd.c ****       }
1127:Drivers/STM32F4xx_HAL_Driver/Src/stm32f4xx_hal_pcd.c **** 
1128:Drivers/STM32F4xx_HAL_Driver/Src/stm32f4xx_hal_pcd.c ****       USB_UNMASK_INTERRUPT(hpcd->Instance, USB_OTG_GINTSTS_RXFLVL);
1129:Drivers/STM32F4xx_HAL_Driver/Src/stm32f4xx_hal_pcd.c ****     }
1130:Drivers/STM32F4xx_HAL_Driver/Src/stm32f4xx_hal_pcd.c **** 
1131:Drivers/STM32F4xx_HAL_Driver/Src/stm32f4xx_hal_pcd.c ****     if (__HAL_PCD_GET_FLAG(hpcd, USB_OTG_GINTSTS_OEPINT))
1132:Drivers/STM32F4xx_HAL_Driver/Src/stm32f4xx_hal_pcd.c ****     {
1133:Drivers/STM32F4xx_HAL_Driver/Src/stm32f4xx_hal_pcd.c ****       epnum = 0U;
1134:Drivers/STM32F4xx_HAL_Driver/Src/stm32f4xx_hal_pcd.c **** 
1135:Drivers/STM32F4xx_HAL_Driver/Src/stm32f4xx_hal_pcd.c ****       /* Read in the device interrupt bits */
1136:Drivers/STM32F4xx_HAL_Driver/Src/stm32f4xx_hal_pcd.c ****       ep_intr = USB_ReadDevAllOutEpInterrupt(hpcd->Instance);
1137:Drivers/STM32F4xx_HAL_Driver/Src/stm32f4xx_hal_pcd.c **** 
1138:Drivers/STM32F4xx_HAL_Driver/Src/stm32f4xx_hal_pcd.c ****       while (ep_intr != 0U)
1139:Drivers/STM32F4xx_HAL_Driver/Src/stm32f4xx_hal_pcd.c ****       {
1140:Drivers/STM32F4xx_HAL_Driver/Src/stm32f4xx_hal_pcd.c ****         if ((ep_intr & 0x1U) != 0U)
1141:Drivers/STM32F4xx_HAL_Driver/Src/stm32f4xx_hal_pcd.c ****         {
1142:Drivers/STM32F4xx_HAL_Driver/Src/stm32f4xx_hal_pcd.c ****           epint = USB_ReadDevOutEPInterrupt(hpcd->Instance, (uint8_t)epnum);
1143:Drivers/STM32F4xx_HAL_Driver/Src/stm32f4xx_hal_pcd.c **** 
1144:Drivers/STM32F4xx_HAL_Driver/Src/stm32f4xx_hal_pcd.c ****           if ((epint & USB_OTG_DOEPINT_XFRC) == USB_OTG_DOEPINT_XFRC)
1145:Drivers/STM32F4xx_HAL_Driver/Src/stm32f4xx_hal_pcd.c ****           {
1146:Drivers/STM32F4xx_HAL_Driver/Src/stm32f4xx_hal_pcd.c ****             CLEAR_OUT_EP_INTR(epnum, USB_OTG_DOEPINT_XFRC);
1147:Drivers/STM32F4xx_HAL_Driver/Src/stm32f4xx_hal_pcd.c ****             (void)PCD_EP_OutXfrComplete_int(hpcd, epnum);
1148:Drivers/STM32F4xx_HAL_Driver/Src/stm32f4xx_hal_pcd.c ****           }
1149:Drivers/STM32F4xx_HAL_Driver/Src/stm32f4xx_hal_pcd.c **** 
1150:Drivers/STM32F4xx_HAL_Driver/Src/stm32f4xx_hal_pcd.c ****           if ((epint & USB_OTG_DOEPINT_STUP) == USB_OTG_DOEPINT_STUP)
1151:Drivers/STM32F4xx_HAL_Driver/Src/stm32f4xx_hal_pcd.c ****           {
1152:Drivers/STM32F4xx_HAL_Driver/Src/stm32f4xx_hal_pcd.c ****             CLEAR_OUT_EP_INTR(epnum, USB_OTG_DOEPINT_STUP);
1153:Drivers/STM32F4xx_HAL_Driver/Src/stm32f4xx_hal_pcd.c ****             /* Class B setup phase done for previous decoded setup */
1154:Drivers/STM32F4xx_HAL_Driver/Src/stm32f4xx_hal_pcd.c ****             (void)PCD_EP_OutSetupPacket_int(hpcd, epnum);
1155:Drivers/STM32F4xx_HAL_Driver/Src/stm32f4xx_hal_pcd.c ****           }
1156:Drivers/STM32F4xx_HAL_Driver/Src/stm32f4xx_hal_pcd.c **** 
1157:Drivers/STM32F4xx_HAL_Driver/Src/stm32f4xx_hal_pcd.c ****           if ((epint & USB_OTG_DOEPINT_OTEPDIS) == USB_OTG_DOEPINT_OTEPDIS)
1158:Drivers/STM32F4xx_HAL_Driver/Src/stm32f4xx_hal_pcd.c ****           {
1159:Drivers/STM32F4xx_HAL_Driver/Src/stm32f4xx_hal_pcd.c ****             CLEAR_OUT_EP_INTR(epnum, USB_OTG_DOEPINT_OTEPDIS);
1160:Drivers/STM32F4xx_HAL_Driver/Src/stm32f4xx_hal_pcd.c ****           }
1161:Drivers/STM32F4xx_HAL_Driver/Src/stm32f4xx_hal_pcd.c **** 
1162:Drivers/STM32F4xx_HAL_Driver/Src/stm32f4xx_hal_pcd.c ****           /* Clear OUT Endpoint disable interrupt */
1163:Drivers/STM32F4xx_HAL_Driver/Src/stm32f4xx_hal_pcd.c ****           if ((epint & USB_OTG_DOEPINT_EPDISD) == USB_OTG_DOEPINT_EPDISD)
1164:Drivers/STM32F4xx_HAL_Driver/Src/stm32f4xx_hal_pcd.c ****           {
1165:Drivers/STM32F4xx_HAL_Driver/Src/stm32f4xx_hal_pcd.c ****             if ((USBx->GINTSTS & USB_OTG_GINTSTS_BOUTNAKEFF) == USB_OTG_GINTSTS_BOUTNAKEFF)
1166:Drivers/STM32F4xx_HAL_Driver/Src/stm32f4xx_hal_pcd.c ****             {
1167:Drivers/STM32F4xx_HAL_Driver/Src/stm32f4xx_hal_pcd.c ****               USBx_DEVICE->DCTL |= USB_OTG_DCTL_CGONAK;
1168:Drivers/STM32F4xx_HAL_Driver/Src/stm32f4xx_hal_pcd.c ****             }
1169:Drivers/STM32F4xx_HAL_Driver/Src/stm32f4xx_hal_pcd.c **** 
1170:Drivers/STM32F4xx_HAL_Driver/Src/stm32f4xx_hal_pcd.c ****             ep = &hpcd->OUT_ep[epnum];
1171:Drivers/STM32F4xx_HAL_Driver/Src/stm32f4xx_hal_pcd.c **** 
1172:Drivers/STM32F4xx_HAL_Driver/Src/stm32f4xx_hal_pcd.c ****             if (ep->is_iso_incomplete == 1U)
1173:Drivers/STM32F4xx_HAL_Driver/Src/stm32f4xx_hal_pcd.c ****             {
1174:Drivers/STM32F4xx_HAL_Driver/Src/stm32f4xx_hal_pcd.c ****               ep->is_iso_incomplete = 0U;
1175:Drivers/STM32F4xx_HAL_Driver/Src/stm32f4xx_hal_pcd.c **** 
1176:Drivers/STM32F4xx_HAL_Driver/Src/stm32f4xx_hal_pcd.c **** #if (USE_HAL_PCD_REGISTER_CALLBACKS == 1U)
1177:Drivers/STM32F4xx_HAL_Driver/Src/stm32f4xx_hal_pcd.c ****               hpcd->ISOOUTIncompleteCallback(hpcd, (uint8_t)epnum);
ARM GAS  /tmp/ccDYdWST.s 			page 53


1178:Drivers/STM32F4xx_HAL_Driver/Src/stm32f4xx_hal_pcd.c **** #else
1179:Drivers/STM32F4xx_HAL_Driver/Src/stm32f4xx_hal_pcd.c ****               HAL_PCD_ISOOUTIncompleteCallback(hpcd, (uint8_t)epnum);
1180:Drivers/STM32F4xx_HAL_Driver/Src/stm32f4xx_hal_pcd.c **** #endif /* USE_HAL_PCD_REGISTER_CALLBACKS */
1181:Drivers/STM32F4xx_HAL_Driver/Src/stm32f4xx_hal_pcd.c ****             }
1182:Drivers/STM32F4xx_HAL_Driver/Src/stm32f4xx_hal_pcd.c **** 
1183:Drivers/STM32F4xx_HAL_Driver/Src/stm32f4xx_hal_pcd.c ****             CLEAR_OUT_EP_INTR(epnum, USB_OTG_DOEPINT_EPDISD);
1184:Drivers/STM32F4xx_HAL_Driver/Src/stm32f4xx_hal_pcd.c ****           }
1185:Drivers/STM32F4xx_HAL_Driver/Src/stm32f4xx_hal_pcd.c **** 
1186:Drivers/STM32F4xx_HAL_Driver/Src/stm32f4xx_hal_pcd.c ****           /* Clear Status Phase Received interrupt */
1187:Drivers/STM32F4xx_HAL_Driver/Src/stm32f4xx_hal_pcd.c ****           if ((epint & USB_OTG_DOEPINT_OTEPSPR) == USB_OTG_DOEPINT_OTEPSPR)
1188:Drivers/STM32F4xx_HAL_Driver/Src/stm32f4xx_hal_pcd.c ****           {
1189:Drivers/STM32F4xx_HAL_Driver/Src/stm32f4xx_hal_pcd.c ****             CLEAR_OUT_EP_INTR(epnum, USB_OTG_DOEPINT_OTEPSPR);
1190:Drivers/STM32F4xx_HAL_Driver/Src/stm32f4xx_hal_pcd.c ****           }
1191:Drivers/STM32F4xx_HAL_Driver/Src/stm32f4xx_hal_pcd.c **** 
1192:Drivers/STM32F4xx_HAL_Driver/Src/stm32f4xx_hal_pcd.c ****           /* Clear OUT NAK interrupt */
1193:Drivers/STM32F4xx_HAL_Driver/Src/stm32f4xx_hal_pcd.c ****           if ((epint & USB_OTG_DOEPINT_NAK) == USB_OTG_DOEPINT_NAK)
1194:Drivers/STM32F4xx_HAL_Driver/Src/stm32f4xx_hal_pcd.c ****           {
1195:Drivers/STM32F4xx_HAL_Driver/Src/stm32f4xx_hal_pcd.c ****             CLEAR_OUT_EP_INTR(epnum, USB_OTG_DOEPINT_NAK);
1196:Drivers/STM32F4xx_HAL_Driver/Src/stm32f4xx_hal_pcd.c ****           }
1197:Drivers/STM32F4xx_HAL_Driver/Src/stm32f4xx_hal_pcd.c ****         }
1198:Drivers/STM32F4xx_HAL_Driver/Src/stm32f4xx_hal_pcd.c ****         epnum++;
1199:Drivers/STM32F4xx_HAL_Driver/Src/stm32f4xx_hal_pcd.c ****         ep_intr >>= 1U;
1200:Drivers/STM32F4xx_HAL_Driver/Src/stm32f4xx_hal_pcd.c ****       }
1201:Drivers/STM32F4xx_HAL_Driver/Src/stm32f4xx_hal_pcd.c ****     }
1202:Drivers/STM32F4xx_HAL_Driver/Src/stm32f4xx_hal_pcd.c **** 
1203:Drivers/STM32F4xx_HAL_Driver/Src/stm32f4xx_hal_pcd.c ****     if (__HAL_PCD_GET_FLAG(hpcd, USB_OTG_GINTSTS_IEPINT))
1204:Drivers/STM32F4xx_HAL_Driver/Src/stm32f4xx_hal_pcd.c ****     {
1205:Drivers/STM32F4xx_HAL_Driver/Src/stm32f4xx_hal_pcd.c ****       /* Read in the device interrupt bits */
1206:Drivers/STM32F4xx_HAL_Driver/Src/stm32f4xx_hal_pcd.c ****       ep_intr = USB_ReadDevAllInEpInterrupt(hpcd->Instance);
1207:Drivers/STM32F4xx_HAL_Driver/Src/stm32f4xx_hal_pcd.c **** 
1208:Drivers/STM32F4xx_HAL_Driver/Src/stm32f4xx_hal_pcd.c ****       epnum = 0U;
1209:Drivers/STM32F4xx_HAL_Driver/Src/stm32f4xx_hal_pcd.c **** 
1210:Drivers/STM32F4xx_HAL_Driver/Src/stm32f4xx_hal_pcd.c ****       while (ep_intr != 0U)
1211:Drivers/STM32F4xx_HAL_Driver/Src/stm32f4xx_hal_pcd.c ****       {
1212:Drivers/STM32F4xx_HAL_Driver/Src/stm32f4xx_hal_pcd.c ****         if ((ep_intr & 0x1U) != 0U) /* In ITR */
1213:Drivers/STM32F4xx_HAL_Driver/Src/stm32f4xx_hal_pcd.c ****         {
1214:Drivers/STM32F4xx_HAL_Driver/Src/stm32f4xx_hal_pcd.c ****           epint = USB_ReadDevInEPInterrupt(hpcd->Instance, (uint8_t)epnum);
1215:Drivers/STM32F4xx_HAL_Driver/Src/stm32f4xx_hal_pcd.c **** 
1216:Drivers/STM32F4xx_HAL_Driver/Src/stm32f4xx_hal_pcd.c ****           if ((epint & USB_OTG_DIEPINT_XFRC) == USB_OTG_DIEPINT_XFRC)
1217:Drivers/STM32F4xx_HAL_Driver/Src/stm32f4xx_hal_pcd.c ****           {
1218:Drivers/STM32F4xx_HAL_Driver/Src/stm32f4xx_hal_pcd.c ****             fifoemptymsk = (uint32_t)(0x1UL << (epnum & EP_ADDR_MSK));
1219:Drivers/STM32F4xx_HAL_Driver/Src/stm32f4xx_hal_pcd.c ****             USBx_DEVICE->DIEPEMPMSK &= ~fifoemptymsk;
1220:Drivers/STM32F4xx_HAL_Driver/Src/stm32f4xx_hal_pcd.c **** 
1221:Drivers/STM32F4xx_HAL_Driver/Src/stm32f4xx_hal_pcd.c ****             CLEAR_IN_EP_INTR(epnum, USB_OTG_DIEPINT_XFRC);
1222:Drivers/STM32F4xx_HAL_Driver/Src/stm32f4xx_hal_pcd.c **** 
1223:Drivers/STM32F4xx_HAL_Driver/Src/stm32f4xx_hal_pcd.c ****             if (hpcd->Init.dma_enable == 1U)
1224:Drivers/STM32F4xx_HAL_Driver/Src/stm32f4xx_hal_pcd.c ****             {
1225:Drivers/STM32F4xx_HAL_Driver/Src/stm32f4xx_hal_pcd.c ****               hpcd->IN_ep[epnum].xfer_buff += hpcd->IN_ep[epnum].maxpacket;
1226:Drivers/STM32F4xx_HAL_Driver/Src/stm32f4xx_hal_pcd.c **** 
1227:Drivers/STM32F4xx_HAL_Driver/Src/stm32f4xx_hal_pcd.c ****               /* this is ZLP, so prepare EP0 for next setup */
1228:Drivers/STM32F4xx_HAL_Driver/Src/stm32f4xx_hal_pcd.c ****               if ((epnum == 0U) && (hpcd->IN_ep[epnum].xfer_len == 0U))
1229:Drivers/STM32F4xx_HAL_Driver/Src/stm32f4xx_hal_pcd.c ****               {
1230:Drivers/STM32F4xx_HAL_Driver/Src/stm32f4xx_hal_pcd.c ****                 /* prepare to rx more setup packets */
1231:Drivers/STM32F4xx_HAL_Driver/Src/stm32f4xx_hal_pcd.c ****                 (void)USB_EP0_OutStart(hpcd->Instance, 1U, (uint8_t *)hpcd->Setup);
1232:Drivers/STM32F4xx_HAL_Driver/Src/stm32f4xx_hal_pcd.c ****               }
1233:Drivers/STM32F4xx_HAL_Driver/Src/stm32f4xx_hal_pcd.c ****             }
1234:Drivers/STM32F4xx_HAL_Driver/Src/stm32f4xx_hal_pcd.c **** 
ARM GAS  /tmp/ccDYdWST.s 			page 54


1235:Drivers/STM32F4xx_HAL_Driver/Src/stm32f4xx_hal_pcd.c **** #if (USE_HAL_PCD_REGISTER_CALLBACKS == 1U)
1236:Drivers/STM32F4xx_HAL_Driver/Src/stm32f4xx_hal_pcd.c ****             hpcd->DataInStageCallback(hpcd, (uint8_t)epnum);
1237:Drivers/STM32F4xx_HAL_Driver/Src/stm32f4xx_hal_pcd.c **** #else
1238:Drivers/STM32F4xx_HAL_Driver/Src/stm32f4xx_hal_pcd.c ****             HAL_PCD_DataInStageCallback(hpcd, (uint8_t)epnum);
1239:Drivers/STM32F4xx_HAL_Driver/Src/stm32f4xx_hal_pcd.c **** #endif /* USE_HAL_PCD_REGISTER_CALLBACKS */
1240:Drivers/STM32F4xx_HAL_Driver/Src/stm32f4xx_hal_pcd.c ****           }
1241:Drivers/STM32F4xx_HAL_Driver/Src/stm32f4xx_hal_pcd.c ****           if ((epint & USB_OTG_DIEPINT_TOC) == USB_OTG_DIEPINT_TOC)
1242:Drivers/STM32F4xx_HAL_Driver/Src/stm32f4xx_hal_pcd.c ****           {
1243:Drivers/STM32F4xx_HAL_Driver/Src/stm32f4xx_hal_pcd.c ****             CLEAR_IN_EP_INTR(epnum, USB_OTG_DIEPINT_TOC);
1244:Drivers/STM32F4xx_HAL_Driver/Src/stm32f4xx_hal_pcd.c ****           }
1245:Drivers/STM32F4xx_HAL_Driver/Src/stm32f4xx_hal_pcd.c ****           if ((epint & USB_OTG_DIEPINT_ITTXFE) == USB_OTG_DIEPINT_ITTXFE)
1246:Drivers/STM32F4xx_HAL_Driver/Src/stm32f4xx_hal_pcd.c ****           {
1247:Drivers/STM32F4xx_HAL_Driver/Src/stm32f4xx_hal_pcd.c ****             CLEAR_IN_EP_INTR(epnum, USB_OTG_DIEPINT_ITTXFE);
1248:Drivers/STM32F4xx_HAL_Driver/Src/stm32f4xx_hal_pcd.c ****           }
1249:Drivers/STM32F4xx_HAL_Driver/Src/stm32f4xx_hal_pcd.c ****           if ((epint & USB_OTG_DIEPINT_INEPNE) == USB_OTG_DIEPINT_INEPNE)
1250:Drivers/STM32F4xx_HAL_Driver/Src/stm32f4xx_hal_pcd.c ****           {
1251:Drivers/STM32F4xx_HAL_Driver/Src/stm32f4xx_hal_pcd.c ****             CLEAR_IN_EP_INTR(epnum, USB_OTG_DIEPINT_INEPNE);
1252:Drivers/STM32F4xx_HAL_Driver/Src/stm32f4xx_hal_pcd.c ****           }
1253:Drivers/STM32F4xx_HAL_Driver/Src/stm32f4xx_hal_pcd.c ****           if ((epint & USB_OTG_DIEPINT_EPDISD) == USB_OTG_DIEPINT_EPDISD)
1254:Drivers/STM32F4xx_HAL_Driver/Src/stm32f4xx_hal_pcd.c ****           {
1255:Drivers/STM32F4xx_HAL_Driver/Src/stm32f4xx_hal_pcd.c ****             (void)USB_FlushTxFifo(USBx, epnum);
1256:Drivers/STM32F4xx_HAL_Driver/Src/stm32f4xx_hal_pcd.c **** 
1257:Drivers/STM32F4xx_HAL_Driver/Src/stm32f4xx_hal_pcd.c ****             ep = &hpcd->IN_ep[epnum];
1258:Drivers/STM32F4xx_HAL_Driver/Src/stm32f4xx_hal_pcd.c **** 
1259:Drivers/STM32F4xx_HAL_Driver/Src/stm32f4xx_hal_pcd.c ****             if (ep->is_iso_incomplete == 1U)
1260:Drivers/STM32F4xx_HAL_Driver/Src/stm32f4xx_hal_pcd.c ****             {
1261:Drivers/STM32F4xx_HAL_Driver/Src/stm32f4xx_hal_pcd.c ****               ep->is_iso_incomplete = 0U;
1262:Drivers/STM32F4xx_HAL_Driver/Src/stm32f4xx_hal_pcd.c **** 
1263:Drivers/STM32F4xx_HAL_Driver/Src/stm32f4xx_hal_pcd.c **** #if (USE_HAL_PCD_REGISTER_CALLBACKS == 1U)
1264:Drivers/STM32F4xx_HAL_Driver/Src/stm32f4xx_hal_pcd.c ****               hpcd->ISOINIncompleteCallback(hpcd, (uint8_t)epnum);
1265:Drivers/STM32F4xx_HAL_Driver/Src/stm32f4xx_hal_pcd.c **** #else
1266:Drivers/STM32F4xx_HAL_Driver/Src/stm32f4xx_hal_pcd.c ****               HAL_PCD_ISOINIncompleteCallback(hpcd, (uint8_t)epnum);
1267:Drivers/STM32F4xx_HAL_Driver/Src/stm32f4xx_hal_pcd.c **** #endif /* USE_HAL_PCD_REGISTER_CALLBACKS */
1268:Drivers/STM32F4xx_HAL_Driver/Src/stm32f4xx_hal_pcd.c ****             }
1269:Drivers/STM32F4xx_HAL_Driver/Src/stm32f4xx_hal_pcd.c **** 
1270:Drivers/STM32F4xx_HAL_Driver/Src/stm32f4xx_hal_pcd.c ****             CLEAR_IN_EP_INTR(epnum, USB_OTG_DIEPINT_EPDISD);
1271:Drivers/STM32F4xx_HAL_Driver/Src/stm32f4xx_hal_pcd.c ****           }
1272:Drivers/STM32F4xx_HAL_Driver/Src/stm32f4xx_hal_pcd.c ****           if ((epint & USB_OTG_DIEPINT_TXFE) == USB_OTG_DIEPINT_TXFE)
1273:Drivers/STM32F4xx_HAL_Driver/Src/stm32f4xx_hal_pcd.c ****           {
1274:Drivers/STM32F4xx_HAL_Driver/Src/stm32f4xx_hal_pcd.c ****             (void)PCD_WriteEmptyTxFifo(hpcd, epnum);
1275:Drivers/STM32F4xx_HAL_Driver/Src/stm32f4xx_hal_pcd.c ****           }
1276:Drivers/STM32F4xx_HAL_Driver/Src/stm32f4xx_hal_pcd.c ****         }
1277:Drivers/STM32F4xx_HAL_Driver/Src/stm32f4xx_hal_pcd.c ****         epnum++;
1278:Drivers/STM32F4xx_HAL_Driver/Src/stm32f4xx_hal_pcd.c ****         ep_intr >>= 1U;
1279:Drivers/STM32F4xx_HAL_Driver/Src/stm32f4xx_hal_pcd.c ****       }
1280:Drivers/STM32F4xx_HAL_Driver/Src/stm32f4xx_hal_pcd.c ****     }
1281:Drivers/STM32F4xx_HAL_Driver/Src/stm32f4xx_hal_pcd.c **** 
1282:Drivers/STM32F4xx_HAL_Driver/Src/stm32f4xx_hal_pcd.c ****     /* Handle Resume Interrupt */
1283:Drivers/STM32F4xx_HAL_Driver/Src/stm32f4xx_hal_pcd.c ****     if (__HAL_PCD_GET_FLAG(hpcd, USB_OTG_GINTSTS_WKUINT))
1284:Drivers/STM32F4xx_HAL_Driver/Src/stm32f4xx_hal_pcd.c ****     {
1285:Drivers/STM32F4xx_HAL_Driver/Src/stm32f4xx_hal_pcd.c ****       /* Clear the Remote Wake-up Signaling */
1286:Drivers/STM32F4xx_HAL_Driver/Src/stm32f4xx_hal_pcd.c ****       USBx_DEVICE->DCTL &= ~USB_OTG_DCTL_RWUSIG;
1287:Drivers/STM32F4xx_HAL_Driver/Src/stm32f4xx_hal_pcd.c **** 
1288:Drivers/STM32F4xx_HAL_Driver/Src/stm32f4xx_hal_pcd.c ****       if (hpcd->LPM_State == LPM_L1)
1289:Drivers/STM32F4xx_HAL_Driver/Src/stm32f4xx_hal_pcd.c ****       {
1290:Drivers/STM32F4xx_HAL_Driver/Src/stm32f4xx_hal_pcd.c ****         hpcd->LPM_State = LPM_L0;
1291:Drivers/STM32F4xx_HAL_Driver/Src/stm32f4xx_hal_pcd.c **** 
ARM GAS  /tmp/ccDYdWST.s 			page 55


1292:Drivers/STM32F4xx_HAL_Driver/Src/stm32f4xx_hal_pcd.c **** #if (USE_HAL_PCD_REGISTER_CALLBACKS == 1U)
1293:Drivers/STM32F4xx_HAL_Driver/Src/stm32f4xx_hal_pcd.c ****         hpcd->LPMCallback(hpcd, PCD_LPM_L0_ACTIVE);
1294:Drivers/STM32F4xx_HAL_Driver/Src/stm32f4xx_hal_pcd.c **** #else
1295:Drivers/STM32F4xx_HAL_Driver/Src/stm32f4xx_hal_pcd.c ****         HAL_PCDEx_LPM_Callback(hpcd, PCD_LPM_L0_ACTIVE);
1296:Drivers/STM32F4xx_HAL_Driver/Src/stm32f4xx_hal_pcd.c **** #endif /* USE_HAL_PCD_REGISTER_CALLBACKS */
1297:Drivers/STM32F4xx_HAL_Driver/Src/stm32f4xx_hal_pcd.c ****       }
1298:Drivers/STM32F4xx_HAL_Driver/Src/stm32f4xx_hal_pcd.c ****       else
1299:Drivers/STM32F4xx_HAL_Driver/Src/stm32f4xx_hal_pcd.c ****       {
1300:Drivers/STM32F4xx_HAL_Driver/Src/stm32f4xx_hal_pcd.c **** #if (USE_HAL_PCD_REGISTER_CALLBACKS == 1U)
1301:Drivers/STM32F4xx_HAL_Driver/Src/stm32f4xx_hal_pcd.c ****         hpcd->ResumeCallback(hpcd);
1302:Drivers/STM32F4xx_HAL_Driver/Src/stm32f4xx_hal_pcd.c **** #else
1303:Drivers/STM32F4xx_HAL_Driver/Src/stm32f4xx_hal_pcd.c ****         HAL_PCD_ResumeCallback(hpcd);
1304:Drivers/STM32F4xx_HAL_Driver/Src/stm32f4xx_hal_pcd.c **** #endif /* USE_HAL_PCD_REGISTER_CALLBACKS */
1305:Drivers/STM32F4xx_HAL_Driver/Src/stm32f4xx_hal_pcd.c ****       }
1306:Drivers/STM32F4xx_HAL_Driver/Src/stm32f4xx_hal_pcd.c **** 
1307:Drivers/STM32F4xx_HAL_Driver/Src/stm32f4xx_hal_pcd.c ****       __HAL_PCD_CLEAR_FLAG(hpcd, USB_OTG_GINTSTS_WKUINT);
1308:Drivers/STM32F4xx_HAL_Driver/Src/stm32f4xx_hal_pcd.c ****     }
1309:Drivers/STM32F4xx_HAL_Driver/Src/stm32f4xx_hal_pcd.c **** 
1310:Drivers/STM32F4xx_HAL_Driver/Src/stm32f4xx_hal_pcd.c ****     /* Handle Suspend Interrupt */
1311:Drivers/STM32F4xx_HAL_Driver/Src/stm32f4xx_hal_pcd.c ****     if (__HAL_PCD_GET_FLAG(hpcd, USB_OTG_GINTSTS_USBSUSP))
1312:Drivers/STM32F4xx_HAL_Driver/Src/stm32f4xx_hal_pcd.c ****     {
1313:Drivers/STM32F4xx_HAL_Driver/Src/stm32f4xx_hal_pcd.c ****       if ((USBx_DEVICE->DSTS & USB_OTG_DSTS_SUSPSTS) == USB_OTG_DSTS_SUSPSTS)
1314:Drivers/STM32F4xx_HAL_Driver/Src/stm32f4xx_hal_pcd.c ****       {
1315:Drivers/STM32F4xx_HAL_Driver/Src/stm32f4xx_hal_pcd.c **** #if (USE_HAL_PCD_REGISTER_CALLBACKS == 1U)
1316:Drivers/STM32F4xx_HAL_Driver/Src/stm32f4xx_hal_pcd.c ****         hpcd->SuspendCallback(hpcd);
1317:Drivers/STM32F4xx_HAL_Driver/Src/stm32f4xx_hal_pcd.c **** #else
1318:Drivers/STM32F4xx_HAL_Driver/Src/stm32f4xx_hal_pcd.c ****         HAL_PCD_SuspendCallback(hpcd);
1319:Drivers/STM32F4xx_HAL_Driver/Src/stm32f4xx_hal_pcd.c **** #endif /* USE_HAL_PCD_REGISTER_CALLBACKS */
1320:Drivers/STM32F4xx_HAL_Driver/Src/stm32f4xx_hal_pcd.c ****       }
1321:Drivers/STM32F4xx_HAL_Driver/Src/stm32f4xx_hal_pcd.c ****       __HAL_PCD_CLEAR_FLAG(hpcd, USB_OTG_GINTSTS_USBSUSP);
1322:Drivers/STM32F4xx_HAL_Driver/Src/stm32f4xx_hal_pcd.c ****     }
1323:Drivers/STM32F4xx_HAL_Driver/Src/stm32f4xx_hal_pcd.c **** #if defined(STM32F446xx) || defined(STM32F469xx) || defined(STM32F479xx) || defined(STM32F412Zx) \
1324:Drivers/STM32F4xx_HAL_Driver/Src/stm32f4xx_hal_pcd.c ****  || defined(STM32F412Vx) || defined(STM32F412Rx) || defined(STM32F412Cx) || defined(STM32F413xx) \
1325:Drivers/STM32F4xx_HAL_Driver/Src/stm32f4xx_hal_pcd.c ****  || defined(STM32F423xx)
1326:Drivers/STM32F4xx_HAL_Driver/Src/stm32f4xx_hal_pcd.c ****     /* Handle LPM Interrupt */
1327:Drivers/STM32F4xx_HAL_Driver/Src/stm32f4xx_hal_pcd.c ****     if (__HAL_PCD_GET_FLAG(hpcd, USB_OTG_GINTSTS_LPMINT))
1328:Drivers/STM32F4xx_HAL_Driver/Src/stm32f4xx_hal_pcd.c ****     {
1329:Drivers/STM32F4xx_HAL_Driver/Src/stm32f4xx_hal_pcd.c ****       __HAL_PCD_CLEAR_FLAG(hpcd, USB_OTG_GINTSTS_LPMINT);
1330:Drivers/STM32F4xx_HAL_Driver/Src/stm32f4xx_hal_pcd.c **** 
1331:Drivers/STM32F4xx_HAL_Driver/Src/stm32f4xx_hal_pcd.c ****       if (hpcd->LPM_State == LPM_L0)
1332:Drivers/STM32F4xx_HAL_Driver/Src/stm32f4xx_hal_pcd.c ****       {
1333:Drivers/STM32F4xx_HAL_Driver/Src/stm32f4xx_hal_pcd.c ****         hpcd->LPM_State = LPM_L1;
1334:Drivers/STM32F4xx_HAL_Driver/Src/stm32f4xx_hal_pcd.c ****         hpcd->BESL = (hpcd->Instance->GLPMCFG & USB_OTG_GLPMCFG_BESL) >> 2U;
1335:Drivers/STM32F4xx_HAL_Driver/Src/stm32f4xx_hal_pcd.c **** 
1336:Drivers/STM32F4xx_HAL_Driver/Src/stm32f4xx_hal_pcd.c **** #if (USE_HAL_PCD_REGISTER_CALLBACKS == 1U)
1337:Drivers/STM32F4xx_HAL_Driver/Src/stm32f4xx_hal_pcd.c ****         hpcd->LPMCallback(hpcd, PCD_LPM_L1_ACTIVE);
1338:Drivers/STM32F4xx_HAL_Driver/Src/stm32f4xx_hal_pcd.c **** #else
1339:Drivers/STM32F4xx_HAL_Driver/Src/stm32f4xx_hal_pcd.c ****         HAL_PCDEx_LPM_Callback(hpcd, PCD_LPM_L1_ACTIVE);
1340:Drivers/STM32F4xx_HAL_Driver/Src/stm32f4xx_hal_pcd.c **** #endif /* USE_HAL_PCD_REGISTER_CALLBACKS */
1341:Drivers/STM32F4xx_HAL_Driver/Src/stm32f4xx_hal_pcd.c ****       }
1342:Drivers/STM32F4xx_HAL_Driver/Src/stm32f4xx_hal_pcd.c ****       else
1343:Drivers/STM32F4xx_HAL_Driver/Src/stm32f4xx_hal_pcd.c ****       {
1344:Drivers/STM32F4xx_HAL_Driver/Src/stm32f4xx_hal_pcd.c **** #if (USE_HAL_PCD_REGISTER_CALLBACKS == 1U)
1345:Drivers/STM32F4xx_HAL_Driver/Src/stm32f4xx_hal_pcd.c ****         hpcd->SuspendCallback(hpcd);
1346:Drivers/STM32F4xx_HAL_Driver/Src/stm32f4xx_hal_pcd.c **** #else
1347:Drivers/STM32F4xx_HAL_Driver/Src/stm32f4xx_hal_pcd.c ****         HAL_PCD_SuspendCallback(hpcd);
1348:Drivers/STM32F4xx_HAL_Driver/Src/stm32f4xx_hal_pcd.c **** #endif /* USE_HAL_PCD_REGISTER_CALLBACKS */
ARM GAS  /tmp/ccDYdWST.s 			page 56


1349:Drivers/STM32F4xx_HAL_Driver/Src/stm32f4xx_hal_pcd.c ****       }
1350:Drivers/STM32F4xx_HAL_Driver/Src/stm32f4xx_hal_pcd.c ****     }
1351:Drivers/STM32F4xx_HAL_Driver/Src/stm32f4xx_hal_pcd.c **** #endif /* defined(STM32F446xx) || defined(STM32F469xx) || defined(STM32F479xx) || defined(STM32F412
1352:Drivers/STM32F4xx_HAL_Driver/Src/stm32f4xx_hal_pcd.c ****           defined(STM32F412Vx) || defined(STM32F412Rx) || defined(STM32F412Cx) || defined(STM32F413
1353:Drivers/STM32F4xx_HAL_Driver/Src/stm32f4xx_hal_pcd.c ****           defined(STM32F423xx) */
1354:Drivers/STM32F4xx_HAL_Driver/Src/stm32f4xx_hal_pcd.c ****     /* Handle Reset Interrupt */
1355:Drivers/STM32F4xx_HAL_Driver/Src/stm32f4xx_hal_pcd.c ****     if (__HAL_PCD_GET_FLAG(hpcd, USB_OTG_GINTSTS_USBRST))
1356:Drivers/STM32F4xx_HAL_Driver/Src/stm32f4xx_hal_pcd.c ****     {
1357:Drivers/STM32F4xx_HAL_Driver/Src/stm32f4xx_hal_pcd.c ****       USBx_DEVICE->DCTL &= ~USB_OTG_DCTL_RWUSIG;
1358:Drivers/STM32F4xx_HAL_Driver/Src/stm32f4xx_hal_pcd.c ****       (void)USB_FlushTxFifo(hpcd->Instance, 0x10U);
1359:Drivers/STM32F4xx_HAL_Driver/Src/stm32f4xx_hal_pcd.c **** 
1360:Drivers/STM32F4xx_HAL_Driver/Src/stm32f4xx_hal_pcd.c ****       for (i = 0U; i < hpcd->Init.dev_endpoints; i++)
1361:Drivers/STM32F4xx_HAL_Driver/Src/stm32f4xx_hal_pcd.c ****       {
1362:Drivers/STM32F4xx_HAL_Driver/Src/stm32f4xx_hal_pcd.c ****         USBx_INEP(i)->DIEPINT = 0xFB7FU;
1363:Drivers/STM32F4xx_HAL_Driver/Src/stm32f4xx_hal_pcd.c ****         USBx_INEP(i)->DIEPCTL &= ~USB_OTG_DIEPCTL_STALL;
1364:Drivers/STM32F4xx_HAL_Driver/Src/stm32f4xx_hal_pcd.c ****         USBx_OUTEP(i)->DOEPINT = 0xFB7FU;
1365:Drivers/STM32F4xx_HAL_Driver/Src/stm32f4xx_hal_pcd.c ****         USBx_OUTEP(i)->DOEPCTL &= ~USB_OTG_DOEPCTL_STALL;
1366:Drivers/STM32F4xx_HAL_Driver/Src/stm32f4xx_hal_pcd.c ****         USBx_OUTEP(i)->DOEPCTL |= USB_OTG_DOEPCTL_SNAK;
1367:Drivers/STM32F4xx_HAL_Driver/Src/stm32f4xx_hal_pcd.c ****       }
1368:Drivers/STM32F4xx_HAL_Driver/Src/stm32f4xx_hal_pcd.c ****       USBx_DEVICE->DAINTMSK |= 0x10001U;
1369:Drivers/STM32F4xx_HAL_Driver/Src/stm32f4xx_hal_pcd.c **** 
1370:Drivers/STM32F4xx_HAL_Driver/Src/stm32f4xx_hal_pcd.c ****       if (hpcd->Init.use_dedicated_ep1 != 0U)
1371:Drivers/STM32F4xx_HAL_Driver/Src/stm32f4xx_hal_pcd.c ****       {
1372:Drivers/STM32F4xx_HAL_Driver/Src/stm32f4xx_hal_pcd.c ****         USBx_DEVICE->DOUTEP1MSK |= USB_OTG_DOEPMSK_STUPM |
1373:Drivers/STM32F4xx_HAL_Driver/Src/stm32f4xx_hal_pcd.c ****                                    USB_OTG_DOEPMSK_XFRCM |
1374:Drivers/STM32F4xx_HAL_Driver/Src/stm32f4xx_hal_pcd.c ****                                    USB_OTG_DOEPMSK_EPDM;
1375:Drivers/STM32F4xx_HAL_Driver/Src/stm32f4xx_hal_pcd.c **** 
1376:Drivers/STM32F4xx_HAL_Driver/Src/stm32f4xx_hal_pcd.c ****         USBx_DEVICE->DINEP1MSK |= USB_OTG_DIEPMSK_TOM |
1377:Drivers/STM32F4xx_HAL_Driver/Src/stm32f4xx_hal_pcd.c ****                                   USB_OTG_DIEPMSK_XFRCM |
1378:Drivers/STM32F4xx_HAL_Driver/Src/stm32f4xx_hal_pcd.c ****                                   USB_OTG_DIEPMSK_EPDM;
1379:Drivers/STM32F4xx_HAL_Driver/Src/stm32f4xx_hal_pcd.c ****       }
1380:Drivers/STM32F4xx_HAL_Driver/Src/stm32f4xx_hal_pcd.c ****       else
1381:Drivers/STM32F4xx_HAL_Driver/Src/stm32f4xx_hal_pcd.c ****       {
1382:Drivers/STM32F4xx_HAL_Driver/Src/stm32f4xx_hal_pcd.c ****         USBx_DEVICE->DOEPMSK |= USB_OTG_DOEPMSK_STUPM |
1383:Drivers/STM32F4xx_HAL_Driver/Src/stm32f4xx_hal_pcd.c ****                                 USB_OTG_DOEPMSK_XFRCM |
1384:Drivers/STM32F4xx_HAL_Driver/Src/stm32f4xx_hal_pcd.c ****                                 USB_OTG_DOEPMSK_EPDM |
1385:Drivers/STM32F4xx_HAL_Driver/Src/stm32f4xx_hal_pcd.c ****                                 USB_OTG_DOEPMSK_OTEPSPRM |
1386:Drivers/STM32F4xx_HAL_Driver/Src/stm32f4xx_hal_pcd.c ****                                 USB_OTG_DOEPMSK_NAKM;
1387:Drivers/STM32F4xx_HAL_Driver/Src/stm32f4xx_hal_pcd.c **** 
1388:Drivers/STM32F4xx_HAL_Driver/Src/stm32f4xx_hal_pcd.c ****         USBx_DEVICE->DIEPMSK |= USB_OTG_DIEPMSK_TOM |
1389:Drivers/STM32F4xx_HAL_Driver/Src/stm32f4xx_hal_pcd.c ****                                 USB_OTG_DIEPMSK_XFRCM |
1390:Drivers/STM32F4xx_HAL_Driver/Src/stm32f4xx_hal_pcd.c ****                                 USB_OTG_DIEPMSK_EPDM;
1391:Drivers/STM32F4xx_HAL_Driver/Src/stm32f4xx_hal_pcd.c ****       }
1392:Drivers/STM32F4xx_HAL_Driver/Src/stm32f4xx_hal_pcd.c **** 
1393:Drivers/STM32F4xx_HAL_Driver/Src/stm32f4xx_hal_pcd.c ****       /* Set Default Address to 0 */
1394:Drivers/STM32F4xx_HAL_Driver/Src/stm32f4xx_hal_pcd.c ****       USBx_DEVICE->DCFG &= ~USB_OTG_DCFG_DAD;
1395:Drivers/STM32F4xx_HAL_Driver/Src/stm32f4xx_hal_pcd.c **** 
1396:Drivers/STM32F4xx_HAL_Driver/Src/stm32f4xx_hal_pcd.c ****       /* setup EP0 to receive SETUP packets */
1397:Drivers/STM32F4xx_HAL_Driver/Src/stm32f4xx_hal_pcd.c ****       (void)USB_EP0_OutStart(hpcd->Instance, (uint8_t)hpcd->Init.dma_enable,
1398:Drivers/STM32F4xx_HAL_Driver/Src/stm32f4xx_hal_pcd.c ****                              (uint8_t *)hpcd->Setup);
1399:Drivers/STM32F4xx_HAL_Driver/Src/stm32f4xx_hal_pcd.c **** 
1400:Drivers/STM32F4xx_HAL_Driver/Src/stm32f4xx_hal_pcd.c ****       __HAL_PCD_CLEAR_FLAG(hpcd, USB_OTG_GINTSTS_USBRST);
1401:Drivers/STM32F4xx_HAL_Driver/Src/stm32f4xx_hal_pcd.c ****     }
1402:Drivers/STM32F4xx_HAL_Driver/Src/stm32f4xx_hal_pcd.c **** 
1403:Drivers/STM32F4xx_HAL_Driver/Src/stm32f4xx_hal_pcd.c ****     /* Handle Enumeration done Interrupt */
1404:Drivers/STM32F4xx_HAL_Driver/Src/stm32f4xx_hal_pcd.c ****     if (__HAL_PCD_GET_FLAG(hpcd, USB_OTG_GINTSTS_ENUMDNE))
1405:Drivers/STM32F4xx_HAL_Driver/Src/stm32f4xx_hal_pcd.c ****     {
ARM GAS  /tmp/ccDYdWST.s 			page 57


1406:Drivers/STM32F4xx_HAL_Driver/Src/stm32f4xx_hal_pcd.c ****       (void)USB_ActivateSetup(hpcd->Instance);
1407:Drivers/STM32F4xx_HAL_Driver/Src/stm32f4xx_hal_pcd.c ****       hpcd->Init.speed = USB_GetDevSpeed(hpcd->Instance);
1408:Drivers/STM32F4xx_HAL_Driver/Src/stm32f4xx_hal_pcd.c **** 
1409:Drivers/STM32F4xx_HAL_Driver/Src/stm32f4xx_hal_pcd.c ****       /* Set USB Turnaround time */
1410:Drivers/STM32F4xx_HAL_Driver/Src/stm32f4xx_hal_pcd.c ****       (void)USB_SetTurnaroundTime(hpcd->Instance,
1411:Drivers/STM32F4xx_HAL_Driver/Src/stm32f4xx_hal_pcd.c ****                                   HAL_RCC_GetHCLKFreq(),
1412:Drivers/STM32F4xx_HAL_Driver/Src/stm32f4xx_hal_pcd.c ****                                   (uint8_t)hpcd->Init.speed);
1413:Drivers/STM32F4xx_HAL_Driver/Src/stm32f4xx_hal_pcd.c **** 
1414:Drivers/STM32F4xx_HAL_Driver/Src/stm32f4xx_hal_pcd.c **** #if (USE_HAL_PCD_REGISTER_CALLBACKS == 1U)
1415:Drivers/STM32F4xx_HAL_Driver/Src/stm32f4xx_hal_pcd.c ****       hpcd->ResetCallback(hpcd);
1416:Drivers/STM32F4xx_HAL_Driver/Src/stm32f4xx_hal_pcd.c **** #else
1417:Drivers/STM32F4xx_HAL_Driver/Src/stm32f4xx_hal_pcd.c ****       HAL_PCD_ResetCallback(hpcd);
1418:Drivers/STM32F4xx_HAL_Driver/Src/stm32f4xx_hal_pcd.c **** #endif /* USE_HAL_PCD_REGISTER_CALLBACKS */
1419:Drivers/STM32F4xx_HAL_Driver/Src/stm32f4xx_hal_pcd.c **** 
1420:Drivers/STM32F4xx_HAL_Driver/Src/stm32f4xx_hal_pcd.c ****       __HAL_PCD_CLEAR_FLAG(hpcd, USB_OTG_GINTSTS_ENUMDNE);
1421:Drivers/STM32F4xx_HAL_Driver/Src/stm32f4xx_hal_pcd.c ****     }
1422:Drivers/STM32F4xx_HAL_Driver/Src/stm32f4xx_hal_pcd.c **** 
1423:Drivers/STM32F4xx_HAL_Driver/Src/stm32f4xx_hal_pcd.c ****     /* Handle SOF Interrupt */
1424:Drivers/STM32F4xx_HAL_Driver/Src/stm32f4xx_hal_pcd.c ****     if (__HAL_PCD_GET_FLAG(hpcd, USB_OTG_GINTSTS_SOF))
1425:Drivers/STM32F4xx_HAL_Driver/Src/stm32f4xx_hal_pcd.c ****     {
1426:Drivers/STM32F4xx_HAL_Driver/Src/stm32f4xx_hal_pcd.c **** #if (USE_HAL_PCD_REGISTER_CALLBACKS == 1U)
1427:Drivers/STM32F4xx_HAL_Driver/Src/stm32f4xx_hal_pcd.c ****       hpcd->SOFCallback(hpcd);
1428:Drivers/STM32F4xx_HAL_Driver/Src/stm32f4xx_hal_pcd.c **** #else
1429:Drivers/STM32F4xx_HAL_Driver/Src/stm32f4xx_hal_pcd.c ****       HAL_PCD_SOFCallback(hpcd);
1430:Drivers/STM32F4xx_HAL_Driver/Src/stm32f4xx_hal_pcd.c **** #endif /* USE_HAL_PCD_REGISTER_CALLBACKS */
1431:Drivers/STM32F4xx_HAL_Driver/Src/stm32f4xx_hal_pcd.c **** 
1432:Drivers/STM32F4xx_HAL_Driver/Src/stm32f4xx_hal_pcd.c ****       __HAL_PCD_CLEAR_FLAG(hpcd, USB_OTG_GINTSTS_SOF);
1433:Drivers/STM32F4xx_HAL_Driver/Src/stm32f4xx_hal_pcd.c ****     }
1434:Drivers/STM32F4xx_HAL_Driver/Src/stm32f4xx_hal_pcd.c **** 
1435:Drivers/STM32F4xx_HAL_Driver/Src/stm32f4xx_hal_pcd.c ****     /* Handle Global OUT NAK effective Interrupt */
1436:Drivers/STM32F4xx_HAL_Driver/Src/stm32f4xx_hal_pcd.c ****     if (__HAL_PCD_GET_FLAG(hpcd, USB_OTG_GINTSTS_BOUTNAKEFF))
1437:Drivers/STM32F4xx_HAL_Driver/Src/stm32f4xx_hal_pcd.c ****     {
1438:Drivers/STM32F4xx_HAL_Driver/Src/stm32f4xx_hal_pcd.c ****       USBx->GINTMSK &= ~USB_OTG_GINTMSK_GONAKEFFM;
1439:Drivers/STM32F4xx_HAL_Driver/Src/stm32f4xx_hal_pcd.c **** 
1440:Drivers/STM32F4xx_HAL_Driver/Src/stm32f4xx_hal_pcd.c ****       for (epnum = 1U; epnum < hpcd->Init.dev_endpoints; epnum++)
1441:Drivers/STM32F4xx_HAL_Driver/Src/stm32f4xx_hal_pcd.c ****       {
1442:Drivers/STM32F4xx_HAL_Driver/Src/stm32f4xx_hal_pcd.c ****         if (hpcd->OUT_ep[epnum].is_iso_incomplete == 1U)
1443:Drivers/STM32F4xx_HAL_Driver/Src/stm32f4xx_hal_pcd.c ****         {
1444:Drivers/STM32F4xx_HAL_Driver/Src/stm32f4xx_hal_pcd.c ****           /* Abort current transaction and disable the EP */
1445:Drivers/STM32F4xx_HAL_Driver/Src/stm32f4xx_hal_pcd.c ****           (void)HAL_PCD_EP_Abort(hpcd, (uint8_t)epnum);
1446:Drivers/STM32F4xx_HAL_Driver/Src/stm32f4xx_hal_pcd.c ****         }
1447:Drivers/STM32F4xx_HAL_Driver/Src/stm32f4xx_hal_pcd.c ****       }
1448:Drivers/STM32F4xx_HAL_Driver/Src/stm32f4xx_hal_pcd.c ****     }
1449:Drivers/STM32F4xx_HAL_Driver/Src/stm32f4xx_hal_pcd.c **** 
1450:Drivers/STM32F4xx_HAL_Driver/Src/stm32f4xx_hal_pcd.c ****     /* Handle Incomplete ISO IN Interrupt */
1451:Drivers/STM32F4xx_HAL_Driver/Src/stm32f4xx_hal_pcd.c ****     if (__HAL_PCD_GET_FLAG(hpcd, USB_OTG_GINTSTS_IISOIXFR))
1452:Drivers/STM32F4xx_HAL_Driver/Src/stm32f4xx_hal_pcd.c ****     {
1453:Drivers/STM32F4xx_HAL_Driver/Src/stm32f4xx_hal_pcd.c ****       for (epnum = 1U; epnum < hpcd->Init.dev_endpoints; epnum++)
1454:Drivers/STM32F4xx_HAL_Driver/Src/stm32f4xx_hal_pcd.c ****       {
1455:Drivers/STM32F4xx_HAL_Driver/Src/stm32f4xx_hal_pcd.c ****         RegVal = USBx_INEP(epnum)->DIEPCTL;
1456:Drivers/STM32F4xx_HAL_Driver/Src/stm32f4xx_hal_pcd.c **** 
1457:Drivers/STM32F4xx_HAL_Driver/Src/stm32f4xx_hal_pcd.c ****         if ((hpcd->IN_ep[epnum].type == EP_TYPE_ISOC) &&
1458:Drivers/STM32F4xx_HAL_Driver/Src/stm32f4xx_hal_pcd.c ****             ((RegVal & USB_OTG_DIEPCTL_EPENA) == USB_OTG_DIEPCTL_EPENA))
1459:Drivers/STM32F4xx_HAL_Driver/Src/stm32f4xx_hal_pcd.c ****         {
1460:Drivers/STM32F4xx_HAL_Driver/Src/stm32f4xx_hal_pcd.c ****           hpcd->IN_ep[epnum].is_iso_incomplete = 1U;
1461:Drivers/STM32F4xx_HAL_Driver/Src/stm32f4xx_hal_pcd.c **** 
1462:Drivers/STM32F4xx_HAL_Driver/Src/stm32f4xx_hal_pcd.c ****           /* Abort current transaction and disable the EP */
ARM GAS  /tmp/ccDYdWST.s 			page 58


1463:Drivers/STM32F4xx_HAL_Driver/Src/stm32f4xx_hal_pcd.c ****           (void)HAL_PCD_EP_Abort(hpcd, (uint8_t)(epnum | 0x80U));
1464:Drivers/STM32F4xx_HAL_Driver/Src/stm32f4xx_hal_pcd.c ****         }
1465:Drivers/STM32F4xx_HAL_Driver/Src/stm32f4xx_hal_pcd.c ****       }
1466:Drivers/STM32F4xx_HAL_Driver/Src/stm32f4xx_hal_pcd.c **** 
1467:Drivers/STM32F4xx_HAL_Driver/Src/stm32f4xx_hal_pcd.c ****       __HAL_PCD_CLEAR_FLAG(hpcd, USB_OTG_GINTSTS_IISOIXFR);
1468:Drivers/STM32F4xx_HAL_Driver/Src/stm32f4xx_hal_pcd.c ****     }
1469:Drivers/STM32F4xx_HAL_Driver/Src/stm32f4xx_hal_pcd.c **** 
1470:Drivers/STM32F4xx_HAL_Driver/Src/stm32f4xx_hal_pcd.c ****     /* Handle Incomplete ISO OUT Interrupt */
1471:Drivers/STM32F4xx_HAL_Driver/Src/stm32f4xx_hal_pcd.c ****     if (__HAL_PCD_GET_FLAG(hpcd, USB_OTG_GINTSTS_PXFR_INCOMPISOOUT))
1472:Drivers/STM32F4xx_HAL_Driver/Src/stm32f4xx_hal_pcd.c ****     {
1473:Drivers/STM32F4xx_HAL_Driver/Src/stm32f4xx_hal_pcd.c ****       for (epnum = 1U; epnum < hpcd->Init.dev_endpoints; epnum++)
1474:Drivers/STM32F4xx_HAL_Driver/Src/stm32f4xx_hal_pcd.c ****       {
1475:Drivers/STM32F4xx_HAL_Driver/Src/stm32f4xx_hal_pcd.c ****         RegVal = USBx_OUTEP(epnum)->DOEPCTL;
1476:Drivers/STM32F4xx_HAL_Driver/Src/stm32f4xx_hal_pcd.c **** 
1477:Drivers/STM32F4xx_HAL_Driver/Src/stm32f4xx_hal_pcd.c ****         if ((hpcd->OUT_ep[epnum].type == EP_TYPE_ISOC) &&
1478:Drivers/STM32F4xx_HAL_Driver/Src/stm32f4xx_hal_pcd.c ****             ((RegVal & USB_OTG_DOEPCTL_EPENA) == USB_OTG_DOEPCTL_EPENA) &&
1479:Drivers/STM32F4xx_HAL_Driver/Src/stm32f4xx_hal_pcd.c ****             ((RegVal & (0x1U << 16)) == (hpcd->FrameNumber & 0x1U)))
1480:Drivers/STM32F4xx_HAL_Driver/Src/stm32f4xx_hal_pcd.c ****         {
1481:Drivers/STM32F4xx_HAL_Driver/Src/stm32f4xx_hal_pcd.c ****           hpcd->OUT_ep[epnum].is_iso_incomplete = 1U;
1482:Drivers/STM32F4xx_HAL_Driver/Src/stm32f4xx_hal_pcd.c **** 
1483:Drivers/STM32F4xx_HAL_Driver/Src/stm32f4xx_hal_pcd.c ****           USBx->GINTMSK |= USB_OTG_GINTMSK_GONAKEFFM;
1484:Drivers/STM32F4xx_HAL_Driver/Src/stm32f4xx_hal_pcd.c **** 
1485:Drivers/STM32F4xx_HAL_Driver/Src/stm32f4xx_hal_pcd.c ****           if ((USBx->GINTSTS & USB_OTG_GINTSTS_BOUTNAKEFF) == 0U)
1486:Drivers/STM32F4xx_HAL_Driver/Src/stm32f4xx_hal_pcd.c ****           {
1487:Drivers/STM32F4xx_HAL_Driver/Src/stm32f4xx_hal_pcd.c ****             USBx_DEVICE->DCTL |= USB_OTG_DCTL_SGONAK;
1488:Drivers/STM32F4xx_HAL_Driver/Src/stm32f4xx_hal_pcd.c ****             break;
1489:Drivers/STM32F4xx_HAL_Driver/Src/stm32f4xx_hal_pcd.c ****           }
1490:Drivers/STM32F4xx_HAL_Driver/Src/stm32f4xx_hal_pcd.c ****         }
1491:Drivers/STM32F4xx_HAL_Driver/Src/stm32f4xx_hal_pcd.c ****       }
1492:Drivers/STM32F4xx_HAL_Driver/Src/stm32f4xx_hal_pcd.c **** 
1493:Drivers/STM32F4xx_HAL_Driver/Src/stm32f4xx_hal_pcd.c ****       __HAL_PCD_CLEAR_FLAG(hpcd, USB_OTG_GINTSTS_PXFR_INCOMPISOOUT);
1494:Drivers/STM32F4xx_HAL_Driver/Src/stm32f4xx_hal_pcd.c ****     }
1495:Drivers/STM32F4xx_HAL_Driver/Src/stm32f4xx_hal_pcd.c **** 
1496:Drivers/STM32F4xx_HAL_Driver/Src/stm32f4xx_hal_pcd.c ****     /* Handle Connection event Interrupt */
1497:Drivers/STM32F4xx_HAL_Driver/Src/stm32f4xx_hal_pcd.c ****     if (__HAL_PCD_GET_FLAG(hpcd, USB_OTG_GINTSTS_SRQINT))
1498:Drivers/STM32F4xx_HAL_Driver/Src/stm32f4xx_hal_pcd.c ****     {
1499:Drivers/STM32F4xx_HAL_Driver/Src/stm32f4xx_hal_pcd.c **** #if (USE_HAL_PCD_REGISTER_CALLBACKS == 1U)
1500:Drivers/STM32F4xx_HAL_Driver/Src/stm32f4xx_hal_pcd.c ****       hpcd->ConnectCallback(hpcd);
1501:Drivers/STM32F4xx_HAL_Driver/Src/stm32f4xx_hal_pcd.c **** #else
1502:Drivers/STM32F4xx_HAL_Driver/Src/stm32f4xx_hal_pcd.c ****       HAL_PCD_ConnectCallback(hpcd);
1503:Drivers/STM32F4xx_HAL_Driver/Src/stm32f4xx_hal_pcd.c **** #endif /* USE_HAL_PCD_REGISTER_CALLBACKS */
1504:Drivers/STM32F4xx_HAL_Driver/Src/stm32f4xx_hal_pcd.c **** 
1505:Drivers/STM32F4xx_HAL_Driver/Src/stm32f4xx_hal_pcd.c ****       __HAL_PCD_CLEAR_FLAG(hpcd, USB_OTG_GINTSTS_SRQINT);
1506:Drivers/STM32F4xx_HAL_Driver/Src/stm32f4xx_hal_pcd.c ****     }
1507:Drivers/STM32F4xx_HAL_Driver/Src/stm32f4xx_hal_pcd.c **** 
1508:Drivers/STM32F4xx_HAL_Driver/Src/stm32f4xx_hal_pcd.c ****     /* Handle Disconnection event Interrupt */
1509:Drivers/STM32F4xx_HAL_Driver/Src/stm32f4xx_hal_pcd.c ****     if (__HAL_PCD_GET_FLAG(hpcd, USB_OTG_GINTSTS_OTGINT))
1510:Drivers/STM32F4xx_HAL_Driver/Src/stm32f4xx_hal_pcd.c ****     {
1511:Drivers/STM32F4xx_HAL_Driver/Src/stm32f4xx_hal_pcd.c ****       RegVal = hpcd->Instance->GOTGINT;
1512:Drivers/STM32F4xx_HAL_Driver/Src/stm32f4xx_hal_pcd.c **** 
1513:Drivers/STM32F4xx_HAL_Driver/Src/stm32f4xx_hal_pcd.c ****       if ((RegVal & USB_OTG_GOTGINT_SEDET) == USB_OTG_GOTGINT_SEDET)
1514:Drivers/STM32F4xx_HAL_Driver/Src/stm32f4xx_hal_pcd.c ****       {
1515:Drivers/STM32F4xx_HAL_Driver/Src/stm32f4xx_hal_pcd.c **** #if (USE_HAL_PCD_REGISTER_CALLBACKS == 1U)
1516:Drivers/STM32F4xx_HAL_Driver/Src/stm32f4xx_hal_pcd.c ****         hpcd->DisconnectCallback(hpcd);
1517:Drivers/STM32F4xx_HAL_Driver/Src/stm32f4xx_hal_pcd.c **** #else
1518:Drivers/STM32F4xx_HAL_Driver/Src/stm32f4xx_hal_pcd.c ****         HAL_PCD_DisconnectCallback(hpcd);
1519:Drivers/STM32F4xx_HAL_Driver/Src/stm32f4xx_hal_pcd.c **** #endif /* USE_HAL_PCD_REGISTER_CALLBACKS */
ARM GAS  /tmp/ccDYdWST.s 			page 59


1520:Drivers/STM32F4xx_HAL_Driver/Src/stm32f4xx_hal_pcd.c ****       }
1521:Drivers/STM32F4xx_HAL_Driver/Src/stm32f4xx_hal_pcd.c ****       hpcd->Instance->GOTGINT |= RegVal;
1522:Drivers/STM32F4xx_HAL_Driver/Src/stm32f4xx_hal_pcd.c ****     }
1523:Drivers/STM32F4xx_HAL_Driver/Src/stm32f4xx_hal_pcd.c ****   }
1524:Drivers/STM32F4xx_HAL_Driver/Src/stm32f4xx_hal_pcd.c **** }
1525:Drivers/STM32F4xx_HAL_Driver/Src/stm32f4xx_hal_pcd.c **** 
1526:Drivers/STM32F4xx_HAL_Driver/Src/stm32f4xx_hal_pcd.c **** 
1527:Drivers/STM32F4xx_HAL_Driver/Src/stm32f4xx_hal_pcd.c **** /**
1528:Drivers/STM32F4xx_HAL_Driver/Src/stm32f4xx_hal_pcd.c ****   * @brief  Handles PCD Wakeup interrupt request.
1529:Drivers/STM32F4xx_HAL_Driver/Src/stm32f4xx_hal_pcd.c ****   * @param  hpcd PCD handle
1530:Drivers/STM32F4xx_HAL_Driver/Src/stm32f4xx_hal_pcd.c ****   * @retval HAL status
1531:Drivers/STM32F4xx_HAL_Driver/Src/stm32f4xx_hal_pcd.c ****   */
1532:Drivers/STM32F4xx_HAL_Driver/Src/stm32f4xx_hal_pcd.c **** void HAL_PCD_WKUP_IRQHandler(PCD_HandleTypeDef *hpcd)
1533:Drivers/STM32F4xx_HAL_Driver/Src/stm32f4xx_hal_pcd.c **** {
 1248              		.loc 1 1533 1 view -0
 1249              		.cfi_startproc
 1250              		@ args = 0, pretend = 0, frame = 0
 1251              		@ frame_needed = 0, uses_anonymous_args = 0
 1252              		@ link register save eliminated.
1534:Drivers/STM32F4xx_HAL_Driver/Src/stm32f4xx_hal_pcd.c **** #if defined (USB_OTG_FS)
1535:Drivers/STM32F4xx_HAL_Driver/Src/stm32f4xx_hal_pcd.c ****   USB_OTG_GlobalTypeDef *USBx;
 1253              		.loc 1 1535 3 view .LVU603
1536:Drivers/STM32F4xx_HAL_Driver/Src/stm32f4xx_hal_pcd.c ****   USBx = hpcd->Instance;
 1254              		.loc 1 1536 3 view .LVU604
1537:Drivers/STM32F4xx_HAL_Driver/Src/stm32f4xx_hal_pcd.c **** 
1538:Drivers/STM32F4xx_HAL_Driver/Src/stm32f4xx_hal_pcd.c ****   if (USBx == USB_OTG_FS)
 1255              		.loc 1 1538 3 view .LVU605
 1256              		.loc 1 1538 6 is_stmt 0 view .LVU606
 1257 0000 0368     		ldr	r3, [r0]
 1258 0002 B3F1A04F 		cmp	r3, #1342177280
1539:Drivers/STM32F4xx_HAL_Driver/Src/stm32f4xx_hal_pcd.c ****   {
1540:Drivers/STM32F4xx_HAL_Driver/Src/stm32f4xx_hal_pcd.c ****     /* Clear EXTI pending Bit */
1541:Drivers/STM32F4xx_HAL_Driver/Src/stm32f4xx_hal_pcd.c ****     __HAL_USB_OTG_FS_WAKEUP_EXTI_CLEAR_FLAG();
 1259              		.loc 1 1541 5 view .LVU607
 1260 0006 044B     		ldr	r3, .L138
 1261              		.loc 1 1541 5 is_stmt 1 view .LVU608
 1262 0008 0CBF     		ite	eq
 1263 000a 4FF48022 		moveq	r2, #262144
1542:Drivers/STM32F4xx_HAL_Driver/Src/stm32f4xx_hal_pcd.c ****   }
1543:Drivers/STM32F4xx_HAL_Driver/Src/stm32f4xx_hal_pcd.c ****   else
1544:Drivers/STM32F4xx_HAL_Driver/Src/stm32f4xx_hal_pcd.c **** #endif /* defined (USB_OTG_FS) */
1545:Drivers/STM32F4xx_HAL_Driver/Src/stm32f4xx_hal_pcd.c ****   {
1546:Drivers/STM32F4xx_HAL_Driver/Src/stm32f4xx_hal_pcd.c ****     /* Clear EXTI pending Bit */
1547:Drivers/STM32F4xx_HAL_Driver/Src/stm32f4xx_hal_pcd.c ****     __HAL_USB_OTG_HS_WAKEUP_EXTI_CLEAR_FLAG();
 1264              		.loc 1 1547 5 view .LVU609
 1265 000e 4FF48012 		movne	r2, #1048576
 1266 0012 5A61     		str	r2, [r3, #20]
1548:Drivers/STM32F4xx_HAL_Driver/Src/stm32f4xx_hal_pcd.c ****   }
1549:Drivers/STM32F4xx_HAL_Driver/Src/stm32f4xx_hal_pcd.c **** }
 1267              		.loc 1 1549 1 is_stmt 0 view .LVU610
 1268 0014 7047     		bx	lr
 1269              	.L139:
 1270 0016 00BF     		.align	2
 1271              	.L138:
 1272 0018 003C0140 		.word	1073822720
 1273              		.cfi_endproc
 1274              	.LFE141:
ARM GAS  /tmp/ccDYdWST.s 			page 60


 1276              		.section	.text.HAL_PCD_DataOutStageCallback,"ax",%progbits
 1277              		.align	1
 1278              		.p2align 2,,3
 1279              		.weak	HAL_PCD_DataOutStageCallback
 1280              		.syntax unified
 1281              		.thumb
 1282              		.thumb_func
 1284              	HAL_PCD_DataOutStageCallback:
 1285              	.LVL71:
 1286              	.LFB142:
1550:Drivers/STM32F4xx_HAL_Driver/Src/stm32f4xx_hal_pcd.c **** #endif /* defined (USB_OTG_FS) || defined (USB_OTG_HS) */
1551:Drivers/STM32F4xx_HAL_Driver/Src/stm32f4xx_hal_pcd.c **** 
1552:Drivers/STM32F4xx_HAL_Driver/Src/stm32f4xx_hal_pcd.c **** 
1553:Drivers/STM32F4xx_HAL_Driver/Src/stm32f4xx_hal_pcd.c **** /**
1554:Drivers/STM32F4xx_HAL_Driver/Src/stm32f4xx_hal_pcd.c ****   * @brief  Data OUT stage callback.
1555:Drivers/STM32F4xx_HAL_Driver/Src/stm32f4xx_hal_pcd.c ****   * @param  hpcd PCD handle
1556:Drivers/STM32F4xx_HAL_Driver/Src/stm32f4xx_hal_pcd.c ****   * @param  epnum endpoint number
1557:Drivers/STM32F4xx_HAL_Driver/Src/stm32f4xx_hal_pcd.c ****   * @retval None
1558:Drivers/STM32F4xx_HAL_Driver/Src/stm32f4xx_hal_pcd.c ****   */
1559:Drivers/STM32F4xx_HAL_Driver/Src/stm32f4xx_hal_pcd.c **** __weak void HAL_PCD_DataOutStageCallback(PCD_HandleTypeDef *hpcd, uint8_t epnum)
1560:Drivers/STM32F4xx_HAL_Driver/Src/stm32f4xx_hal_pcd.c **** {
 1287              		.loc 1 1560 1 is_stmt 1 view -0
 1288              		.cfi_startproc
 1289              		@ args = 0, pretend = 0, frame = 0
 1290              		@ frame_needed = 0, uses_anonymous_args = 0
 1291              		@ link register save eliminated.
1561:Drivers/STM32F4xx_HAL_Driver/Src/stm32f4xx_hal_pcd.c ****   /* Prevent unused argument(s) compilation warning */
1562:Drivers/STM32F4xx_HAL_Driver/Src/stm32f4xx_hal_pcd.c ****   UNUSED(hpcd);
 1292              		.loc 1 1562 3 view .LVU612
1563:Drivers/STM32F4xx_HAL_Driver/Src/stm32f4xx_hal_pcd.c ****   UNUSED(epnum);
 1293              		.loc 1 1563 3 view .LVU613
1564:Drivers/STM32F4xx_HAL_Driver/Src/stm32f4xx_hal_pcd.c **** 
1565:Drivers/STM32F4xx_HAL_Driver/Src/stm32f4xx_hal_pcd.c ****   /* NOTE : This function should not be modified, when the callback is needed,
1566:Drivers/STM32F4xx_HAL_Driver/Src/stm32f4xx_hal_pcd.c ****             the HAL_PCD_DataOutStageCallback could be implemented in the user file
1567:Drivers/STM32F4xx_HAL_Driver/Src/stm32f4xx_hal_pcd.c ****    */
1568:Drivers/STM32F4xx_HAL_Driver/Src/stm32f4xx_hal_pcd.c **** }
 1294              		.loc 1 1568 1 is_stmt 0 view .LVU614
 1295 0000 7047     		bx	lr
 1296              		.cfi_endproc
 1297              	.LFE142:
 1299 0002 00BF     		.section	.text.HAL_PCD_DataInStageCallback,"ax",%progbits
 1300              		.align	1
 1301              		.p2align 2,,3
 1302              		.weak	HAL_PCD_DataInStageCallback
 1303              		.syntax unified
 1304              		.thumb
 1305              		.thumb_func
 1307              	HAL_PCD_DataInStageCallback:
 1308              	.LFB189:
 1309              		.cfi_startproc
1569:Drivers/STM32F4xx_HAL_Driver/Src/stm32f4xx_hal_pcd.c **** 
1570:Drivers/STM32F4xx_HAL_Driver/Src/stm32f4xx_hal_pcd.c **** /**
1571:Drivers/STM32F4xx_HAL_Driver/Src/stm32f4xx_hal_pcd.c ****   * @brief  Data IN stage callback
1572:Drivers/STM32F4xx_HAL_Driver/Src/stm32f4xx_hal_pcd.c ****   * @param  hpcd PCD handle
1573:Drivers/STM32F4xx_HAL_Driver/Src/stm32f4xx_hal_pcd.c ****   * @param  epnum endpoint number
1574:Drivers/STM32F4xx_HAL_Driver/Src/stm32f4xx_hal_pcd.c ****   * @retval None
1575:Drivers/STM32F4xx_HAL_Driver/Src/stm32f4xx_hal_pcd.c ****   */
ARM GAS  /tmp/ccDYdWST.s 			page 61


1576:Drivers/STM32F4xx_HAL_Driver/Src/stm32f4xx_hal_pcd.c **** __weak void HAL_PCD_DataInStageCallback(PCD_HandleTypeDef *hpcd, uint8_t epnum)
 1310              		.loc 1 1576 13 is_stmt 1 view -0
 1311              		@ args = 0, pretend = 0, frame = 0
 1312              		@ frame_needed = 0, uses_anonymous_args = 0
 1313              		@ link register save eliminated.
 1314 0000 7047     		bx	lr
 1315              		.cfi_endproc
 1316              	.LFE189:
 1318 0002 00BF     		.section	.text.HAL_PCD_SetupStageCallback,"ax",%progbits
 1319              		.align	1
 1320              		.p2align 2,,3
 1321              		.weak	HAL_PCD_SetupStageCallback
 1322              		.syntax unified
 1323              		.thumb
 1324              		.thumb_func
 1326              	HAL_PCD_SetupStageCallback:
 1327              	.LFB177:
 1328              		.cfi_startproc
1577:Drivers/STM32F4xx_HAL_Driver/Src/stm32f4xx_hal_pcd.c **** {
1578:Drivers/STM32F4xx_HAL_Driver/Src/stm32f4xx_hal_pcd.c ****   /* Prevent unused argument(s) compilation warning */
1579:Drivers/STM32F4xx_HAL_Driver/Src/stm32f4xx_hal_pcd.c ****   UNUSED(hpcd);
1580:Drivers/STM32F4xx_HAL_Driver/Src/stm32f4xx_hal_pcd.c ****   UNUSED(epnum);
1581:Drivers/STM32F4xx_HAL_Driver/Src/stm32f4xx_hal_pcd.c **** 
1582:Drivers/STM32F4xx_HAL_Driver/Src/stm32f4xx_hal_pcd.c ****   /* NOTE : This function should not be modified, when the callback is needed,
1583:Drivers/STM32F4xx_HAL_Driver/Src/stm32f4xx_hal_pcd.c ****             the HAL_PCD_DataInStageCallback could be implemented in the user file
1584:Drivers/STM32F4xx_HAL_Driver/Src/stm32f4xx_hal_pcd.c ****    */
1585:Drivers/STM32F4xx_HAL_Driver/Src/stm32f4xx_hal_pcd.c **** }
1586:Drivers/STM32F4xx_HAL_Driver/Src/stm32f4xx_hal_pcd.c **** /**
1587:Drivers/STM32F4xx_HAL_Driver/Src/stm32f4xx_hal_pcd.c ****   * @brief  Setup stage callback
1588:Drivers/STM32F4xx_HAL_Driver/Src/stm32f4xx_hal_pcd.c ****   * @param  hpcd PCD handle
1589:Drivers/STM32F4xx_HAL_Driver/Src/stm32f4xx_hal_pcd.c ****   * @retval None
1590:Drivers/STM32F4xx_HAL_Driver/Src/stm32f4xx_hal_pcd.c ****   */
1591:Drivers/STM32F4xx_HAL_Driver/Src/stm32f4xx_hal_pcd.c **** __weak void HAL_PCD_SetupStageCallback(PCD_HandleTypeDef *hpcd)
 1329              		.loc 1 1591 13 view -0
 1330              		@ args = 0, pretend = 0, frame = 0
 1331              		@ frame_needed = 0, uses_anonymous_args = 0
 1332              		@ link register save eliminated.
 1333 0000 7047     		bx	lr
 1334              		.cfi_endproc
 1335              	.LFE177:
 1337 0002 00BF     		.section	.text.HAL_PCD_SOFCallback,"ax",%progbits
 1338              		.align	1
 1339              		.p2align 2,,3
 1340              		.weak	HAL_PCD_SOFCallback
 1341              		.syntax unified
 1342              		.thumb
 1343              		.thumb_func
 1345              	HAL_PCD_SOFCallback:
 1346              	.LFB175:
 1347              		.cfi_startproc
1592:Drivers/STM32F4xx_HAL_Driver/Src/stm32f4xx_hal_pcd.c **** {
1593:Drivers/STM32F4xx_HAL_Driver/Src/stm32f4xx_hal_pcd.c ****   /* Prevent unused argument(s) compilation warning */
1594:Drivers/STM32F4xx_HAL_Driver/Src/stm32f4xx_hal_pcd.c ****   UNUSED(hpcd);
1595:Drivers/STM32F4xx_HAL_Driver/Src/stm32f4xx_hal_pcd.c **** 
1596:Drivers/STM32F4xx_HAL_Driver/Src/stm32f4xx_hal_pcd.c ****   /* NOTE : This function should not be modified, when the callback is needed,
1597:Drivers/STM32F4xx_HAL_Driver/Src/stm32f4xx_hal_pcd.c ****             the HAL_PCD_SetupStageCallback could be implemented in the user file
1598:Drivers/STM32F4xx_HAL_Driver/Src/stm32f4xx_hal_pcd.c ****    */
ARM GAS  /tmp/ccDYdWST.s 			page 62


1599:Drivers/STM32F4xx_HAL_Driver/Src/stm32f4xx_hal_pcd.c **** }
1600:Drivers/STM32F4xx_HAL_Driver/Src/stm32f4xx_hal_pcd.c **** 
1601:Drivers/STM32F4xx_HAL_Driver/Src/stm32f4xx_hal_pcd.c **** /**
1602:Drivers/STM32F4xx_HAL_Driver/Src/stm32f4xx_hal_pcd.c ****   * @brief  USB Start Of Frame callback.
1603:Drivers/STM32F4xx_HAL_Driver/Src/stm32f4xx_hal_pcd.c ****   * @param  hpcd PCD handle
1604:Drivers/STM32F4xx_HAL_Driver/Src/stm32f4xx_hal_pcd.c ****   * @retval None
1605:Drivers/STM32F4xx_HAL_Driver/Src/stm32f4xx_hal_pcd.c ****   */
1606:Drivers/STM32F4xx_HAL_Driver/Src/stm32f4xx_hal_pcd.c **** __weak void HAL_PCD_SOFCallback(PCD_HandleTypeDef *hpcd)
 1348              		.loc 1 1606 13 view -0
 1349              		@ args = 0, pretend = 0, frame = 0
 1350              		@ frame_needed = 0, uses_anonymous_args = 0
 1351              		@ link register save eliminated.
 1352 0000 7047     		bx	lr
 1353              		.cfi_endproc
 1354              	.LFE175:
 1356 0002 00BF     		.section	.text.HAL_PCD_ResetCallback,"ax",%progbits
 1357              		.align	1
 1358              		.p2align 2,,3
 1359              		.weak	HAL_PCD_ResetCallback
 1360              		.syntax unified
 1361              		.thumb
 1362              		.thumb_func
 1364              	HAL_PCD_ResetCallback:
 1365              	.LFB179:
 1366              		.cfi_startproc
1607:Drivers/STM32F4xx_HAL_Driver/Src/stm32f4xx_hal_pcd.c **** {
1608:Drivers/STM32F4xx_HAL_Driver/Src/stm32f4xx_hal_pcd.c ****   /* Prevent unused argument(s) compilation warning */
1609:Drivers/STM32F4xx_HAL_Driver/Src/stm32f4xx_hal_pcd.c ****   UNUSED(hpcd);
1610:Drivers/STM32F4xx_HAL_Driver/Src/stm32f4xx_hal_pcd.c **** 
1611:Drivers/STM32F4xx_HAL_Driver/Src/stm32f4xx_hal_pcd.c ****   /* NOTE : This function should not be modified, when the callback is needed,
1612:Drivers/STM32F4xx_HAL_Driver/Src/stm32f4xx_hal_pcd.c ****             the HAL_PCD_SOFCallback could be implemented in the user file
1613:Drivers/STM32F4xx_HAL_Driver/Src/stm32f4xx_hal_pcd.c ****    */
1614:Drivers/STM32F4xx_HAL_Driver/Src/stm32f4xx_hal_pcd.c **** }
1615:Drivers/STM32F4xx_HAL_Driver/Src/stm32f4xx_hal_pcd.c **** 
1616:Drivers/STM32F4xx_HAL_Driver/Src/stm32f4xx_hal_pcd.c **** /**
1617:Drivers/STM32F4xx_HAL_Driver/Src/stm32f4xx_hal_pcd.c ****   * @brief  USB Reset callback.
1618:Drivers/STM32F4xx_HAL_Driver/Src/stm32f4xx_hal_pcd.c ****   * @param  hpcd PCD handle
1619:Drivers/STM32F4xx_HAL_Driver/Src/stm32f4xx_hal_pcd.c ****   * @retval None
1620:Drivers/STM32F4xx_HAL_Driver/Src/stm32f4xx_hal_pcd.c ****   */
1621:Drivers/STM32F4xx_HAL_Driver/Src/stm32f4xx_hal_pcd.c **** __weak void HAL_PCD_ResetCallback(PCD_HandleTypeDef *hpcd)
 1367              		.loc 1 1621 13 view -0
 1368              		@ args = 0, pretend = 0, frame = 0
 1369              		@ frame_needed = 0, uses_anonymous_args = 0
 1370              		@ link register save eliminated.
 1371 0000 7047     		bx	lr
 1372              		.cfi_endproc
 1373              	.LFE179:
 1375 0002 00BF     		.section	.text.HAL_PCD_SuspendCallback,"ax",%progbits
 1376              		.align	1
 1377              		.p2align 2,,3
 1378              		.weak	HAL_PCD_SuspendCallback
 1379              		.syntax unified
 1380              		.thumb
 1381              		.thumb_func
 1383              	HAL_PCD_SuspendCallback:
 1384              	.LFB181:
 1385              		.cfi_startproc
ARM GAS  /tmp/ccDYdWST.s 			page 63


1622:Drivers/STM32F4xx_HAL_Driver/Src/stm32f4xx_hal_pcd.c **** {
1623:Drivers/STM32F4xx_HAL_Driver/Src/stm32f4xx_hal_pcd.c ****   /* Prevent unused argument(s) compilation warning */
1624:Drivers/STM32F4xx_HAL_Driver/Src/stm32f4xx_hal_pcd.c ****   UNUSED(hpcd);
1625:Drivers/STM32F4xx_HAL_Driver/Src/stm32f4xx_hal_pcd.c **** 
1626:Drivers/STM32F4xx_HAL_Driver/Src/stm32f4xx_hal_pcd.c ****   /* NOTE : This function should not be modified, when the callback is needed,
1627:Drivers/STM32F4xx_HAL_Driver/Src/stm32f4xx_hal_pcd.c ****             the HAL_PCD_ResetCallback could be implemented in the user file
1628:Drivers/STM32F4xx_HAL_Driver/Src/stm32f4xx_hal_pcd.c ****    */
1629:Drivers/STM32F4xx_HAL_Driver/Src/stm32f4xx_hal_pcd.c **** }
1630:Drivers/STM32F4xx_HAL_Driver/Src/stm32f4xx_hal_pcd.c **** 
1631:Drivers/STM32F4xx_HAL_Driver/Src/stm32f4xx_hal_pcd.c **** /**
1632:Drivers/STM32F4xx_HAL_Driver/Src/stm32f4xx_hal_pcd.c ****   * @brief  Suspend event callback.
1633:Drivers/STM32F4xx_HAL_Driver/Src/stm32f4xx_hal_pcd.c ****   * @param  hpcd PCD handle
1634:Drivers/STM32F4xx_HAL_Driver/Src/stm32f4xx_hal_pcd.c ****   * @retval None
1635:Drivers/STM32F4xx_HAL_Driver/Src/stm32f4xx_hal_pcd.c ****   */
1636:Drivers/STM32F4xx_HAL_Driver/Src/stm32f4xx_hal_pcd.c **** __weak void HAL_PCD_SuspendCallback(PCD_HandleTypeDef *hpcd)
 1386              		.loc 1 1636 13 view -0
 1387              		@ args = 0, pretend = 0, frame = 0
 1388              		@ frame_needed = 0, uses_anonymous_args = 0
 1389              		@ link register save eliminated.
 1390 0000 7047     		bx	lr
 1391              		.cfi_endproc
 1392              	.LFE181:
 1394 0002 00BF     		.section	.text.HAL_PCD_ResumeCallback,"ax",%progbits
 1395              		.align	1
 1396              		.p2align 2,,3
 1397              		.weak	HAL_PCD_ResumeCallback
 1398              		.syntax unified
 1399              		.thumb
 1400              		.thumb_func
 1402              	HAL_PCD_ResumeCallback:
 1403              	.LFB183:
 1404              		.cfi_startproc
1637:Drivers/STM32F4xx_HAL_Driver/Src/stm32f4xx_hal_pcd.c **** {
1638:Drivers/STM32F4xx_HAL_Driver/Src/stm32f4xx_hal_pcd.c ****   /* Prevent unused argument(s) compilation warning */
1639:Drivers/STM32F4xx_HAL_Driver/Src/stm32f4xx_hal_pcd.c ****   UNUSED(hpcd);
1640:Drivers/STM32F4xx_HAL_Driver/Src/stm32f4xx_hal_pcd.c **** 
1641:Drivers/STM32F4xx_HAL_Driver/Src/stm32f4xx_hal_pcd.c ****   /* NOTE : This function should not be modified, when the callback is needed,
1642:Drivers/STM32F4xx_HAL_Driver/Src/stm32f4xx_hal_pcd.c ****             the HAL_PCD_SuspendCallback could be implemented in the user file
1643:Drivers/STM32F4xx_HAL_Driver/Src/stm32f4xx_hal_pcd.c ****    */
1644:Drivers/STM32F4xx_HAL_Driver/Src/stm32f4xx_hal_pcd.c **** }
1645:Drivers/STM32F4xx_HAL_Driver/Src/stm32f4xx_hal_pcd.c **** 
1646:Drivers/STM32F4xx_HAL_Driver/Src/stm32f4xx_hal_pcd.c **** /**
1647:Drivers/STM32F4xx_HAL_Driver/Src/stm32f4xx_hal_pcd.c ****   * @brief  Resume event callback.
1648:Drivers/STM32F4xx_HAL_Driver/Src/stm32f4xx_hal_pcd.c ****   * @param  hpcd PCD handle
1649:Drivers/STM32F4xx_HAL_Driver/Src/stm32f4xx_hal_pcd.c ****   * @retval None
1650:Drivers/STM32F4xx_HAL_Driver/Src/stm32f4xx_hal_pcd.c ****   */
1651:Drivers/STM32F4xx_HAL_Driver/Src/stm32f4xx_hal_pcd.c **** __weak void HAL_PCD_ResumeCallback(PCD_HandleTypeDef *hpcd)
 1405              		.loc 1 1651 13 view -0
 1406              		@ args = 0, pretend = 0, frame = 0
 1407              		@ frame_needed = 0, uses_anonymous_args = 0
 1408              		@ link register save eliminated.
 1409 0000 7047     		bx	lr
 1410              		.cfi_endproc
 1411              	.LFE183:
 1413 0002 00BF     		.section	.text.HAL_PCD_ISOOUTIncompleteCallback,"ax",%progbits
 1414              		.align	1
 1415              		.p2align 2,,3
ARM GAS  /tmp/ccDYdWST.s 			page 64


 1416              		.weak	HAL_PCD_ISOOUTIncompleteCallback
 1417              		.syntax unified
 1418              		.thumb
 1419              		.thumb_func
 1421              	HAL_PCD_ISOOUTIncompleteCallback:
 1422              	.LFB191:
 1423              		.cfi_startproc
1652:Drivers/STM32F4xx_HAL_Driver/Src/stm32f4xx_hal_pcd.c **** {
1653:Drivers/STM32F4xx_HAL_Driver/Src/stm32f4xx_hal_pcd.c ****   /* Prevent unused argument(s) compilation warning */
1654:Drivers/STM32F4xx_HAL_Driver/Src/stm32f4xx_hal_pcd.c ****   UNUSED(hpcd);
1655:Drivers/STM32F4xx_HAL_Driver/Src/stm32f4xx_hal_pcd.c **** 
1656:Drivers/STM32F4xx_HAL_Driver/Src/stm32f4xx_hal_pcd.c ****   /* NOTE : This function should not be modified, when the callback is needed,
1657:Drivers/STM32F4xx_HAL_Driver/Src/stm32f4xx_hal_pcd.c ****             the HAL_PCD_ResumeCallback could be implemented in the user file
1658:Drivers/STM32F4xx_HAL_Driver/Src/stm32f4xx_hal_pcd.c ****    */
1659:Drivers/STM32F4xx_HAL_Driver/Src/stm32f4xx_hal_pcd.c **** }
1660:Drivers/STM32F4xx_HAL_Driver/Src/stm32f4xx_hal_pcd.c **** 
1661:Drivers/STM32F4xx_HAL_Driver/Src/stm32f4xx_hal_pcd.c **** /**
1662:Drivers/STM32F4xx_HAL_Driver/Src/stm32f4xx_hal_pcd.c ****   * @brief  Incomplete ISO OUT callback.
1663:Drivers/STM32F4xx_HAL_Driver/Src/stm32f4xx_hal_pcd.c ****   * @param  hpcd PCD handle
1664:Drivers/STM32F4xx_HAL_Driver/Src/stm32f4xx_hal_pcd.c ****   * @param  epnum endpoint number
1665:Drivers/STM32F4xx_HAL_Driver/Src/stm32f4xx_hal_pcd.c ****   * @retval None
1666:Drivers/STM32F4xx_HAL_Driver/Src/stm32f4xx_hal_pcd.c ****   */
1667:Drivers/STM32F4xx_HAL_Driver/Src/stm32f4xx_hal_pcd.c **** __weak void HAL_PCD_ISOOUTIncompleteCallback(PCD_HandleTypeDef *hpcd, uint8_t epnum)
 1424              		.loc 1 1667 13 view -0
 1425              		@ args = 0, pretend = 0, frame = 0
 1426              		@ frame_needed = 0, uses_anonymous_args = 0
 1427              		@ link register save eliminated.
 1428 0000 7047     		bx	lr
 1429              		.cfi_endproc
 1430              	.LFE191:
 1432 0002 00BF     		.section	.text.HAL_PCD_ISOINIncompleteCallback,"ax",%progbits
 1433              		.align	1
 1434              		.p2align 2,,3
 1435              		.weak	HAL_PCD_ISOINIncompleteCallback
 1436              		.syntax unified
 1437              		.thumb
 1438              		.thumb_func
 1440              	HAL_PCD_ISOINIncompleteCallback:
 1441              	.LFB193:
 1442              		.cfi_startproc
1668:Drivers/STM32F4xx_HAL_Driver/Src/stm32f4xx_hal_pcd.c **** {
1669:Drivers/STM32F4xx_HAL_Driver/Src/stm32f4xx_hal_pcd.c ****   /* Prevent unused argument(s) compilation warning */
1670:Drivers/STM32F4xx_HAL_Driver/Src/stm32f4xx_hal_pcd.c ****   UNUSED(hpcd);
1671:Drivers/STM32F4xx_HAL_Driver/Src/stm32f4xx_hal_pcd.c ****   UNUSED(epnum);
1672:Drivers/STM32F4xx_HAL_Driver/Src/stm32f4xx_hal_pcd.c **** 
1673:Drivers/STM32F4xx_HAL_Driver/Src/stm32f4xx_hal_pcd.c ****   /* NOTE : This function should not be modified, when the callback is needed,
1674:Drivers/STM32F4xx_HAL_Driver/Src/stm32f4xx_hal_pcd.c ****             the HAL_PCD_ISOOUTIncompleteCallback could be implemented in the user file
1675:Drivers/STM32F4xx_HAL_Driver/Src/stm32f4xx_hal_pcd.c ****    */
1676:Drivers/STM32F4xx_HAL_Driver/Src/stm32f4xx_hal_pcd.c **** }
1677:Drivers/STM32F4xx_HAL_Driver/Src/stm32f4xx_hal_pcd.c **** 
1678:Drivers/STM32F4xx_HAL_Driver/Src/stm32f4xx_hal_pcd.c **** /**
1679:Drivers/STM32F4xx_HAL_Driver/Src/stm32f4xx_hal_pcd.c ****   * @brief  Incomplete ISO IN callback.
1680:Drivers/STM32F4xx_HAL_Driver/Src/stm32f4xx_hal_pcd.c ****   * @param  hpcd PCD handle
1681:Drivers/STM32F4xx_HAL_Driver/Src/stm32f4xx_hal_pcd.c ****   * @param  epnum endpoint number
1682:Drivers/STM32F4xx_HAL_Driver/Src/stm32f4xx_hal_pcd.c ****   * @retval None
1683:Drivers/STM32F4xx_HAL_Driver/Src/stm32f4xx_hal_pcd.c ****   */
1684:Drivers/STM32F4xx_HAL_Driver/Src/stm32f4xx_hal_pcd.c **** __weak void HAL_PCD_ISOINIncompleteCallback(PCD_HandleTypeDef *hpcd, uint8_t epnum)
ARM GAS  /tmp/ccDYdWST.s 			page 65


 1443              		.loc 1 1684 13 view -0
 1444              		@ args = 0, pretend = 0, frame = 0
 1445              		@ frame_needed = 0, uses_anonymous_args = 0
 1446              		@ link register save eliminated.
 1447 0000 7047     		bx	lr
 1448              		.cfi_endproc
 1449              	.LFE193:
 1451 0002 00BF     		.section	.text.HAL_PCD_ConnectCallback,"ax",%progbits
 1452              		.align	1
 1453              		.p2align 2,,3
 1454              		.weak	HAL_PCD_ConnectCallback
 1455              		.syntax unified
 1456              		.thumb
 1457              		.thumb_func
 1459              	HAL_PCD_ConnectCallback:
 1460              	.LFB185:
 1461              		.cfi_startproc
1685:Drivers/STM32F4xx_HAL_Driver/Src/stm32f4xx_hal_pcd.c **** {
1686:Drivers/STM32F4xx_HAL_Driver/Src/stm32f4xx_hal_pcd.c ****   /* Prevent unused argument(s) compilation warning */
1687:Drivers/STM32F4xx_HAL_Driver/Src/stm32f4xx_hal_pcd.c ****   UNUSED(hpcd);
1688:Drivers/STM32F4xx_HAL_Driver/Src/stm32f4xx_hal_pcd.c ****   UNUSED(epnum);
1689:Drivers/STM32F4xx_HAL_Driver/Src/stm32f4xx_hal_pcd.c **** 
1690:Drivers/STM32F4xx_HAL_Driver/Src/stm32f4xx_hal_pcd.c ****   /* NOTE : This function should not be modified, when the callback is needed,
1691:Drivers/STM32F4xx_HAL_Driver/Src/stm32f4xx_hal_pcd.c ****             the HAL_PCD_ISOINIncompleteCallback could be implemented in the user file
1692:Drivers/STM32F4xx_HAL_Driver/Src/stm32f4xx_hal_pcd.c ****    */
1693:Drivers/STM32F4xx_HAL_Driver/Src/stm32f4xx_hal_pcd.c **** }
1694:Drivers/STM32F4xx_HAL_Driver/Src/stm32f4xx_hal_pcd.c **** 
1695:Drivers/STM32F4xx_HAL_Driver/Src/stm32f4xx_hal_pcd.c **** /**
1696:Drivers/STM32F4xx_HAL_Driver/Src/stm32f4xx_hal_pcd.c ****   * @brief  Connection event callback.
1697:Drivers/STM32F4xx_HAL_Driver/Src/stm32f4xx_hal_pcd.c ****   * @param  hpcd PCD handle
1698:Drivers/STM32F4xx_HAL_Driver/Src/stm32f4xx_hal_pcd.c ****   * @retval None
1699:Drivers/STM32F4xx_HAL_Driver/Src/stm32f4xx_hal_pcd.c ****   */
1700:Drivers/STM32F4xx_HAL_Driver/Src/stm32f4xx_hal_pcd.c **** __weak void HAL_PCD_ConnectCallback(PCD_HandleTypeDef *hpcd)
 1462              		.loc 1 1700 13 view -0
 1463              		@ args = 0, pretend = 0, frame = 0
 1464              		@ frame_needed = 0, uses_anonymous_args = 0
 1465              		@ link register save eliminated.
 1466 0000 7047     		bx	lr
 1467              		.cfi_endproc
 1468              	.LFE185:
 1470 0002 00BF     		.section	.text.HAL_PCD_DisconnectCallback,"ax",%progbits
 1471              		.align	1
 1472              		.p2align 2,,3
 1473              		.weak	HAL_PCD_DisconnectCallback
 1474              		.syntax unified
 1475              		.thumb
 1476              		.thumb_func
 1478              	HAL_PCD_DisconnectCallback:
 1479              	.LFB187:
 1480              		.cfi_startproc
1701:Drivers/STM32F4xx_HAL_Driver/Src/stm32f4xx_hal_pcd.c **** {
1702:Drivers/STM32F4xx_HAL_Driver/Src/stm32f4xx_hal_pcd.c ****   /* Prevent unused argument(s) compilation warning */
1703:Drivers/STM32F4xx_HAL_Driver/Src/stm32f4xx_hal_pcd.c ****   UNUSED(hpcd);
1704:Drivers/STM32F4xx_HAL_Driver/Src/stm32f4xx_hal_pcd.c **** 
1705:Drivers/STM32F4xx_HAL_Driver/Src/stm32f4xx_hal_pcd.c ****   /* NOTE : This function should not be modified, when the callback is needed,
1706:Drivers/STM32F4xx_HAL_Driver/Src/stm32f4xx_hal_pcd.c ****             the HAL_PCD_ConnectCallback could be implemented in the user file
1707:Drivers/STM32F4xx_HAL_Driver/Src/stm32f4xx_hal_pcd.c ****    */
ARM GAS  /tmp/ccDYdWST.s 			page 66


1708:Drivers/STM32F4xx_HAL_Driver/Src/stm32f4xx_hal_pcd.c **** }
1709:Drivers/STM32F4xx_HAL_Driver/Src/stm32f4xx_hal_pcd.c **** 
1710:Drivers/STM32F4xx_HAL_Driver/Src/stm32f4xx_hal_pcd.c **** /**
1711:Drivers/STM32F4xx_HAL_Driver/Src/stm32f4xx_hal_pcd.c ****   * @brief  Disconnection event callback.
1712:Drivers/STM32F4xx_HAL_Driver/Src/stm32f4xx_hal_pcd.c ****   * @param  hpcd PCD handle
1713:Drivers/STM32F4xx_HAL_Driver/Src/stm32f4xx_hal_pcd.c ****   * @retval None
1714:Drivers/STM32F4xx_HAL_Driver/Src/stm32f4xx_hal_pcd.c ****   */
1715:Drivers/STM32F4xx_HAL_Driver/Src/stm32f4xx_hal_pcd.c **** __weak void HAL_PCD_DisconnectCallback(PCD_HandleTypeDef *hpcd)
 1481              		.loc 1 1715 13 view -0
 1482              		@ args = 0, pretend = 0, frame = 0
 1483              		@ frame_needed = 0, uses_anonymous_args = 0
 1484              		@ link register save eliminated.
 1485 0000 7047     		bx	lr
 1486              		.cfi_endproc
 1487              	.LFE187:
 1489 0002 00BF     		.section	.text.HAL_PCD_IRQHandler,"ax",%progbits
 1490              		.align	1
 1491              		.p2align 2,,3
 1492              		.global	HAL_PCD_IRQHandler
 1493              		.syntax unified
 1494              		.thumb
 1495              		.thumb_func
 1497              	HAL_PCD_IRQHandler:
 1498              	.LVL72:
 1499              	.LFB140:
1069:Drivers/STM32F4xx_HAL_Driver/Src/stm32f4xx_hal_pcd.c ****   USB_OTG_GlobalTypeDef *USBx = hpcd->Instance;
 1500              		.loc 1 1069 1 view -0
 1501              		.cfi_startproc
 1502              		@ args = 0, pretend = 0, frame = 24
 1503              		@ frame_needed = 0, uses_anonymous_args = 0
1070:Drivers/STM32F4xx_HAL_Driver/Src/stm32f4xx_hal_pcd.c ****   uint32_t USBx_BASE = (uint32_t)USBx;
 1504              		.loc 1 1070 3 view .LVU626
1069:Drivers/STM32F4xx_HAL_Driver/Src/stm32f4xx_hal_pcd.c ****   USB_OTG_GlobalTypeDef *USBx = hpcd->Instance;
 1505              		.loc 1 1069 1 is_stmt 0 view .LVU627
 1506 0000 2DE9F04F 		push	{r4, r5, r6, r7, r8, r9, r10, fp, lr}
 1507              	.LCFI9:
 1508              		.cfi_def_cfa_offset 36
 1509              		.cfi_offset 4, -36
 1510              		.cfi_offset 5, -32
 1511              		.cfi_offset 6, -28
 1512              		.cfi_offset 7, -24
 1513              		.cfi_offset 8, -20
 1514              		.cfi_offset 9, -16
 1515              		.cfi_offset 10, -12
 1516              		.cfi_offset 11, -8
 1517              		.cfi_offset 14, -4
1070:Drivers/STM32F4xx_HAL_Driver/Src/stm32f4xx_hal_pcd.c ****   uint32_t USBx_BASE = (uint32_t)USBx;
 1518              		.loc 1 1070 26 view .LVU628
 1519 0004 0668     		ldr	r6, [r0]
 1520              	.LVL73:
1071:Drivers/STM32F4xx_HAL_Driver/Src/stm32f4xx_hal_pcd.c ****   USB_OTG_EPTypeDef *ep;
 1521              		.loc 1 1071 3 is_stmt 1 view .LVU629
1072:Drivers/STM32F4xx_HAL_Driver/Src/stm32f4xx_hal_pcd.c ****   uint32_t i;
 1522              		.loc 1 1072 3 view .LVU630
1073:Drivers/STM32F4xx_HAL_Driver/Src/stm32f4xx_hal_pcd.c ****   uint32_t ep_intr;
 1523              		.loc 1 1073 3 view .LVU631
1074:Drivers/STM32F4xx_HAL_Driver/Src/stm32f4xx_hal_pcd.c ****   uint32_t epint;
ARM GAS  /tmp/ccDYdWST.s 			page 67


 1524              		.loc 1 1074 3 view .LVU632
1075:Drivers/STM32F4xx_HAL_Driver/Src/stm32f4xx_hal_pcd.c ****   uint32_t epnum;
 1525              		.loc 1 1075 3 view .LVU633
1076:Drivers/STM32F4xx_HAL_Driver/Src/stm32f4xx_hal_pcd.c ****   uint32_t fifoemptymsk;
 1526              		.loc 1 1076 3 view .LVU634
1077:Drivers/STM32F4xx_HAL_Driver/Src/stm32f4xx_hal_pcd.c ****   uint32_t RegVal;
 1527              		.loc 1 1077 3 view .LVU635
1078:Drivers/STM32F4xx_HAL_Driver/Src/stm32f4xx_hal_pcd.c **** 
 1528              		.loc 1 1078 3 view .LVU636
1081:Drivers/STM32F4xx_HAL_Driver/Src/stm32f4xx_hal_pcd.c ****   {
 1529              		.loc 1 1081 3 view .LVU637
1069:Drivers/STM32F4xx_HAL_Driver/Src/stm32f4xx_hal_pcd.c ****   USB_OTG_GlobalTypeDef *USBx = hpcd->Instance;
 1530              		.loc 1 1069 1 is_stmt 0 view .LVU638
 1531 0006 89B0     		sub	sp, sp, #36
 1532              	.LCFI10:
 1533              		.cfi_def_cfa_offset 72
1069:Drivers/STM32F4xx_HAL_Driver/Src/stm32f4xx_hal_pcd.c ****   USB_OTG_GlobalTypeDef *USBx = hpcd->Instance;
 1534              		.loc 1 1069 1 view .LVU639
 1535 0008 0446     		mov	r4, r0
1081:Drivers/STM32F4xx_HAL_Driver/Src/stm32f4xx_hal_pcd.c ****   {
 1536              		.loc 1 1081 7 view .LVU640
 1537 000a 3046     		mov	r0, r6
 1538              	.LVL74:
1081:Drivers/STM32F4xx_HAL_Driver/Src/stm32f4xx_hal_pcd.c ****   {
 1539              		.loc 1 1081 7 view .LVU641
 1540 000c FFF7FEFF 		bl	USB_GetMode
 1541              	.LVL75:
1081:Drivers/STM32F4xx_HAL_Driver/Src/stm32f4xx_hal_pcd.c ****   {
 1542              		.loc 1 1081 6 discriminator 1 view .LVU642
 1543 0010 10B1     		cbz	r0, .L355
 1544              	.LVL76:
 1545              	.L151:
1524:Drivers/STM32F4xx_HAL_Driver/Src/stm32f4xx_hal_pcd.c **** 
 1546              		.loc 1 1524 1 view .LVU643
 1547 0012 09B0     		add	sp, sp, #36
 1548              	.LCFI11:
 1549              		.cfi_remember_state
 1550              		.cfi_def_cfa_offset 36
 1551              		@ sp needed
 1552 0014 BDE8F08F 		pop	{r4, r5, r6, r7, r8, r9, r10, fp, pc}
 1553              	.LVL77:
 1554              	.L355:
 1555              	.LCFI12:
 1556              		.cfi_restore_state
1084:Drivers/STM32F4xx_HAL_Driver/Src/stm32f4xx_hal_pcd.c ****     {
 1557              		.loc 1 1084 5 is_stmt 1 view .LVU644
 1558 0018 0546     		mov	r5, r0
1084:Drivers/STM32F4xx_HAL_Driver/Src/stm32f4xx_hal_pcd.c ****     {
 1559              		.loc 1 1084 9 is_stmt 0 view .LVU645
 1560 001a 2068     		ldr	r0, [r4]
 1561 001c FFF7FEFF 		bl	USB_ReadInterrupts
 1562              	.LVL78:
1084:Drivers/STM32F4xx_HAL_Driver/Src/stm32f4xx_hal_pcd.c ****     {
 1563              		.loc 1 1084 8 discriminator 1 view .LVU646
 1564 0020 0028     		cmp	r0, #0
 1565 0022 F6D0     		beq	.L151
1090:Drivers/STM32F4xx_HAL_Driver/Src/stm32f4xx_hal_pcd.c **** 
ARM GAS  /tmp/ccDYdWST.s 			page 68


 1566              		.loc 1 1090 5 is_stmt 1 view .LVU647
1090:Drivers/STM32F4xx_HAL_Driver/Src/stm32f4xx_hal_pcd.c **** 
 1567              		.loc 1 1090 37 is_stmt 0 view .LVU648
 1568 0024 D6F80838 		ldr	r3, [r6, #2056]
1092:Drivers/STM32F4xx_HAL_Driver/Src/stm32f4xx_hal_pcd.c ****     {
 1569              		.loc 1 1092 9 view .LVU649
 1570 0028 2068     		ldr	r0, [r4]
1090:Drivers/STM32F4xx_HAL_Driver/Src/stm32f4xx_hal_pcd.c **** 
 1571              		.loc 1 1090 70 view .LVU650
 1572 002a C3F30D23 		ubfx	r3, r3, #8, #14
1090:Drivers/STM32F4xx_HAL_Driver/Src/stm32f4xx_hal_pcd.c **** 
 1573              		.loc 1 1090 23 view .LVU651
 1574 002e C4F8D434 		str	r3, [r4, #1236]
1092:Drivers/STM32F4xx_HAL_Driver/Src/stm32f4xx_hal_pcd.c ****     {
 1575              		.loc 1 1092 5 is_stmt 1 view .LVU652
1090:Drivers/STM32F4xx_HAL_Driver/Src/stm32f4xx_hal_pcd.c **** 
 1576              		.loc 1 1090 26 is_stmt 0 view .LVU653
 1577 0032 06F50063 		add	r3, r6, #2048
 1578 0036 0393     		str	r3, [sp, #12]
1092:Drivers/STM32F4xx_HAL_Driver/Src/stm32f4xx_hal_pcd.c ****     {
 1579              		.loc 1 1092 9 view .LVU654
 1580 0038 FFF7FEFF 		bl	USB_ReadInterrupts
 1581              	.LVL79:
1092:Drivers/STM32F4xx_HAL_Driver/Src/stm32f4xx_hal_pcd.c ****     {
 1582              		.loc 1 1092 8 discriminator 1 view .LVU655
 1583 003c 10F0020F 		tst	r0, #2
1095:Drivers/STM32F4xx_HAL_Driver/Src/stm32f4xx_hal_pcd.c ****     }
 1584              		.loc 1 1095 7 view .LVU656
 1585 0040 2068     		ldr	r0, [r4]
1095:Drivers/STM32F4xx_HAL_Driver/Src/stm32f4xx_hal_pcd.c ****     }
 1586              		.loc 1 1095 7 is_stmt 1 view .LVU657
1099:Drivers/STM32F4xx_HAL_Driver/Src/stm32f4xx_hal_pcd.c ****     {
 1587              		.loc 1 1099 5 view .LVU658
1095:Drivers/STM32F4xx_HAL_Driver/Src/stm32f4xx_hal_pcd.c ****     }
 1588              		.loc 1 1095 7 is_stmt 0 view .LVU659
 1589 0042 1EBF     		ittt	ne
 1590 0044 4369     		ldrne	r3, [r0, #20]
 1591 0046 03F00203 		andne	r3, r3, #2
 1592 004a 4361     		strne	r3, [r0, #20]
1099:Drivers/STM32F4xx_HAL_Driver/Src/stm32f4xx_hal_pcd.c ****     {
 1593              		.loc 1 1099 9 view .LVU660
 1594 004c FFF7FEFF 		bl	USB_ReadInterrupts
 1595              	.LVL80:
1099:Drivers/STM32F4xx_HAL_Driver/Src/stm32f4xx_hal_pcd.c ****     {
 1596              		.loc 1 1099 8 discriminator 1 view .LVU661
 1597 0050 10F0100F 		tst	r0, #16
1101:Drivers/STM32F4xx_HAL_Driver/Src/stm32f4xx_hal_pcd.c **** 
 1598              		.loc 1 1101 7 view .LVU662
 1599 0054 2068     		ldr	r0, [r4]
1099:Drivers/STM32F4xx_HAL_Driver/Src/stm32f4xx_hal_pcd.c ****     {
 1600              		.loc 1 1099 8 discriminator 1 view .LVU663
 1601 0056 14D0     		beq	.L158
1101:Drivers/STM32F4xx_HAL_Driver/Src/stm32f4xx_hal_pcd.c **** 
 1602              		.loc 1 1101 7 is_stmt 1 view .LVU664
 1603 0058 8369     		ldr	r3, [r0, #24]
 1604 005a 23F01003 		bic	r3, r3, #16
 1605 005e 8361     		str	r3, [r0, #24]
ARM GAS  /tmp/ccDYdWST.s 			page 69


1103:Drivers/STM32F4xx_HAL_Driver/Src/stm32f4xx_hal_pcd.c **** 
 1606              		.loc 1 1103 7 view .LVU665
1103:Drivers/STM32F4xx_HAL_Driver/Src/stm32f4xx_hal_pcd.c **** 
 1607              		.loc 1 1103 14 is_stmt 0 view .LVU666
 1608 0060 376A     		ldr	r7, [r6, #32]
 1609              	.LVL81:
1105:Drivers/STM32F4xx_HAL_Driver/Src/stm32f4xx_hal_pcd.c **** 
 1610              		.loc 1 1105 7 is_stmt 1 view .LVU667
1107:Drivers/STM32F4xx_HAL_Driver/Src/stm32f4xx_hal_pcd.c ****       {
 1611              		.loc 1 1107 53 is_stmt 0 view .LVU668
 1612 0062 07F4F013 		and	r3, r7, #1966080
1107:Drivers/STM32F4xx_HAL_Driver/Src/stm32f4xx_hal_pcd.c ****       {
 1613              		.loc 1 1107 10 view .LVU669
 1614 0066 B3F5802F 		cmp	r3, #262144
1105:Drivers/STM32F4xx_HAL_Driver/Src/stm32f4xx_hal_pcd.c **** 
 1615              		.loc 1 1105 33 view .LVU670
 1616 006a 07F00F08 		and	r8, r7, #15
 1617              	.LVL82:
1107:Drivers/STM32F4xx_HAL_Driver/Src/stm32f4xx_hal_pcd.c ****       {
 1618              		.loc 1 1107 7 is_stmt 1 view .LVU671
1107:Drivers/STM32F4xx_HAL_Driver/Src/stm32f4xx_hal_pcd.c ****       {
 1619              		.loc 1 1107 10 is_stmt 0 view .LVU672
 1620 006e 00F0B783 		beq	.L356
1118:Drivers/STM32F4xx_HAL_Driver/Src/stm32f4xx_hal_pcd.c ****       {
 1621              		.loc 1 1118 12 is_stmt 1 view .LVU673
1118:Drivers/STM32F4xx_HAL_Driver/Src/stm32f4xx_hal_pcd.c ****       {
 1622              		.loc 1 1118 15 is_stmt 0 view .LVU674
 1623 0072 B3F5402F 		cmp	r3, #786432
 1624 0076 00F05683 		beq	.L357
 1625              	.LVL83:
 1626              	.L160:
1126:Drivers/STM32F4xx_HAL_Driver/Src/stm32f4xx_hal_pcd.c **** 
 1627              		.loc 1 1126 7 is_stmt 1 view .LVU675
1128:Drivers/STM32F4xx_HAL_Driver/Src/stm32f4xx_hal_pcd.c ****     }
 1628              		.loc 1 1128 7 view .LVU676
 1629 007a 8369     		ldr	r3, [r0, #24]
 1630 007c 43F01003 		orr	r3, r3, #16
 1631 0080 8361     		str	r3, [r0, #24]
 1632              	.LVL84:
 1633              	.L158:
1131:Drivers/STM32F4xx_HAL_Driver/Src/stm32f4xx_hal_pcd.c ****     {
 1634              		.loc 1 1131 5 view .LVU677
1131:Drivers/STM32F4xx_HAL_Driver/Src/stm32f4xx_hal_pcd.c ****     {
 1635              		.loc 1 1131 9 is_stmt 0 view .LVU678
 1636 0082 FFF7FEFF 		bl	USB_ReadInterrupts
 1637              	.LVL85:
1131:Drivers/STM32F4xx_HAL_Driver/Src/stm32f4xx_hal_pcd.c ****     {
 1638              		.loc 1 1131 8 discriminator 1 view .LVU679
 1639 0086 10F4002F 		tst	r0, #524288
1136:Drivers/STM32F4xx_HAL_Driver/Src/stm32f4xx_hal_pcd.c **** 
 1640              		.loc 1 1136 17 view .LVU680
 1641 008a 2068     		ldr	r0, [r4]
1131:Drivers/STM32F4xx_HAL_Driver/Src/stm32f4xx_hal_pcd.c ****     {
 1642              		.loc 1 1131 8 discriminator 1 view .LVU681
 1643 008c 40F0B182 		bne	.L161
 1644              	.L164:
1203:Drivers/STM32F4xx_HAL_Driver/Src/stm32f4xx_hal_pcd.c ****     {
ARM GAS  /tmp/ccDYdWST.s 			page 70


 1645              		.loc 1 1203 5 is_stmt 1 view .LVU682
1203:Drivers/STM32F4xx_HAL_Driver/Src/stm32f4xx_hal_pcd.c ****     {
 1646              		.loc 1 1203 9 is_stmt 0 view .LVU683
 1647 0090 FFF7FEFF 		bl	USB_ReadInterrupts
 1648              	.LVL86:
1203:Drivers/STM32F4xx_HAL_Driver/Src/stm32f4xx_hal_pcd.c ****     {
 1649              		.loc 1 1203 8 discriminator 1 view .LVU684
 1650 0094 4703     		lsls	r7, r0, #13
 1651 0096 00F11082 		bmi	.L358
1206:Drivers/STM32F4xx_HAL_Driver/Src/stm32f4xx_hal_pcd.c **** 
 1652              		.loc 1 1206 49 view .LVU685
 1653 009a 2068     		ldr	r0, [r4]
 1654              	.LVL87:
 1655              	.L194:
1283:Drivers/STM32F4xx_HAL_Driver/Src/stm32f4xx_hal_pcd.c ****     {
 1656              		.loc 1 1283 5 is_stmt 1 view .LVU686
1283:Drivers/STM32F4xx_HAL_Driver/Src/stm32f4xx_hal_pcd.c ****     {
 1657              		.loc 1 1283 9 is_stmt 0 view .LVU687
 1658 009c FFF7FEFF 		bl	USB_ReadInterrupts
 1659              	.LVL88:
1283:Drivers/STM32F4xx_HAL_Driver/Src/stm32f4xx_hal_pcd.c ****     {
 1660              		.loc 1 1283 8 discriminator 1 view .LVU688
 1661 00a0 0028     		cmp	r0, #0
 1662 00a2 C0F28281 		blt	.L212
1311:Drivers/STM32F4xx_HAL_Driver/Src/stm32f4xx_hal_pcd.c ****     {
 1663              		.loc 1 1311 9 view .LVU689
 1664 00a6 2068     		ldr	r0, [r4]
 1665              	.L213:
1311:Drivers/STM32F4xx_HAL_Driver/Src/stm32f4xx_hal_pcd.c ****     {
 1666              		.loc 1 1311 5 is_stmt 1 view .LVU690
1311:Drivers/STM32F4xx_HAL_Driver/Src/stm32f4xx_hal_pcd.c ****     {
 1667              		.loc 1 1311 9 is_stmt 0 view .LVU691
 1668 00a8 FFF7FEFF 		bl	USB_ReadInterrupts
 1669              	.LVL89:
1311:Drivers/STM32F4xx_HAL_Driver/Src/stm32f4xx_hal_pcd.c ****     {
 1670              		.loc 1 1311 8 discriminator 1 view .LVU692
 1671 00ac 0305     		lsls	r3, r0, #20
 1672 00ae 00F13D81 		bmi	.L216
1321:Drivers/STM32F4xx_HAL_Driver/Src/stm32f4xx_hal_pcd.c ****     }
 1673              		.loc 1 1321 7 view .LVU693
 1674 00b2 2068     		ldr	r0, [r4]
 1675              	.L217:
1355:Drivers/STM32F4xx_HAL_Driver/Src/stm32f4xx_hal_pcd.c ****     {
 1676              		.loc 1 1355 5 is_stmt 1 view .LVU694
1355:Drivers/STM32F4xx_HAL_Driver/Src/stm32f4xx_hal_pcd.c ****     {
 1677              		.loc 1 1355 9 is_stmt 0 view .LVU695
 1678 00b4 FFF7FEFF 		bl	USB_ReadInterrupts
 1679              	.LVL90:
1355:Drivers/STM32F4xx_HAL_Driver/Src/stm32f4xx_hal_pcd.c ****     {
 1680              		.loc 1 1355 8 discriminator 1 view .LVU696
 1681 00b8 C004     		lsls	r0, r0, #19
 1682 00ba 00F1A081 		bmi	.L219
1404:Drivers/STM32F4xx_HAL_Driver/Src/stm32f4xx_hal_pcd.c ****     {
 1683              		.loc 1 1404 9 view .LVU697
 1684 00be 2068     		ldr	r0, [r4]
 1685              	.L220:
1404:Drivers/STM32F4xx_HAL_Driver/Src/stm32f4xx_hal_pcd.c ****     {
ARM GAS  /tmp/ccDYdWST.s 			page 71


 1686              		.loc 1 1404 5 is_stmt 1 view .LVU698
1404:Drivers/STM32F4xx_HAL_Driver/Src/stm32f4xx_hal_pcd.c ****     {
 1687              		.loc 1 1404 9 is_stmt 0 view .LVU699
 1688 00c0 FFF7FEFF 		bl	USB_ReadInterrupts
 1689              	.LVL91:
1404:Drivers/STM32F4xx_HAL_Driver/Src/stm32f4xx_hal_pcd.c ****     {
 1690              		.loc 1 1404 8 discriminator 1 view .LVU700
 1691 00c4 10F4005F 		tst	r0, #8192
1406:Drivers/STM32F4xx_HAL_Driver/Src/stm32f4xx_hal_pcd.c ****       hpcd->Init.speed = USB_GetDevSpeed(hpcd->Instance);
 1692              		.loc 1 1406 13 view .LVU701
 1693 00c8 2068     		ldr	r0, [r4]
1404:Drivers/STM32F4xx_HAL_Driver/Src/stm32f4xx_hal_pcd.c ****     {
 1694              		.loc 1 1404 8 discriminator 1 view .LVU702
 1695 00ca 40F08181 		bne	.L227
 1696              	.L228:
1424:Drivers/STM32F4xx_HAL_Driver/Src/stm32f4xx_hal_pcd.c ****     {
 1697              		.loc 1 1424 5 is_stmt 1 view .LVU703
1424:Drivers/STM32F4xx_HAL_Driver/Src/stm32f4xx_hal_pcd.c ****     {
 1698              		.loc 1 1424 9 is_stmt 0 view .LVU704
 1699 00ce FFF7FEFF 		bl	USB_ReadInterrupts
 1700              	.LVL92:
1424:Drivers/STM32F4xx_HAL_Driver/Src/stm32f4xx_hal_pcd.c ****     {
 1701              		.loc 1 1424 8 discriminator 1 view .LVU705
 1702 00d2 0107     		lsls	r1, r0, #28
 1703 00d4 00F1E881 		bmi	.L229
1436:Drivers/STM32F4xx_HAL_Driver/Src/stm32f4xx_hal_pcd.c ****     {
 1704              		.loc 1 1436 9 view .LVU706
 1705 00d8 2068     		ldr	r0, [r4]
 1706              	.L230:
1436:Drivers/STM32F4xx_HAL_Driver/Src/stm32f4xx_hal_pcd.c ****     {
 1707              		.loc 1 1436 5 is_stmt 1 view .LVU707
1436:Drivers/STM32F4xx_HAL_Driver/Src/stm32f4xx_hal_pcd.c ****     {
 1708              		.loc 1 1436 9 is_stmt 0 view .LVU708
 1709 00da FFF7FEFF 		bl	USB_ReadInterrupts
 1710              	.LVL93:
1436:Drivers/STM32F4xx_HAL_Driver/Src/stm32f4xx_hal_pcd.c ****     {
 1711              		.loc 1 1436 8 discriminator 1 view .LVU709
 1712 00de 0206     		lsls	r2, r0, #24
 1713 00e0 71D5     		bpl	.L234
1438:Drivers/STM32F4xx_HAL_Driver/Src/stm32f4xx_hal_pcd.c **** 
 1714              		.loc 1 1438 7 is_stmt 1 view .LVU710
1438:Drivers/STM32F4xx_HAL_Driver/Src/stm32f4xx_hal_pcd.c **** 
 1715              		.loc 1 1438 11 is_stmt 0 view .LVU711
 1716 00e2 B369     		ldr	r3, [r6, #24]
1438:Drivers/STM32F4xx_HAL_Driver/Src/stm32f4xx_hal_pcd.c **** 
 1717              		.loc 1 1438 21 view .LVU712
 1718 00e4 23F08003 		bic	r3, r3, #128
 1719 00e8 B361     		str	r3, [r6, #24]
1440:Drivers/STM32F4xx_HAL_Driver/Src/stm32f4xx_hal_pcd.c ****       {
 1720              		.loc 1 1440 7 is_stmt 1 view .LVU713
 1721              	.LVL94:
1440:Drivers/STM32F4xx_HAL_Driver/Src/stm32f4xx_hal_pcd.c ****       {
 1722              		.loc 1 1440 30 discriminator 1 view .LVU714
1440:Drivers/STM32F4xx_HAL_Driver/Src/stm32f4xx_hal_pcd.c ****       {
 1723              		.loc 1 1440 42 is_stmt 0 discriminator 1 view .LVU715
 1724 00ea 2379     		ldrb	r3, [r4, #4]	@ zero_extendqisi2
1440:Drivers/STM32F4xx_HAL_Driver/Src/stm32f4xx_hal_pcd.c ****       {
ARM GAS  /tmp/ccDYdWST.s 			page 72


 1725              		.loc 1 1440 30 discriminator 1 view .LVU716
 1726 00ec 012B     		cmp	r3, #1
 1727 00ee 6AD9     		bls	.L234
1442:Drivers/STM32F4xx_HAL_Driver/Src/stm32f4xx_hal_pcd.c ****         {
 1728              		.loc 1 1442 9 is_stmt 1 view .LVU717
1442:Drivers/STM32F4xx_HAL_Driver/Src/stm32f4xx_hal_pcd.c ****         {
 1729              		.loc 1 1442 12 is_stmt 0 view .LVU718
 1730 00f0 94F87B22 		ldrb	r2, [r4, #635]	@ zero_extendqisi2
 1731 00f4 012A     		cmp	r2, #1
 1732 00f6 00F0E083 		beq	.L359
 1733              	.L235:
1440:Drivers/STM32F4xx_HAL_Driver/Src/stm32f4xx_hal_pcd.c ****       {
 1734              		.loc 1 1440 63 is_stmt 1 discriminator 2 view .LVU719
 1735              	.LVL95:
1440:Drivers/STM32F4xx_HAL_Driver/Src/stm32f4xx_hal_pcd.c ****       {
 1736              		.loc 1 1440 30 discriminator 1 view .LVU720
 1737 00fa 022B     		cmp	r3, #2
 1738 00fc 63D9     		bls	.L234
1442:Drivers/STM32F4xx_HAL_Driver/Src/stm32f4xx_hal_pcd.c ****         {
 1739              		.loc 1 1442 9 view .LVU721
1442:Drivers/STM32F4xx_HAL_Driver/Src/stm32f4xx_hal_pcd.c ****         {
 1740              		.loc 1 1442 12 is_stmt 0 view .LVU722
 1741 00fe 94F89F22 		ldrb	r2, [r4, #671]	@ zero_extendqisi2
 1742 0102 012A     		cmp	r2, #1
 1743 0104 00F0F483 		beq	.L360
 1744              	.L237:
1440:Drivers/STM32F4xx_HAL_Driver/Src/stm32f4xx_hal_pcd.c ****       {
 1745              		.loc 1 1440 63 is_stmt 1 discriminator 2 view .LVU723
 1746              	.LVL96:
1440:Drivers/STM32F4xx_HAL_Driver/Src/stm32f4xx_hal_pcd.c ****       {
 1747              		.loc 1 1440 30 discriminator 1 view .LVU724
 1748 0108 032B     		cmp	r3, #3
 1749 010a 5CD9     		bls	.L234
1442:Drivers/STM32F4xx_HAL_Driver/Src/stm32f4xx_hal_pcd.c ****         {
 1750              		.loc 1 1442 9 view .LVU725
1442:Drivers/STM32F4xx_HAL_Driver/Src/stm32f4xx_hal_pcd.c ****         {
 1751              		.loc 1 1442 12 is_stmt 0 view .LVU726
 1752 010c 94F8C322 		ldrb	r2, [r4, #707]	@ zero_extendqisi2
 1753 0110 012A     		cmp	r2, #1
 1754 0112 00F00183 		beq	.L361
 1755              	.L238:
1440:Drivers/STM32F4xx_HAL_Driver/Src/stm32f4xx_hal_pcd.c ****       {
 1756              		.loc 1 1440 63 is_stmt 1 discriminator 2 view .LVU727
 1757              	.LVL97:
1440:Drivers/STM32F4xx_HAL_Driver/Src/stm32f4xx_hal_pcd.c ****       {
 1758              		.loc 1 1440 30 discriminator 1 view .LVU728
 1759 0116 042B     		cmp	r3, #4
 1760 0118 55D9     		bls	.L234
1442:Drivers/STM32F4xx_HAL_Driver/Src/stm32f4xx_hal_pcd.c ****         {
 1761              		.loc 1 1442 9 view .LVU729
1442:Drivers/STM32F4xx_HAL_Driver/Src/stm32f4xx_hal_pcd.c ****         {
 1762              		.loc 1 1442 12 is_stmt 0 view .LVU730
 1763 011a 94F8E722 		ldrb	r2, [r4, #743]	@ zero_extendqisi2
 1764 011e 012A     		cmp	r2, #1
 1765 0120 00F01483 		beq	.L362
 1766              	.L239:
1440:Drivers/STM32F4xx_HAL_Driver/Src/stm32f4xx_hal_pcd.c ****       {
ARM GAS  /tmp/ccDYdWST.s 			page 73


 1767              		.loc 1 1440 63 is_stmt 1 discriminator 2 view .LVU731
 1768              	.LVL98:
1440:Drivers/STM32F4xx_HAL_Driver/Src/stm32f4xx_hal_pcd.c ****       {
 1769              		.loc 1 1440 30 discriminator 1 view .LVU732
 1770 0124 052B     		cmp	r3, #5
 1771 0126 4ED9     		bls	.L234
1442:Drivers/STM32F4xx_HAL_Driver/Src/stm32f4xx_hal_pcd.c ****         {
 1772              		.loc 1 1442 9 view .LVU733
1442:Drivers/STM32F4xx_HAL_Driver/Src/stm32f4xx_hal_pcd.c ****         {
 1773              		.loc 1 1442 12 is_stmt 0 view .LVU734
 1774 0128 94F80B23 		ldrb	r2, [r4, #779]	@ zero_extendqisi2
 1775 012c 012A     		cmp	r2, #1
 1776 012e 00F01A84 		beq	.L363
 1777              	.L240:
1440:Drivers/STM32F4xx_HAL_Driver/Src/stm32f4xx_hal_pcd.c ****       {
 1778              		.loc 1 1440 63 is_stmt 1 discriminator 2 view .LVU735
 1779              	.LVL99:
1440:Drivers/STM32F4xx_HAL_Driver/Src/stm32f4xx_hal_pcd.c ****       {
 1780              		.loc 1 1440 30 discriminator 1 view .LVU736
 1781 0132 062B     		cmp	r3, #6
 1782 0134 47D9     		bls	.L234
1442:Drivers/STM32F4xx_HAL_Driver/Src/stm32f4xx_hal_pcd.c ****         {
 1783              		.loc 1 1442 9 view .LVU737
1442:Drivers/STM32F4xx_HAL_Driver/Src/stm32f4xx_hal_pcd.c ****         {
 1784              		.loc 1 1442 12 is_stmt 0 view .LVU738
 1785 0136 94F82F23 		ldrb	r2, [r4, #815]	@ zero_extendqisi2
 1786 013a 012A     		cmp	r2, #1
 1787 013c 00F02784 		beq	.L364
 1788              	.L241:
1440:Drivers/STM32F4xx_HAL_Driver/Src/stm32f4xx_hal_pcd.c ****       {
 1789              		.loc 1 1440 63 is_stmt 1 discriminator 2 view .LVU739
 1790              	.LVL100:
1440:Drivers/STM32F4xx_HAL_Driver/Src/stm32f4xx_hal_pcd.c ****       {
 1791              		.loc 1 1440 30 discriminator 1 view .LVU740
 1792 0140 072B     		cmp	r3, #7
 1793 0142 40D9     		bls	.L234
1442:Drivers/STM32F4xx_HAL_Driver/Src/stm32f4xx_hal_pcd.c ****         {
 1794              		.loc 1 1442 9 view .LVU741
1442:Drivers/STM32F4xx_HAL_Driver/Src/stm32f4xx_hal_pcd.c ****         {
 1795              		.loc 1 1442 12 is_stmt 0 view .LVU742
 1796 0144 94F85323 		ldrb	r2, [r4, #851]	@ zero_extendqisi2
 1797 0148 012A     		cmp	r2, #1
 1798 014a 00F03984 		beq	.L365
 1799              	.L242:
1440:Drivers/STM32F4xx_HAL_Driver/Src/stm32f4xx_hal_pcd.c ****       {
 1800              		.loc 1 1440 63 is_stmt 1 discriminator 2 view .LVU743
 1801              	.LVL101:
1440:Drivers/STM32F4xx_HAL_Driver/Src/stm32f4xx_hal_pcd.c ****       {
 1802              		.loc 1 1440 30 discriminator 1 view .LVU744
 1803 014e 082B     		cmp	r3, #8
 1804 0150 39D9     		bls	.L234
1442:Drivers/STM32F4xx_HAL_Driver/Src/stm32f4xx_hal_pcd.c ****         {
 1805              		.loc 1 1442 9 view .LVU745
1442:Drivers/STM32F4xx_HAL_Driver/Src/stm32f4xx_hal_pcd.c ****         {
 1806              		.loc 1 1442 12 is_stmt 0 view .LVU746
 1807 0152 94F87723 		ldrb	r2, [r4, #887]	@ zero_extendqisi2
 1808 0156 012A     		cmp	r2, #1
ARM GAS  /tmp/ccDYdWST.s 			page 74


 1809 0158 00F04684 		beq	.L366
 1810              	.L243:
1440:Drivers/STM32F4xx_HAL_Driver/Src/stm32f4xx_hal_pcd.c ****       {
 1811              		.loc 1 1440 63 is_stmt 1 discriminator 2 view .LVU747
 1812              	.LVL102:
1440:Drivers/STM32F4xx_HAL_Driver/Src/stm32f4xx_hal_pcd.c ****       {
 1813              		.loc 1 1440 30 discriminator 1 view .LVU748
 1814 015c 092B     		cmp	r3, #9
 1815 015e 32D9     		bls	.L234
1442:Drivers/STM32F4xx_HAL_Driver/Src/stm32f4xx_hal_pcd.c ****         {
 1816              		.loc 1 1442 9 view .LVU749
1442:Drivers/STM32F4xx_HAL_Driver/Src/stm32f4xx_hal_pcd.c ****         {
 1817              		.loc 1 1442 12 is_stmt 0 view .LVU750
 1818 0160 94F89B23 		ldrb	r2, [r4, #923]	@ zero_extendqisi2
 1819 0164 012A     		cmp	r2, #1
 1820 0166 00F05384 		beq	.L367
 1821              	.L244:
1440:Drivers/STM32F4xx_HAL_Driver/Src/stm32f4xx_hal_pcd.c ****       {
 1822              		.loc 1 1440 63 is_stmt 1 discriminator 2 view .LVU751
 1823              	.LVL103:
1440:Drivers/STM32F4xx_HAL_Driver/Src/stm32f4xx_hal_pcd.c ****       {
 1824              		.loc 1 1440 30 discriminator 1 view .LVU752
 1825 016a 0A2B     		cmp	r3, #10
 1826 016c 2BD9     		bls	.L234
1442:Drivers/STM32F4xx_HAL_Driver/Src/stm32f4xx_hal_pcd.c ****         {
 1827              		.loc 1 1442 9 view .LVU753
1442:Drivers/STM32F4xx_HAL_Driver/Src/stm32f4xx_hal_pcd.c ****         {
 1828              		.loc 1 1442 12 is_stmt 0 view .LVU754
 1829 016e 94F8BF23 		ldrb	r2, [r4, #959]	@ zero_extendqisi2
 1830 0172 012A     		cmp	r2, #1
 1831 0174 00F06084 		beq	.L368
 1832              	.L245:
1440:Drivers/STM32F4xx_HAL_Driver/Src/stm32f4xx_hal_pcd.c ****       {
 1833              		.loc 1 1440 63 is_stmt 1 discriminator 2 view .LVU755
 1834              	.LVL104:
1440:Drivers/STM32F4xx_HAL_Driver/Src/stm32f4xx_hal_pcd.c ****       {
 1835              		.loc 1 1440 30 discriminator 1 view .LVU756
 1836 0178 0B2B     		cmp	r3, #11
 1837 017a 24D9     		bls	.L234
1442:Drivers/STM32F4xx_HAL_Driver/Src/stm32f4xx_hal_pcd.c ****         {
 1838              		.loc 1 1442 9 view .LVU757
1442:Drivers/STM32F4xx_HAL_Driver/Src/stm32f4xx_hal_pcd.c ****         {
 1839              		.loc 1 1442 12 is_stmt 0 view .LVU758
 1840 017c 94F8E323 		ldrb	r2, [r4, #995]	@ zero_extendqisi2
 1841 0180 012A     		cmp	r2, #1
 1842 0182 00F06D84 		beq	.L369
 1843              	.L246:
1440:Drivers/STM32F4xx_HAL_Driver/Src/stm32f4xx_hal_pcd.c ****       {
 1844              		.loc 1 1440 63 is_stmt 1 discriminator 2 view .LVU759
 1845              	.LVL105:
1440:Drivers/STM32F4xx_HAL_Driver/Src/stm32f4xx_hal_pcd.c ****       {
 1846              		.loc 1 1440 30 discriminator 1 view .LVU760
 1847 0186 0C2B     		cmp	r3, #12
 1848 0188 1DD9     		bls	.L234
1442:Drivers/STM32F4xx_HAL_Driver/Src/stm32f4xx_hal_pcd.c ****         {
 1849              		.loc 1 1442 9 view .LVU761
1442:Drivers/STM32F4xx_HAL_Driver/Src/stm32f4xx_hal_pcd.c ****         {
ARM GAS  /tmp/ccDYdWST.s 			page 75


 1850              		.loc 1 1442 12 is_stmt 0 view .LVU762
 1851 018a 94F80724 		ldrb	r2, [r4, #1031]	@ zero_extendqisi2
 1852 018e 012A     		cmp	r2, #1
 1853 0190 00F07284 		beq	.L370
 1854              	.L247:
1440:Drivers/STM32F4xx_HAL_Driver/Src/stm32f4xx_hal_pcd.c ****       {
 1855              		.loc 1 1440 63 is_stmt 1 discriminator 2 view .LVU763
 1856              	.LVL106:
1440:Drivers/STM32F4xx_HAL_Driver/Src/stm32f4xx_hal_pcd.c ****       {
 1857              		.loc 1 1440 30 discriminator 1 view .LVU764
 1858 0194 0D2B     		cmp	r3, #13
 1859 0196 16D9     		bls	.L234
1442:Drivers/STM32F4xx_HAL_Driver/Src/stm32f4xx_hal_pcd.c ****         {
 1860              		.loc 1 1442 9 view .LVU765
1442:Drivers/STM32F4xx_HAL_Driver/Src/stm32f4xx_hal_pcd.c ****         {
 1861              		.loc 1 1442 12 is_stmt 0 view .LVU766
 1862 0198 94F82B24 		ldrb	r2, [r4, #1067]	@ zero_extendqisi2
 1863 019c 012A     		cmp	r2, #1
 1864 019e 00F08E84 		beq	.L371
 1865              	.L248:
1440:Drivers/STM32F4xx_HAL_Driver/Src/stm32f4xx_hal_pcd.c ****       {
 1866              		.loc 1 1440 63 is_stmt 1 discriminator 2 view .LVU767
 1867              	.LVL107:
1440:Drivers/STM32F4xx_HAL_Driver/Src/stm32f4xx_hal_pcd.c ****       {
 1868              		.loc 1 1440 30 discriminator 1 view .LVU768
 1869 01a2 0E2B     		cmp	r3, #14
 1870 01a4 0FD9     		bls	.L234
1442:Drivers/STM32F4xx_HAL_Driver/Src/stm32f4xx_hal_pcd.c ****         {
 1871              		.loc 1 1442 9 view .LVU769
1442:Drivers/STM32F4xx_HAL_Driver/Src/stm32f4xx_hal_pcd.c ****         {
 1872              		.loc 1 1442 12 is_stmt 0 view .LVU770
 1873 01a6 94F84F24 		ldrb	r2, [r4, #1103]	@ zero_extendqisi2
 1874 01aa 012A     		cmp	r2, #1
 1875 01ac 00F09584 		beq	.L372
 1876              	.L249:
1440:Drivers/STM32F4xx_HAL_Driver/Src/stm32f4xx_hal_pcd.c ****       {
 1877              		.loc 1 1440 63 is_stmt 1 discriminator 2 view .LVU771
 1878              	.LVL108:
1440:Drivers/STM32F4xx_HAL_Driver/Src/stm32f4xx_hal_pcd.c ****       {
 1879              		.loc 1 1440 30 discriminator 1 view .LVU772
 1880 01b0 0F2B     		cmp	r3, #15
 1881 01b2 08D9     		bls	.L234
1442:Drivers/STM32F4xx_HAL_Driver/Src/stm32f4xx_hal_pcd.c ****         {
 1882              		.loc 1 1442 9 view .LVU773
1442:Drivers/STM32F4xx_HAL_Driver/Src/stm32f4xx_hal_pcd.c ****         {
 1883              		.loc 1 1442 12 is_stmt 0 view .LVU774
 1884 01b4 94F87334 		ldrb	r3, [r4, #1139]	@ zero_extendqisi2
 1885 01b8 012B     		cmp	r3, #1
 1886 01ba 04D1     		bne	.L234
1445:Drivers/STM32F4xx_HAL_Driver/Src/stm32f4xx_hal_pcd.c ****         }
 1887              		.loc 1 1445 11 is_stmt 1 view .LVU775
 1888              	.LVL109:
 1889              	.LBB16:
 1890              	.LBI16:
1716:Drivers/STM32F4xx_HAL_Driver/Src/stm32f4xx_hal_pcd.c **** {
1717:Drivers/STM32F4xx_HAL_Driver/Src/stm32f4xx_hal_pcd.c ****   /* Prevent unused argument(s) compilation warning */
1718:Drivers/STM32F4xx_HAL_Driver/Src/stm32f4xx_hal_pcd.c ****   UNUSED(hpcd);
ARM GAS  /tmp/ccDYdWST.s 			page 76


1719:Drivers/STM32F4xx_HAL_Driver/Src/stm32f4xx_hal_pcd.c **** 
1720:Drivers/STM32F4xx_HAL_Driver/Src/stm32f4xx_hal_pcd.c ****   /* NOTE : This function should not be modified, when the callback is needed,
1721:Drivers/STM32F4xx_HAL_Driver/Src/stm32f4xx_hal_pcd.c ****             the HAL_PCD_DisconnectCallback could be implemented in the user file
1722:Drivers/STM32F4xx_HAL_Driver/Src/stm32f4xx_hal_pcd.c ****    */
1723:Drivers/STM32F4xx_HAL_Driver/Src/stm32f4xx_hal_pcd.c **** }
1724:Drivers/STM32F4xx_HAL_Driver/Src/stm32f4xx_hal_pcd.c **** 
1725:Drivers/STM32F4xx_HAL_Driver/Src/stm32f4xx_hal_pcd.c **** /**
1726:Drivers/STM32F4xx_HAL_Driver/Src/stm32f4xx_hal_pcd.c ****   * @}
1727:Drivers/STM32F4xx_HAL_Driver/Src/stm32f4xx_hal_pcd.c ****   */
1728:Drivers/STM32F4xx_HAL_Driver/Src/stm32f4xx_hal_pcd.c **** 
1729:Drivers/STM32F4xx_HAL_Driver/Src/stm32f4xx_hal_pcd.c **** /** @defgroup PCD_Exported_Functions_Group3 Peripheral Control functions
1730:Drivers/STM32F4xx_HAL_Driver/Src/stm32f4xx_hal_pcd.c ****   *  @brief   management functions
1731:Drivers/STM32F4xx_HAL_Driver/Src/stm32f4xx_hal_pcd.c ****   *
1732:Drivers/STM32F4xx_HAL_Driver/Src/stm32f4xx_hal_pcd.c **** @verbatim
1733:Drivers/STM32F4xx_HAL_Driver/Src/stm32f4xx_hal_pcd.c ****  ===============================================================================
1734:Drivers/STM32F4xx_HAL_Driver/Src/stm32f4xx_hal_pcd.c ****                       ##### Peripheral Control functions #####
1735:Drivers/STM32F4xx_HAL_Driver/Src/stm32f4xx_hal_pcd.c ****  ===============================================================================
1736:Drivers/STM32F4xx_HAL_Driver/Src/stm32f4xx_hal_pcd.c ****     [..]
1737:Drivers/STM32F4xx_HAL_Driver/Src/stm32f4xx_hal_pcd.c ****     This subsection provides a set of functions allowing to control the PCD data
1738:Drivers/STM32F4xx_HAL_Driver/Src/stm32f4xx_hal_pcd.c ****     transfers.
1739:Drivers/STM32F4xx_HAL_Driver/Src/stm32f4xx_hal_pcd.c **** 
1740:Drivers/STM32F4xx_HAL_Driver/Src/stm32f4xx_hal_pcd.c **** @endverbatim
1741:Drivers/STM32F4xx_HAL_Driver/Src/stm32f4xx_hal_pcd.c ****   * @{
1742:Drivers/STM32F4xx_HAL_Driver/Src/stm32f4xx_hal_pcd.c ****   */
1743:Drivers/STM32F4xx_HAL_Driver/Src/stm32f4xx_hal_pcd.c **** 
1744:Drivers/STM32F4xx_HAL_Driver/Src/stm32f4xx_hal_pcd.c **** /**
1745:Drivers/STM32F4xx_HAL_Driver/Src/stm32f4xx_hal_pcd.c ****   * @brief  Connect the USB device
1746:Drivers/STM32F4xx_HAL_Driver/Src/stm32f4xx_hal_pcd.c ****   * @param  hpcd PCD handle
1747:Drivers/STM32F4xx_HAL_Driver/Src/stm32f4xx_hal_pcd.c ****   * @retval HAL status
1748:Drivers/STM32F4xx_HAL_Driver/Src/stm32f4xx_hal_pcd.c ****   */
1749:Drivers/STM32F4xx_HAL_Driver/Src/stm32f4xx_hal_pcd.c **** HAL_StatusTypeDef HAL_PCD_DevConnect(PCD_HandleTypeDef *hpcd)
1750:Drivers/STM32F4xx_HAL_Driver/Src/stm32f4xx_hal_pcd.c **** {
1751:Drivers/STM32F4xx_HAL_Driver/Src/stm32f4xx_hal_pcd.c ****   USB_OTG_GlobalTypeDef *USBx = hpcd->Instance;
1752:Drivers/STM32F4xx_HAL_Driver/Src/stm32f4xx_hal_pcd.c **** 
1753:Drivers/STM32F4xx_HAL_Driver/Src/stm32f4xx_hal_pcd.c ****   __HAL_LOCK(hpcd);
1754:Drivers/STM32F4xx_HAL_Driver/Src/stm32f4xx_hal_pcd.c **** 
1755:Drivers/STM32F4xx_HAL_Driver/Src/stm32f4xx_hal_pcd.c ****   if (((USBx->GUSBCFG & USB_OTG_GUSBCFG_PHYSEL) != 0U) &&
1756:Drivers/STM32F4xx_HAL_Driver/Src/stm32f4xx_hal_pcd.c ****       (hpcd->Init.battery_charging_enable == 1U))
1757:Drivers/STM32F4xx_HAL_Driver/Src/stm32f4xx_hal_pcd.c ****   {
1758:Drivers/STM32F4xx_HAL_Driver/Src/stm32f4xx_hal_pcd.c ****     /* Enable USB Transceiver */
1759:Drivers/STM32F4xx_HAL_Driver/Src/stm32f4xx_hal_pcd.c ****     USBx->GCCFG |= USB_OTG_GCCFG_PWRDWN;
1760:Drivers/STM32F4xx_HAL_Driver/Src/stm32f4xx_hal_pcd.c ****   }
1761:Drivers/STM32F4xx_HAL_Driver/Src/stm32f4xx_hal_pcd.c ****   (void)USB_DevConnect(hpcd->Instance);
1762:Drivers/STM32F4xx_HAL_Driver/Src/stm32f4xx_hal_pcd.c ****   __HAL_UNLOCK(hpcd);
1763:Drivers/STM32F4xx_HAL_Driver/Src/stm32f4xx_hal_pcd.c **** 
1764:Drivers/STM32F4xx_HAL_Driver/Src/stm32f4xx_hal_pcd.c ****   return HAL_OK;
1765:Drivers/STM32F4xx_HAL_Driver/Src/stm32f4xx_hal_pcd.c **** }
1766:Drivers/STM32F4xx_HAL_Driver/Src/stm32f4xx_hal_pcd.c **** 
1767:Drivers/STM32F4xx_HAL_Driver/Src/stm32f4xx_hal_pcd.c **** /**
1768:Drivers/STM32F4xx_HAL_Driver/Src/stm32f4xx_hal_pcd.c ****   * @brief  Disconnect the USB device.
1769:Drivers/STM32F4xx_HAL_Driver/Src/stm32f4xx_hal_pcd.c ****   * @param  hpcd PCD handle
1770:Drivers/STM32F4xx_HAL_Driver/Src/stm32f4xx_hal_pcd.c ****   * @retval HAL status
1771:Drivers/STM32F4xx_HAL_Driver/Src/stm32f4xx_hal_pcd.c ****   */
1772:Drivers/STM32F4xx_HAL_Driver/Src/stm32f4xx_hal_pcd.c **** HAL_StatusTypeDef HAL_PCD_DevDisconnect(PCD_HandleTypeDef *hpcd)
1773:Drivers/STM32F4xx_HAL_Driver/Src/stm32f4xx_hal_pcd.c **** {
1774:Drivers/STM32F4xx_HAL_Driver/Src/stm32f4xx_hal_pcd.c ****   USB_OTG_GlobalTypeDef *USBx = hpcd->Instance;
1775:Drivers/STM32F4xx_HAL_Driver/Src/stm32f4xx_hal_pcd.c **** 
ARM GAS  /tmp/ccDYdWST.s 			page 77


1776:Drivers/STM32F4xx_HAL_Driver/Src/stm32f4xx_hal_pcd.c ****   __HAL_LOCK(hpcd);
1777:Drivers/STM32F4xx_HAL_Driver/Src/stm32f4xx_hal_pcd.c ****   (void)USB_DevDisconnect(hpcd->Instance);
1778:Drivers/STM32F4xx_HAL_Driver/Src/stm32f4xx_hal_pcd.c **** 
1779:Drivers/STM32F4xx_HAL_Driver/Src/stm32f4xx_hal_pcd.c ****   if (((USBx->GUSBCFG & USB_OTG_GUSBCFG_PHYSEL) != 0U) &&
1780:Drivers/STM32F4xx_HAL_Driver/Src/stm32f4xx_hal_pcd.c ****       (hpcd->Init.battery_charging_enable == 1U))
1781:Drivers/STM32F4xx_HAL_Driver/Src/stm32f4xx_hal_pcd.c ****   {
1782:Drivers/STM32F4xx_HAL_Driver/Src/stm32f4xx_hal_pcd.c ****     /* Disable USB Transceiver */
1783:Drivers/STM32F4xx_HAL_Driver/Src/stm32f4xx_hal_pcd.c ****     USBx->GCCFG &= ~(USB_OTG_GCCFG_PWRDWN);
1784:Drivers/STM32F4xx_HAL_Driver/Src/stm32f4xx_hal_pcd.c ****   }
1785:Drivers/STM32F4xx_HAL_Driver/Src/stm32f4xx_hal_pcd.c **** 
1786:Drivers/STM32F4xx_HAL_Driver/Src/stm32f4xx_hal_pcd.c ****   __HAL_UNLOCK(hpcd);
1787:Drivers/STM32F4xx_HAL_Driver/Src/stm32f4xx_hal_pcd.c **** 
1788:Drivers/STM32F4xx_HAL_Driver/Src/stm32f4xx_hal_pcd.c ****   return HAL_OK;
1789:Drivers/STM32F4xx_HAL_Driver/Src/stm32f4xx_hal_pcd.c **** }
1790:Drivers/STM32F4xx_HAL_Driver/Src/stm32f4xx_hal_pcd.c **** 
1791:Drivers/STM32F4xx_HAL_Driver/Src/stm32f4xx_hal_pcd.c **** /**
1792:Drivers/STM32F4xx_HAL_Driver/Src/stm32f4xx_hal_pcd.c ****   * @brief  Set the USB Device address.
1793:Drivers/STM32F4xx_HAL_Driver/Src/stm32f4xx_hal_pcd.c ****   * @param  hpcd PCD handle
1794:Drivers/STM32F4xx_HAL_Driver/Src/stm32f4xx_hal_pcd.c ****   * @param  address new device address
1795:Drivers/STM32F4xx_HAL_Driver/Src/stm32f4xx_hal_pcd.c ****   * @retval HAL status
1796:Drivers/STM32F4xx_HAL_Driver/Src/stm32f4xx_hal_pcd.c ****   */
1797:Drivers/STM32F4xx_HAL_Driver/Src/stm32f4xx_hal_pcd.c **** HAL_StatusTypeDef HAL_PCD_SetAddress(PCD_HandleTypeDef *hpcd, uint8_t address)
1798:Drivers/STM32F4xx_HAL_Driver/Src/stm32f4xx_hal_pcd.c **** {
1799:Drivers/STM32F4xx_HAL_Driver/Src/stm32f4xx_hal_pcd.c ****   __HAL_LOCK(hpcd);
1800:Drivers/STM32F4xx_HAL_Driver/Src/stm32f4xx_hal_pcd.c ****   hpcd->USB_Address = address;
1801:Drivers/STM32F4xx_HAL_Driver/Src/stm32f4xx_hal_pcd.c ****   (void)USB_SetDevAddress(hpcd->Instance, address);
1802:Drivers/STM32F4xx_HAL_Driver/Src/stm32f4xx_hal_pcd.c ****   __HAL_UNLOCK(hpcd);
1803:Drivers/STM32F4xx_HAL_Driver/Src/stm32f4xx_hal_pcd.c **** 
1804:Drivers/STM32F4xx_HAL_Driver/Src/stm32f4xx_hal_pcd.c ****   return HAL_OK;
1805:Drivers/STM32F4xx_HAL_Driver/Src/stm32f4xx_hal_pcd.c **** }
1806:Drivers/STM32F4xx_HAL_Driver/Src/stm32f4xx_hal_pcd.c **** /**
1807:Drivers/STM32F4xx_HAL_Driver/Src/stm32f4xx_hal_pcd.c ****   * @brief  Open and configure an endpoint.
1808:Drivers/STM32F4xx_HAL_Driver/Src/stm32f4xx_hal_pcd.c ****   * @param  hpcd PCD handle
1809:Drivers/STM32F4xx_HAL_Driver/Src/stm32f4xx_hal_pcd.c ****   * @param  ep_addr endpoint address
1810:Drivers/STM32F4xx_HAL_Driver/Src/stm32f4xx_hal_pcd.c ****   * @param  ep_mps endpoint max packet size
1811:Drivers/STM32F4xx_HAL_Driver/Src/stm32f4xx_hal_pcd.c ****   * @param  ep_type endpoint type
1812:Drivers/STM32F4xx_HAL_Driver/Src/stm32f4xx_hal_pcd.c ****   * @retval HAL status
1813:Drivers/STM32F4xx_HAL_Driver/Src/stm32f4xx_hal_pcd.c ****   */
1814:Drivers/STM32F4xx_HAL_Driver/Src/stm32f4xx_hal_pcd.c **** HAL_StatusTypeDef HAL_PCD_EP_Open(PCD_HandleTypeDef *hpcd, uint8_t ep_addr,
1815:Drivers/STM32F4xx_HAL_Driver/Src/stm32f4xx_hal_pcd.c ****                                   uint16_t ep_mps, uint8_t ep_type)
1816:Drivers/STM32F4xx_HAL_Driver/Src/stm32f4xx_hal_pcd.c **** {
1817:Drivers/STM32F4xx_HAL_Driver/Src/stm32f4xx_hal_pcd.c ****   HAL_StatusTypeDef  ret = HAL_OK;
1818:Drivers/STM32F4xx_HAL_Driver/Src/stm32f4xx_hal_pcd.c ****   PCD_EPTypeDef *ep;
1819:Drivers/STM32F4xx_HAL_Driver/Src/stm32f4xx_hal_pcd.c **** 
1820:Drivers/STM32F4xx_HAL_Driver/Src/stm32f4xx_hal_pcd.c ****   if ((ep_addr & 0x80U) == 0x80U)
1821:Drivers/STM32F4xx_HAL_Driver/Src/stm32f4xx_hal_pcd.c ****   {
1822:Drivers/STM32F4xx_HAL_Driver/Src/stm32f4xx_hal_pcd.c ****     ep = &hpcd->IN_ep[ep_addr & EP_ADDR_MSK];
1823:Drivers/STM32F4xx_HAL_Driver/Src/stm32f4xx_hal_pcd.c ****     ep->is_in = 1U;
1824:Drivers/STM32F4xx_HAL_Driver/Src/stm32f4xx_hal_pcd.c ****   }
1825:Drivers/STM32F4xx_HAL_Driver/Src/stm32f4xx_hal_pcd.c ****   else
1826:Drivers/STM32F4xx_HAL_Driver/Src/stm32f4xx_hal_pcd.c ****   {
1827:Drivers/STM32F4xx_HAL_Driver/Src/stm32f4xx_hal_pcd.c ****     ep = &hpcd->OUT_ep[ep_addr & EP_ADDR_MSK];
1828:Drivers/STM32F4xx_HAL_Driver/Src/stm32f4xx_hal_pcd.c ****     ep->is_in = 0U;
1829:Drivers/STM32F4xx_HAL_Driver/Src/stm32f4xx_hal_pcd.c ****   }
1830:Drivers/STM32F4xx_HAL_Driver/Src/stm32f4xx_hal_pcd.c **** 
1831:Drivers/STM32F4xx_HAL_Driver/Src/stm32f4xx_hal_pcd.c ****   ep->num = ep_addr & EP_ADDR_MSK;
1832:Drivers/STM32F4xx_HAL_Driver/Src/stm32f4xx_hal_pcd.c ****   ep->maxpacket = ep_mps;
ARM GAS  /tmp/ccDYdWST.s 			page 78


1833:Drivers/STM32F4xx_HAL_Driver/Src/stm32f4xx_hal_pcd.c ****   ep->type = ep_type;
1834:Drivers/STM32F4xx_HAL_Driver/Src/stm32f4xx_hal_pcd.c **** 
1835:Drivers/STM32F4xx_HAL_Driver/Src/stm32f4xx_hal_pcd.c ****   if (ep->is_in != 0U)
1836:Drivers/STM32F4xx_HAL_Driver/Src/stm32f4xx_hal_pcd.c ****   {
1837:Drivers/STM32F4xx_HAL_Driver/Src/stm32f4xx_hal_pcd.c ****     /* Assign a Tx FIFO */
1838:Drivers/STM32F4xx_HAL_Driver/Src/stm32f4xx_hal_pcd.c ****     ep->tx_fifo_num = ep->num;
1839:Drivers/STM32F4xx_HAL_Driver/Src/stm32f4xx_hal_pcd.c ****   }
1840:Drivers/STM32F4xx_HAL_Driver/Src/stm32f4xx_hal_pcd.c **** 
1841:Drivers/STM32F4xx_HAL_Driver/Src/stm32f4xx_hal_pcd.c ****   /* Set initial data PID. */
1842:Drivers/STM32F4xx_HAL_Driver/Src/stm32f4xx_hal_pcd.c ****   if (ep_type == EP_TYPE_BULK)
1843:Drivers/STM32F4xx_HAL_Driver/Src/stm32f4xx_hal_pcd.c ****   {
1844:Drivers/STM32F4xx_HAL_Driver/Src/stm32f4xx_hal_pcd.c ****     ep->data_pid_start = 0U;
1845:Drivers/STM32F4xx_HAL_Driver/Src/stm32f4xx_hal_pcd.c ****   }
1846:Drivers/STM32F4xx_HAL_Driver/Src/stm32f4xx_hal_pcd.c **** 
1847:Drivers/STM32F4xx_HAL_Driver/Src/stm32f4xx_hal_pcd.c ****   __HAL_LOCK(hpcd);
1848:Drivers/STM32F4xx_HAL_Driver/Src/stm32f4xx_hal_pcd.c ****   (void)USB_ActivateEndpoint(hpcd->Instance, ep);
1849:Drivers/STM32F4xx_HAL_Driver/Src/stm32f4xx_hal_pcd.c ****   __HAL_UNLOCK(hpcd);
1850:Drivers/STM32F4xx_HAL_Driver/Src/stm32f4xx_hal_pcd.c **** 
1851:Drivers/STM32F4xx_HAL_Driver/Src/stm32f4xx_hal_pcd.c ****   return ret;
1852:Drivers/STM32F4xx_HAL_Driver/Src/stm32f4xx_hal_pcd.c **** }
1853:Drivers/STM32F4xx_HAL_Driver/Src/stm32f4xx_hal_pcd.c **** 
1854:Drivers/STM32F4xx_HAL_Driver/Src/stm32f4xx_hal_pcd.c **** /**
1855:Drivers/STM32F4xx_HAL_Driver/Src/stm32f4xx_hal_pcd.c ****   * @brief  Deactivate an endpoint.
1856:Drivers/STM32F4xx_HAL_Driver/Src/stm32f4xx_hal_pcd.c ****   * @param  hpcd PCD handle
1857:Drivers/STM32F4xx_HAL_Driver/Src/stm32f4xx_hal_pcd.c ****   * @param  ep_addr endpoint address
1858:Drivers/STM32F4xx_HAL_Driver/Src/stm32f4xx_hal_pcd.c ****   * @retval HAL status
1859:Drivers/STM32F4xx_HAL_Driver/Src/stm32f4xx_hal_pcd.c ****   */
1860:Drivers/STM32F4xx_HAL_Driver/Src/stm32f4xx_hal_pcd.c **** HAL_StatusTypeDef HAL_PCD_EP_Close(PCD_HandleTypeDef *hpcd, uint8_t ep_addr)
1861:Drivers/STM32F4xx_HAL_Driver/Src/stm32f4xx_hal_pcd.c **** {
1862:Drivers/STM32F4xx_HAL_Driver/Src/stm32f4xx_hal_pcd.c ****   PCD_EPTypeDef *ep;
1863:Drivers/STM32F4xx_HAL_Driver/Src/stm32f4xx_hal_pcd.c **** 
1864:Drivers/STM32F4xx_HAL_Driver/Src/stm32f4xx_hal_pcd.c ****   if ((ep_addr & 0x80U) == 0x80U)
1865:Drivers/STM32F4xx_HAL_Driver/Src/stm32f4xx_hal_pcd.c ****   {
1866:Drivers/STM32F4xx_HAL_Driver/Src/stm32f4xx_hal_pcd.c ****     ep = &hpcd->IN_ep[ep_addr & EP_ADDR_MSK];
1867:Drivers/STM32F4xx_HAL_Driver/Src/stm32f4xx_hal_pcd.c ****     ep->is_in = 1U;
1868:Drivers/STM32F4xx_HAL_Driver/Src/stm32f4xx_hal_pcd.c ****   }
1869:Drivers/STM32F4xx_HAL_Driver/Src/stm32f4xx_hal_pcd.c ****   else
1870:Drivers/STM32F4xx_HAL_Driver/Src/stm32f4xx_hal_pcd.c ****   {
1871:Drivers/STM32F4xx_HAL_Driver/Src/stm32f4xx_hal_pcd.c ****     ep = &hpcd->OUT_ep[ep_addr & EP_ADDR_MSK];
1872:Drivers/STM32F4xx_HAL_Driver/Src/stm32f4xx_hal_pcd.c ****     ep->is_in = 0U;
1873:Drivers/STM32F4xx_HAL_Driver/Src/stm32f4xx_hal_pcd.c ****   }
1874:Drivers/STM32F4xx_HAL_Driver/Src/stm32f4xx_hal_pcd.c ****   ep->num = ep_addr & EP_ADDR_MSK;
1875:Drivers/STM32F4xx_HAL_Driver/Src/stm32f4xx_hal_pcd.c **** 
1876:Drivers/STM32F4xx_HAL_Driver/Src/stm32f4xx_hal_pcd.c ****   __HAL_LOCK(hpcd);
1877:Drivers/STM32F4xx_HAL_Driver/Src/stm32f4xx_hal_pcd.c ****   (void)USB_DeactivateEndpoint(hpcd->Instance, ep);
1878:Drivers/STM32F4xx_HAL_Driver/Src/stm32f4xx_hal_pcd.c ****   __HAL_UNLOCK(hpcd);
1879:Drivers/STM32F4xx_HAL_Driver/Src/stm32f4xx_hal_pcd.c ****   return HAL_OK;
1880:Drivers/STM32F4xx_HAL_Driver/Src/stm32f4xx_hal_pcd.c **** }
1881:Drivers/STM32F4xx_HAL_Driver/Src/stm32f4xx_hal_pcd.c **** 
1882:Drivers/STM32F4xx_HAL_Driver/Src/stm32f4xx_hal_pcd.c **** 
1883:Drivers/STM32F4xx_HAL_Driver/Src/stm32f4xx_hal_pcd.c **** /**
1884:Drivers/STM32F4xx_HAL_Driver/Src/stm32f4xx_hal_pcd.c ****   * @brief  Receive an amount of data.
1885:Drivers/STM32F4xx_HAL_Driver/Src/stm32f4xx_hal_pcd.c ****   * @param  hpcd PCD handle
1886:Drivers/STM32F4xx_HAL_Driver/Src/stm32f4xx_hal_pcd.c ****   * @param  ep_addr endpoint address
1887:Drivers/STM32F4xx_HAL_Driver/Src/stm32f4xx_hal_pcd.c ****   * @param  pBuf pointer to the reception buffer
1888:Drivers/STM32F4xx_HAL_Driver/Src/stm32f4xx_hal_pcd.c ****   * @param  len amount of data to be received
1889:Drivers/STM32F4xx_HAL_Driver/Src/stm32f4xx_hal_pcd.c ****   * @retval HAL status
ARM GAS  /tmp/ccDYdWST.s 			page 79


1890:Drivers/STM32F4xx_HAL_Driver/Src/stm32f4xx_hal_pcd.c ****   */
1891:Drivers/STM32F4xx_HAL_Driver/Src/stm32f4xx_hal_pcd.c **** HAL_StatusTypeDef HAL_PCD_EP_Receive(PCD_HandleTypeDef *hpcd, uint8_t ep_addr, uint8_t *pBuf, uint3
1892:Drivers/STM32F4xx_HAL_Driver/Src/stm32f4xx_hal_pcd.c **** {
1893:Drivers/STM32F4xx_HAL_Driver/Src/stm32f4xx_hal_pcd.c ****   PCD_EPTypeDef *ep;
1894:Drivers/STM32F4xx_HAL_Driver/Src/stm32f4xx_hal_pcd.c **** 
1895:Drivers/STM32F4xx_HAL_Driver/Src/stm32f4xx_hal_pcd.c ****   ep = &hpcd->OUT_ep[ep_addr & EP_ADDR_MSK];
1896:Drivers/STM32F4xx_HAL_Driver/Src/stm32f4xx_hal_pcd.c **** 
1897:Drivers/STM32F4xx_HAL_Driver/Src/stm32f4xx_hal_pcd.c ****   /*setup and start the Xfer */
1898:Drivers/STM32F4xx_HAL_Driver/Src/stm32f4xx_hal_pcd.c ****   ep->xfer_buff = pBuf;
1899:Drivers/STM32F4xx_HAL_Driver/Src/stm32f4xx_hal_pcd.c ****   ep->xfer_len = len;
1900:Drivers/STM32F4xx_HAL_Driver/Src/stm32f4xx_hal_pcd.c ****   ep->xfer_count = 0U;
1901:Drivers/STM32F4xx_HAL_Driver/Src/stm32f4xx_hal_pcd.c ****   ep->is_in = 0U;
1902:Drivers/STM32F4xx_HAL_Driver/Src/stm32f4xx_hal_pcd.c ****   ep->num = ep_addr & EP_ADDR_MSK;
1903:Drivers/STM32F4xx_HAL_Driver/Src/stm32f4xx_hal_pcd.c **** 
1904:Drivers/STM32F4xx_HAL_Driver/Src/stm32f4xx_hal_pcd.c ****   if (hpcd->Init.dma_enable == 1U)
1905:Drivers/STM32F4xx_HAL_Driver/Src/stm32f4xx_hal_pcd.c ****   {
1906:Drivers/STM32F4xx_HAL_Driver/Src/stm32f4xx_hal_pcd.c ****     ep->dma_addr = (uint32_t)pBuf;
1907:Drivers/STM32F4xx_HAL_Driver/Src/stm32f4xx_hal_pcd.c ****   }
1908:Drivers/STM32F4xx_HAL_Driver/Src/stm32f4xx_hal_pcd.c **** 
1909:Drivers/STM32F4xx_HAL_Driver/Src/stm32f4xx_hal_pcd.c ****   (void)USB_EPStartXfer(hpcd->Instance, ep, (uint8_t)hpcd->Init.dma_enable);
1910:Drivers/STM32F4xx_HAL_Driver/Src/stm32f4xx_hal_pcd.c **** 
1911:Drivers/STM32F4xx_HAL_Driver/Src/stm32f4xx_hal_pcd.c ****   return HAL_OK;
1912:Drivers/STM32F4xx_HAL_Driver/Src/stm32f4xx_hal_pcd.c **** }
1913:Drivers/STM32F4xx_HAL_Driver/Src/stm32f4xx_hal_pcd.c **** 
1914:Drivers/STM32F4xx_HAL_Driver/Src/stm32f4xx_hal_pcd.c **** /**
1915:Drivers/STM32F4xx_HAL_Driver/Src/stm32f4xx_hal_pcd.c ****   * @brief  Get Received Data Size
1916:Drivers/STM32F4xx_HAL_Driver/Src/stm32f4xx_hal_pcd.c ****   * @param  hpcd PCD handle
1917:Drivers/STM32F4xx_HAL_Driver/Src/stm32f4xx_hal_pcd.c ****   * @param  ep_addr endpoint address
1918:Drivers/STM32F4xx_HAL_Driver/Src/stm32f4xx_hal_pcd.c ****   * @retval Data Size
1919:Drivers/STM32F4xx_HAL_Driver/Src/stm32f4xx_hal_pcd.c ****   */
1920:Drivers/STM32F4xx_HAL_Driver/Src/stm32f4xx_hal_pcd.c **** uint32_t HAL_PCD_EP_GetRxCount(PCD_HandleTypeDef const *hpcd, uint8_t ep_addr)
1921:Drivers/STM32F4xx_HAL_Driver/Src/stm32f4xx_hal_pcd.c **** {
1922:Drivers/STM32F4xx_HAL_Driver/Src/stm32f4xx_hal_pcd.c ****   return hpcd->OUT_ep[ep_addr & EP_ADDR_MSK].xfer_count;
1923:Drivers/STM32F4xx_HAL_Driver/Src/stm32f4xx_hal_pcd.c **** }
1924:Drivers/STM32F4xx_HAL_Driver/Src/stm32f4xx_hal_pcd.c **** /**
1925:Drivers/STM32F4xx_HAL_Driver/Src/stm32f4xx_hal_pcd.c ****   * @brief  Send an amount of data
1926:Drivers/STM32F4xx_HAL_Driver/Src/stm32f4xx_hal_pcd.c ****   * @param  hpcd PCD handle
1927:Drivers/STM32F4xx_HAL_Driver/Src/stm32f4xx_hal_pcd.c ****   * @param  ep_addr endpoint address
1928:Drivers/STM32F4xx_HAL_Driver/Src/stm32f4xx_hal_pcd.c ****   * @param  pBuf pointer to the transmission buffer
1929:Drivers/STM32F4xx_HAL_Driver/Src/stm32f4xx_hal_pcd.c ****   * @param  len amount of data to be sent
1930:Drivers/STM32F4xx_HAL_Driver/Src/stm32f4xx_hal_pcd.c ****   * @retval HAL status
1931:Drivers/STM32F4xx_HAL_Driver/Src/stm32f4xx_hal_pcd.c ****   */
1932:Drivers/STM32F4xx_HAL_Driver/Src/stm32f4xx_hal_pcd.c **** HAL_StatusTypeDef HAL_PCD_EP_Transmit(PCD_HandleTypeDef *hpcd, uint8_t ep_addr, uint8_t *pBuf, uint
1933:Drivers/STM32F4xx_HAL_Driver/Src/stm32f4xx_hal_pcd.c **** {
1934:Drivers/STM32F4xx_HAL_Driver/Src/stm32f4xx_hal_pcd.c ****   PCD_EPTypeDef *ep;
1935:Drivers/STM32F4xx_HAL_Driver/Src/stm32f4xx_hal_pcd.c **** 
1936:Drivers/STM32F4xx_HAL_Driver/Src/stm32f4xx_hal_pcd.c ****   ep = &hpcd->IN_ep[ep_addr & EP_ADDR_MSK];
1937:Drivers/STM32F4xx_HAL_Driver/Src/stm32f4xx_hal_pcd.c **** 
1938:Drivers/STM32F4xx_HAL_Driver/Src/stm32f4xx_hal_pcd.c ****   /*setup and start the Xfer */
1939:Drivers/STM32F4xx_HAL_Driver/Src/stm32f4xx_hal_pcd.c ****   ep->xfer_buff = pBuf;
1940:Drivers/STM32F4xx_HAL_Driver/Src/stm32f4xx_hal_pcd.c ****   ep->xfer_len = len;
1941:Drivers/STM32F4xx_HAL_Driver/Src/stm32f4xx_hal_pcd.c ****   ep->xfer_count = 0U;
1942:Drivers/STM32F4xx_HAL_Driver/Src/stm32f4xx_hal_pcd.c ****   ep->is_in = 1U;
1943:Drivers/STM32F4xx_HAL_Driver/Src/stm32f4xx_hal_pcd.c ****   ep->num = ep_addr & EP_ADDR_MSK;
1944:Drivers/STM32F4xx_HAL_Driver/Src/stm32f4xx_hal_pcd.c **** 
1945:Drivers/STM32F4xx_HAL_Driver/Src/stm32f4xx_hal_pcd.c ****   if (hpcd->Init.dma_enable == 1U)
1946:Drivers/STM32F4xx_HAL_Driver/Src/stm32f4xx_hal_pcd.c ****   {
ARM GAS  /tmp/ccDYdWST.s 			page 80


1947:Drivers/STM32F4xx_HAL_Driver/Src/stm32f4xx_hal_pcd.c ****     ep->dma_addr = (uint32_t)pBuf;
1948:Drivers/STM32F4xx_HAL_Driver/Src/stm32f4xx_hal_pcd.c ****   }
1949:Drivers/STM32F4xx_HAL_Driver/Src/stm32f4xx_hal_pcd.c **** 
1950:Drivers/STM32F4xx_HAL_Driver/Src/stm32f4xx_hal_pcd.c ****   (void)USB_EPStartXfer(hpcd->Instance, ep, (uint8_t)hpcd->Init.dma_enable);
1951:Drivers/STM32F4xx_HAL_Driver/Src/stm32f4xx_hal_pcd.c **** 
1952:Drivers/STM32F4xx_HAL_Driver/Src/stm32f4xx_hal_pcd.c ****   return HAL_OK;
1953:Drivers/STM32F4xx_HAL_Driver/Src/stm32f4xx_hal_pcd.c **** }
1954:Drivers/STM32F4xx_HAL_Driver/Src/stm32f4xx_hal_pcd.c **** 
1955:Drivers/STM32F4xx_HAL_Driver/Src/stm32f4xx_hal_pcd.c **** /**
1956:Drivers/STM32F4xx_HAL_Driver/Src/stm32f4xx_hal_pcd.c ****   * @brief  Set a STALL condition over an endpoint
1957:Drivers/STM32F4xx_HAL_Driver/Src/stm32f4xx_hal_pcd.c ****   * @param  hpcd PCD handle
1958:Drivers/STM32F4xx_HAL_Driver/Src/stm32f4xx_hal_pcd.c ****   * @param  ep_addr endpoint address
1959:Drivers/STM32F4xx_HAL_Driver/Src/stm32f4xx_hal_pcd.c ****   * @retval HAL status
1960:Drivers/STM32F4xx_HAL_Driver/Src/stm32f4xx_hal_pcd.c ****   */
1961:Drivers/STM32F4xx_HAL_Driver/Src/stm32f4xx_hal_pcd.c **** HAL_StatusTypeDef HAL_PCD_EP_SetStall(PCD_HandleTypeDef *hpcd, uint8_t ep_addr)
1962:Drivers/STM32F4xx_HAL_Driver/Src/stm32f4xx_hal_pcd.c **** {
1963:Drivers/STM32F4xx_HAL_Driver/Src/stm32f4xx_hal_pcd.c ****   PCD_EPTypeDef *ep;
1964:Drivers/STM32F4xx_HAL_Driver/Src/stm32f4xx_hal_pcd.c **** 
1965:Drivers/STM32F4xx_HAL_Driver/Src/stm32f4xx_hal_pcd.c ****   if (((uint32_t)ep_addr & EP_ADDR_MSK) > hpcd->Init.dev_endpoints)
1966:Drivers/STM32F4xx_HAL_Driver/Src/stm32f4xx_hal_pcd.c ****   {
1967:Drivers/STM32F4xx_HAL_Driver/Src/stm32f4xx_hal_pcd.c ****     return HAL_ERROR;
1968:Drivers/STM32F4xx_HAL_Driver/Src/stm32f4xx_hal_pcd.c ****   }
1969:Drivers/STM32F4xx_HAL_Driver/Src/stm32f4xx_hal_pcd.c **** 
1970:Drivers/STM32F4xx_HAL_Driver/Src/stm32f4xx_hal_pcd.c ****   if ((0x80U & ep_addr) == 0x80U)
1971:Drivers/STM32F4xx_HAL_Driver/Src/stm32f4xx_hal_pcd.c ****   {
1972:Drivers/STM32F4xx_HAL_Driver/Src/stm32f4xx_hal_pcd.c ****     ep = &hpcd->IN_ep[ep_addr & EP_ADDR_MSK];
1973:Drivers/STM32F4xx_HAL_Driver/Src/stm32f4xx_hal_pcd.c ****     ep->is_in = 1U;
1974:Drivers/STM32F4xx_HAL_Driver/Src/stm32f4xx_hal_pcd.c ****   }
1975:Drivers/STM32F4xx_HAL_Driver/Src/stm32f4xx_hal_pcd.c ****   else
1976:Drivers/STM32F4xx_HAL_Driver/Src/stm32f4xx_hal_pcd.c ****   {
1977:Drivers/STM32F4xx_HAL_Driver/Src/stm32f4xx_hal_pcd.c ****     ep = &hpcd->OUT_ep[ep_addr];
1978:Drivers/STM32F4xx_HAL_Driver/Src/stm32f4xx_hal_pcd.c ****     ep->is_in = 0U;
1979:Drivers/STM32F4xx_HAL_Driver/Src/stm32f4xx_hal_pcd.c ****   }
1980:Drivers/STM32F4xx_HAL_Driver/Src/stm32f4xx_hal_pcd.c **** 
1981:Drivers/STM32F4xx_HAL_Driver/Src/stm32f4xx_hal_pcd.c ****   ep->is_stall = 1U;
1982:Drivers/STM32F4xx_HAL_Driver/Src/stm32f4xx_hal_pcd.c ****   ep->num = ep_addr & EP_ADDR_MSK;
1983:Drivers/STM32F4xx_HAL_Driver/Src/stm32f4xx_hal_pcd.c **** 
1984:Drivers/STM32F4xx_HAL_Driver/Src/stm32f4xx_hal_pcd.c ****   __HAL_LOCK(hpcd);
1985:Drivers/STM32F4xx_HAL_Driver/Src/stm32f4xx_hal_pcd.c **** 
1986:Drivers/STM32F4xx_HAL_Driver/Src/stm32f4xx_hal_pcd.c ****   (void)USB_EPSetStall(hpcd->Instance, ep);
1987:Drivers/STM32F4xx_HAL_Driver/Src/stm32f4xx_hal_pcd.c **** 
1988:Drivers/STM32F4xx_HAL_Driver/Src/stm32f4xx_hal_pcd.c ****   if ((ep_addr & EP_ADDR_MSK) == 0U)
1989:Drivers/STM32F4xx_HAL_Driver/Src/stm32f4xx_hal_pcd.c ****   {
1990:Drivers/STM32F4xx_HAL_Driver/Src/stm32f4xx_hal_pcd.c ****     (void)USB_EP0_OutStart(hpcd->Instance, (uint8_t)hpcd->Init.dma_enable, (uint8_t *)hpcd->Setup);
1991:Drivers/STM32F4xx_HAL_Driver/Src/stm32f4xx_hal_pcd.c ****   }
1992:Drivers/STM32F4xx_HAL_Driver/Src/stm32f4xx_hal_pcd.c **** 
1993:Drivers/STM32F4xx_HAL_Driver/Src/stm32f4xx_hal_pcd.c ****   __HAL_UNLOCK(hpcd);
1994:Drivers/STM32F4xx_HAL_Driver/Src/stm32f4xx_hal_pcd.c **** 
1995:Drivers/STM32F4xx_HAL_Driver/Src/stm32f4xx_hal_pcd.c ****   return HAL_OK;
1996:Drivers/STM32F4xx_HAL_Driver/Src/stm32f4xx_hal_pcd.c **** }
1997:Drivers/STM32F4xx_HAL_Driver/Src/stm32f4xx_hal_pcd.c **** 
1998:Drivers/STM32F4xx_HAL_Driver/Src/stm32f4xx_hal_pcd.c **** /**
1999:Drivers/STM32F4xx_HAL_Driver/Src/stm32f4xx_hal_pcd.c ****   * @brief  Clear a STALL condition over in an endpoint
2000:Drivers/STM32F4xx_HAL_Driver/Src/stm32f4xx_hal_pcd.c ****   * @param  hpcd PCD handle
2001:Drivers/STM32F4xx_HAL_Driver/Src/stm32f4xx_hal_pcd.c ****   * @param  ep_addr endpoint address
2002:Drivers/STM32F4xx_HAL_Driver/Src/stm32f4xx_hal_pcd.c ****   * @retval HAL status
2003:Drivers/STM32F4xx_HAL_Driver/Src/stm32f4xx_hal_pcd.c ****   */
ARM GAS  /tmp/ccDYdWST.s 			page 81


2004:Drivers/STM32F4xx_HAL_Driver/Src/stm32f4xx_hal_pcd.c **** HAL_StatusTypeDef HAL_PCD_EP_ClrStall(PCD_HandleTypeDef *hpcd, uint8_t ep_addr)
2005:Drivers/STM32F4xx_HAL_Driver/Src/stm32f4xx_hal_pcd.c **** {
2006:Drivers/STM32F4xx_HAL_Driver/Src/stm32f4xx_hal_pcd.c ****   PCD_EPTypeDef *ep;
2007:Drivers/STM32F4xx_HAL_Driver/Src/stm32f4xx_hal_pcd.c **** 
2008:Drivers/STM32F4xx_HAL_Driver/Src/stm32f4xx_hal_pcd.c ****   if (((uint32_t)ep_addr & 0x0FU) > hpcd->Init.dev_endpoints)
2009:Drivers/STM32F4xx_HAL_Driver/Src/stm32f4xx_hal_pcd.c ****   {
2010:Drivers/STM32F4xx_HAL_Driver/Src/stm32f4xx_hal_pcd.c ****     return HAL_ERROR;
2011:Drivers/STM32F4xx_HAL_Driver/Src/stm32f4xx_hal_pcd.c ****   }
2012:Drivers/STM32F4xx_HAL_Driver/Src/stm32f4xx_hal_pcd.c **** 
2013:Drivers/STM32F4xx_HAL_Driver/Src/stm32f4xx_hal_pcd.c ****   if ((0x80U & ep_addr) == 0x80U)
2014:Drivers/STM32F4xx_HAL_Driver/Src/stm32f4xx_hal_pcd.c ****   {
2015:Drivers/STM32F4xx_HAL_Driver/Src/stm32f4xx_hal_pcd.c ****     ep = &hpcd->IN_ep[ep_addr & EP_ADDR_MSK];
2016:Drivers/STM32F4xx_HAL_Driver/Src/stm32f4xx_hal_pcd.c ****     ep->is_in = 1U;
2017:Drivers/STM32F4xx_HAL_Driver/Src/stm32f4xx_hal_pcd.c ****   }
2018:Drivers/STM32F4xx_HAL_Driver/Src/stm32f4xx_hal_pcd.c ****   else
2019:Drivers/STM32F4xx_HAL_Driver/Src/stm32f4xx_hal_pcd.c ****   {
2020:Drivers/STM32F4xx_HAL_Driver/Src/stm32f4xx_hal_pcd.c ****     ep = &hpcd->OUT_ep[ep_addr & EP_ADDR_MSK];
2021:Drivers/STM32F4xx_HAL_Driver/Src/stm32f4xx_hal_pcd.c ****     ep->is_in = 0U;
2022:Drivers/STM32F4xx_HAL_Driver/Src/stm32f4xx_hal_pcd.c ****   }
2023:Drivers/STM32F4xx_HAL_Driver/Src/stm32f4xx_hal_pcd.c **** 
2024:Drivers/STM32F4xx_HAL_Driver/Src/stm32f4xx_hal_pcd.c ****   ep->is_stall = 0U;
2025:Drivers/STM32F4xx_HAL_Driver/Src/stm32f4xx_hal_pcd.c ****   ep->num = ep_addr & EP_ADDR_MSK;
2026:Drivers/STM32F4xx_HAL_Driver/Src/stm32f4xx_hal_pcd.c **** 
2027:Drivers/STM32F4xx_HAL_Driver/Src/stm32f4xx_hal_pcd.c ****   __HAL_LOCK(hpcd);
2028:Drivers/STM32F4xx_HAL_Driver/Src/stm32f4xx_hal_pcd.c ****   (void)USB_EPClearStall(hpcd->Instance, ep);
2029:Drivers/STM32F4xx_HAL_Driver/Src/stm32f4xx_hal_pcd.c ****   __HAL_UNLOCK(hpcd);
2030:Drivers/STM32F4xx_HAL_Driver/Src/stm32f4xx_hal_pcd.c **** 
2031:Drivers/STM32F4xx_HAL_Driver/Src/stm32f4xx_hal_pcd.c ****   return HAL_OK;
2032:Drivers/STM32F4xx_HAL_Driver/Src/stm32f4xx_hal_pcd.c **** }
2033:Drivers/STM32F4xx_HAL_Driver/Src/stm32f4xx_hal_pcd.c **** 
2034:Drivers/STM32F4xx_HAL_Driver/Src/stm32f4xx_hal_pcd.c **** /**
2035:Drivers/STM32F4xx_HAL_Driver/Src/stm32f4xx_hal_pcd.c ****    * @brief  Abort an USB EP transaction.
2036:Drivers/STM32F4xx_HAL_Driver/Src/stm32f4xx_hal_pcd.c ****    * @param  hpcd PCD handle
2037:Drivers/STM32F4xx_HAL_Driver/Src/stm32f4xx_hal_pcd.c ****    * @param  ep_addr endpoint address
2038:Drivers/STM32F4xx_HAL_Driver/Src/stm32f4xx_hal_pcd.c ****    * @retval HAL status
2039:Drivers/STM32F4xx_HAL_Driver/Src/stm32f4xx_hal_pcd.c ****    */
2040:Drivers/STM32F4xx_HAL_Driver/Src/stm32f4xx_hal_pcd.c **** HAL_StatusTypeDef HAL_PCD_EP_Abort(PCD_HandleTypeDef *hpcd, uint8_t ep_addr)
 1891              		.loc 1 2040 19 view .LVU776
 1892              	.LBB17:
2041:Drivers/STM32F4xx_HAL_Driver/Src/stm32f4xx_hal_pcd.c **** {
2042:Drivers/STM32F4xx_HAL_Driver/Src/stm32f4xx_hal_pcd.c ****   HAL_StatusTypeDef ret;
 1893              		.loc 1 2042 3 view .LVU777
2043:Drivers/STM32F4xx_HAL_Driver/Src/stm32f4xx_hal_pcd.c ****   PCD_EPTypeDef *ep;
 1894              		.loc 1 2043 3 view .LVU778
2044:Drivers/STM32F4xx_HAL_Driver/Src/stm32f4xx_hal_pcd.c **** 
2045:Drivers/STM32F4xx_HAL_Driver/Src/stm32f4xx_hal_pcd.c ****   if ((0x80U & ep_addr) == 0x80U)
 1895              		.loc 1 2045 3 view .LVU779
2046:Drivers/STM32F4xx_HAL_Driver/Src/stm32f4xx_hal_pcd.c ****   {
2047:Drivers/STM32F4xx_HAL_Driver/Src/stm32f4xx_hal_pcd.c ****     ep = &hpcd->IN_ep[ep_addr & EP_ADDR_MSK];
2048:Drivers/STM32F4xx_HAL_Driver/Src/stm32f4xx_hal_pcd.c ****   }
2049:Drivers/STM32F4xx_HAL_Driver/Src/stm32f4xx_hal_pcd.c ****   else
2050:Drivers/STM32F4xx_HAL_Driver/Src/stm32f4xx_hal_pcd.c ****   {
2051:Drivers/STM32F4xx_HAL_Driver/Src/stm32f4xx_hal_pcd.c ****     ep = &hpcd->OUT_ep[ep_addr & EP_ADDR_MSK];
 1896              		.loc 1 2051 5 view .LVU780
2052:Drivers/STM32F4xx_HAL_Driver/Src/stm32f4xx_hal_pcd.c ****   }
2053:Drivers/STM32F4xx_HAL_Driver/Src/stm32f4xx_hal_pcd.c **** 
2054:Drivers/STM32F4xx_HAL_Driver/Src/stm32f4xx_hal_pcd.c ****   /* Stop Xfer */
ARM GAS  /tmp/ccDYdWST.s 			page 82


2055:Drivers/STM32F4xx_HAL_Driver/Src/stm32f4xx_hal_pcd.c ****   ret = USB_EPStopXfer(hpcd->Instance, ep);
 1897              		.loc 1 2055 3 view .LVU781
 1898              		.loc 1 2055 9 is_stmt 0 view .LVU782
 1899 01bc 2068     		ldr	r0, [r4]
 1900 01be 04F58E61 		add	r1, r4, #1136
 1901              	.LVL110:
 1902              		.loc 1 2055 9 view .LVU783
 1903 01c2 FFF7FEFF 		bl	USB_EPStopXfer
 1904              	.LVL111:
2056:Drivers/STM32F4xx_HAL_Driver/Src/stm32f4xx_hal_pcd.c **** 
2057:Drivers/STM32F4xx_HAL_Driver/Src/stm32f4xx_hal_pcd.c ****   return ret;
 1905              		.loc 1 2057 3 is_stmt 1 view .LVU784
 1906              		.loc 1 2057 3 is_stmt 0 view .LVU785
 1907              	.LBE17:
 1908              	.LBE16:
1440:Drivers/STM32F4xx_HAL_Driver/Src/stm32f4xx_hal_pcd.c ****       {
 1909              		.loc 1 1440 63 is_stmt 1 discriminator 2 view .LVU786
1440:Drivers/STM32F4xx_HAL_Driver/Src/stm32f4xx_hal_pcd.c ****       {
 1910              		.loc 1 1440 30 discriminator 1 view .LVU787
 1911              	.L234:
1451:Drivers/STM32F4xx_HAL_Driver/Src/stm32f4xx_hal_pcd.c ****     {
 1912              		.loc 1 1451 5 view .LVU788
1451:Drivers/STM32F4xx_HAL_Driver/Src/stm32f4xx_hal_pcd.c ****     {
 1913              		.loc 1 1451 9 is_stmt 0 view .LVU789
 1914 01c6 2068     		ldr	r0, [r4]
 1915 01c8 FFF7FEFF 		bl	USB_ReadInterrupts
 1916              	.LVL112:
1451:Drivers/STM32F4xx_HAL_Driver/Src/stm32f4xx_hal_pcd.c ****     {
 1917              		.loc 1 1451 8 discriminator 1 view .LVU790
 1918 01cc C302     		lsls	r3, r0, #11
 1919 01ce 40F1AB80 		bpl	.L373
 1920              	.LVL113:
1453:Drivers/STM32F4xx_HAL_Driver/Src/stm32f4xx_hal_pcd.c ****       {
 1921              		.loc 1 1453 30 is_stmt 1 discriminator 1 view .LVU791
1453:Drivers/STM32F4xx_HAL_Driver/Src/stm32f4xx_hal_pcd.c ****       {
 1922              		.loc 1 1453 42 is_stmt 0 discriminator 1 view .LVU792
 1923 01d2 2379     		ldrb	r3, [r4, #4]	@ zero_extendqisi2
1453:Drivers/STM32F4xx_HAL_Driver/Src/stm32f4xx_hal_pcd.c ****       {
 1924              		.loc 1 1453 30 discriminator 1 view .LVU793
 1925 01d4 012B     		cmp	r3, #1
 1926 01d6 40F28980 		bls	.L269
1455:Drivers/STM32F4xx_HAL_Driver/Src/stm32f4xx_hal_pcd.c **** 
 1927              		.loc 1 1455 9 is_stmt 1 view .LVU794
1457:Drivers/STM32F4xx_HAL_Driver/Src/stm32f4xx_hal_pcd.c ****             ((RegVal & USB_OTG_DIEPCTL_EPENA) == USB_OTG_DIEPCTL_EPENA))
 1928              		.loc 1 1457 12 is_stmt 0 view .LVU795
 1929 01da 94F83C20 		ldrb	r2, [r4, #60]	@ zero_extendqisi2
1455:Drivers/STM32F4xx_HAL_Driver/Src/stm32f4xx_hal_pcd.c **** 
 1930              		.loc 1 1455 16 view .LVU796
 1931 01de D6F82019 		ldr	r1, [r6, #2336]
 1932              	.LVL114:
1457:Drivers/STM32F4xx_HAL_Driver/Src/stm32f4xx_hal_pcd.c ****             ((RegVal & USB_OTG_DIEPCTL_EPENA) == USB_OTG_DIEPCTL_EPENA))
 1933              		.loc 1 1457 9 is_stmt 1 view .LVU797
1457:Drivers/STM32F4xx_HAL_Driver/Src/stm32f4xx_hal_pcd.c ****             ((RegVal & USB_OTG_DIEPCTL_EPENA) == USB_OTG_DIEPCTL_EPENA))
 1934              		.loc 1 1457 12 is_stmt 0 view .LVU798
 1935 01e2 012A     		cmp	r2, #1
 1936 01e4 00F06182 		beq	.L374
 1937              	.LVL115:
ARM GAS  /tmp/ccDYdWST.s 			page 83


 1938              	.L253:
1453:Drivers/STM32F4xx_HAL_Driver/Src/stm32f4xx_hal_pcd.c ****       {
 1939              		.loc 1 1453 63 is_stmt 1 discriminator 2 view .LVU799
1453:Drivers/STM32F4xx_HAL_Driver/Src/stm32f4xx_hal_pcd.c ****       {
 1940              		.loc 1 1453 30 discriminator 1 view .LVU800
 1941 01e8 022B     		cmp	r3, #2
 1942 01ea 7FD9     		bls	.L269
1455:Drivers/STM32F4xx_HAL_Driver/Src/stm32f4xx_hal_pcd.c **** 
 1943              		.loc 1 1455 9 view .LVU801
1457:Drivers/STM32F4xx_HAL_Driver/Src/stm32f4xx_hal_pcd.c ****             ((RegVal & USB_OTG_DIEPCTL_EPENA) == USB_OTG_DIEPCTL_EPENA))
 1944              		.loc 1 1457 12 is_stmt 0 view .LVU802
 1945 01ec 94F86020 		ldrb	r2, [r4, #96]	@ zero_extendqisi2
1455:Drivers/STM32F4xx_HAL_Driver/Src/stm32f4xx_hal_pcd.c **** 
 1946              		.loc 1 1455 16 view .LVU803
 1947 01f0 D6F84019 		ldr	r1, [r6, #2368]
 1948              	.LVL116:
1457:Drivers/STM32F4xx_HAL_Driver/Src/stm32f4xx_hal_pcd.c ****             ((RegVal & USB_OTG_DIEPCTL_EPENA) == USB_OTG_DIEPCTL_EPENA))
 1949              		.loc 1 1457 9 is_stmt 1 view .LVU804
1457:Drivers/STM32F4xx_HAL_Driver/Src/stm32f4xx_hal_pcd.c ****             ((RegVal & USB_OTG_DIEPCTL_EPENA) == USB_OTG_DIEPCTL_EPENA))
 1950              		.loc 1 1457 12 is_stmt 0 view .LVU805
 1951 01f4 012A     		cmp	r2, #1
 1952 01f6 00F06B82 		beq	.L375
 1953              	.LVL117:
 1954              	.L255:
1453:Drivers/STM32F4xx_HAL_Driver/Src/stm32f4xx_hal_pcd.c ****       {
 1955              		.loc 1 1453 63 is_stmt 1 discriminator 2 view .LVU806
1453:Drivers/STM32F4xx_HAL_Driver/Src/stm32f4xx_hal_pcd.c ****       {
 1956              		.loc 1 1453 30 discriminator 1 view .LVU807
 1957 01fa 032B     		cmp	r3, #3
 1958 01fc 76D9     		bls	.L269
1455:Drivers/STM32F4xx_HAL_Driver/Src/stm32f4xx_hal_pcd.c **** 
 1959              		.loc 1 1455 9 view .LVU808
1457:Drivers/STM32F4xx_HAL_Driver/Src/stm32f4xx_hal_pcd.c ****             ((RegVal & USB_OTG_DIEPCTL_EPENA) == USB_OTG_DIEPCTL_EPENA))
 1960              		.loc 1 1457 12 is_stmt 0 view .LVU809
 1961 01fe 94F88420 		ldrb	r2, [r4, #132]	@ zero_extendqisi2
1455:Drivers/STM32F4xx_HAL_Driver/Src/stm32f4xx_hal_pcd.c **** 
 1962              		.loc 1 1455 16 view .LVU810
 1963 0202 D6F86019 		ldr	r1, [r6, #2400]
 1964              	.LVL118:
1457:Drivers/STM32F4xx_HAL_Driver/Src/stm32f4xx_hal_pcd.c ****             ((RegVal & USB_OTG_DIEPCTL_EPENA) == USB_OTG_DIEPCTL_EPENA))
 1965              		.loc 1 1457 9 is_stmt 1 view .LVU811
1457:Drivers/STM32F4xx_HAL_Driver/Src/stm32f4xx_hal_pcd.c ****             ((RegVal & USB_OTG_DIEPCTL_EPENA) == USB_OTG_DIEPCTL_EPENA))
 1966              		.loc 1 1457 12 is_stmt 0 view .LVU812
 1967 0206 012A     		cmp	r2, #1
 1968 0208 00F06E82 		beq	.L376
 1969              	.LVL119:
 1970              	.L256:
1453:Drivers/STM32F4xx_HAL_Driver/Src/stm32f4xx_hal_pcd.c ****       {
 1971              		.loc 1 1453 63 is_stmt 1 discriminator 2 view .LVU813
1453:Drivers/STM32F4xx_HAL_Driver/Src/stm32f4xx_hal_pcd.c ****       {
 1972              		.loc 1 1453 30 discriminator 1 view .LVU814
 1973 020c 042B     		cmp	r3, #4
 1974 020e 6DD9     		bls	.L269
1455:Drivers/STM32F4xx_HAL_Driver/Src/stm32f4xx_hal_pcd.c **** 
 1975              		.loc 1 1455 9 view .LVU815
1457:Drivers/STM32F4xx_HAL_Driver/Src/stm32f4xx_hal_pcd.c ****             ((RegVal & USB_OTG_DIEPCTL_EPENA) == USB_OTG_DIEPCTL_EPENA))
 1976              		.loc 1 1457 12 is_stmt 0 view .LVU816
ARM GAS  /tmp/ccDYdWST.s 			page 84


 1977 0210 94F8A820 		ldrb	r2, [r4, #168]	@ zero_extendqisi2
1455:Drivers/STM32F4xx_HAL_Driver/Src/stm32f4xx_hal_pcd.c **** 
 1978              		.loc 1 1455 16 view .LVU817
 1979 0214 D6F88019 		ldr	r1, [r6, #2432]
 1980              	.LVL120:
1457:Drivers/STM32F4xx_HAL_Driver/Src/stm32f4xx_hal_pcd.c ****             ((RegVal & USB_OTG_DIEPCTL_EPENA) == USB_OTG_DIEPCTL_EPENA))
 1981              		.loc 1 1457 9 is_stmt 1 view .LVU818
1457:Drivers/STM32F4xx_HAL_Driver/Src/stm32f4xx_hal_pcd.c ****             ((RegVal & USB_OTG_DIEPCTL_EPENA) == USB_OTG_DIEPCTL_EPENA))
 1982              		.loc 1 1457 12 is_stmt 0 view .LVU819
 1983 0218 012A     		cmp	r2, #1
 1984 021a 00F07182 		beq	.L377
 1985              	.LVL121:
 1986              	.L257:
1453:Drivers/STM32F4xx_HAL_Driver/Src/stm32f4xx_hal_pcd.c ****       {
 1987              		.loc 1 1453 63 is_stmt 1 discriminator 2 view .LVU820
1453:Drivers/STM32F4xx_HAL_Driver/Src/stm32f4xx_hal_pcd.c ****       {
 1988              		.loc 1 1453 30 discriminator 1 view .LVU821
 1989 021e 052B     		cmp	r3, #5
 1990 0220 64D9     		bls	.L269
1455:Drivers/STM32F4xx_HAL_Driver/Src/stm32f4xx_hal_pcd.c **** 
 1991              		.loc 1 1455 9 view .LVU822
1457:Drivers/STM32F4xx_HAL_Driver/Src/stm32f4xx_hal_pcd.c ****             ((RegVal & USB_OTG_DIEPCTL_EPENA) == USB_OTG_DIEPCTL_EPENA))
 1992              		.loc 1 1457 12 is_stmt 0 view .LVU823
 1993 0222 94F8CC20 		ldrb	r2, [r4, #204]	@ zero_extendqisi2
1455:Drivers/STM32F4xx_HAL_Driver/Src/stm32f4xx_hal_pcd.c **** 
 1994              		.loc 1 1455 16 view .LVU824
 1995 0226 D6F8A019 		ldr	r1, [r6, #2464]
 1996              	.LVL122:
1457:Drivers/STM32F4xx_HAL_Driver/Src/stm32f4xx_hal_pcd.c ****             ((RegVal & USB_OTG_DIEPCTL_EPENA) == USB_OTG_DIEPCTL_EPENA))
 1997              		.loc 1 1457 9 is_stmt 1 view .LVU825
1457:Drivers/STM32F4xx_HAL_Driver/Src/stm32f4xx_hal_pcd.c ****             ((RegVal & USB_OTG_DIEPCTL_EPENA) == USB_OTG_DIEPCTL_EPENA))
 1998              		.loc 1 1457 12 is_stmt 0 view .LVU826
 1999 022a 012A     		cmp	r2, #1
 2000 022c 00F03983 		beq	.L378
 2001              	.LVL123:
 2002              	.L258:
1453:Drivers/STM32F4xx_HAL_Driver/Src/stm32f4xx_hal_pcd.c ****       {
 2003              		.loc 1 1453 63 is_stmt 1 discriminator 2 view .LVU827
1453:Drivers/STM32F4xx_HAL_Driver/Src/stm32f4xx_hal_pcd.c ****       {
 2004              		.loc 1 1453 30 discriminator 1 view .LVU828
 2005 0230 062B     		cmp	r3, #6
 2006 0232 5BD9     		bls	.L269
1455:Drivers/STM32F4xx_HAL_Driver/Src/stm32f4xx_hal_pcd.c **** 
 2007              		.loc 1 1455 9 view .LVU829
1457:Drivers/STM32F4xx_HAL_Driver/Src/stm32f4xx_hal_pcd.c ****             ((RegVal & USB_OTG_DIEPCTL_EPENA) == USB_OTG_DIEPCTL_EPENA))
 2008              		.loc 1 1457 12 is_stmt 0 view .LVU830
 2009 0234 94F8F020 		ldrb	r2, [r4, #240]	@ zero_extendqisi2
1455:Drivers/STM32F4xx_HAL_Driver/Src/stm32f4xx_hal_pcd.c **** 
 2010              		.loc 1 1455 16 view .LVU831
 2011 0238 D6F8C019 		ldr	r1, [r6, #2496]
 2012              	.LVL124:
1457:Drivers/STM32F4xx_HAL_Driver/Src/stm32f4xx_hal_pcd.c ****             ((RegVal & USB_OTG_DIEPCTL_EPENA) == USB_OTG_DIEPCTL_EPENA))
 2013              		.loc 1 1457 9 is_stmt 1 view .LVU832
1457:Drivers/STM32F4xx_HAL_Driver/Src/stm32f4xx_hal_pcd.c ****             ((RegVal & USB_OTG_DIEPCTL_EPENA) == USB_OTG_DIEPCTL_EPENA))
 2014              		.loc 1 1457 12 is_stmt 0 view .LVU833
 2015 023c 012A     		cmp	r2, #1
 2016 023e 00F04B83 		beq	.L379
ARM GAS  /tmp/ccDYdWST.s 			page 85


 2017              	.LVL125:
 2018              	.L259:
1453:Drivers/STM32F4xx_HAL_Driver/Src/stm32f4xx_hal_pcd.c ****       {
 2019              		.loc 1 1453 63 is_stmt 1 discriminator 2 view .LVU834
1453:Drivers/STM32F4xx_HAL_Driver/Src/stm32f4xx_hal_pcd.c ****       {
 2020              		.loc 1 1453 30 discriminator 1 view .LVU835
 2021 0242 072B     		cmp	r3, #7
 2022 0244 52D9     		bls	.L269
1455:Drivers/STM32F4xx_HAL_Driver/Src/stm32f4xx_hal_pcd.c **** 
 2023              		.loc 1 1455 9 view .LVU836
1457:Drivers/STM32F4xx_HAL_Driver/Src/stm32f4xx_hal_pcd.c ****             ((RegVal & USB_OTG_DIEPCTL_EPENA) == USB_OTG_DIEPCTL_EPENA))
 2024              		.loc 1 1457 12 is_stmt 0 view .LVU837
 2025 0246 94F81421 		ldrb	r2, [r4, #276]	@ zero_extendqisi2
1455:Drivers/STM32F4xx_HAL_Driver/Src/stm32f4xx_hal_pcd.c **** 
 2026              		.loc 1 1455 16 view .LVU838
 2027 024a D6F8E019 		ldr	r1, [r6, #2528]
 2028              	.LVL126:
1457:Drivers/STM32F4xx_HAL_Driver/Src/stm32f4xx_hal_pcd.c ****             ((RegVal & USB_OTG_DIEPCTL_EPENA) == USB_OTG_DIEPCTL_EPENA))
 2029              		.loc 1 1457 9 is_stmt 1 view .LVU839
1457:Drivers/STM32F4xx_HAL_Driver/Src/stm32f4xx_hal_pcd.c ****             ((RegVal & USB_OTG_DIEPCTL_EPENA) == USB_OTG_DIEPCTL_EPENA))
 2030              		.loc 1 1457 12 is_stmt 0 view .LVU840
 2031 024e 012A     		cmp	r2, #1
 2032 0250 00F05583 		beq	.L380
 2033              	.LVL127:
 2034              	.L260:
1453:Drivers/STM32F4xx_HAL_Driver/Src/stm32f4xx_hal_pcd.c ****       {
 2035              		.loc 1 1453 63 is_stmt 1 discriminator 2 view .LVU841
1453:Drivers/STM32F4xx_HAL_Driver/Src/stm32f4xx_hal_pcd.c ****       {
 2036              		.loc 1 1453 30 discriminator 1 view .LVU842
 2037 0254 082B     		cmp	r3, #8
 2038 0256 49D9     		bls	.L269
1455:Drivers/STM32F4xx_HAL_Driver/Src/stm32f4xx_hal_pcd.c **** 
 2039              		.loc 1 1455 9 view .LVU843
1457:Drivers/STM32F4xx_HAL_Driver/Src/stm32f4xx_hal_pcd.c ****             ((RegVal & USB_OTG_DIEPCTL_EPENA) == USB_OTG_DIEPCTL_EPENA))
 2040              		.loc 1 1457 12 is_stmt 0 view .LVU844
 2041 0258 94F83821 		ldrb	r2, [r4, #312]	@ zero_extendqisi2
1455:Drivers/STM32F4xx_HAL_Driver/Src/stm32f4xx_hal_pcd.c **** 
 2042              		.loc 1 1455 16 view .LVU845
 2043 025c D6F8001A 		ldr	r1, [r6, #2560]
 2044              	.LVL128:
1457:Drivers/STM32F4xx_HAL_Driver/Src/stm32f4xx_hal_pcd.c ****             ((RegVal & USB_OTG_DIEPCTL_EPENA) == USB_OTG_DIEPCTL_EPENA))
 2045              		.loc 1 1457 9 is_stmt 1 view .LVU846
1457:Drivers/STM32F4xx_HAL_Driver/Src/stm32f4xx_hal_pcd.c ****             ((RegVal & USB_OTG_DIEPCTL_EPENA) == USB_OTG_DIEPCTL_EPENA))
 2046              		.loc 1 1457 12 is_stmt 0 view .LVU847
 2047 0260 012A     		cmp	r2, #1
 2048 0262 00F05883 		beq	.L381
 2049              	.LVL129:
 2050              	.L261:
1453:Drivers/STM32F4xx_HAL_Driver/Src/stm32f4xx_hal_pcd.c ****       {
 2051              		.loc 1 1453 63 is_stmt 1 discriminator 2 view .LVU848
1453:Drivers/STM32F4xx_HAL_Driver/Src/stm32f4xx_hal_pcd.c ****       {
 2052              		.loc 1 1453 30 discriminator 1 view .LVU849
 2053 0266 092B     		cmp	r3, #9
 2054 0268 40D9     		bls	.L269
1455:Drivers/STM32F4xx_HAL_Driver/Src/stm32f4xx_hal_pcd.c **** 
 2055              		.loc 1 1455 9 view .LVU850
1457:Drivers/STM32F4xx_HAL_Driver/Src/stm32f4xx_hal_pcd.c ****             ((RegVal & USB_OTG_DIEPCTL_EPENA) == USB_OTG_DIEPCTL_EPENA))
ARM GAS  /tmp/ccDYdWST.s 			page 86


 2056              		.loc 1 1457 12 is_stmt 0 view .LVU851
 2057 026a 94F85C21 		ldrb	r2, [r4, #348]	@ zero_extendqisi2
1455:Drivers/STM32F4xx_HAL_Driver/Src/stm32f4xx_hal_pcd.c **** 
 2058              		.loc 1 1455 16 view .LVU852
 2059 026e D6F8201A 		ldr	r1, [r6, #2592]
 2060              	.LVL130:
1457:Drivers/STM32F4xx_HAL_Driver/Src/stm32f4xx_hal_pcd.c ****             ((RegVal & USB_OTG_DIEPCTL_EPENA) == USB_OTG_DIEPCTL_EPENA))
 2061              		.loc 1 1457 9 is_stmt 1 view .LVU853
1457:Drivers/STM32F4xx_HAL_Driver/Src/stm32f4xx_hal_pcd.c ****             ((RegVal & USB_OTG_DIEPCTL_EPENA) == USB_OTG_DIEPCTL_EPENA))
 2062              		.loc 1 1457 12 is_stmt 0 view .LVU854
 2063 0272 012A     		cmp	r2, #1
 2064 0274 00F06B83 		beq	.L382
 2065              	.LVL131:
 2066              	.L262:
1453:Drivers/STM32F4xx_HAL_Driver/Src/stm32f4xx_hal_pcd.c ****       {
 2067              		.loc 1 1453 63 is_stmt 1 discriminator 2 view .LVU855
1453:Drivers/STM32F4xx_HAL_Driver/Src/stm32f4xx_hal_pcd.c ****       {
 2068              		.loc 1 1453 30 discriminator 1 view .LVU856
 2069 0278 0A2B     		cmp	r3, #10
 2070 027a 37D9     		bls	.L269
1455:Drivers/STM32F4xx_HAL_Driver/Src/stm32f4xx_hal_pcd.c **** 
 2071              		.loc 1 1455 9 view .LVU857
1457:Drivers/STM32F4xx_HAL_Driver/Src/stm32f4xx_hal_pcd.c ****             ((RegVal & USB_OTG_DIEPCTL_EPENA) == USB_OTG_DIEPCTL_EPENA))
 2072              		.loc 1 1457 12 is_stmt 0 view .LVU858
 2073 027c 94F88021 		ldrb	r2, [r4, #384]	@ zero_extendqisi2
1455:Drivers/STM32F4xx_HAL_Driver/Src/stm32f4xx_hal_pcd.c **** 
 2074              		.loc 1 1455 16 view .LVU859
 2075 0280 D6F8401A 		ldr	r1, [r6, #2624]
 2076              	.LVL132:
1457:Drivers/STM32F4xx_HAL_Driver/Src/stm32f4xx_hal_pcd.c ****             ((RegVal & USB_OTG_DIEPCTL_EPENA) == USB_OTG_DIEPCTL_EPENA))
 2077              		.loc 1 1457 9 is_stmt 1 view .LVU860
1457:Drivers/STM32F4xx_HAL_Driver/Src/stm32f4xx_hal_pcd.c ****             ((RegVal & USB_OTG_DIEPCTL_EPENA) == USB_OTG_DIEPCTL_EPENA))
 2078              		.loc 1 1457 12 is_stmt 0 view .LVU861
 2079 0284 012A     		cmp	r2, #1
 2080 0286 00F07683 		beq	.L383
 2081              	.LVL133:
 2082              	.L263:
1453:Drivers/STM32F4xx_HAL_Driver/Src/stm32f4xx_hal_pcd.c ****       {
 2083              		.loc 1 1453 63 is_stmt 1 discriminator 2 view .LVU862
1453:Drivers/STM32F4xx_HAL_Driver/Src/stm32f4xx_hal_pcd.c ****       {
 2084              		.loc 1 1453 30 discriminator 1 view .LVU863
 2085 028a 0B2B     		cmp	r3, #11
 2086 028c 2ED9     		bls	.L269
1455:Drivers/STM32F4xx_HAL_Driver/Src/stm32f4xx_hal_pcd.c **** 
 2087              		.loc 1 1455 9 view .LVU864
1457:Drivers/STM32F4xx_HAL_Driver/Src/stm32f4xx_hal_pcd.c ****             ((RegVal & USB_OTG_DIEPCTL_EPENA) == USB_OTG_DIEPCTL_EPENA))
 2088              		.loc 1 1457 12 is_stmt 0 view .LVU865
 2089 028e 94F8A421 		ldrb	r2, [r4, #420]	@ zero_extendqisi2
1455:Drivers/STM32F4xx_HAL_Driver/Src/stm32f4xx_hal_pcd.c **** 
 2090              		.loc 1 1455 16 view .LVU866
 2091 0292 D6F8601A 		ldr	r1, [r6, #2656]
 2092              	.LVL134:
1457:Drivers/STM32F4xx_HAL_Driver/Src/stm32f4xx_hal_pcd.c ****             ((RegVal & USB_OTG_DIEPCTL_EPENA) == USB_OTG_DIEPCTL_EPENA))
 2093              		.loc 1 1457 9 is_stmt 1 view .LVU867
1457:Drivers/STM32F4xx_HAL_Driver/Src/stm32f4xx_hal_pcd.c ****             ((RegVal & USB_OTG_DIEPCTL_EPENA) == USB_OTG_DIEPCTL_EPENA))
 2094              		.loc 1 1457 12 is_stmt 0 view .LVU868
 2095 0296 012A     		cmp	r2, #1
ARM GAS  /tmp/ccDYdWST.s 			page 87


 2096 0298 00F08683 		beq	.L384
 2097              	.LVL135:
 2098              	.L264:
1453:Drivers/STM32F4xx_HAL_Driver/Src/stm32f4xx_hal_pcd.c ****       {
 2099              		.loc 1 1453 63 is_stmt 1 discriminator 2 view .LVU869
1453:Drivers/STM32F4xx_HAL_Driver/Src/stm32f4xx_hal_pcd.c ****       {
 2100              		.loc 1 1453 30 discriminator 1 view .LVU870
 2101 029c 0C2B     		cmp	r3, #12
 2102 029e 25D9     		bls	.L269
1455:Drivers/STM32F4xx_HAL_Driver/Src/stm32f4xx_hal_pcd.c **** 
 2103              		.loc 1 1455 9 view .LVU871
1457:Drivers/STM32F4xx_HAL_Driver/Src/stm32f4xx_hal_pcd.c ****             ((RegVal & USB_OTG_DIEPCTL_EPENA) == USB_OTG_DIEPCTL_EPENA))
 2104              		.loc 1 1457 12 is_stmt 0 view .LVU872
 2105 02a0 94F8C821 		ldrb	r2, [r4, #456]	@ zero_extendqisi2
1455:Drivers/STM32F4xx_HAL_Driver/Src/stm32f4xx_hal_pcd.c **** 
 2106              		.loc 1 1455 16 view .LVU873
 2107 02a4 D6F8801A 		ldr	r1, [r6, #2688]
 2108              	.LVL136:
1457:Drivers/STM32F4xx_HAL_Driver/Src/stm32f4xx_hal_pcd.c ****             ((RegVal & USB_OTG_DIEPCTL_EPENA) == USB_OTG_DIEPCTL_EPENA))
 2109              		.loc 1 1457 9 is_stmt 1 view .LVU874
1457:Drivers/STM32F4xx_HAL_Driver/Src/stm32f4xx_hal_pcd.c ****             ((RegVal & USB_OTG_DIEPCTL_EPENA) == USB_OTG_DIEPCTL_EPENA))
 2110              		.loc 1 1457 12 is_stmt 0 view .LVU875
 2111 02a8 012A     		cmp	r2, #1
 2112 02aa 00F09183 		beq	.L385
 2113              	.LVL137:
 2114              	.L265:
1453:Drivers/STM32F4xx_HAL_Driver/Src/stm32f4xx_hal_pcd.c ****       {
 2115              		.loc 1 1453 63 is_stmt 1 discriminator 2 view .LVU876
1453:Drivers/STM32F4xx_HAL_Driver/Src/stm32f4xx_hal_pcd.c ****       {
 2116              		.loc 1 1453 30 discriminator 1 view .LVU877
 2117 02ae 0D2B     		cmp	r3, #13
 2118 02b0 1CD9     		bls	.L269
1455:Drivers/STM32F4xx_HAL_Driver/Src/stm32f4xx_hal_pcd.c **** 
 2119              		.loc 1 1455 9 view .LVU878
1457:Drivers/STM32F4xx_HAL_Driver/Src/stm32f4xx_hal_pcd.c ****             ((RegVal & USB_OTG_DIEPCTL_EPENA) == USB_OTG_DIEPCTL_EPENA))
 2120              		.loc 1 1457 12 is_stmt 0 view .LVU879
 2121 02b2 94F8EC21 		ldrb	r2, [r4, #492]	@ zero_extendqisi2
1455:Drivers/STM32F4xx_HAL_Driver/Src/stm32f4xx_hal_pcd.c **** 
 2122              		.loc 1 1455 16 view .LVU880
 2123 02b6 D6F8A01A 		ldr	r1, [r6, #2720]
 2124              	.LVL138:
1457:Drivers/STM32F4xx_HAL_Driver/Src/stm32f4xx_hal_pcd.c ****             ((RegVal & USB_OTG_DIEPCTL_EPENA) == USB_OTG_DIEPCTL_EPENA))
 2125              		.loc 1 1457 9 is_stmt 1 view .LVU881
1457:Drivers/STM32F4xx_HAL_Driver/Src/stm32f4xx_hal_pcd.c ****             ((RegVal & USB_OTG_DIEPCTL_EPENA) == USB_OTG_DIEPCTL_EPENA))
 2126              		.loc 1 1457 12 is_stmt 0 view .LVU882
 2127 02ba 012A     		cmp	r2, #1
 2128 02bc 00F09C83 		beq	.L386
 2129              	.LVL139:
 2130              	.L266:
1453:Drivers/STM32F4xx_HAL_Driver/Src/stm32f4xx_hal_pcd.c ****       {
 2131              		.loc 1 1453 63 is_stmt 1 discriminator 2 view .LVU883
1453:Drivers/STM32F4xx_HAL_Driver/Src/stm32f4xx_hal_pcd.c ****       {
 2132              		.loc 1 1453 30 discriminator 1 view .LVU884
 2133 02c0 0E2B     		cmp	r3, #14
 2134 02c2 13D9     		bls	.L269
1455:Drivers/STM32F4xx_HAL_Driver/Src/stm32f4xx_hal_pcd.c **** 
 2135              		.loc 1 1455 9 view .LVU885
ARM GAS  /tmp/ccDYdWST.s 			page 88


1457:Drivers/STM32F4xx_HAL_Driver/Src/stm32f4xx_hal_pcd.c ****             ((RegVal & USB_OTG_DIEPCTL_EPENA) == USB_OTG_DIEPCTL_EPENA))
 2136              		.loc 1 1457 12 is_stmt 0 view .LVU886
 2137 02c4 94F81022 		ldrb	r2, [r4, #528]	@ zero_extendqisi2
1455:Drivers/STM32F4xx_HAL_Driver/Src/stm32f4xx_hal_pcd.c **** 
 2138              		.loc 1 1455 16 view .LVU887
 2139 02c8 D6F8C01A 		ldr	r1, [r6, #2752]
 2140              	.LVL140:
1457:Drivers/STM32F4xx_HAL_Driver/Src/stm32f4xx_hal_pcd.c ****             ((RegVal & USB_OTG_DIEPCTL_EPENA) == USB_OTG_DIEPCTL_EPENA))
 2141              		.loc 1 1457 9 is_stmt 1 view .LVU888
1457:Drivers/STM32F4xx_HAL_Driver/Src/stm32f4xx_hal_pcd.c ****             ((RegVal & USB_OTG_DIEPCTL_EPENA) == USB_OTG_DIEPCTL_EPENA))
 2142              		.loc 1 1457 12 is_stmt 0 view .LVU889
 2143 02cc 012A     		cmp	r2, #1
 2144 02ce 00F0A783 		beq	.L387
 2145              	.LVL141:
 2146              	.L267:
1453:Drivers/STM32F4xx_HAL_Driver/Src/stm32f4xx_hal_pcd.c ****       {
 2147              		.loc 1 1453 63 is_stmt 1 discriminator 2 view .LVU890
1453:Drivers/STM32F4xx_HAL_Driver/Src/stm32f4xx_hal_pcd.c ****       {
 2148              		.loc 1 1453 30 discriminator 1 view .LVU891
 2149 02d2 0F2B     		cmp	r3, #15
 2150 02d4 0AD9     		bls	.L269
1455:Drivers/STM32F4xx_HAL_Driver/Src/stm32f4xx_hal_pcd.c **** 
 2151              		.loc 1 1455 9 view .LVU892
1457:Drivers/STM32F4xx_HAL_Driver/Src/stm32f4xx_hal_pcd.c ****             ((RegVal & USB_OTG_DIEPCTL_EPENA) == USB_OTG_DIEPCTL_EPENA))
 2152              		.loc 1 1457 12 is_stmt 0 view .LVU893
 2153 02d6 94F83422 		ldrb	r2, [r4, #564]	@ zero_extendqisi2
1455:Drivers/STM32F4xx_HAL_Driver/Src/stm32f4xx_hal_pcd.c **** 
 2154              		.loc 1 1455 16 view .LVU894
 2155 02da D6F8E01A 		ldr	r1, [r6, #2784]
 2156              	.LVL142:
1457:Drivers/STM32F4xx_HAL_Driver/Src/stm32f4xx_hal_pcd.c ****             ((RegVal & USB_OTG_DIEPCTL_EPENA) == USB_OTG_DIEPCTL_EPENA))
 2157              		.loc 1 1457 9 is_stmt 1 view .LVU895
1457:Drivers/STM32F4xx_HAL_Driver/Src/stm32f4xx_hal_pcd.c ****             ((RegVal & USB_OTG_DIEPCTL_EPENA) == USB_OTG_DIEPCTL_EPENA))
 2158              		.loc 1 1457 12 is_stmt 0 view .LVU896
 2159 02de 012A     		cmp	r2, #1
 2160 02e0 00F0B283 		beq	.L388
 2161              	.LVL143:
 2162              	.L268:
1453:Drivers/STM32F4xx_HAL_Driver/Src/stm32f4xx_hal_pcd.c ****       {
 2163              		.loc 1 1453 63 is_stmt 1 discriminator 2 view .LVU897
1453:Drivers/STM32F4xx_HAL_Driver/Src/stm32f4xx_hal_pcd.c ****       {
 2164              		.loc 1 1453 30 discriminator 1 view .LVU898
 2165 02e4 102B     		cmp	r3, #16
 2166 02e6 01D9     		bls	.L269
1455:Drivers/STM32F4xx_HAL_Driver/Src/stm32f4xx_hal_pcd.c **** 
 2167              		.loc 1 1455 9 view .LVU899
1455:Drivers/STM32F4xx_HAL_Driver/Src/stm32f4xx_hal_pcd.c **** 
 2168              		.loc 1 1455 16 is_stmt 0 view .LVU900
 2169 02e8 D6F8003B 		ldr	r3, [r6, #2816]
 2170              	.LVL144:
1457:Drivers/STM32F4xx_HAL_Driver/Src/stm32f4xx_hal_pcd.c ****             ((RegVal & USB_OTG_DIEPCTL_EPENA) == USB_OTG_DIEPCTL_EPENA))
 2171              		.loc 1 1457 9 is_stmt 1 view .LVU901
 2172              	.L269:
1467:Drivers/STM32F4xx_HAL_Driver/Src/stm32f4xx_hal_pcd.c ****     }
 2173              		.loc 1 1467 7 view .LVU902
 2174 02ec 2068     		ldr	r0, [r4]
 2175 02ee 4369     		ldr	r3, [r0, #20]
ARM GAS  /tmp/ccDYdWST.s 			page 89


 2176 02f0 03F48013 		and	r3, r3, #1048576
 2177 02f4 4361     		str	r3, [r0, #20]
 2178              	.L251:
1471:Drivers/STM32F4xx_HAL_Driver/Src/stm32f4xx_hal_pcd.c ****     {
 2179              		.loc 1 1471 5 view .LVU903
1471:Drivers/STM32F4xx_HAL_Driver/Src/stm32f4xx_hal_pcd.c ****     {
 2180              		.loc 1 1471 9 is_stmt 0 view .LVU904
 2181 02f6 FFF7FEFF 		bl	USB_ReadInterrupts
 2182              	.LVL145:
1471:Drivers/STM32F4xx_HAL_Driver/Src/stm32f4xx_hal_pcd.c ****     {
 2183              		.loc 1 1471 8 discriminator 1 view .LVU905
 2184 02fa 8702     		lsls	r7, r0, #10
 2185 02fc 21D4     		bmi	.L270
1497:Drivers/STM32F4xx_HAL_Driver/Src/stm32f4xx_hal_pcd.c ****     {
 2186              		.loc 1 1497 9 view .LVU906
 2187 02fe 2068     		ldr	r0, [r4]
 2188              	.L271:
1497:Drivers/STM32F4xx_HAL_Driver/Src/stm32f4xx_hal_pcd.c ****     {
 2189              		.loc 1 1497 5 is_stmt 1 view .LVU907
1497:Drivers/STM32F4xx_HAL_Driver/Src/stm32f4xx_hal_pcd.c ****     {
 2190              		.loc 1 1497 9 is_stmt 0 view .LVU908
 2191 0300 FFF7FEFF 		bl	USB_ReadInterrupts
 2192              	.LVL146:
1497:Drivers/STM32F4xx_HAL_Driver/Src/stm32f4xx_hal_pcd.c ****     {
 2193              		.loc 1 1497 8 discriminator 1 view .LVU909
 2194 0304 4000     		lsls	r0, r0, #1
 2195 0306 00F1C680 		bmi	.L277
1509:Drivers/STM32F4xx_HAL_Driver/Src/stm32f4xx_hal_pcd.c ****     {
 2196              		.loc 1 1509 9 view .LVU910
 2197 030a 2068     		ldr	r0, [r4]
 2198              	.L278:
1509:Drivers/STM32F4xx_HAL_Driver/Src/stm32f4xx_hal_pcd.c ****     {
 2199              		.loc 1 1509 5 is_stmt 1 view .LVU911
1509:Drivers/STM32F4xx_HAL_Driver/Src/stm32f4xx_hal_pcd.c ****     {
 2200              		.loc 1 1509 9 is_stmt 0 view .LVU912
 2201 030c FFF7FEFF 		bl	USB_ReadInterrupts
 2202              	.LVL147:
1509:Drivers/STM32F4xx_HAL_Driver/Src/stm32f4xx_hal_pcd.c ****     {
 2203              		.loc 1 1509 8 discriminator 1 view .LVU913
 2204 0310 4107     		lsls	r1, r0, #29
 2205 0312 7FF57EAE 		bpl	.L151
1511:Drivers/STM32F4xx_HAL_Driver/Src/stm32f4xx_hal_pcd.c **** 
 2206              		.loc 1 1511 7 is_stmt 1 view .LVU914
1511:Drivers/STM32F4xx_HAL_Driver/Src/stm32f4xx_hal_pcd.c **** 
 2207              		.loc 1 1511 20 is_stmt 0 view .LVU915
 2208 0316 2368     		ldr	r3, [r4]
1511:Drivers/STM32F4xx_HAL_Driver/Src/stm32f4xx_hal_pcd.c **** 
 2209              		.loc 1 1511 14 view .LVU916
 2210 0318 5D68     		ldr	r5, [r3, #4]
 2211              	.LVL148:
1513:Drivers/STM32F4xx_HAL_Driver/Src/stm32f4xx_hal_pcd.c ****       {
 2212              		.loc 1 1513 7 is_stmt 1 view .LVU917
1513:Drivers/STM32F4xx_HAL_Driver/Src/stm32f4xx_hal_pcd.c ****       {
 2213              		.loc 1 1513 10 is_stmt 0 view .LVU918
 2214 031a 6A07     		lsls	r2, r5, #29
 2215 031c 00F18182 		bmi	.L389
 2216              	.L279:
ARM GAS  /tmp/ccDYdWST.s 			page 90


1521:Drivers/STM32F4xx_HAL_Driver/Src/stm32f4xx_hal_pcd.c ****     }
 2217              		.loc 1 1521 7 is_stmt 1 view .LVU919
1521:Drivers/STM32F4xx_HAL_Driver/Src/stm32f4xx_hal_pcd.c ****     }
 2218              		.loc 1 1521 21 is_stmt 0 view .LVU920
 2219 0320 5A68     		ldr	r2, [r3, #4]
1521:Drivers/STM32F4xx_HAL_Driver/Src/stm32f4xx_hal_pcd.c ****     }
 2220              		.loc 1 1521 31 view .LVU921
 2221 0322 2A43     		orrs	r2, r2, r5
 2222 0324 5A60     		str	r2, [r3, #4]
 2223 0326 74E6     		b	.L151
 2224              	.LVL149:
 2225              	.L373:
1467:Drivers/STM32F4xx_HAL_Driver/Src/stm32f4xx_hal_pcd.c ****     }
 2226              		.loc 1 1467 7 view .LVU922
 2227 0328 2068     		ldr	r0, [r4]
 2228 032a E4E7     		b	.L251
 2229              	.L216:
1313:Drivers/STM32F4xx_HAL_Driver/Src/stm32f4xx_hal_pcd.c ****       {
 2230              		.loc 1 1313 7 is_stmt 1 view .LVU923
1313:Drivers/STM32F4xx_HAL_Driver/Src/stm32f4xx_hal_pcd.c ****       {
 2231              		.loc 1 1313 23 is_stmt 0 view .LVU924
 2232 032c 039B     		ldr	r3, [sp, #12]
 2233 032e 9B68     		ldr	r3, [r3, #8]
1313:Drivers/STM32F4xx_HAL_Driver/Src/stm32f4xx_hal_pcd.c ****       {
 2234              		.loc 1 1313 10 view .LVU925
 2235 0330 DF07     		lsls	r7, r3, #31
 2236 0332 00F17282 		bmi	.L390
 2237              	.L218:
1321:Drivers/STM32F4xx_HAL_Driver/Src/stm32f4xx_hal_pcd.c ****     }
 2238              		.loc 1 1321 7 is_stmt 1 view .LVU926
 2239 0336 2068     		ldr	r0, [r4]
 2240 0338 4369     		ldr	r3, [r0, #20]
 2241 033a 03F40063 		and	r3, r3, #2048
 2242 033e 4361     		str	r3, [r0, #20]
 2243 0340 B8E6     		b	.L217
 2244              	.L270:
 2245              	.LVL150:
1473:Drivers/STM32F4xx_HAL_Driver/Src/stm32f4xx_hal_pcd.c ****       {
 2246              		.loc 1 1473 30 discriminator 1 view .LVU927
1473:Drivers/STM32F4xx_HAL_Driver/Src/stm32f4xx_hal_pcd.c ****       {
 2247              		.loc 1 1473 42 is_stmt 0 discriminator 1 view .LVU928
 2248 0342 94F804C0 		ldrb	ip, [r4, #4]	@ zero_extendqisi2
1473:Drivers/STM32F4xx_HAL_Driver/Src/stm32f4xx_hal_pcd.c ****       {
 2249              		.loc 1 1473 30 discriminator 1 view .LVU929
 2250 0346 BCF1010F 		cmp	ip, #1
 2251 034a 28D9     		bls	.L273
 2252 034c 06F53262 		add	r2, r6, #2848
 2253 0350 2346     		mov	r3, r4
1473:Drivers/STM32F4xx_HAL_Driver/Src/stm32f4xx_hal_pcd.c ****       {
 2254              		.loc 1 1473 18 view .LVU930
 2255 0352 0121     		movs	r1, #1
 2256 0354 06E0     		b	.L275
 2257              	.LVL151:
 2258              	.L274:
1473:Drivers/STM32F4xx_HAL_Driver/Src/stm32f4xx_hal_pcd.c ****       {
 2259              		.loc 1 1473 63 is_stmt 1 discriminator 2 view .LVU931
 2260 0356 0131     		adds	r1, r1, #1
ARM GAS  /tmp/ccDYdWST.s 			page 91


 2261              	.LVL152:
1473:Drivers/STM32F4xx_HAL_Driver/Src/stm32f4xx_hal_pcd.c ****       {
 2262              		.loc 1 1473 30 discriminator 1 view .LVU932
 2263 0358 6145     		cmp	r1, ip
 2264 035a 02F12002 		add	r2, r2, #32
 2265 035e 03F12403 		add	r3, r3, #36
 2266 0362 1CD0     		beq	.L273
 2267              	.LVL153:
 2268              	.L275:
1475:Drivers/STM32F4xx_HAL_Driver/Src/stm32f4xx_hal_pcd.c **** 
 2269              		.loc 1 1475 9 view .LVU933
1477:Drivers/STM32F4xx_HAL_Driver/Src/stm32f4xx_hal_pcd.c ****             ((RegVal & USB_OTG_DOEPCTL_EPENA) == USB_OTG_DOEPCTL_EPENA) &&
 2270              		.loc 1 1477 12 is_stmt 0 view .LVU934
 2271 0364 93F87C02 		ldrb	r0, [r3, #636]	@ zero_extendqisi2
1475:Drivers/STM32F4xx_HAL_Driver/Src/stm32f4xx_hal_pcd.c **** 
 2272              		.loc 1 1475 16 view .LVU935
 2273 0368 1568     		ldr	r5, [r2]
 2274              	.LVL154:
1477:Drivers/STM32F4xx_HAL_Driver/Src/stm32f4xx_hal_pcd.c ****             ((RegVal & USB_OTG_DOEPCTL_EPENA) == USB_OTG_DOEPCTL_EPENA) &&
 2275              		.loc 1 1477 9 is_stmt 1 view .LVU936
1477:Drivers/STM32F4xx_HAL_Driver/Src/stm32f4xx_hal_pcd.c ****             ((RegVal & USB_OTG_DOEPCTL_EPENA) == USB_OTG_DOEPCTL_EPENA) &&
 2276              		.loc 1 1477 12 is_stmt 0 view .LVU937
 2277 036a 0128     		cmp	r0, #1
 2278 036c F3D1     		bne	.L274
1477:Drivers/STM32F4xx_HAL_Driver/Src/stm32f4xx_hal_pcd.c ****             ((RegVal & USB_OTG_DOEPCTL_EPENA) == USB_OTG_DOEPCTL_EPENA) &&
 2279              		.loc 1 1477 56 discriminator 1 view .LVU938
 2280 036e 002D     		cmp	r5, #0
 2281 0370 F1DA     		bge	.L274
1479:Drivers/STM32F4xx_HAL_Driver/Src/stm32f4xx_hal_pcd.c ****         {
 2282              		.loc 1 1479 60 view .LVU939
 2283 0372 D4F8D474 		ldr	r7, [r4, #1236]
1479:Drivers/STM32F4xx_HAL_Driver/Src/stm32f4xx_hal_pcd.c ****         {
 2284              		.loc 1 1479 22 view .LVU940
 2285 0376 05F48035 		and	r5, r5, #65536
 2286              	.LVL155:
1479:Drivers/STM32F4xx_HAL_Driver/Src/stm32f4xx_hal_pcd.c ****         {
 2287              		.loc 1 1479 60 view .LVU941
 2288 037a 07F00107 		and	r7, r7, #1
1478:Drivers/STM32F4xx_HAL_Driver/Src/stm32f4xx_hal_pcd.c ****             ((RegVal & (0x1U << 16)) == (hpcd->FrameNumber & 0x1U)))
 2289              		.loc 1 1478 73 view .LVU942
 2290 037e BD42     		cmp	r5, r7
 2291 0380 E9D1     		bne	.L274
1481:Drivers/STM32F4xx_HAL_Driver/Src/stm32f4xx_hal_pcd.c **** 
 2292              		.loc 1 1481 11 is_stmt 1 view .LVU943
1481:Drivers/STM32F4xx_HAL_Driver/Src/stm32f4xx_hal_pcd.c **** 
 2293              		.loc 1 1481 49 is_stmt 0 view .LVU944
 2294 0382 83F87B02 		strb	r0, [r3, #635]
1483:Drivers/STM32F4xx_HAL_Driver/Src/stm32f4xx_hal_pcd.c **** 
 2295              		.loc 1 1483 11 is_stmt 1 view .LVU945
1483:Drivers/STM32F4xx_HAL_Driver/Src/stm32f4xx_hal_pcd.c **** 
 2296              		.loc 1 1483 15 is_stmt 0 view .LVU946
 2297 0386 B069     		ldr	r0, [r6, #24]
1483:Drivers/STM32F4xx_HAL_Driver/Src/stm32f4xx_hal_pcd.c **** 
 2298              		.loc 1 1483 25 view .LVU947
 2299 0388 40F08000 		orr	r0, r0, #128
 2300 038c B061     		str	r0, [r6, #24]
1485:Drivers/STM32F4xx_HAL_Driver/Src/stm32f4xx_hal_pcd.c ****           {
ARM GAS  /tmp/ccDYdWST.s 			page 92


 2301              		.loc 1 1485 11 is_stmt 1 view .LVU948
1485:Drivers/STM32F4xx_HAL_Driver/Src/stm32f4xx_hal_pcd.c ****           {
 2302              		.loc 1 1485 20 is_stmt 0 view .LVU949
 2303 038e 7069     		ldr	r0, [r6, #20]
1485:Drivers/STM32F4xx_HAL_Driver/Src/stm32f4xx_hal_pcd.c ****           {
 2304              		.loc 1 1485 14 view .LVU950
 2305 0390 0506     		lsls	r5, r0, #24
 2306 0392 E0D4     		bmi	.L274
1487:Drivers/STM32F4xx_HAL_Driver/Src/stm32f4xx_hal_pcd.c ****             break;
 2307              		.loc 1 1487 13 is_stmt 1 view .LVU951
1487:Drivers/STM32F4xx_HAL_Driver/Src/stm32f4xx_hal_pcd.c ****             break;
 2308              		.loc 1 1487 24 is_stmt 0 view .LVU952
 2309 0394 039A     		ldr	r2, [sp, #12]
 2310 0396 5368     		ldr	r3, [r2, #4]
1487:Drivers/STM32F4xx_HAL_Driver/Src/stm32f4xx_hal_pcd.c ****             break;
 2311              		.loc 1 1487 31 view .LVU953
 2312 0398 43F40073 		orr	r3, r3, #512
 2313 039c 5360     		str	r3, [r2, #4]
1488:Drivers/STM32F4xx_HAL_Driver/Src/stm32f4xx_hal_pcd.c ****           }
 2314              		.loc 1 1488 13 is_stmt 1 view .LVU954
 2315              	.LVL156:
 2316              	.L273:
1493:Drivers/STM32F4xx_HAL_Driver/Src/stm32f4xx_hal_pcd.c ****     }
 2317              		.loc 1 1493 7 view .LVU955
 2318 039e 2068     		ldr	r0, [r4]
 2319 03a0 4369     		ldr	r3, [r0, #20]
 2320 03a2 03F40013 		and	r3, r3, #2097152
 2321 03a6 4361     		str	r3, [r0, #20]
 2322 03a8 AAE7     		b	.L271
 2323              	.L212:
1286:Drivers/STM32F4xx_HAL_Driver/Src/stm32f4xx_hal_pcd.c **** 
 2324              		.loc 1 1286 7 view .LVU956
1286:Drivers/STM32F4xx_HAL_Driver/Src/stm32f4xx_hal_pcd.c **** 
 2325              		.loc 1 1286 18 is_stmt 0 view .LVU957
 2326 03aa 039A     		ldr	r2, [sp, #12]
 2327 03ac 5368     		ldr	r3, [r2, #4]
1286:Drivers/STM32F4xx_HAL_Driver/Src/stm32f4xx_hal_pcd.c **** 
 2328              		.loc 1 1286 25 view .LVU958
 2329 03ae 23F00103 		bic	r3, r3, #1
 2330 03b2 5360     		str	r3, [r2, #4]
1288:Drivers/STM32F4xx_HAL_Driver/Src/stm32f4xx_hal_pcd.c ****       {
 2331              		.loc 1 1288 7 is_stmt 1 view .LVU959
1288:Drivers/STM32F4xx_HAL_Driver/Src/stm32f4xx_hal_pcd.c ****       {
 2332              		.loc 1 1288 10 is_stmt 0 view .LVU960
 2333 03b4 94F8CC34 		ldrb	r3, [r4, #1228]	@ zero_extendqisi2
 2334 03b8 012B     		cmp	r3, #1
 2335 03ba 00F08281 		beq	.L391
1303:Drivers/STM32F4xx_HAL_Driver/Src/stm32f4xx_hal_pcd.c **** #endif /* USE_HAL_PCD_REGISTER_CALLBACKS */
 2336              		.loc 1 1303 9 is_stmt 1 view .LVU961
 2337 03be 2046     		mov	r0, r4
 2338 03c0 FFF7FEFF 		bl	HAL_PCD_ResumeCallback
 2339              	.LVL157:
 2340              	.L215:
1307:Drivers/STM32F4xx_HAL_Driver/Src/stm32f4xx_hal_pcd.c ****     }
 2341              		.loc 1 1307 7 view .LVU962
 2342 03c4 2068     		ldr	r0, [r4]
 2343 03c6 4369     		ldr	r3, [r0, #20]
ARM GAS  /tmp/ccDYdWST.s 			page 93


 2344 03c8 03F00043 		and	r3, r3, #-2147483648
 2345 03cc 4361     		str	r3, [r0, #20]
 2346 03ce 6BE6     		b	.L213
 2347              	.L227:
1406:Drivers/STM32F4xx_HAL_Driver/Src/stm32f4xx_hal_pcd.c ****       hpcd->Init.speed = USB_GetDevSpeed(hpcd->Instance);
 2348              		.loc 1 1406 7 view .LVU963
1406:Drivers/STM32F4xx_HAL_Driver/Src/stm32f4xx_hal_pcd.c ****       hpcd->Init.speed = USB_GetDevSpeed(hpcd->Instance);
 2349              		.loc 1 1406 13 is_stmt 0 view .LVU964
 2350 03d0 FFF7FEFF 		bl	USB_ActivateSetup
 2351              	.LVL158:
1407:Drivers/STM32F4xx_HAL_Driver/Src/stm32f4xx_hal_pcd.c **** 
 2352              		.loc 1 1407 7 is_stmt 1 view .LVU965
1407:Drivers/STM32F4xx_HAL_Driver/Src/stm32f4xx_hal_pcd.c **** 
 2353              		.loc 1 1407 26 is_stmt 0 view .LVU966
 2354 03d4 2068     		ldr	r0, [r4]
 2355 03d6 FFF7FEFF 		bl	USB_GetDevSpeed
 2356              	.LVL159:
1407:Drivers/STM32F4xx_HAL_Driver/Src/stm32f4xx_hal_pcd.c **** 
 2357              		.loc 1 1407 24 discriminator 1 view .LVU967
 2358 03da E071     		strb	r0, [r4, #7]
1410:Drivers/STM32F4xx_HAL_Driver/Src/stm32f4xx_hal_pcd.c ****                                   HAL_RCC_GetHCLKFreq(),
 2359              		.loc 1 1410 7 is_stmt 1 view .LVU968
1410:Drivers/STM32F4xx_HAL_Driver/Src/stm32f4xx_hal_pcd.c ****                                   HAL_RCC_GetHCLKFreq(),
 2360              		.loc 1 1410 39 is_stmt 0 view .LVU969
 2361 03dc 2568     		ldr	r5, [r4]
1410:Drivers/STM32F4xx_HAL_Driver/Src/stm32f4xx_hal_pcd.c ****                                   HAL_RCC_GetHCLKFreq(),
 2362              		.loc 1 1410 13 view .LVU970
 2363 03de FFF7FEFF 		bl	HAL_RCC_GetHCLKFreq
 2364              	.LVL160:
 2365 03e2 E279     		ldrb	r2, [r4, #7]	@ zero_extendqisi2
 2366 03e4 0146     		mov	r1, r0
 2367 03e6 2846     		mov	r0, r5
 2368 03e8 FFF7FEFF 		bl	USB_SetTurnaroundTime
 2369              	.LVL161:
1417:Drivers/STM32F4xx_HAL_Driver/Src/stm32f4xx_hal_pcd.c **** #endif /* USE_HAL_PCD_REGISTER_CALLBACKS */
 2370              		.loc 1 1417 7 is_stmt 1 view .LVU971
 2371 03ec 2046     		mov	r0, r4
 2372 03ee FFF7FEFF 		bl	HAL_PCD_ResetCallback
 2373              	.LVL162:
1420:Drivers/STM32F4xx_HAL_Driver/Src/stm32f4xx_hal_pcd.c ****     }
 2374              		.loc 1 1420 7 view .LVU972
 2375 03f2 2068     		ldr	r0, [r4]
 2376 03f4 4369     		ldr	r3, [r0, #20]
 2377 03f6 03F40053 		and	r3, r3, #8192
 2378 03fa 4361     		str	r3, [r0, #20]
 2379 03fc 67E6     		b	.L228
 2380              	.L219:
1357:Drivers/STM32F4xx_HAL_Driver/Src/stm32f4xx_hal_pcd.c ****       (void)USB_FlushTxFifo(hpcd->Instance, 0x10U);
 2381              		.loc 1 1357 7 view .LVU973
1357:Drivers/STM32F4xx_HAL_Driver/Src/stm32f4xx_hal_pcd.c ****       (void)USB_FlushTxFifo(hpcd->Instance, 0x10U);
 2382              		.loc 1 1357 18 is_stmt 0 view .LVU974
 2383 03fe 039A     		ldr	r2, [sp, #12]
1358:Drivers/STM32F4xx_HAL_Driver/Src/stm32f4xx_hal_pcd.c **** 
 2384              		.loc 1 1358 13 view .LVU975
 2385 0400 2068     		ldr	r0, [r4]
1357:Drivers/STM32F4xx_HAL_Driver/Src/stm32f4xx_hal_pcd.c ****       (void)USB_FlushTxFifo(hpcd->Instance, 0x10U);
 2386              		.loc 1 1357 18 view .LVU976
ARM GAS  /tmp/ccDYdWST.s 			page 94


 2387 0402 5368     		ldr	r3, [r2, #4]
1357:Drivers/STM32F4xx_HAL_Driver/Src/stm32f4xx_hal_pcd.c ****       (void)USB_FlushTxFifo(hpcd->Instance, 0x10U);
 2388              		.loc 1 1357 25 view .LVU977
 2389 0404 23F00103 		bic	r3, r3, #1
 2390 0408 5360     		str	r3, [r2, #4]
1358:Drivers/STM32F4xx_HAL_Driver/Src/stm32f4xx_hal_pcd.c **** 
 2391              		.loc 1 1358 7 is_stmt 1 view .LVU978
1358:Drivers/STM32F4xx_HAL_Driver/Src/stm32f4xx_hal_pcd.c **** 
 2392              		.loc 1 1358 13 is_stmt 0 view .LVU979
 2393 040a 1021     		movs	r1, #16
 2394 040c FFF7FEFF 		bl	USB_FlushTxFifo
 2395              	.LVL163:
1360:Drivers/STM32F4xx_HAL_Driver/Src/stm32f4xx_hal_pcd.c ****       {
 2396              		.loc 1 1360 7 is_stmt 1 view .LVU980
1360:Drivers/STM32F4xx_HAL_Driver/Src/stm32f4xx_hal_pcd.c ****       {
 2397              		.loc 1 1360 22 discriminator 1 view .LVU981
1360:Drivers/STM32F4xx_HAL_Driver/Src/stm32f4xx_hal_pcd.c ****       {
 2398              		.loc 1 1360 34 is_stmt 0 discriminator 1 view .LVU982
 2399 0410 2079     		ldrb	r0, [r4, #4]	@ zero_extendqisi2
1360:Drivers/STM32F4xx_HAL_Driver/Src/stm32f4xx_hal_pcd.c ****       {
 2400              		.loc 1 1360 22 discriminator 1 view .LVU983
 2401 0412 D8B1     		cbz	r0, .L225
 2402 0414 06F51063 		add	r3, r6, #2304
1362:Drivers/STM32F4xx_HAL_Driver/Src/stm32f4xx_hal_pcd.c ****         USBx_INEP(i)->DIEPCTL &= ~USB_OTG_DIEPCTL_STALL;
 2403              		.loc 1 1362 31 view .LVU984
 2404 0418 4FF67F31 		movw	r1, #64383
 2405              	.LVL164:
 2406              	.L224:
1362:Drivers/STM32F4xx_HAL_Driver/Src/stm32f4xx_hal_pcd.c ****         USBx_INEP(i)->DIEPCTL &= ~USB_OTG_DIEPCTL_STALL;
 2407              		.loc 1 1362 9 is_stmt 1 view .LVU985
1362:Drivers/STM32F4xx_HAL_Driver/Src/stm32f4xx_hal_pcd.c ****         USBx_INEP(i)->DIEPCTL &= ~USB_OTG_DIEPCTL_STALL;
 2408              		.loc 1 1362 31 is_stmt 0 view .LVU986
 2409 041c 9960     		str	r1, [r3, #8]
1363:Drivers/STM32F4xx_HAL_Driver/Src/stm32f4xx_hal_pcd.c ****         USBx_OUTEP(i)->DOEPINT = 0xFB7FU;
 2410              		.loc 1 1363 9 is_stmt 1 view .LVU987
1363:Drivers/STM32F4xx_HAL_Driver/Src/stm32f4xx_hal_pcd.c ****         USBx_OUTEP(i)->DOEPINT = 0xFB7FU;
 2411              		.loc 1 1363 21 is_stmt 0 view .LVU988
 2412 041e 1A68     		ldr	r2, [r3]
1363:Drivers/STM32F4xx_HAL_Driver/Src/stm32f4xx_hal_pcd.c ****         USBx_OUTEP(i)->DOEPINT = 0xFB7FU;
 2413              		.loc 1 1363 31 view .LVU989
 2414 0420 22F40012 		bic	r2, r2, #2097152
 2415 0424 1A60     		str	r2, [r3]
1364:Drivers/STM32F4xx_HAL_Driver/Src/stm32f4xx_hal_pcd.c ****         USBx_OUTEP(i)->DOEPCTL &= ~USB_OTG_DOEPCTL_STALL;
 2416              		.loc 1 1364 9 is_stmt 1 view .LVU990
1364:Drivers/STM32F4xx_HAL_Driver/Src/stm32f4xx_hal_pcd.c ****         USBx_OUTEP(i)->DOEPCTL &= ~USB_OTG_DOEPCTL_STALL;
 2417              		.loc 1 1364 32 is_stmt 0 view .LVU991
 2418 0426 C3F80812 		str	r1, [r3, #520]
1365:Drivers/STM32F4xx_HAL_Driver/Src/stm32f4xx_hal_pcd.c ****         USBx_OUTEP(i)->DOEPCTL |= USB_OTG_DOEPCTL_SNAK;
 2419              		.loc 1 1365 9 is_stmt 1 view .LVU992
1365:Drivers/STM32F4xx_HAL_Driver/Src/stm32f4xx_hal_pcd.c ****         USBx_OUTEP(i)->DOEPCTL |= USB_OTG_DOEPCTL_SNAK;
 2420              		.loc 1 1365 22 is_stmt 0 view .LVU993
 2421 042a D3F80022 		ldr	r2, [r3, #512]
1365:Drivers/STM32F4xx_HAL_Driver/Src/stm32f4xx_hal_pcd.c ****         USBx_OUTEP(i)->DOEPCTL |= USB_OTG_DOEPCTL_SNAK;
 2422              		.loc 1 1365 32 view .LVU994
 2423 042e 22F40012 		bic	r2, r2, #2097152
 2424 0432 C3F80022 		str	r2, [r3, #512]
1366:Drivers/STM32F4xx_HAL_Driver/Src/stm32f4xx_hal_pcd.c ****       }
ARM GAS  /tmp/ccDYdWST.s 			page 95


 2425              		.loc 1 1366 9 is_stmt 1 view .LVU995
1366:Drivers/STM32F4xx_HAL_Driver/Src/stm32f4xx_hal_pcd.c ****       }
 2426              		.loc 1 1366 22 is_stmt 0 view .LVU996
 2427 0436 D3F80022 		ldr	r2, [r3, #512]
1360:Drivers/STM32F4xx_HAL_Driver/Src/stm32f4xx_hal_pcd.c ****       {
 2428              		.loc 1 1360 51 discriminator 3 view .LVU997
 2429 043a 0135     		adds	r5, r5, #1
 2430              	.LVL165:
1366:Drivers/STM32F4xx_HAL_Driver/Src/stm32f4xx_hal_pcd.c ****       }
 2431              		.loc 1 1366 32 view .LVU998
 2432 043c 42F00062 		orr	r2, r2, #134217728
1360:Drivers/STM32F4xx_HAL_Driver/Src/stm32f4xx_hal_pcd.c ****       {
 2433              		.loc 1 1360 22 discriminator 1 view .LVU999
 2434 0440 8542     		cmp	r5, r0
1366:Drivers/STM32F4xx_HAL_Driver/Src/stm32f4xx_hal_pcd.c ****       }
 2435              		.loc 1 1366 32 view .LVU1000
 2436 0442 C3F80022 		str	r2, [r3, #512]
1360:Drivers/STM32F4xx_HAL_Driver/Src/stm32f4xx_hal_pcd.c ****       {
 2437              		.loc 1 1360 51 is_stmt 1 discriminator 3 view .LVU1001
 2438              	.LVL166:
1360:Drivers/STM32F4xx_HAL_Driver/Src/stm32f4xx_hal_pcd.c ****       {
 2439              		.loc 1 1360 22 discriminator 1 view .LVU1002
 2440 0446 03F12003 		add	r3, r3, #32
 2441 044a E7D1     		bne	.L224
 2442              	.LVL167:
 2443              	.L225:
1368:Drivers/STM32F4xx_HAL_Driver/Src/stm32f4xx_hal_pcd.c **** 
 2444              		.loc 1 1368 7 view .LVU1003
1368:Drivers/STM32F4xx_HAL_Driver/Src/stm32f4xx_hal_pcd.c **** 
 2445              		.loc 1 1368 18 is_stmt 0 view .LVU1004
 2446 044c 039A     		ldr	r2, [sp, #12]
 2447 044e D369     		ldr	r3, [r2, #28]
1368:Drivers/STM32F4xx_HAL_Driver/Src/stm32f4xx_hal_pcd.c **** 
 2448              		.loc 1 1368 29 view .LVU1005
 2449 0450 43F00113 		orr	r3, r3, #65537
 2450 0454 D361     		str	r3, [r2, #28]
1370:Drivers/STM32F4xx_HAL_Driver/Src/stm32f4xx_hal_pcd.c ****       {
 2451              		.loc 1 1370 7 is_stmt 1 view .LVU1006
1370:Drivers/STM32F4xx_HAL_Driver/Src/stm32f4xx_hal_pcd.c ****       {
 2452              		.loc 1 1370 10 is_stmt 0 view .LVU1007
 2453 0456 E37B     		ldrb	r3, [r4, #15]	@ zero_extendqisi2
 2454 0458 002B     		cmp	r3, #0
 2455 045a 40F01B81 		bne	.L222
1382:Drivers/STM32F4xx_HAL_Driver/Src/stm32f4xx_hal_pcd.c ****                                 USB_OTG_DOEPMSK_XFRCM |
 2456              		.loc 1 1382 9 is_stmt 1 view .LVU1008
1382:Drivers/STM32F4xx_HAL_Driver/Src/stm32f4xx_hal_pcd.c ****                                 USB_OTG_DOEPMSK_XFRCM |
 2457              		.loc 1 1382 20 is_stmt 0 view .LVU1009
 2458 045e 5369     		ldr	r3, [r2, #20]
1382:Drivers/STM32F4xx_HAL_Driver/Src/stm32f4xx_hal_pcd.c ****                                 USB_OTG_DOEPMSK_XFRCM |
 2459              		.loc 1 1382 30 view .LVU1010
 2460 0460 43F40053 		orr	r3, r3, #8192
 2461 0464 43F02B03 		orr	r3, r3, #43
 2462 0468 5361     		str	r3, [r2, #20]
1388:Drivers/STM32F4xx_HAL_Driver/Src/stm32f4xx_hal_pcd.c ****                                 USB_OTG_DIEPMSK_XFRCM |
 2463              		.loc 1 1388 9 is_stmt 1 view .LVU1011
1388:Drivers/STM32F4xx_HAL_Driver/Src/stm32f4xx_hal_pcd.c ****                                 USB_OTG_DIEPMSK_XFRCM |
 2464              		.loc 1 1388 20 is_stmt 0 view .LVU1012
ARM GAS  /tmp/ccDYdWST.s 			page 96


 2465 046a 1369     		ldr	r3, [r2, #16]
1388:Drivers/STM32F4xx_HAL_Driver/Src/stm32f4xx_hal_pcd.c ****                                 USB_OTG_DIEPMSK_XFRCM |
 2466              		.loc 1 1388 30 view .LVU1013
 2467 046c 43F00B03 		orr	r3, r3, #11
 2468 0470 1361     		str	r3, [r2, #16]
 2469              	.L226:
1394:Drivers/STM32F4xx_HAL_Driver/Src/stm32f4xx_hal_pcd.c **** 
 2470              		.loc 1 1394 7 is_stmt 1 view .LVU1014
1394:Drivers/STM32F4xx_HAL_Driver/Src/stm32f4xx_hal_pcd.c **** 
 2471              		.loc 1 1394 18 is_stmt 0 view .LVU1015
 2472 0472 D6F80038 		ldr	r3, [r6, #2048]
1397:Drivers/STM32F4xx_HAL_Driver/Src/stm32f4xx_hal_pcd.c ****                              (uint8_t *)hpcd->Setup);
 2473              		.loc 1 1397 13 view .LVU1016
 2474 0476 2068     		ldr	r0, [r4]
1394:Drivers/STM32F4xx_HAL_Driver/Src/stm32f4xx_hal_pcd.c **** 
 2475              		.loc 1 1394 25 view .LVU1017
 2476 0478 23F4FE63 		bic	r3, r3, #2032
 2477 047c C6F80038 		str	r3, [r6, #2048]
1397:Drivers/STM32F4xx_HAL_Driver/Src/stm32f4xx_hal_pcd.c ****                              (uint8_t *)hpcd->Setup);
 2478              		.loc 1 1397 7 is_stmt 1 view .LVU1018
1397:Drivers/STM32F4xx_HAL_Driver/Src/stm32f4xx_hal_pcd.c ****                              (uint8_t *)hpcd->Setup);
 2479              		.loc 1 1397 13 is_stmt 0 view .LVU1019
 2480 0480 A179     		ldrb	r1, [r4, #6]	@ zero_extendqisi2
 2481 0482 04F29C42 		addw	r2, r4, #1180
 2482 0486 FFF7FEFF 		bl	USB_EP0_OutStart
 2483              	.LVL168:
1400:Drivers/STM32F4xx_HAL_Driver/Src/stm32f4xx_hal_pcd.c ****     }
 2484              		.loc 1 1400 7 is_stmt 1 view .LVU1020
 2485 048a 2068     		ldr	r0, [r4]
 2486 048c 4369     		ldr	r3, [r0, #20]
 2487 048e 03F48053 		and	r3, r3, #4096
 2488 0492 4361     		str	r3, [r0, #20]
 2489 0494 14E6     		b	.L220
 2490              	.L277:
1502:Drivers/STM32F4xx_HAL_Driver/Src/stm32f4xx_hal_pcd.c **** #endif /* USE_HAL_PCD_REGISTER_CALLBACKS */
 2491              		.loc 1 1502 7 view .LVU1021
 2492 0496 2046     		mov	r0, r4
 2493 0498 FFF7FEFF 		bl	HAL_PCD_ConnectCallback
 2494              	.LVL169:
1505:Drivers/STM32F4xx_HAL_Driver/Src/stm32f4xx_hal_pcd.c ****     }
 2495              		.loc 1 1505 7 view .LVU1022
 2496 049c 2068     		ldr	r0, [r4]
 2497 049e 4369     		ldr	r3, [r0, #20]
 2498 04a0 03F08043 		and	r3, r3, #1073741824
 2499 04a4 4361     		str	r3, [r0, #20]
 2500 04a6 31E7     		b	.L278
 2501              	.L229:
1429:Drivers/STM32F4xx_HAL_Driver/Src/stm32f4xx_hal_pcd.c **** #endif /* USE_HAL_PCD_REGISTER_CALLBACKS */
 2502              		.loc 1 1429 7 view .LVU1023
 2503 04a8 2046     		mov	r0, r4
 2504 04aa FFF7FEFF 		bl	HAL_PCD_SOFCallback
 2505              	.LVL170:
1432:Drivers/STM32F4xx_HAL_Driver/Src/stm32f4xx_hal_pcd.c ****     }
 2506              		.loc 1 1432 7 view .LVU1024
 2507 04ae 2068     		ldr	r0, [r4]
 2508 04b0 4369     		ldr	r3, [r0, #20]
 2509 04b2 03F00803 		and	r3, r3, #8
ARM GAS  /tmp/ccDYdWST.s 			page 97


 2510 04b6 4361     		str	r3, [r0, #20]
 2511 04b8 0FE6     		b	.L230
 2512              	.LVL171:
 2513              	.L358:
1206:Drivers/STM32F4xx_HAL_Driver/Src/stm32f4xx_hal_pcd.c **** 
 2514              		.loc 1 1206 7 view .LVU1025
1206:Drivers/STM32F4xx_HAL_Driver/Src/stm32f4xx_hal_pcd.c **** 
 2515              		.loc 1 1206 17 is_stmt 0 view .LVU1026
 2516 04ba 2068     		ldr	r0, [r4]
 2517 04bc FFF7FEFF 		bl	USB_ReadDevAllInEpInterrupt
 2518              	.LVL172:
1208:Drivers/STM32F4xx_HAL_Driver/Src/stm32f4xx_hal_pcd.c **** 
 2519              		.loc 1 1208 7 is_stmt 1 view .LVU1027
1210:Drivers/STM32F4xx_HAL_Driver/Src/stm32f4xx_hal_pcd.c ****       {
 2520              		.loc 1 1210 7 view .LVU1028
1210:Drivers/STM32F4xx_HAL_Driver/Src/stm32f4xx_hal_pcd.c ****       {
 2521              		.loc 1 1210 22 view .LVU1029
 2522 04c0 8146     		mov	r9, r0
1283:Drivers/STM32F4xx_HAL_Driver/Src/stm32f4xx_hal_pcd.c ****     {
 2523              		.loc 1 1283 9 is_stmt 0 view .LVU1030
 2524 04c2 2068     		ldr	r0, [r4]
 2525              	.LVL173:
1210:Drivers/STM32F4xx_HAL_Driver/Src/stm32f4xx_hal_pcd.c ****       {
 2526              		.loc 1 1210 22 view .LVU1031
 2527 04c4 B9F1000F 		cmp	r9, #0
 2528 04c8 3FF4E8AD 		beq	.L194
1243:Drivers/STM32F4xx_HAL_Driver/Src/stm32f4xx_hal_pcd.c ****           }
 2529              		.loc 1 1243 13 view .LVU1032
 2530 04cc CDE90465 		strd	r6, r5, [sp, #16]
 2531 04d0 06F51067 		add	r7, r6, #2304
 2532 04d4 A046     		mov	r8, r4
1208:Drivers/STM32F4xx_HAL_Driver/Src/stm32f4xx_hal_pcd.c **** 
 2533              		.loc 1 1208 13 view .LVU1033
 2534 04d6 4FF0000A 		mov	r10, #0
1243:Drivers/STM32F4xx_HAL_Driver/Src/stm32f4xx_hal_pcd.c ****           }
 2535              		.loc 1 1243 13 view .LVU1034
 2536 04da 0646     		mov	r6, r0
 2537              	.LVL174:
1243:Drivers/STM32F4xx_HAL_Driver/Src/stm32f4xx_hal_pcd.c ****           }
 2538              		.loc 1 1243 13 view .LVU1035
 2539 04dc 09E0     		b	.L211
 2540              	.LVL175:
 2541              	.L195:
1277:Drivers/STM32F4xx_HAL_Driver/Src/stm32f4xx_hal_pcd.c ****         ep_intr >>= 1U;
 2542              		.loc 1 1277 9 is_stmt 1 view .LVU1036
1210:Drivers/STM32F4xx_HAL_Driver/Src/stm32f4xx_hal_pcd.c ****       {
 2543              		.loc 1 1210 22 is_stmt 0 view .LVU1037
 2544 04de 5FEA5909 		lsrs	r9, r9, #1
 2545              	.LVL176:
1277:Drivers/STM32F4xx_HAL_Driver/Src/stm32f4xx_hal_pcd.c ****         ep_intr >>= 1U;
 2546              		.loc 1 1277 14 view .LVU1038
 2547 04e2 0AF1010A 		add	r10, r10, #1
 2548              	.LVL177:
1278:Drivers/STM32F4xx_HAL_Driver/Src/stm32f4xx_hal_pcd.c ****       }
 2549              		.loc 1 1278 9 is_stmt 1 view .LVU1039
1210:Drivers/STM32F4xx_HAL_Driver/Src/stm32f4xx_hal_pcd.c ****       {
 2550              		.loc 1 1210 22 view .LVU1040
ARM GAS  /tmp/ccDYdWST.s 			page 98


 2551 04e6 08F12408 		add	r8, r8, #36
 2552 04ea 07F12007 		add	r7, r7, #32
 2553 04ee 00F03781 		beq	.L392
 2554              	.LVL178:
 2555              	.L211:
1212:Drivers/STM32F4xx_HAL_Driver/Src/stm32f4xx_hal_pcd.c ****         {
 2556              		.loc 1 1212 9 view .LVU1041
1212:Drivers/STM32F4xx_HAL_Driver/Src/stm32f4xx_hal_pcd.c ****         {
 2557              		.loc 1 1212 12 is_stmt 0 view .LVU1042
 2558 04f2 19F0010F 		tst	r9, #1
 2559 04f6 F2D0     		beq	.L195
1214:Drivers/STM32F4xx_HAL_Driver/Src/stm32f4xx_hal_pcd.c **** 
 2560              		.loc 1 1214 11 is_stmt 1 view .LVU1043
 2561 04f8 5FFA8AFB 		uxtb	fp, r10
1214:Drivers/STM32F4xx_HAL_Driver/Src/stm32f4xx_hal_pcd.c **** 
 2562              		.loc 1 1214 19 is_stmt 0 view .LVU1044
 2563 04fc 3046     		mov	r0, r6
 2564 04fe 5946     		mov	r1, fp
 2565 0500 FFF7FEFF 		bl	USB_ReadDevInEPInterrupt
 2566              	.LVL179:
1216:Drivers/STM32F4xx_HAL_Driver/Src/stm32f4xx_hal_pcd.c ****           {
 2567              		.loc 1 1216 14 view .LVU1045
 2568 0504 C207     		lsls	r2, r0, #31
1214:Drivers/STM32F4xx_HAL_Driver/Src/stm32f4xx_hal_pcd.c **** 
 2569              		.loc 1 1214 19 view .LVU1046
 2570 0506 0546     		mov	r5, r0
 2571              	.LVL180:
1216:Drivers/STM32F4xx_HAL_Driver/Src/stm32f4xx_hal_pcd.c ****           {
 2572              		.loc 1 1216 11 is_stmt 1 view .LVU1047
1216:Drivers/STM32F4xx_HAL_Driver/Src/stm32f4xx_hal_pcd.c ****           {
 2573              		.loc 1 1216 14 is_stmt 0 view .LVU1048
 2574 0508 12D5     		bpl	.L196
1218:Drivers/STM32F4xx_HAL_Driver/Src/stm32f4xx_hal_pcd.c ****             USBx_DEVICE->DIEPEMPMSK &= ~fifoemptymsk;
 2575              		.loc 1 1218 13 is_stmt 1 view .LVU1049
 2576              	.LVL181:
1219:Drivers/STM32F4xx_HAL_Driver/Src/stm32f4xx_hal_pcd.c **** 
 2577              		.loc 1 1219 13 view .LVU1050
1219:Drivers/STM32F4xx_HAL_Driver/Src/stm32f4xx_hal_pcd.c **** 
 2578              		.loc 1 1219 24 is_stmt 0 view .LVU1051
 2579 050a 0398     		ldr	r0, [sp, #12]
 2580              	.LVL182:
1218:Drivers/STM32F4xx_HAL_Driver/Src/stm32f4xx_hal_pcd.c ****             USBx_DEVICE->DIEPEMPMSK &= ~fifoemptymsk;
 2581              		.loc 1 1218 26 view .LVU1052
 2582 050c 0121     		movs	r1, #1
1219:Drivers/STM32F4xx_HAL_Driver/Src/stm32f4xx_hal_pcd.c **** 
 2583              		.loc 1 1219 24 view .LVU1053
 2584 050e 436B     		ldr	r3, [r0, #52]
1218:Drivers/STM32F4xx_HAL_Driver/Src/stm32f4xx_hal_pcd.c ****             USBx_DEVICE->DIEPEMPMSK &= ~fifoemptymsk;
 2585              		.loc 1 1218 55 view .LVU1054
 2586 0510 0AF00F02 		and	r2, r10, #15
1218:Drivers/STM32F4xx_HAL_Driver/Src/stm32f4xx_hal_pcd.c ****             USBx_DEVICE->DIEPEMPMSK &= ~fifoemptymsk;
 2587              		.loc 1 1218 26 view .LVU1055
 2588 0514 01FA02F2 		lsl	r2, r1, r2
 2589              	.LVL183:
1219:Drivers/STM32F4xx_HAL_Driver/Src/stm32f4xx_hal_pcd.c **** 
 2590              		.loc 1 1219 37 view .LVU1056
 2591 0518 23EA0203 		bic	r3, r3, r2
ARM GAS  /tmp/ccDYdWST.s 			page 99


 2592 051c 4363     		str	r3, [r0, #52]
1221:Drivers/STM32F4xx_HAL_Driver/Src/stm32f4xx_hal_pcd.c **** 
 2593              		.loc 1 1221 13 is_stmt 1 view .LVU1057
 2594 051e B960     		str	r1, [r7, #8]
1223:Drivers/STM32F4xx_HAL_Driver/Src/stm32f4xx_hal_pcd.c ****             {
 2595              		.loc 1 1223 13 view .LVU1058
1223:Drivers/STM32F4xx_HAL_Driver/Src/stm32f4xx_hal_pcd.c ****             {
 2596              		.loc 1 1223 16 is_stmt 0 view .LVU1059
 2597 0520 A179     		ldrb	r1, [r4, #6]	@ zero_extendqisi2
 2598 0522 0129     		cmp	r1, #1
 2599 0524 00F08281 		beq	.L393
 2600              	.LVL184:
 2601              	.L198:
1238:Drivers/STM32F4xx_HAL_Driver/Src/stm32f4xx_hal_pcd.c **** #endif /* USE_HAL_PCD_REGISTER_CALLBACKS */
 2602              		.loc 1 1238 13 is_stmt 1 view .LVU1060
 2603 0528 5946     		mov	r1, fp
 2604 052a 2046     		mov	r0, r4
 2605 052c FFF7FEFF 		bl	HAL_PCD_DataInStageCallback
 2606              	.LVL185:
 2607              	.L196:
1241:Drivers/STM32F4xx_HAL_Driver/Src/stm32f4xx_hal_pcd.c ****           {
 2608              		.loc 1 1241 11 view .LVU1061
1241:Drivers/STM32F4xx_HAL_Driver/Src/stm32f4xx_hal_pcd.c ****           {
 2609              		.loc 1 1241 14 is_stmt 0 view .LVU1062
 2610 0530 2B07     		lsls	r3, r5, #28
1243:Drivers/STM32F4xx_HAL_Driver/Src/stm32f4xx_hal_pcd.c ****           }
 2611              		.loc 1 1243 13 is_stmt 1 view .LVU1063
1245:Drivers/STM32F4xx_HAL_Driver/Src/stm32f4xx_hal_pcd.c ****           {
 2612              		.loc 1 1245 11 view .LVU1064
1243:Drivers/STM32F4xx_HAL_Driver/Src/stm32f4xx_hal_pcd.c ****           }
 2613              		.loc 1 1243 13 is_stmt 0 view .LVU1065
 2614 0532 44BF     		itt	mi
 2615 0534 0823     		movmi	r3, #8
 2616 0536 BB60     		strmi	r3, [r7, #8]
1245:Drivers/STM32F4xx_HAL_Driver/Src/stm32f4xx_hal_pcd.c ****           {
 2617              		.loc 1 1245 14 view .LVU1066
 2618 0538 EE06     		lsls	r6, r5, #27
1247:Drivers/STM32F4xx_HAL_Driver/Src/stm32f4xx_hal_pcd.c ****           }
 2619              		.loc 1 1247 13 is_stmt 1 view .LVU1067
1249:Drivers/STM32F4xx_HAL_Driver/Src/stm32f4xx_hal_pcd.c ****           {
 2620              		.loc 1 1249 11 view .LVU1068
1247:Drivers/STM32F4xx_HAL_Driver/Src/stm32f4xx_hal_pcd.c ****           }
 2621              		.loc 1 1247 13 is_stmt 0 view .LVU1069
 2622 053a 44BF     		itt	mi
 2623 053c 1023     		movmi	r3, #16
 2624 053e BB60     		strmi	r3, [r7, #8]
1249:Drivers/STM32F4xx_HAL_Driver/Src/stm32f4xx_hal_pcd.c ****           {
 2625              		.loc 1 1249 14 view .LVU1070
 2626 0540 6806     		lsls	r0, r5, #25
1251:Drivers/STM32F4xx_HAL_Driver/Src/stm32f4xx_hal_pcd.c ****           }
 2627              		.loc 1 1251 13 is_stmt 1 view .LVU1071
1253:Drivers/STM32F4xx_HAL_Driver/Src/stm32f4xx_hal_pcd.c ****           {
 2628              		.loc 1 1253 11 view .LVU1072
1251:Drivers/STM32F4xx_HAL_Driver/Src/stm32f4xx_hal_pcd.c ****           }
 2629              		.loc 1 1251 13 is_stmt 0 view .LVU1073
 2630 0542 44BF     		itt	mi
 2631 0544 4023     		movmi	r3, #64
ARM GAS  /tmp/ccDYdWST.s 			page 100


 2632 0546 BB60     		strmi	r3, [r7, #8]
1253:Drivers/STM32F4xx_HAL_Driver/Src/stm32f4xx_hal_pcd.c ****           {
 2633              		.loc 1 1253 14 view .LVU1074
 2634 0548 A907     		lsls	r1, r5, #30
 2635 054a 00F13D81 		bmi	.L394
 2636              	.L203:
1272:Drivers/STM32F4xx_HAL_Driver/Src/stm32f4xx_hal_pcd.c ****           {
 2637              		.loc 1 1272 11 is_stmt 1 view .LVU1075
1272:Drivers/STM32F4xx_HAL_Driver/Src/stm32f4xx_hal_pcd.c ****           {
 2638              		.loc 1 1272 14 is_stmt 0 view .LVU1076
 2639 054e 2A06     		lsls	r2, r5, #24
 2640              	.LBB32:
 2641              	.LBB33:
2058:Drivers/STM32F4xx_HAL_Driver/Src/stm32f4xx_hal_pcd.c **** }
2059:Drivers/STM32F4xx_HAL_Driver/Src/stm32f4xx_hal_pcd.c **** 
2060:Drivers/STM32F4xx_HAL_Driver/Src/stm32f4xx_hal_pcd.c **** /**
2061:Drivers/STM32F4xx_HAL_Driver/Src/stm32f4xx_hal_pcd.c ****   * @brief  Flush an endpoint
2062:Drivers/STM32F4xx_HAL_Driver/Src/stm32f4xx_hal_pcd.c ****   * @param  hpcd PCD handle
2063:Drivers/STM32F4xx_HAL_Driver/Src/stm32f4xx_hal_pcd.c ****   * @param  ep_addr endpoint address
2064:Drivers/STM32F4xx_HAL_Driver/Src/stm32f4xx_hal_pcd.c ****   * @retval HAL status
2065:Drivers/STM32F4xx_HAL_Driver/Src/stm32f4xx_hal_pcd.c ****   */
2066:Drivers/STM32F4xx_HAL_Driver/Src/stm32f4xx_hal_pcd.c **** HAL_StatusTypeDef HAL_PCD_EP_Flush(PCD_HandleTypeDef *hpcd, uint8_t ep_addr)
2067:Drivers/STM32F4xx_HAL_Driver/Src/stm32f4xx_hal_pcd.c **** {
2068:Drivers/STM32F4xx_HAL_Driver/Src/stm32f4xx_hal_pcd.c ****   __HAL_LOCK(hpcd);
2069:Drivers/STM32F4xx_HAL_Driver/Src/stm32f4xx_hal_pcd.c **** 
2070:Drivers/STM32F4xx_HAL_Driver/Src/stm32f4xx_hal_pcd.c ****   if ((ep_addr & 0x80U) == 0x80U)
2071:Drivers/STM32F4xx_HAL_Driver/Src/stm32f4xx_hal_pcd.c ****   {
2072:Drivers/STM32F4xx_HAL_Driver/Src/stm32f4xx_hal_pcd.c ****     (void)USB_FlushTxFifo(hpcd->Instance, (uint32_t)ep_addr & EP_ADDR_MSK);
2073:Drivers/STM32F4xx_HAL_Driver/Src/stm32f4xx_hal_pcd.c ****   }
2074:Drivers/STM32F4xx_HAL_Driver/Src/stm32f4xx_hal_pcd.c ****   else
2075:Drivers/STM32F4xx_HAL_Driver/Src/stm32f4xx_hal_pcd.c ****   {
2076:Drivers/STM32F4xx_HAL_Driver/Src/stm32f4xx_hal_pcd.c ****     (void)USB_FlushRxFifo(hpcd->Instance);
2077:Drivers/STM32F4xx_HAL_Driver/Src/stm32f4xx_hal_pcd.c ****   }
2078:Drivers/STM32F4xx_HAL_Driver/Src/stm32f4xx_hal_pcd.c **** 
2079:Drivers/STM32F4xx_HAL_Driver/Src/stm32f4xx_hal_pcd.c ****   __HAL_UNLOCK(hpcd);
2080:Drivers/STM32F4xx_HAL_Driver/Src/stm32f4xx_hal_pcd.c **** 
2081:Drivers/STM32F4xx_HAL_Driver/Src/stm32f4xx_hal_pcd.c ****   return HAL_OK;
2082:Drivers/STM32F4xx_HAL_Driver/Src/stm32f4xx_hal_pcd.c **** }
2083:Drivers/STM32F4xx_HAL_Driver/Src/stm32f4xx_hal_pcd.c **** 
2084:Drivers/STM32F4xx_HAL_Driver/Src/stm32f4xx_hal_pcd.c **** /**
2085:Drivers/STM32F4xx_HAL_Driver/Src/stm32f4xx_hal_pcd.c ****   * @brief  Activate remote wakeup signalling
2086:Drivers/STM32F4xx_HAL_Driver/Src/stm32f4xx_hal_pcd.c ****   * @param  hpcd PCD handle
2087:Drivers/STM32F4xx_HAL_Driver/Src/stm32f4xx_hal_pcd.c ****   * @retval HAL status
2088:Drivers/STM32F4xx_HAL_Driver/Src/stm32f4xx_hal_pcd.c ****   */
2089:Drivers/STM32F4xx_HAL_Driver/Src/stm32f4xx_hal_pcd.c **** HAL_StatusTypeDef HAL_PCD_ActivateRemoteWakeup(PCD_HandleTypeDef *hpcd)
2090:Drivers/STM32F4xx_HAL_Driver/Src/stm32f4xx_hal_pcd.c **** {
2091:Drivers/STM32F4xx_HAL_Driver/Src/stm32f4xx_hal_pcd.c ****   return (USB_ActivateRemoteWakeup(hpcd->Instance));
2092:Drivers/STM32F4xx_HAL_Driver/Src/stm32f4xx_hal_pcd.c **** }
2093:Drivers/STM32F4xx_HAL_Driver/Src/stm32f4xx_hal_pcd.c **** 
2094:Drivers/STM32F4xx_HAL_Driver/Src/stm32f4xx_hal_pcd.c **** /**
2095:Drivers/STM32F4xx_HAL_Driver/Src/stm32f4xx_hal_pcd.c ****   * @brief  De-activate remote wakeup signalling.
2096:Drivers/STM32F4xx_HAL_Driver/Src/stm32f4xx_hal_pcd.c ****   * @param  hpcd PCD handle
2097:Drivers/STM32F4xx_HAL_Driver/Src/stm32f4xx_hal_pcd.c ****   * @retval HAL status
2098:Drivers/STM32F4xx_HAL_Driver/Src/stm32f4xx_hal_pcd.c ****   */
2099:Drivers/STM32F4xx_HAL_Driver/Src/stm32f4xx_hal_pcd.c **** HAL_StatusTypeDef HAL_PCD_DeActivateRemoteWakeup(PCD_HandleTypeDef *hpcd)
2100:Drivers/STM32F4xx_HAL_Driver/Src/stm32f4xx_hal_pcd.c **** {
2101:Drivers/STM32F4xx_HAL_Driver/Src/stm32f4xx_hal_pcd.c ****   return (USB_DeActivateRemoteWakeup(hpcd->Instance));
ARM GAS  /tmp/ccDYdWST.s 			page 101


2102:Drivers/STM32F4xx_HAL_Driver/Src/stm32f4xx_hal_pcd.c **** }
2103:Drivers/STM32F4xx_HAL_Driver/Src/stm32f4xx_hal_pcd.c **** 
2104:Drivers/STM32F4xx_HAL_Driver/Src/stm32f4xx_hal_pcd.c **** /**
2105:Drivers/STM32F4xx_HAL_Driver/Src/stm32f4xx_hal_pcd.c ****   * @}
2106:Drivers/STM32F4xx_HAL_Driver/Src/stm32f4xx_hal_pcd.c ****   */
2107:Drivers/STM32F4xx_HAL_Driver/Src/stm32f4xx_hal_pcd.c **** 
2108:Drivers/STM32F4xx_HAL_Driver/Src/stm32f4xx_hal_pcd.c **** /** @defgroup PCD_Exported_Functions_Group4 Peripheral State functions
2109:Drivers/STM32F4xx_HAL_Driver/Src/stm32f4xx_hal_pcd.c ****   *  @brief   Peripheral State functions
2110:Drivers/STM32F4xx_HAL_Driver/Src/stm32f4xx_hal_pcd.c ****   *
2111:Drivers/STM32F4xx_HAL_Driver/Src/stm32f4xx_hal_pcd.c **** @verbatim
2112:Drivers/STM32F4xx_HAL_Driver/Src/stm32f4xx_hal_pcd.c ****  ===============================================================================
2113:Drivers/STM32F4xx_HAL_Driver/Src/stm32f4xx_hal_pcd.c ****                       ##### Peripheral State functions #####
2114:Drivers/STM32F4xx_HAL_Driver/Src/stm32f4xx_hal_pcd.c ****  ===============================================================================
2115:Drivers/STM32F4xx_HAL_Driver/Src/stm32f4xx_hal_pcd.c ****     [..]
2116:Drivers/STM32F4xx_HAL_Driver/Src/stm32f4xx_hal_pcd.c ****     This subsection permits to get in run-time the status of the peripheral
2117:Drivers/STM32F4xx_HAL_Driver/Src/stm32f4xx_hal_pcd.c ****     and the data flow.
2118:Drivers/STM32F4xx_HAL_Driver/Src/stm32f4xx_hal_pcd.c **** 
2119:Drivers/STM32F4xx_HAL_Driver/Src/stm32f4xx_hal_pcd.c **** @endverbatim
2120:Drivers/STM32F4xx_HAL_Driver/Src/stm32f4xx_hal_pcd.c ****   * @{
2121:Drivers/STM32F4xx_HAL_Driver/Src/stm32f4xx_hal_pcd.c ****   */
2122:Drivers/STM32F4xx_HAL_Driver/Src/stm32f4xx_hal_pcd.c **** 
2123:Drivers/STM32F4xx_HAL_Driver/Src/stm32f4xx_hal_pcd.c **** /**
2124:Drivers/STM32F4xx_HAL_Driver/Src/stm32f4xx_hal_pcd.c ****   * @brief  Return the PCD handle state.
2125:Drivers/STM32F4xx_HAL_Driver/Src/stm32f4xx_hal_pcd.c ****   * @param  hpcd PCD handle
2126:Drivers/STM32F4xx_HAL_Driver/Src/stm32f4xx_hal_pcd.c ****   * @retval HAL state
2127:Drivers/STM32F4xx_HAL_Driver/Src/stm32f4xx_hal_pcd.c ****   */
2128:Drivers/STM32F4xx_HAL_Driver/Src/stm32f4xx_hal_pcd.c **** PCD_StateTypeDef HAL_PCD_GetState(PCD_HandleTypeDef const *hpcd)
2129:Drivers/STM32F4xx_HAL_Driver/Src/stm32f4xx_hal_pcd.c **** {
2130:Drivers/STM32F4xx_HAL_Driver/Src/stm32f4xx_hal_pcd.c ****   return hpcd->State;
2131:Drivers/STM32F4xx_HAL_Driver/Src/stm32f4xx_hal_pcd.c **** }
2132:Drivers/STM32F4xx_HAL_Driver/Src/stm32f4xx_hal_pcd.c **** 
2133:Drivers/STM32F4xx_HAL_Driver/Src/stm32f4xx_hal_pcd.c **** #if defined (USB_OTG_FS) || defined (USB_OTG_HS)
2134:Drivers/STM32F4xx_HAL_Driver/Src/stm32f4xx_hal_pcd.c **** /**
2135:Drivers/STM32F4xx_HAL_Driver/Src/stm32f4xx_hal_pcd.c ****   * @brief  Set the USB Device high speed test mode.
2136:Drivers/STM32F4xx_HAL_Driver/Src/stm32f4xx_hal_pcd.c ****   * @param  hpcd PCD handle
2137:Drivers/STM32F4xx_HAL_Driver/Src/stm32f4xx_hal_pcd.c ****   * @param  testmode USB Device high speed test mode
2138:Drivers/STM32F4xx_HAL_Driver/Src/stm32f4xx_hal_pcd.c ****   * @retval HAL status
2139:Drivers/STM32F4xx_HAL_Driver/Src/stm32f4xx_hal_pcd.c ****   */
2140:Drivers/STM32F4xx_HAL_Driver/Src/stm32f4xx_hal_pcd.c **** HAL_StatusTypeDef HAL_PCD_SetTestMode(const PCD_HandleTypeDef *hpcd, uint8_t testmode)
2141:Drivers/STM32F4xx_HAL_Driver/Src/stm32f4xx_hal_pcd.c **** {
2142:Drivers/STM32F4xx_HAL_Driver/Src/stm32f4xx_hal_pcd.c ****   const USB_OTG_GlobalTypeDef *USBx = hpcd->Instance;
2143:Drivers/STM32F4xx_HAL_Driver/Src/stm32f4xx_hal_pcd.c ****   uint32_t USBx_BASE = (uint32_t)USBx;
2144:Drivers/STM32F4xx_HAL_Driver/Src/stm32f4xx_hal_pcd.c **** 
2145:Drivers/STM32F4xx_HAL_Driver/Src/stm32f4xx_hal_pcd.c ****   switch (testmode)
2146:Drivers/STM32F4xx_HAL_Driver/Src/stm32f4xx_hal_pcd.c ****   {
2147:Drivers/STM32F4xx_HAL_Driver/Src/stm32f4xx_hal_pcd.c ****     case TEST_J:
2148:Drivers/STM32F4xx_HAL_Driver/Src/stm32f4xx_hal_pcd.c ****     case TEST_K:
2149:Drivers/STM32F4xx_HAL_Driver/Src/stm32f4xx_hal_pcd.c ****     case TEST_SE0_NAK:
2150:Drivers/STM32F4xx_HAL_Driver/Src/stm32f4xx_hal_pcd.c ****     case TEST_PACKET:
2151:Drivers/STM32F4xx_HAL_Driver/Src/stm32f4xx_hal_pcd.c ****     case TEST_FORCE_EN:
2152:Drivers/STM32F4xx_HAL_Driver/Src/stm32f4xx_hal_pcd.c ****       USBx_DEVICE->DCTL |= (uint32_t)testmode << 4;
2153:Drivers/STM32F4xx_HAL_Driver/Src/stm32f4xx_hal_pcd.c ****       break;
2154:Drivers/STM32F4xx_HAL_Driver/Src/stm32f4xx_hal_pcd.c **** 
2155:Drivers/STM32F4xx_HAL_Driver/Src/stm32f4xx_hal_pcd.c ****     default:
2156:Drivers/STM32F4xx_HAL_Driver/Src/stm32f4xx_hal_pcd.c ****       break;
2157:Drivers/STM32F4xx_HAL_Driver/Src/stm32f4xx_hal_pcd.c ****   }
2158:Drivers/STM32F4xx_HAL_Driver/Src/stm32f4xx_hal_pcd.c **** 
ARM GAS  /tmp/ccDYdWST.s 			page 102


2159:Drivers/STM32F4xx_HAL_Driver/Src/stm32f4xx_hal_pcd.c ****   return HAL_OK;
2160:Drivers/STM32F4xx_HAL_Driver/Src/stm32f4xx_hal_pcd.c **** }
2161:Drivers/STM32F4xx_HAL_Driver/Src/stm32f4xx_hal_pcd.c **** #endif /* defined (USB_OTG_FS) || defined (USB_OTG_HS) */
2162:Drivers/STM32F4xx_HAL_Driver/Src/stm32f4xx_hal_pcd.c **** /**
2163:Drivers/STM32F4xx_HAL_Driver/Src/stm32f4xx_hal_pcd.c ****   * @}
2164:Drivers/STM32F4xx_HAL_Driver/Src/stm32f4xx_hal_pcd.c ****   */
2165:Drivers/STM32F4xx_HAL_Driver/Src/stm32f4xx_hal_pcd.c **** 
2166:Drivers/STM32F4xx_HAL_Driver/Src/stm32f4xx_hal_pcd.c **** /**
2167:Drivers/STM32F4xx_HAL_Driver/Src/stm32f4xx_hal_pcd.c ****   * @}
2168:Drivers/STM32F4xx_HAL_Driver/Src/stm32f4xx_hal_pcd.c ****   */
2169:Drivers/STM32F4xx_HAL_Driver/Src/stm32f4xx_hal_pcd.c **** 
2170:Drivers/STM32F4xx_HAL_Driver/Src/stm32f4xx_hal_pcd.c **** /* Private functions ---------------------------------------------------------*/
2171:Drivers/STM32F4xx_HAL_Driver/Src/stm32f4xx_hal_pcd.c **** /** @addtogroup PCD_Private_Functions
2172:Drivers/STM32F4xx_HAL_Driver/Src/stm32f4xx_hal_pcd.c ****   * @{
2173:Drivers/STM32F4xx_HAL_Driver/Src/stm32f4xx_hal_pcd.c ****   */
2174:Drivers/STM32F4xx_HAL_Driver/Src/stm32f4xx_hal_pcd.c **** #if defined (USB_OTG_FS) || defined (USB_OTG_HS)
2175:Drivers/STM32F4xx_HAL_Driver/Src/stm32f4xx_hal_pcd.c **** /**
2176:Drivers/STM32F4xx_HAL_Driver/Src/stm32f4xx_hal_pcd.c ****   * @brief  Check FIFO for the next packet to be loaded.
2177:Drivers/STM32F4xx_HAL_Driver/Src/stm32f4xx_hal_pcd.c ****   * @param  hpcd PCD handle
2178:Drivers/STM32F4xx_HAL_Driver/Src/stm32f4xx_hal_pcd.c ****   * @param  epnum endpoint number
2179:Drivers/STM32F4xx_HAL_Driver/Src/stm32f4xx_hal_pcd.c ****   * @retval HAL status
2180:Drivers/STM32F4xx_HAL_Driver/Src/stm32f4xx_hal_pcd.c ****   */
2181:Drivers/STM32F4xx_HAL_Driver/Src/stm32f4xx_hal_pcd.c **** static HAL_StatusTypeDef PCD_WriteEmptyTxFifo(PCD_HandleTypeDef *hpcd, uint32_t epnum)
2182:Drivers/STM32F4xx_HAL_Driver/Src/stm32f4xx_hal_pcd.c **** {
2183:Drivers/STM32F4xx_HAL_Driver/Src/stm32f4xx_hal_pcd.c ****   USB_OTG_GlobalTypeDef *USBx = hpcd->Instance;
 2642              		.loc 1 2183 26 view .LVU1077
 2643 0550 2668     		ldr	r6, [r4]
 2644              	.LBE33:
 2645              	.LBE32:
1272:Drivers/STM32F4xx_HAL_Driver/Src/stm32f4xx_hal_pcd.c ****           {
 2646              		.loc 1 1272 14 view .LVU1078
 2647 0552 C4D5     		bpl	.L195
1274:Drivers/STM32F4xx_HAL_Driver/Src/stm32f4xx_hal_pcd.c ****           }
 2648              		.loc 1 1274 13 is_stmt 1 view .LVU1079
 2649              	.LVL186:
 2650              	.LBB38:
 2651              	.LBI32:
2181:Drivers/STM32F4xx_HAL_Driver/Src/stm32f4xx_hal_pcd.c **** {
 2652              		.loc 1 2181 26 view .LVU1080
 2653              	.LBB34:
 2654              		.loc 1 2183 3 view .LVU1081
2184:Drivers/STM32F4xx_HAL_Driver/Src/stm32f4xx_hal_pcd.c ****   uint32_t USBx_BASE = (uint32_t)USBx;
 2655              		.loc 1 2184 3 view .LVU1082
2185:Drivers/STM32F4xx_HAL_Driver/Src/stm32f4xx_hal_pcd.c ****   USB_OTG_EPTypeDef *ep;
 2656              		.loc 1 2185 3 view .LVU1083
2186:Drivers/STM32F4xx_HAL_Driver/Src/stm32f4xx_hal_pcd.c ****   uint32_t len;
 2657              		.loc 1 2186 3 view .LVU1084
2187:Drivers/STM32F4xx_HAL_Driver/Src/stm32f4xx_hal_pcd.c ****   uint32_t len32b;
 2658              		.loc 1 2187 3 view .LVU1085
2188:Drivers/STM32F4xx_HAL_Driver/Src/stm32f4xx_hal_pcd.c ****   uint32_t fifoemptymsk;
 2659              		.loc 1 2188 3 view .LVU1086
2189:Drivers/STM32F4xx_HAL_Driver/Src/stm32f4xx_hal_pcd.c **** 
2190:Drivers/STM32F4xx_HAL_Driver/Src/stm32f4xx_hal_pcd.c ****   ep = &hpcd->IN_ep[epnum];
 2660              		.loc 1 2190 3 view .LVU1087
2191:Drivers/STM32F4xx_HAL_Driver/Src/stm32f4xx_hal_pcd.c **** 
2192:Drivers/STM32F4xx_HAL_Driver/Src/stm32f4xx_hal_pcd.c ****   if (ep->xfer_count > ep->xfer_len)
 2661              		.loc 1 2192 3 view .LVU1088
ARM GAS  /tmp/ccDYdWST.s 			page 103


 2662              		.loc 1 2192 26 is_stmt 0 view .LVU1089
 2663 0554 D8E90953 		ldrd	r5, r3, [r8, #36]
 2664              	.LVL187:
 2665              		.loc 1 2192 6 view .LVU1090
 2666 0558 AB42     		cmp	r3, r5
 2667 055a C0D8     		bhi	.L195
2193:Drivers/STM32F4xx_HAL_Driver/Src/stm32f4xx_hal_pcd.c ****   {
2194:Drivers/STM32F4xx_HAL_Driver/Src/stm32f4xx_hal_pcd.c ****     return HAL_ERROR;
2195:Drivers/STM32F4xx_HAL_Driver/Src/stm32f4xx_hal_pcd.c ****   }
2196:Drivers/STM32F4xx_HAL_Driver/Src/stm32f4xx_hal_pcd.c **** 
2197:Drivers/STM32F4xx_HAL_Driver/Src/stm32f4xx_hal_pcd.c ****   len = ep->xfer_len - ep->xfer_count;
2198:Drivers/STM32F4xx_HAL_Driver/Src/stm32f4xx_hal_pcd.c **** 
2199:Drivers/STM32F4xx_HAL_Driver/Src/stm32f4xx_hal_pcd.c ****   if (len > ep->maxpacket)
2200:Drivers/STM32F4xx_HAL_Driver/Src/stm32f4xx_hal_pcd.c ****   {
2201:Drivers/STM32F4xx_HAL_Driver/Src/stm32f4xx_hal_pcd.c ****     len = ep->maxpacket;
2202:Drivers/STM32F4xx_HAL_Driver/Src/stm32f4xx_hal_pcd.c ****   }
2203:Drivers/STM32F4xx_HAL_Driver/Src/stm32f4xx_hal_pcd.c **** 
2204:Drivers/STM32F4xx_HAL_Driver/Src/stm32f4xx_hal_pcd.c ****   len32b = (len + 3U) / 4U;
2205:Drivers/STM32F4xx_HAL_Driver/Src/stm32f4xx_hal_pcd.c **** 
2206:Drivers/STM32F4xx_HAL_Driver/Src/stm32f4xx_hal_pcd.c ****   while (((USBx_INEP(epnum)->DTXFSTS & USB_OTG_DTXFSTS_INEPTFSAV) >= len32b) &&
 2668              		.loc 1 2206 12 view .LVU1091
 2669 055c 06F51061 		add	r1, r6, #2304
2199:Drivers/STM32F4xx_HAL_Driver/Src/stm32f4xx_hal_pcd.c ****   {
 2670              		.loc 1 2199 6 view .LVU1092
 2671 0560 D8F81C00 		ldr	r0, [r8, #28]
2184:Drivers/STM32F4xx_HAL_Driver/Src/stm32f4xx_hal_pcd.c ****   USB_OTG_EPTypeDef *ep;
 2672              		.loc 1 2184 12 view .LVU1093
 2673 0564 0796     		str	r6, [sp, #28]
2197:Drivers/STM32F4xx_HAL_Driver/Src/stm32f4xx_hal_pcd.c **** 
 2674              		.loc 1 2197 3 is_stmt 1 view .LVU1094
 2675              	.LVL188:
2199:Drivers/STM32F4xx_HAL_Driver/Src/stm32f4xx_hal_pcd.c ****   {
 2676              		.loc 1 2199 3 view .LVU1095
2204:Drivers/STM32F4xx_HAL_Driver/Src/stm32f4xx_hal_pcd.c **** 
 2677              		.loc 1 2204 3 view .LVU1096
 2678              		.loc 1 2206 3 view .LVU1097
2207:Drivers/STM32F4xx_HAL_Driver/Src/stm32f4xx_hal_pcd.c ****          (ep->xfer_count < ep->xfer_len) && (ep->xfer_len != 0U))
 2679              		.loc 1 2207 42 view .LVU1098
2206:Drivers/STM32F4xx_HAL_Driver/Src/stm32f4xx_hal_pcd.c ****          (ep->xfer_count < ep->xfer_len) && (ep->xfer_len != 0U))
 2680              		.loc 1 2206 12 is_stmt 0 view .LVU1099
 2681 0566 01EB4A11 		add	r1, r1, r10, lsl #5
2197:Drivers/STM32F4xx_HAL_Driver/Src/stm32f4xx_hal_pcd.c **** 
 2682              		.loc 1 2197 7 view .LVU1100
 2683 056a A5EB030C 		sub	ip, r5, r3
2199:Drivers/STM32F4xx_HAL_Driver/Src/stm32f4xx_hal_pcd.c ****   {
 2684              		.loc 1 2199 6 view .LVU1101
 2685 056e 8445     		cmp	ip, r0
2206:Drivers/STM32F4xx_HAL_Driver/Src/stm32f4xx_hal_pcd.c ****          (ep->xfer_count < ep->xfer_len) && (ep->xfer_len != 0U))
 2686              		.loc 1 2206 28 view .LVU1102
 2687 0570 8A69     		ldr	r2, [r1, #24]
2199:Drivers/STM32F4xx_HAL_Driver/Src/stm32f4xx_hal_pcd.c ****   {
 2688              		.loc 1 2199 6 view .LVU1103
 2689 0572 28BF     		it	cs
 2690 0574 8446     		movcs	ip, r0
2206:Drivers/STM32F4xx_HAL_Driver/Src/stm32f4xx_hal_pcd.c ****          (ep->xfer_count < ep->xfer_len) && (ep->xfer_len != 0U))
 2691              		.loc 1 2206 38 view .LVU1104
 2692 0576 1FFA82FE 		uxth	lr, r2
ARM GAS  /tmp/ccDYdWST.s 			page 104


2204:Drivers/STM32F4xx_HAL_Driver/Src/stm32f4xx_hal_pcd.c **** 
 2693              		.loc 1 2204 17 view .LVU1105
 2694 057a 0CF1030C 		add	ip, ip, #3
 2695              		.loc 1 2207 42 view .LVU1106
 2696 057e BEEB9C0F 		cmp	lr, ip, lsr #2
 2697 0582 C0F08A81 		bcc	.L206
 2698 0586 0697     		str	r7, [sp, #24]
 2699 0588 0F46     		mov	r7, r1
 2700 058a 21E0     		b	.L205
 2701              	.LVL189:
 2702              	.L208:
2208:Drivers/STM32F4xx_HAL_Driver/Src/stm32f4xx_hal_pcd.c ****   {
2209:Drivers/STM32F4xx_HAL_Driver/Src/stm32f4xx_hal_pcd.c ****     /* Write the FIFO */
2210:Drivers/STM32F4xx_HAL_Driver/Src/stm32f4xx_hal_pcd.c ****     len = ep->xfer_len - ep->xfer_count;
 2703              		.loc 1 2210 5 is_stmt 1 view .LVU1107
2211:Drivers/STM32F4xx_HAL_Driver/Src/stm32f4xx_hal_pcd.c **** 
2212:Drivers/STM32F4xx_HAL_Driver/Src/stm32f4xx_hal_pcd.c ****     if (len > ep->maxpacket)
 2704              		.loc 1 2212 5 view .LVU1108
2210:Drivers/STM32F4xx_HAL_Driver/Src/stm32f4xx_hal_pcd.c **** 
 2705              		.loc 1 2210 9 is_stmt 0 view .LVU1109
 2706 058c ED1A     		subs	r5, r5, r3
 2707              	.LVL190:
 2708              		.loc 1 2212 8 view .LVU1110
 2709 058e D8F81C30 		ldr	r3, [r8, #28]
2213:Drivers/STM32F4xx_HAL_Driver/Src/stm32f4xx_hal_pcd.c ****     {
2214:Drivers/STM32F4xx_HAL_Driver/Src/stm32f4xx_hal_pcd.c ****       len = ep->maxpacket;
2215:Drivers/STM32F4xx_HAL_Driver/Src/stm32f4xx_hal_pcd.c ****     }
2216:Drivers/STM32F4xx_HAL_Driver/Src/stm32f4xx_hal_pcd.c ****     len32b = (len + 3U) / 4U;
2217:Drivers/STM32F4xx_HAL_Driver/Src/stm32f4xx_hal_pcd.c **** 
2218:Drivers/STM32F4xx_HAL_Driver/Src/stm32f4xx_hal_pcd.c ****     (void)USB_WritePacket(USBx, ep->xfer_buff, (uint8_t)epnum, (uint16_t)len,
 2710              		.loc 1 2218 11 view .LVU1111
 2711 0592 D8F82010 		ldr	r1, [r8, #32]
2212:Drivers/STM32F4xx_HAL_Driver/Src/stm32f4xx_hal_pcd.c ****     {
 2712              		.loc 1 2212 8 view .LVU1112
 2713 0596 9D42     		cmp	r5, r3
 2714 0598 28BF     		it	cs
 2715 059a 1D46     		movcs	r5, r3
 2716              	.LVL191:
2216:Drivers/STM32F4xx_HAL_Driver/Src/stm32f4xx_hal_pcd.c **** 
 2717              		.loc 1 2216 5 is_stmt 1 view .LVU1113
 2718              		.loc 1 2218 5 view .LVU1114
 2719              		.loc 1 2218 11 is_stmt 0 view .LVU1115
 2720 059c A379     		ldrb	r3, [r4, #6]	@ zero_extendqisi2
 2721 059e 0093     		str	r3, [sp]
 2722 05a0 5A46     		mov	r2, fp
 2723 05a2 ABB2     		uxth	r3, r5
 2724 05a4 3046     		mov	r0, r6
 2725 05a6 FFF7FEFF 		bl	USB_WritePacket
 2726              	.LVL192:
2219:Drivers/STM32F4xx_HAL_Driver/Src/stm32f4xx_hal_pcd.c ****                           (uint8_t)hpcd->Init.dma_enable);
2220:Drivers/STM32F4xx_HAL_Driver/Src/stm32f4xx_hal_pcd.c **** 
2221:Drivers/STM32F4xx_HAL_Driver/Src/stm32f4xx_hal_pcd.c ****     ep->xfer_buff  += len;
 2727              		.loc 1 2221 5 is_stmt 1 view .LVU1116
 2728              		.loc 1 2221 20 is_stmt 0 view .LVU1117
 2729 05aa D8F82030 		ldr	r3, [r8, #32]
2206:Drivers/STM32F4xx_HAL_Driver/Src/stm32f4xx_hal_pcd.c ****          (ep->xfer_count < ep->xfer_len) && (ep->xfer_len != 0U))
 2730              		.loc 1 2206 28 view .LVU1118
ARM GAS  /tmp/ccDYdWST.s 			page 105


 2731 05ae BA69     		ldr	r2, [r7, #24]
 2732              		.loc 1 2221 20 view .LVU1119
 2733 05b0 2B44     		add	r3, r3, r5
 2734 05b2 C8F82030 		str	r3, [r8, #32]
2222:Drivers/STM32F4xx_HAL_Driver/Src/stm32f4xx_hal_pcd.c ****     ep->xfer_count += len;
 2735              		.loc 1 2222 5 is_stmt 1 view .LVU1120
 2736              		.loc 1 2222 20 is_stmt 0 view .LVU1121
 2737 05b6 D8F82830 		ldr	r3, [r8, #40]
2206:Drivers/STM32F4xx_HAL_Driver/Src/stm32f4xx_hal_pcd.c ****          (ep->xfer_count < ep->xfer_len) && (ep->xfer_len != 0U))
 2738              		.loc 1 2206 38 view .LVU1122
 2739 05ba 92B2     		uxth	r2, r2
 2740              		.loc 1 2222 20 view .LVU1123
 2741 05bc 2B44     		add	r3, r3, r5
2216:Drivers/STM32F4xx_HAL_Driver/Src/stm32f4xx_hal_pcd.c **** 
 2742              		.loc 1 2216 19 view .LVU1124
 2743 05be 0335     		adds	r5, r5, #3
 2744              	.LVL193:
2207:Drivers/STM32F4xx_HAL_Driver/Src/stm32f4xx_hal_pcd.c ****   {
 2745              		.loc 1 2207 42 view .LVU1125
 2746 05c0 B2EB950F 		cmp	r2, r5, lsr #2
 2747              		.loc 1 2222 20 view .LVU1126
 2748 05c4 C8F82830 		str	r3, [r8, #40]
2207:Drivers/STM32F4xx_HAL_Driver/Src/stm32f4xx_hal_pcd.c ****   {
 2749              		.loc 1 2207 42 is_stmt 1 view .LVU1127
 2750 05c8 C0F06381 		bcc	.L395
2223:Drivers/STM32F4xx_HAL_Driver/Src/stm32f4xx_hal_pcd.c ****   }
2224:Drivers/STM32F4xx_HAL_Driver/Src/stm32f4xx_hal_pcd.c **** 
2225:Drivers/STM32F4xx_HAL_Driver/Src/stm32f4xx_hal_pcd.c ****   if (ep->xfer_len <= ep->xfer_count)
 2751              		.loc 1 2225 9 is_stmt 0 view .LVU1128
 2752 05cc D8F82450 		ldr	r5, [r8, #36]
 2753              	.LVL194:
 2754              	.L205:
2206:Drivers/STM32F4xx_HAL_Driver/Src/stm32f4xx_hal_pcd.c ****          (ep->xfer_count < ep->xfer_len) && (ep->xfer_len != 0U))
 2755              		.loc 1 2206 78 view .LVU1129
 2756 05d0 9D42     		cmp	r5, r3
 2757 05d2 DBD8     		bhi	.L208
 2758              	.LBE34:
 2759              	.LBE38:
1283:Drivers/STM32F4xx_HAL_Driver/Src/stm32f4xx_hal_pcd.c ****     {
 2760              		.loc 1 1283 9 view .LVU1130
 2761 05d4 069F     		ldr	r7, [sp, #24]
 2762 05d6 2668     		ldr	r6, [r4]
 2763              	.LVL195:
 2764              	.LBB39:
 2765              	.LBB35:
 2766              		.loc 1 2225 3 is_stmt 1 view .LVU1131
 2767              	.L209:
2226:Drivers/STM32F4xx_HAL_Driver/Src/stm32f4xx_hal_pcd.c ****   {
2227:Drivers/STM32F4xx_HAL_Driver/Src/stm32f4xx_hal_pcd.c ****     fifoemptymsk = (uint32_t)(0x1UL << (epnum & EP_ADDR_MSK));
 2768              		.loc 1 2227 5 view .LVU1132
2228:Drivers/STM32F4xx_HAL_Driver/Src/stm32f4xx_hal_pcd.c ****     USBx_DEVICE->DIEPEMPMSK &= ~fifoemptymsk;
 2769              		.loc 1 2228 5 view .LVU1133
 2770              		.loc 1 2228 16 is_stmt 0 view .LVU1134
 2771 05d8 079B     		ldr	r3, [sp, #28]
2227:Drivers/STM32F4xx_HAL_Driver/Src/stm32f4xx_hal_pcd.c ****     USBx_DEVICE->DIEPEMPMSK &= ~fifoemptymsk;
 2772              		.loc 1 2227 47 view .LVU1135
 2773 05da 0AF00F05 		and	r5, r10, #15
ARM GAS  /tmp/ccDYdWST.s 			page 106


 2774              		.loc 1 2228 16 view .LVU1136
 2775 05de 03F50061 		add	r1, r3, #2048
2227:Drivers/STM32F4xx_HAL_Driver/Src/stm32f4xx_hal_pcd.c ****     USBx_DEVICE->DIEPEMPMSK &= ~fifoemptymsk;
 2776              		.loc 1 2227 18 view .LVU1137
 2777 05e2 0122     		movs	r2, #1
 2778              		.loc 1 2228 16 view .LVU1138
 2779 05e4 D3F83438 		ldr	r3, [r3, #2100]
2227:Drivers/STM32F4xx_HAL_Driver/Src/stm32f4xx_hal_pcd.c ****     USBx_DEVICE->DIEPEMPMSK &= ~fifoemptymsk;
 2780              		.loc 1 2227 18 view .LVU1139
 2781 05e8 AA40     		lsls	r2, r2, r5
 2782              	.LVL196:
 2783              		.loc 1 2228 29 view .LVU1140
 2784 05ea 23EA0203 		bic	r3, r3, r2
 2785 05ee 4B63     		str	r3, [r1, #52]
 2786 05f0 75E7     		b	.L195
 2787              	.LVL197:
 2788              	.L161:
 2789              		.loc 1 2228 29 view .LVU1141
 2790              	.LBE35:
 2791              	.LBE39:
1133:Drivers/STM32F4xx_HAL_Driver/Src/stm32f4xx_hal_pcd.c **** 
 2792              		.loc 1 1133 7 is_stmt 1 view .LVU1142
1136:Drivers/STM32F4xx_HAL_Driver/Src/stm32f4xx_hal_pcd.c **** 
 2793              		.loc 1 1136 7 view .LVU1143
1136:Drivers/STM32F4xx_HAL_Driver/Src/stm32f4xx_hal_pcd.c **** 
 2794              		.loc 1 1136 17 is_stmt 0 view .LVU1144
 2795 05f2 FFF7FEFF 		bl	USB_ReadDevAllOutEpInterrupt
 2796              	.LVL198:
1138:Drivers/STM32F4xx_HAL_Driver/Src/stm32f4xx_hal_pcd.c ****       {
 2797              		.loc 1 1138 7 is_stmt 1 view .LVU1145
1138:Drivers/STM32F4xx_HAL_Driver/Src/stm32f4xx_hal_pcd.c ****       {
 2798              		.loc 1 1138 22 view .LVU1146
 2799 05f6 0746     		mov	r7, r0
 2800 05f8 2068     		ldr	r0, [r4]
 2801              	.LVL199:
1138:Drivers/STM32F4xx_HAL_Driver/Src/stm32f4xx_hal_pcd.c ****       {
 2802              		.loc 1 1138 22 is_stmt 0 view .LVU1147
 2803 05fa 002F     		cmp	r7, #0
 2804 05fc 3FF448AD 		beq	.L164
1183:Drivers/STM32F4xx_HAL_Driver/Src/stm32f4xx_hal_pcd.c ****           }
 2805              		.loc 1 1183 13 view .LVU1148
 2806 0600 0495     		str	r5, [sp, #16]
 2807 0602 06F53068 		add	r8, r6, #2816
 2808 0606 A346     		mov	fp, r4
1133:Drivers/STM32F4xx_HAL_Driver/Src/stm32f4xx_hal_pcd.c **** 
 2809              		.loc 1 1133 13 view .LVU1149
 2810 0608 4FF0000A 		mov	r10, #0
1183:Drivers/STM32F4xx_HAL_Driver/Src/stm32f4xx_hal_pcd.c ****           }
 2811              		.loc 1 1183 13 view .LVU1150
 2812 060c 2546     		mov	r5, r4
 2813 060e 08E0     		b	.L192
 2814              	.LVL200:
 2815              	.L166:
1198:Drivers/STM32F4xx_HAL_Driver/Src/stm32f4xx_hal_pcd.c ****         ep_intr >>= 1U;
 2816              		.loc 1 1198 9 is_stmt 1 view .LVU1151
1138:Drivers/STM32F4xx_HAL_Driver/Src/stm32f4xx_hal_pcd.c ****       {
 2817              		.loc 1 1138 22 is_stmt 0 view .LVU1152
ARM GAS  /tmp/ccDYdWST.s 			page 107


 2818 0610 7F08     		lsrs	r7, r7, #1
 2819              	.LVL201:
1198:Drivers/STM32F4xx_HAL_Driver/Src/stm32f4xx_hal_pcd.c ****         ep_intr >>= 1U;
 2820              		.loc 1 1198 14 view .LVU1153
 2821 0612 0AF1010A 		add	r10, r10, #1
 2822              	.LVL202:
1199:Drivers/STM32F4xx_HAL_Driver/Src/stm32f4xx_hal_pcd.c ****       }
 2823              		.loc 1 1199 9 is_stmt 1 view .LVU1154
1138:Drivers/STM32F4xx_HAL_Driver/Src/stm32f4xx_hal_pcd.c ****       {
 2824              		.loc 1 1138 22 view .LVU1155
 2825 0616 08F12008 		add	r8, r8, #32
 2826 061a 0BF1240B 		add	fp, fp, #36
 2827 061e 00F09C80 		beq	.L396
 2828              	.LVL203:
 2829              	.L192:
1140:Drivers/STM32F4xx_HAL_Driver/Src/stm32f4xx_hal_pcd.c ****         {
 2830              		.loc 1 1140 9 view .LVU1156
1140:Drivers/STM32F4xx_HAL_Driver/Src/stm32f4xx_hal_pcd.c ****         {
 2831              		.loc 1 1140 12 is_stmt 0 view .LVU1157
 2832 0622 FC07     		lsls	r4, r7, #31
 2833 0624 F4D5     		bpl	.L166
1142:Drivers/STM32F4xx_HAL_Driver/Src/stm32f4xx_hal_pcd.c **** 
 2834              		.loc 1 1142 11 is_stmt 1 view .LVU1158
 2835 0626 5FFA8AF4 		uxtb	r4, r10
1142:Drivers/STM32F4xx_HAL_Driver/Src/stm32f4xx_hal_pcd.c **** 
 2836              		.loc 1 1142 19 is_stmt 0 view .LVU1159
 2837 062a 2146     		mov	r1, r4
 2838 062c FFF7FEFF 		bl	USB_ReadDevOutEPInterrupt
 2839              	.LVL204:
1144:Drivers/STM32F4xx_HAL_Driver/Src/stm32f4xx_hal_pcd.c ****           {
 2840              		.loc 1 1144 14 view .LVU1160
 2841 0630 10F0010F 		tst	r0, #1
1142:Drivers/STM32F4xx_HAL_Driver/Src/stm32f4xx_hal_pcd.c **** 
 2842              		.loc 1 1142 19 view .LVU1161
 2843 0634 8146     		mov	r9, r0
 2844              	.LVL205:
1144:Drivers/STM32F4xx_HAL_Driver/Src/stm32f4xx_hal_pcd.c ****           {
 2845              		.loc 1 1144 11 is_stmt 1 view .LVU1162
1144:Drivers/STM32F4xx_HAL_Driver/Src/stm32f4xx_hal_pcd.c ****           {
 2846              		.loc 1 1144 14 is_stmt 0 view .LVU1163
 2847 0636 40F0A880 		bne	.L397
 2848              	.LVL206:
 2849              	.L168:
1150:Drivers/STM32F4xx_HAL_Driver/Src/stm32f4xx_hal_pcd.c ****           {
 2850              		.loc 1 1150 11 is_stmt 1 view .LVU1164
1150:Drivers/STM32F4xx_HAL_Driver/Src/stm32f4xx_hal_pcd.c ****           {
 2851              		.loc 1 1150 14 is_stmt 0 view .LVU1165
 2852 063a 19F0080F 		tst	r9, #8
 2853 063e 40F09380 		bne	.L398
 2854              	.L181:
1157:Drivers/STM32F4xx_HAL_Driver/Src/stm32f4xx_hal_pcd.c ****           {
 2855              		.loc 1 1157 11 is_stmt 1 view .LVU1166
1157:Drivers/STM32F4xx_HAL_Driver/Src/stm32f4xx_hal_pcd.c ****           {
 2856              		.loc 1 1157 14 is_stmt 0 view .LVU1167
 2857 0642 19F0100F 		tst	r9, #16
1159:Drivers/STM32F4xx_HAL_Driver/Src/stm32f4xx_hal_pcd.c ****           }
 2858              		.loc 1 1159 13 is_stmt 1 view .LVU1168
ARM GAS  /tmp/ccDYdWST.s 			page 108


1163:Drivers/STM32F4xx_HAL_Driver/Src/stm32f4xx_hal_pcd.c ****           {
 2859              		.loc 1 1163 11 view .LVU1169
1159:Drivers/STM32F4xx_HAL_Driver/Src/stm32f4xx_hal_pcd.c ****           }
 2860              		.loc 1 1159 13 is_stmt 0 view .LVU1170
 2861 0646 1CBF     		itt	ne
 2862 0648 1022     		movne	r2, #16
 2863 064a C8F80820 		strne	r2, [r8, #8]
1163:Drivers/STM32F4xx_HAL_Driver/Src/stm32f4xx_hal_pcd.c ****           {
 2864              		.loc 1 1163 14 view .LVU1171
 2865 064e 19F0020F 		tst	r9, #2
 2866 0652 0FD0     		beq	.L187
1165:Drivers/STM32F4xx_HAL_Driver/Src/stm32f4xx_hal_pcd.c ****             {
 2867              		.loc 1 1165 13 is_stmt 1 view .LVU1172
1165:Drivers/STM32F4xx_HAL_Driver/Src/stm32f4xx_hal_pcd.c ****             {
 2868              		.loc 1 1165 22 is_stmt 0 view .LVU1173
 2869 0654 7269     		ldr	r2, [r6, #20]
1165:Drivers/STM32F4xx_HAL_Driver/Src/stm32f4xx_hal_pcd.c ****             {
 2870              		.loc 1 1165 16 view .LVU1174
 2871 0656 1106     		lsls	r1, r2, #24
 2872 0658 04D5     		bpl	.L188
1167:Drivers/STM32F4xx_HAL_Driver/Src/stm32f4xx_hal_pcd.c ****             }
 2873              		.loc 1 1167 15 is_stmt 1 view .LVU1175
1167:Drivers/STM32F4xx_HAL_Driver/Src/stm32f4xx_hal_pcd.c ****             }
 2874              		.loc 1 1167 26 is_stmt 0 view .LVU1176
 2875 065a 039B     		ldr	r3, [sp, #12]
 2876 065c 5A68     		ldr	r2, [r3, #4]
1167:Drivers/STM32F4xx_HAL_Driver/Src/stm32f4xx_hal_pcd.c ****             }
 2877              		.loc 1 1167 33 view .LVU1177
 2878 065e 42F48062 		orr	r2, r2, #1024
 2879 0662 5A60     		str	r2, [r3, #4]
 2880              	.L188:
1170:Drivers/STM32F4xx_HAL_Driver/Src/stm32f4xx_hal_pcd.c **** 
 2881              		.loc 1 1170 13 is_stmt 1 view .LVU1178
 2882              	.LVL207:
1172:Drivers/STM32F4xx_HAL_Driver/Src/stm32f4xx_hal_pcd.c ****             {
 2883              		.loc 1 1172 13 view .LVU1179
1172:Drivers/STM32F4xx_HAL_Driver/Src/stm32f4xx_hal_pcd.c ****             {
 2884              		.loc 1 1172 16 is_stmt 0 view .LVU1180
 2885 0664 9BF85722 		ldrb	r2, [fp, #599]	@ zero_extendqisi2
 2886 0668 012A     		cmp	r2, #1
 2887 066a 00F02D81 		beq	.L399
 2888              	.L189:
1183:Drivers/STM32F4xx_HAL_Driver/Src/stm32f4xx_hal_pcd.c ****           }
 2889              		.loc 1 1183 13 is_stmt 1 view .LVU1181
 2890 066e 0223     		movs	r3, #2
 2891 0670 C8F80830 		str	r3, [r8, #8]
 2892              	.LVL208:
 2893              	.L187:
1187:Drivers/STM32F4xx_HAL_Driver/Src/stm32f4xx_hal_pcd.c ****           {
 2894              		.loc 1 1187 11 view .LVU1182
1187:Drivers/STM32F4xx_HAL_Driver/Src/stm32f4xx_hal_pcd.c ****           {
 2895              		.loc 1 1187 14 is_stmt 0 view .LVU1183
 2896 0674 19F0200F 		tst	r9, #32
1189:Drivers/STM32F4xx_HAL_Driver/Src/stm32f4xx_hal_pcd.c ****           }
 2897              		.loc 1 1189 13 is_stmt 1 view .LVU1184
1193:Drivers/STM32F4xx_HAL_Driver/Src/stm32f4xx_hal_pcd.c ****           {
 2898              		.loc 1 1193 11 view .LVU1185
ARM GAS  /tmp/ccDYdWST.s 			page 109


1189:Drivers/STM32F4xx_HAL_Driver/Src/stm32f4xx_hal_pcd.c ****           }
 2899              		.loc 1 1189 13 is_stmt 0 view .LVU1186
 2900 0678 1CBF     		itt	ne
 2901 067a 2023     		movne	r3, #32
 2902 067c C8F80830 		strne	r3, [r8, #8]
1193:Drivers/STM32F4xx_HAL_Driver/Src/stm32f4xx_hal_pcd.c ****           {
 2903              		.loc 1 1193 14 view .LVU1187
 2904 0680 19F4005F 		tst	r9, #8192
1195:Drivers/STM32F4xx_HAL_Driver/Src/stm32f4xx_hal_pcd.c ****           }
 2905              		.loc 1 1195 13 is_stmt 1 view .LVU1188
 2906 0684 18BF     		it	ne
 2907 0686 4FF40053 		movne	r3, #8192
 2908 068a 2868     		ldr	r0, [r5]
 2909 068c 18BF     		it	ne
 2910 068e C8F80830 		strne	r3, [r8, #8]
 2911 0692 BDE7     		b	.L166
 2912              	.LVL209:
 2913              	.L222:
1372:Drivers/STM32F4xx_HAL_Driver/Src/stm32f4xx_hal_pcd.c ****                                    USB_OTG_DOEPMSK_XFRCM |
 2914              		.loc 1 1372 9 view .LVU1189
1372:Drivers/STM32F4xx_HAL_Driver/Src/stm32f4xx_hal_pcd.c ****                                    USB_OTG_DOEPMSK_XFRCM |
 2915              		.loc 1 1372 20 is_stmt 0 view .LVU1190
 2916 0694 D2F88430 		ldr	r3, [r2, #132]
1372:Drivers/STM32F4xx_HAL_Driver/Src/stm32f4xx_hal_pcd.c ****                                    USB_OTG_DOEPMSK_XFRCM |
 2917              		.loc 1 1372 33 view .LVU1191
 2918 0698 43F00B03 		orr	r3, r3, #11
 2919 069c C2F88430 		str	r3, [r2, #132]
1376:Drivers/STM32F4xx_HAL_Driver/Src/stm32f4xx_hal_pcd.c ****                                   USB_OTG_DIEPMSK_XFRCM |
 2920              		.loc 1 1376 9 is_stmt 1 view .LVU1192
1376:Drivers/STM32F4xx_HAL_Driver/Src/stm32f4xx_hal_pcd.c ****                                   USB_OTG_DIEPMSK_XFRCM |
 2921              		.loc 1 1376 20 is_stmt 0 view .LVU1193
 2922 06a0 536C     		ldr	r3, [r2, #68]
1376:Drivers/STM32F4xx_HAL_Driver/Src/stm32f4xx_hal_pcd.c ****                                   USB_OTG_DIEPMSK_XFRCM |
 2923              		.loc 1 1376 32 view .LVU1194
 2924 06a2 43F00B03 		orr	r3, r3, #11
 2925 06a6 5364     		str	r3, [r2, #68]
 2926 06a8 E3E6     		b	.L226
 2927              	.LVL210:
 2928              	.L374:
1457:Drivers/STM32F4xx_HAL_Driver/Src/stm32f4xx_hal_pcd.c ****             ((RegVal & USB_OTG_DIEPCTL_EPENA) == USB_OTG_DIEPCTL_EPENA))
 2929              		.loc 1 1457 55 discriminator 1 view .LVU1195
 2930 06aa 0029     		cmp	r1, #0
 2931 06ac BFF69CAD 		bge	.L253
1460:Drivers/STM32F4xx_HAL_Driver/Src/stm32f4xx_hal_pcd.c **** 
 2932              		.loc 1 1460 11 is_stmt 1 view .LVU1196
 2933              	.LBB40:
 2934              	.LBB41:
2055:Drivers/STM32F4xx_HAL_Driver/Src/stm32f4xx_hal_pcd.c **** 
 2935              		.loc 1 2055 9 is_stmt 0 view .LVU1197
 2936 06b0 2068     		ldr	r0, [r4]
 2937              	.LBE41:
 2938              	.LBE40:
1460:Drivers/STM32F4xx_HAL_Driver/Src/stm32f4xx_hal_pcd.c **** 
 2939              		.loc 1 1460 48 view .LVU1198
 2940 06b2 84F83B20 		strb	r2, [r4, #59]
1463:Drivers/STM32F4xx_HAL_Driver/Src/stm32f4xx_hal_pcd.c ****         }
 2941              		.loc 1 1463 11 is_stmt 1 view .LVU1199
ARM GAS  /tmp/ccDYdWST.s 			page 110


 2942              	.LVL211:
 2943              	.LBB71:
 2944              	.LBI40:
2040:Drivers/STM32F4xx_HAL_Driver/Src/stm32f4xx_hal_pcd.c **** {
 2945              		.loc 1 2040 19 view .LVU1200
 2946              	.LBB42:
2042:Drivers/STM32F4xx_HAL_Driver/Src/stm32f4xx_hal_pcd.c ****   PCD_EPTypeDef *ep;
 2947              		.loc 1 2042 3 view .LVU1201
2043:Drivers/STM32F4xx_HAL_Driver/Src/stm32f4xx_hal_pcd.c **** 
 2948              		.loc 1 2043 3 view .LVU1202
2045:Drivers/STM32F4xx_HAL_Driver/Src/stm32f4xx_hal_pcd.c ****   {
 2949              		.loc 1 2045 3 view .LVU1203
2047:Drivers/STM32F4xx_HAL_Driver/Src/stm32f4xx_hal_pcd.c ****   }
 2950              		.loc 1 2047 5 view .LVU1204
2055:Drivers/STM32F4xx_HAL_Driver/Src/stm32f4xx_hal_pcd.c **** 
 2951              		.loc 1 2055 3 view .LVU1205
2055:Drivers/STM32F4xx_HAL_Driver/Src/stm32f4xx_hal_pcd.c **** 
 2952              		.loc 1 2055 9 is_stmt 0 view .LVU1206
 2953 06b6 04F13801 		add	r1, r4, #56
 2954              	.LVL212:
2055:Drivers/STM32F4xx_HAL_Driver/Src/stm32f4xx_hal_pcd.c **** 
 2955              		.loc 1 2055 9 view .LVU1207
 2956 06ba FFF7FEFF 		bl	USB_EPStopXfer
 2957              	.LVL213:
2057:Drivers/STM32F4xx_HAL_Driver/Src/stm32f4xx_hal_pcd.c **** }
 2958              		.loc 1 2057 3 is_stmt 1 view .LVU1208
2057:Drivers/STM32F4xx_HAL_Driver/Src/stm32f4xx_hal_pcd.c **** }
 2959              		.loc 1 2057 3 is_stmt 0 view .LVU1209
 2960              	.LBE42:
 2961              	.LBE71:
1453:Drivers/STM32F4xx_HAL_Driver/Src/stm32f4xx_hal_pcd.c ****       {
 2962              		.loc 1 1453 42 discriminator 1 view .LVU1210
 2963 06be 2379     		ldrb	r3, [r4, #4]	@ zero_extendqisi2
 2964 06c0 92E5     		b	.L253
 2965              	.LVL214:
 2966              	.L391:
1290:Drivers/STM32F4xx_HAL_Driver/Src/stm32f4xx_hal_pcd.c **** 
 2967              		.loc 1 1290 9 is_stmt 1 view .LVU1211
1290:Drivers/STM32F4xx_HAL_Driver/Src/stm32f4xx_hal_pcd.c **** 
 2968              		.loc 1 1290 25 is_stmt 0 view .LVU1212
 2969 06c2 0021     		movs	r1, #0
 2970 06c4 84F8CC14 		strb	r1, [r4, #1228]
1295:Drivers/STM32F4xx_HAL_Driver/Src/stm32f4xx_hal_pcd.c **** #endif /* USE_HAL_PCD_REGISTER_CALLBACKS */
 2971              		.loc 1 1295 9 is_stmt 1 view .LVU1213
 2972 06c8 2046     		mov	r0, r4
 2973 06ca FFF7FEFF 		bl	HAL_PCDEx_LPM_Callback
 2974              	.LVL215:
 2975 06ce 79E6     		b	.L215
 2976              	.LVL216:
 2977              	.L375:
1457:Drivers/STM32F4xx_HAL_Driver/Src/stm32f4xx_hal_pcd.c ****             ((RegVal & USB_OTG_DIEPCTL_EPENA) == USB_OTG_DIEPCTL_EPENA))
 2978              		.loc 1 1457 55 is_stmt 0 discriminator 1 view .LVU1214
 2979 06d0 0029     		cmp	r1, #0
 2980 06d2 BFF692AD 		bge	.L255
1460:Drivers/STM32F4xx_HAL_Driver/Src/stm32f4xx_hal_pcd.c **** 
 2981              		.loc 1 1460 11 is_stmt 1 view .LVU1215
 2982              	.LBB72:
ARM GAS  /tmp/ccDYdWST.s 			page 111


 2983              	.LBB43:
2055:Drivers/STM32F4xx_HAL_Driver/Src/stm32f4xx_hal_pcd.c **** 
 2984              		.loc 1 2055 9 is_stmt 0 view .LVU1216
 2985 06d6 2068     		ldr	r0, [r4]
 2986              	.LBE43:
 2987              	.LBE72:
1460:Drivers/STM32F4xx_HAL_Driver/Src/stm32f4xx_hal_pcd.c **** 
 2988              		.loc 1 1460 48 view .LVU1217
 2989 06d8 84F85F20 		strb	r2, [r4, #95]
1463:Drivers/STM32F4xx_HAL_Driver/Src/stm32f4xx_hal_pcd.c ****         }
 2990              		.loc 1 1463 11 is_stmt 1 view .LVU1218
 2991              	.LVL217:
 2992              	.LBB73:
2040:Drivers/STM32F4xx_HAL_Driver/Src/stm32f4xx_hal_pcd.c **** {
 2993              		.loc 1 2040 19 view .LVU1219
 2994              	.LBB44:
2042:Drivers/STM32F4xx_HAL_Driver/Src/stm32f4xx_hal_pcd.c ****   PCD_EPTypeDef *ep;
 2995              		.loc 1 2042 3 view .LVU1220
2043:Drivers/STM32F4xx_HAL_Driver/Src/stm32f4xx_hal_pcd.c **** 
 2996              		.loc 1 2043 3 view .LVU1221
2045:Drivers/STM32F4xx_HAL_Driver/Src/stm32f4xx_hal_pcd.c ****   {
 2997              		.loc 1 2045 3 view .LVU1222
2047:Drivers/STM32F4xx_HAL_Driver/Src/stm32f4xx_hal_pcd.c ****   }
 2998              		.loc 1 2047 5 view .LVU1223
2055:Drivers/STM32F4xx_HAL_Driver/Src/stm32f4xx_hal_pcd.c **** 
 2999              		.loc 1 2055 3 view .LVU1224
2055:Drivers/STM32F4xx_HAL_Driver/Src/stm32f4xx_hal_pcd.c **** 
 3000              		.loc 1 2055 9 is_stmt 0 view .LVU1225
 3001 06dc 04F15C01 		add	r1, r4, #92
 3002              	.LVL218:
2055:Drivers/STM32F4xx_HAL_Driver/Src/stm32f4xx_hal_pcd.c **** 
 3003              		.loc 1 2055 9 view .LVU1226
 3004 06e0 FFF7FEFF 		bl	USB_EPStopXfer
 3005              	.LVL219:
2057:Drivers/STM32F4xx_HAL_Driver/Src/stm32f4xx_hal_pcd.c **** }
 3006              		.loc 1 2057 3 is_stmt 1 view .LVU1227
2057:Drivers/STM32F4xx_HAL_Driver/Src/stm32f4xx_hal_pcd.c **** }
 3007              		.loc 1 2057 3 is_stmt 0 view .LVU1228
 3008              	.LBE44:
 3009              	.LBE73:
1453:Drivers/STM32F4xx_HAL_Driver/Src/stm32f4xx_hal_pcd.c ****       {
 3010              		.loc 1 1453 42 discriminator 1 view .LVU1229
 3011 06e4 2379     		ldrb	r3, [r4, #4]	@ zero_extendqisi2
 3012 06e6 88E5     		b	.L255
 3013              	.LVL220:
 3014              	.L376:
1457:Drivers/STM32F4xx_HAL_Driver/Src/stm32f4xx_hal_pcd.c ****             ((RegVal & USB_OTG_DIEPCTL_EPENA) == USB_OTG_DIEPCTL_EPENA))
 3015              		.loc 1 1457 55 discriminator 1 view .LVU1230
 3016 06e8 0029     		cmp	r1, #0
 3017 06ea BFF68FAD 		bge	.L256
1460:Drivers/STM32F4xx_HAL_Driver/Src/stm32f4xx_hal_pcd.c **** 
 3018              		.loc 1 1460 11 is_stmt 1 view .LVU1231
 3019              	.LBB74:
 3020              	.LBB45:
2055:Drivers/STM32F4xx_HAL_Driver/Src/stm32f4xx_hal_pcd.c **** 
 3021              		.loc 1 2055 9 is_stmt 0 view .LVU1232
 3022 06ee 2068     		ldr	r0, [r4]
ARM GAS  /tmp/ccDYdWST.s 			page 112


 3023              	.LBE45:
 3024              	.LBE74:
1460:Drivers/STM32F4xx_HAL_Driver/Src/stm32f4xx_hal_pcd.c **** 
 3025              		.loc 1 1460 48 view .LVU1233
 3026 06f0 84F88320 		strb	r2, [r4, #131]
1463:Drivers/STM32F4xx_HAL_Driver/Src/stm32f4xx_hal_pcd.c ****         }
 3027              		.loc 1 1463 11 is_stmt 1 view .LVU1234
 3028              	.LVL221:
 3029              	.LBB75:
2040:Drivers/STM32F4xx_HAL_Driver/Src/stm32f4xx_hal_pcd.c **** {
 3030              		.loc 1 2040 19 view .LVU1235
 3031              	.LBB46:
2042:Drivers/STM32F4xx_HAL_Driver/Src/stm32f4xx_hal_pcd.c ****   PCD_EPTypeDef *ep;
 3032              		.loc 1 2042 3 view .LVU1236
2043:Drivers/STM32F4xx_HAL_Driver/Src/stm32f4xx_hal_pcd.c **** 
 3033              		.loc 1 2043 3 view .LVU1237
2045:Drivers/STM32F4xx_HAL_Driver/Src/stm32f4xx_hal_pcd.c ****   {
 3034              		.loc 1 2045 3 view .LVU1238
2047:Drivers/STM32F4xx_HAL_Driver/Src/stm32f4xx_hal_pcd.c ****   }
 3035              		.loc 1 2047 5 view .LVU1239
2055:Drivers/STM32F4xx_HAL_Driver/Src/stm32f4xx_hal_pcd.c **** 
 3036              		.loc 1 2055 3 view .LVU1240
2055:Drivers/STM32F4xx_HAL_Driver/Src/stm32f4xx_hal_pcd.c **** 
 3037              		.loc 1 2055 9 is_stmt 0 view .LVU1241
 3038 06f4 04F18001 		add	r1, r4, #128
 3039              	.LVL222:
2055:Drivers/STM32F4xx_HAL_Driver/Src/stm32f4xx_hal_pcd.c **** 
 3040              		.loc 1 2055 9 view .LVU1242
 3041 06f8 FFF7FEFF 		bl	USB_EPStopXfer
 3042              	.LVL223:
2057:Drivers/STM32F4xx_HAL_Driver/Src/stm32f4xx_hal_pcd.c **** }
 3043              		.loc 1 2057 3 is_stmt 1 view .LVU1243
2057:Drivers/STM32F4xx_HAL_Driver/Src/stm32f4xx_hal_pcd.c **** }
 3044              		.loc 1 2057 3 is_stmt 0 view .LVU1244
 3045              	.LBE46:
 3046              	.LBE75:
1453:Drivers/STM32F4xx_HAL_Driver/Src/stm32f4xx_hal_pcd.c ****       {
 3047              		.loc 1 1453 42 discriminator 1 view .LVU1245
 3048 06fc 2379     		ldrb	r3, [r4, #4]	@ zero_extendqisi2
 3049 06fe 85E5     		b	.L256
 3050              	.LVL224:
 3051              	.L377:
1457:Drivers/STM32F4xx_HAL_Driver/Src/stm32f4xx_hal_pcd.c ****             ((RegVal & USB_OTG_DIEPCTL_EPENA) == USB_OTG_DIEPCTL_EPENA))
 3052              		.loc 1 1457 55 discriminator 1 view .LVU1246
 3053 0700 0029     		cmp	r1, #0
 3054 0702 BFF68CAD 		bge	.L257
1460:Drivers/STM32F4xx_HAL_Driver/Src/stm32f4xx_hal_pcd.c **** 
 3055              		.loc 1 1460 11 is_stmt 1 view .LVU1247
 3056              	.LBB76:
 3057              	.LBB47:
2055:Drivers/STM32F4xx_HAL_Driver/Src/stm32f4xx_hal_pcd.c **** 
 3058              		.loc 1 2055 9 is_stmt 0 view .LVU1248
 3059 0706 2068     		ldr	r0, [r4]
 3060              	.LBE47:
 3061              	.LBE76:
1460:Drivers/STM32F4xx_HAL_Driver/Src/stm32f4xx_hal_pcd.c **** 
 3062              		.loc 1 1460 48 view .LVU1249
ARM GAS  /tmp/ccDYdWST.s 			page 113


 3063 0708 84F8A720 		strb	r2, [r4, #167]
1463:Drivers/STM32F4xx_HAL_Driver/Src/stm32f4xx_hal_pcd.c ****         }
 3064              		.loc 1 1463 11 is_stmt 1 view .LVU1250
 3065              	.LVL225:
 3066              	.LBB77:
2040:Drivers/STM32F4xx_HAL_Driver/Src/stm32f4xx_hal_pcd.c **** {
 3067              		.loc 1 2040 19 view .LVU1251
 3068              	.LBB48:
2042:Drivers/STM32F4xx_HAL_Driver/Src/stm32f4xx_hal_pcd.c ****   PCD_EPTypeDef *ep;
 3069              		.loc 1 2042 3 view .LVU1252
2043:Drivers/STM32F4xx_HAL_Driver/Src/stm32f4xx_hal_pcd.c **** 
 3070              		.loc 1 2043 3 view .LVU1253
2045:Drivers/STM32F4xx_HAL_Driver/Src/stm32f4xx_hal_pcd.c ****   {
 3071              		.loc 1 2045 3 view .LVU1254
2047:Drivers/STM32F4xx_HAL_Driver/Src/stm32f4xx_hal_pcd.c ****   }
 3072              		.loc 1 2047 5 view .LVU1255
2055:Drivers/STM32F4xx_HAL_Driver/Src/stm32f4xx_hal_pcd.c **** 
 3073              		.loc 1 2055 3 view .LVU1256
2055:Drivers/STM32F4xx_HAL_Driver/Src/stm32f4xx_hal_pcd.c **** 
 3074              		.loc 1 2055 9 is_stmt 0 view .LVU1257
 3075 070c 04F1A401 		add	r1, r4, #164
 3076              	.LVL226:
2055:Drivers/STM32F4xx_HAL_Driver/Src/stm32f4xx_hal_pcd.c **** 
 3077              		.loc 1 2055 9 view .LVU1258
 3078 0710 FFF7FEFF 		bl	USB_EPStopXfer
 3079              	.LVL227:
2057:Drivers/STM32F4xx_HAL_Driver/Src/stm32f4xx_hal_pcd.c **** }
 3080              		.loc 1 2057 3 is_stmt 1 view .LVU1259
2057:Drivers/STM32F4xx_HAL_Driver/Src/stm32f4xx_hal_pcd.c **** }
 3081              		.loc 1 2057 3 is_stmt 0 view .LVU1260
 3082              	.LBE48:
 3083              	.LBE77:
1453:Drivers/STM32F4xx_HAL_Driver/Src/stm32f4xx_hal_pcd.c ****       {
 3084              		.loc 1 1453 42 discriminator 1 view .LVU1261
 3085 0714 2379     		ldrb	r3, [r4, #4]	@ zero_extendqisi2
 3086 0716 82E5     		b	.L257
 3087              	.LVL228:
 3088              	.L361:
1445:Drivers/STM32F4xx_HAL_Driver/Src/stm32f4xx_hal_pcd.c ****         }
 3089              		.loc 1 1445 11 is_stmt 1 view .LVU1262
 3090              	.LBB78:
2040:Drivers/STM32F4xx_HAL_Driver/Src/stm32f4xx_hal_pcd.c **** {
 3091              		.loc 1 2040 19 view .LVU1263
 3092              	.LBB18:
2042:Drivers/STM32F4xx_HAL_Driver/Src/stm32f4xx_hal_pcd.c ****   PCD_EPTypeDef *ep;
 3093              		.loc 1 2042 3 view .LVU1264
2043:Drivers/STM32F4xx_HAL_Driver/Src/stm32f4xx_hal_pcd.c **** 
 3094              		.loc 1 2043 3 view .LVU1265
2045:Drivers/STM32F4xx_HAL_Driver/Src/stm32f4xx_hal_pcd.c ****   {
 3095              		.loc 1 2045 3 view .LVU1266
2051:Drivers/STM32F4xx_HAL_Driver/Src/stm32f4xx_hal_pcd.c ****   }
 3096              		.loc 1 2051 5 view .LVU1267
2055:Drivers/STM32F4xx_HAL_Driver/Src/stm32f4xx_hal_pcd.c **** 
 3097              		.loc 1 2055 3 view .LVU1268
2055:Drivers/STM32F4xx_HAL_Driver/Src/stm32f4xx_hal_pcd.c **** 
 3098              		.loc 1 2055 9 is_stmt 0 view .LVU1269
 3099 0718 2068     		ldr	r0, [r4]
ARM GAS  /tmp/ccDYdWST.s 			page 114


 3100 071a 04F53071 		add	r1, r4, #704
 3101              	.LVL229:
2055:Drivers/STM32F4xx_HAL_Driver/Src/stm32f4xx_hal_pcd.c **** 
 3102              		.loc 1 2055 9 view .LVU1270
 3103 071e FFF7FEFF 		bl	USB_EPStopXfer
 3104              	.LVL230:
2057:Drivers/STM32F4xx_HAL_Driver/Src/stm32f4xx_hal_pcd.c **** }
 3105              		.loc 1 2057 3 is_stmt 1 view .LVU1271
2057:Drivers/STM32F4xx_HAL_Driver/Src/stm32f4xx_hal_pcd.c **** }
 3106              		.loc 1 2057 3 is_stmt 0 view .LVU1272
 3107              	.LBE18:
 3108              	.LBE78:
1440:Drivers/STM32F4xx_HAL_Driver/Src/stm32f4xx_hal_pcd.c ****       {
 3109              		.loc 1 1440 42 discriminator 1 view .LVU1273
 3110 0722 2379     		ldrb	r3, [r4, #4]	@ zero_extendqisi2
 3111 0724 F7E4     		b	.L238
 3112              	.LVL231:
 3113              	.L357:
1120:Drivers/STM32F4xx_HAL_Driver/Src/stm32f4xx_hal_pcd.c ****         ep->xfer_count += (RegVal & USB_OTG_GRXSTSP_BCNT) >> 4;
 3114              		.loc 1 1120 9 is_stmt 1 view .LVU1274
1120:Drivers/STM32F4xx_HAL_Driver/Src/stm32f4xx_hal_pcd.c ****         ep->xfer_count += (RegVal & USB_OTG_GRXSTSP_BCNT) >> 4;
 3115              		.loc 1 1120 15 is_stmt 0 view .LVU1275
 3116 0726 0822     		movs	r2, #8
 3117 0728 04F29C41 		addw	r1, r4, #1180
 3118 072c 3046     		mov	r0, r6
1121:Drivers/STM32F4xx_HAL_Driver/Src/stm32f4xx_hal_pcd.c ****       }
 3119              		.loc 1 1121 24 view .LVU1276
 3120 072e 08EBC808 		add	r8, r8, r8, lsl #3
 3121              	.LVL232:
1120:Drivers/STM32F4xx_HAL_Driver/Src/stm32f4xx_hal_pcd.c ****         ep->xfer_count += (RegVal & USB_OTG_GRXSTSP_BCNT) >> 4;
 3122              		.loc 1 1120 15 view .LVU1277
 3123 0732 FFF7FEFF 		bl	USB_ReadPacket
 3124              	.LVL233:
1121:Drivers/STM32F4xx_HAL_Driver/Src/stm32f4xx_hal_pcd.c ****       }
 3125              		.loc 1 1121 9 is_stmt 1 view .LVU1278
1121:Drivers/STM32F4xx_HAL_Driver/Src/stm32f4xx_hal_pcd.c ****       }
 3126              		.loc 1 1121 24 is_stmt 0 view .LVU1279
 3127 0736 04EB8802 		add	r2, r4, r8, lsl #2
1121:Drivers/STM32F4xx_HAL_Driver/Src/stm32f4xx_hal_pcd.c ****       }
 3128              		.loc 1 1121 59 view .LVU1280
 3129 073a C7F30A13 		ubfx	r3, r7, #4, #11
1121:Drivers/STM32F4xx_HAL_Driver/Src/stm32f4xx_hal_pcd.c ****       }
 3130              		.loc 1 1121 24 view .LVU1281
 3131 073e D2F86812 		ldr	r1, [r2, #616]
1128:Drivers/STM32F4xx_HAL_Driver/Src/stm32f4xx_hal_pcd.c ****     }
 3132              		.loc 1 1128 7 view .LVU1282
 3133 0742 2068     		ldr	r0, [r4]
1121:Drivers/STM32F4xx_HAL_Driver/Src/stm32f4xx_hal_pcd.c ****       }
 3134              		.loc 1 1121 24 view .LVU1283
 3135 0744 0B44     		add	r3, r3, r1
 3136 0746 C2F86832 		str	r3, [r2, #616]
 3137 074a 96E4     		b	.L160
 3138              	.LVL234:
 3139              	.L362:
1445:Drivers/STM32F4xx_HAL_Driver/Src/stm32f4xx_hal_pcd.c ****         }
 3140              		.loc 1 1445 11 is_stmt 1 view .LVU1284
 3141              	.LBB79:
ARM GAS  /tmp/ccDYdWST.s 			page 115


2040:Drivers/STM32F4xx_HAL_Driver/Src/stm32f4xx_hal_pcd.c **** {
 3142              		.loc 1 2040 19 view .LVU1285
 3143              	.LBB19:
2042:Drivers/STM32F4xx_HAL_Driver/Src/stm32f4xx_hal_pcd.c ****   PCD_EPTypeDef *ep;
 3144              		.loc 1 2042 3 view .LVU1286
2043:Drivers/STM32F4xx_HAL_Driver/Src/stm32f4xx_hal_pcd.c **** 
 3145              		.loc 1 2043 3 view .LVU1287
2045:Drivers/STM32F4xx_HAL_Driver/Src/stm32f4xx_hal_pcd.c ****   {
 3146              		.loc 1 2045 3 view .LVU1288
2051:Drivers/STM32F4xx_HAL_Driver/Src/stm32f4xx_hal_pcd.c ****   }
 3147              		.loc 1 2051 5 view .LVU1289
2055:Drivers/STM32F4xx_HAL_Driver/Src/stm32f4xx_hal_pcd.c **** 
 3148              		.loc 1 2055 3 view .LVU1290
2055:Drivers/STM32F4xx_HAL_Driver/Src/stm32f4xx_hal_pcd.c **** 
 3149              		.loc 1 2055 9 is_stmt 0 view .LVU1291
 3150 074c 2068     		ldr	r0, [r4]
 3151 074e 04F53971 		add	r1, r4, #740
 3152              	.LVL235:
2055:Drivers/STM32F4xx_HAL_Driver/Src/stm32f4xx_hal_pcd.c **** 
 3153              		.loc 1 2055 9 view .LVU1292
 3154 0752 FFF7FEFF 		bl	USB_EPStopXfer
 3155              	.LVL236:
2057:Drivers/STM32F4xx_HAL_Driver/Src/stm32f4xx_hal_pcd.c **** }
 3156              		.loc 1 2057 3 is_stmt 1 view .LVU1293
2057:Drivers/STM32F4xx_HAL_Driver/Src/stm32f4xx_hal_pcd.c **** }
 3157              		.loc 1 2057 3 is_stmt 0 view .LVU1294
 3158              	.LBE19:
 3159              	.LBE79:
1440:Drivers/STM32F4xx_HAL_Driver/Src/stm32f4xx_hal_pcd.c ****       {
 3160              		.loc 1 1440 42 discriminator 1 view .LVU1295
 3161 0756 2379     		ldrb	r3, [r4, #4]	@ zero_extendqisi2
 3162 0758 E4E4     		b	.L239
 3163              	.LVL237:
 3164              	.L396:
1440:Drivers/STM32F4xx_HAL_Driver/Src/stm32f4xx_hal_pcd.c ****       {
 3165              		.loc 1 1440 42 discriminator 1 view .LVU1296
 3166 075a 2C46     		mov	r4, r5
 3167 075c 049D     		ldr	r5, [sp, #16]
 3168              	.LVL238:
1440:Drivers/STM32F4xx_HAL_Driver/Src/stm32f4xx_hal_pcd.c ****       {
 3169              		.loc 1 1440 42 discriminator 1 view .LVU1297
 3170 075e 97E4     		b	.L164
 3171              	.LVL239:
 3172              	.L392:
1440:Drivers/STM32F4xx_HAL_Driver/Src/stm32f4xx_hal_pcd.c ****       {
 3173              		.loc 1 1440 42 discriminator 1 view .LVU1298
 3174 0760 3046     		mov	r0, r6
 3175 0762 059D     		ldr	r5, [sp, #20]
 3176 0764 049E     		ldr	r6, [sp, #16]
 3177 0766 99E4     		b	.L194
 3178              	.LVL240:
 3179              	.L398:
1152:Drivers/STM32F4xx_HAL_Driver/Src/stm32f4xx_hal_pcd.c ****             /* Class B setup phase done for previous decoded setup */
 3180              		.loc 1 1152 13 is_stmt 1 view .LVU1299
 3181              	.LBB80:
 3182              	.LBB81:
2229:Drivers/STM32F4xx_HAL_Driver/Src/stm32f4xx_hal_pcd.c ****   }
ARM GAS  /tmp/ccDYdWST.s 			page 116


2230:Drivers/STM32F4xx_HAL_Driver/Src/stm32f4xx_hal_pcd.c **** 
2231:Drivers/STM32F4xx_HAL_Driver/Src/stm32f4xx_hal_pcd.c ****   return HAL_OK;
2232:Drivers/STM32F4xx_HAL_Driver/Src/stm32f4xx_hal_pcd.c **** }
2233:Drivers/STM32F4xx_HAL_Driver/Src/stm32f4xx_hal_pcd.c **** 
2234:Drivers/STM32F4xx_HAL_Driver/Src/stm32f4xx_hal_pcd.c **** 
2235:Drivers/STM32F4xx_HAL_Driver/Src/stm32f4xx_hal_pcd.c **** /**
2236:Drivers/STM32F4xx_HAL_Driver/Src/stm32f4xx_hal_pcd.c ****   * @brief  process EP OUT transfer complete interrupt.
2237:Drivers/STM32F4xx_HAL_Driver/Src/stm32f4xx_hal_pcd.c ****   * @param  hpcd PCD handle
2238:Drivers/STM32F4xx_HAL_Driver/Src/stm32f4xx_hal_pcd.c ****   * @param  epnum endpoint number
2239:Drivers/STM32F4xx_HAL_Driver/Src/stm32f4xx_hal_pcd.c ****   * @retval HAL status
2240:Drivers/STM32F4xx_HAL_Driver/Src/stm32f4xx_hal_pcd.c ****   */
2241:Drivers/STM32F4xx_HAL_Driver/Src/stm32f4xx_hal_pcd.c **** static HAL_StatusTypeDef PCD_EP_OutXfrComplete_int(PCD_HandleTypeDef *hpcd, uint32_t epnum)
2242:Drivers/STM32F4xx_HAL_Driver/Src/stm32f4xx_hal_pcd.c **** {
2243:Drivers/STM32F4xx_HAL_Driver/Src/stm32f4xx_hal_pcd.c ****   USB_OTG_EPTypeDef *ep;
2244:Drivers/STM32F4xx_HAL_Driver/Src/stm32f4xx_hal_pcd.c ****   const USB_OTG_GlobalTypeDef *USBx = hpcd->Instance;
2245:Drivers/STM32F4xx_HAL_Driver/Src/stm32f4xx_hal_pcd.c ****   uint32_t USBx_BASE = (uint32_t)USBx;
2246:Drivers/STM32F4xx_HAL_Driver/Src/stm32f4xx_hal_pcd.c ****   uint32_t gSNPSiD = *(__IO const uint32_t *)(&USBx->CID + 0x1U);
2247:Drivers/STM32F4xx_HAL_Driver/Src/stm32f4xx_hal_pcd.c ****   uint32_t DoepintReg = USBx_OUTEP(epnum)->DOEPINT;
2248:Drivers/STM32F4xx_HAL_Driver/Src/stm32f4xx_hal_pcd.c **** 
2249:Drivers/STM32F4xx_HAL_Driver/Src/stm32f4xx_hal_pcd.c ****   if (hpcd->Init.dma_enable == 1U)
2250:Drivers/STM32F4xx_HAL_Driver/Src/stm32f4xx_hal_pcd.c ****   {
2251:Drivers/STM32F4xx_HAL_Driver/Src/stm32f4xx_hal_pcd.c ****     if ((DoepintReg & USB_OTG_DOEPINT_STUP) == USB_OTG_DOEPINT_STUP) /* Class C */
2252:Drivers/STM32F4xx_HAL_Driver/Src/stm32f4xx_hal_pcd.c ****     {
2253:Drivers/STM32F4xx_HAL_Driver/Src/stm32f4xx_hal_pcd.c ****       /* StupPktRcvd = 1 this is a setup packet */
2254:Drivers/STM32F4xx_HAL_Driver/Src/stm32f4xx_hal_pcd.c ****       if ((gSNPSiD > USB_OTG_CORE_ID_300A) &&
2255:Drivers/STM32F4xx_HAL_Driver/Src/stm32f4xx_hal_pcd.c ****           ((DoepintReg & USB_OTG_DOEPINT_STPKTRX) == USB_OTG_DOEPINT_STPKTRX))
2256:Drivers/STM32F4xx_HAL_Driver/Src/stm32f4xx_hal_pcd.c ****       {
2257:Drivers/STM32F4xx_HAL_Driver/Src/stm32f4xx_hal_pcd.c ****         CLEAR_OUT_EP_INTR(epnum, USB_OTG_DOEPINT_STPKTRX);
2258:Drivers/STM32F4xx_HAL_Driver/Src/stm32f4xx_hal_pcd.c ****       }
2259:Drivers/STM32F4xx_HAL_Driver/Src/stm32f4xx_hal_pcd.c ****     }
2260:Drivers/STM32F4xx_HAL_Driver/Src/stm32f4xx_hal_pcd.c ****     else if ((DoepintReg & USB_OTG_DOEPINT_OTEPSPR) == USB_OTG_DOEPINT_OTEPSPR) /* Class E */
2261:Drivers/STM32F4xx_HAL_Driver/Src/stm32f4xx_hal_pcd.c ****     {
2262:Drivers/STM32F4xx_HAL_Driver/Src/stm32f4xx_hal_pcd.c ****       CLEAR_OUT_EP_INTR(epnum, USB_OTG_DOEPINT_OTEPSPR);
2263:Drivers/STM32F4xx_HAL_Driver/Src/stm32f4xx_hal_pcd.c ****     }
2264:Drivers/STM32F4xx_HAL_Driver/Src/stm32f4xx_hal_pcd.c ****     else if ((DoepintReg & (USB_OTG_DOEPINT_STUP | USB_OTG_DOEPINT_OTEPSPR)) == 0U)
2265:Drivers/STM32F4xx_HAL_Driver/Src/stm32f4xx_hal_pcd.c ****     {
2266:Drivers/STM32F4xx_HAL_Driver/Src/stm32f4xx_hal_pcd.c ****       /* StupPktRcvd = 1 this is a setup packet */
2267:Drivers/STM32F4xx_HAL_Driver/Src/stm32f4xx_hal_pcd.c ****       if ((gSNPSiD > USB_OTG_CORE_ID_300A) &&
2268:Drivers/STM32F4xx_HAL_Driver/Src/stm32f4xx_hal_pcd.c ****           ((DoepintReg & USB_OTG_DOEPINT_STPKTRX) == USB_OTG_DOEPINT_STPKTRX))
2269:Drivers/STM32F4xx_HAL_Driver/Src/stm32f4xx_hal_pcd.c ****       {
2270:Drivers/STM32F4xx_HAL_Driver/Src/stm32f4xx_hal_pcd.c ****         CLEAR_OUT_EP_INTR(epnum, USB_OTG_DOEPINT_STPKTRX);
2271:Drivers/STM32F4xx_HAL_Driver/Src/stm32f4xx_hal_pcd.c ****       }
2272:Drivers/STM32F4xx_HAL_Driver/Src/stm32f4xx_hal_pcd.c ****       else
2273:Drivers/STM32F4xx_HAL_Driver/Src/stm32f4xx_hal_pcd.c ****       {
2274:Drivers/STM32F4xx_HAL_Driver/Src/stm32f4xx_hal_pcd.c ****         ep = &hpcd->OUT_ep[epnum];
2275:Drivers/STM32F4xx_HAL_Driver/Src/stm32f4xx_hal_pcd.c **** 
2276:Drivers/STM32F4xx_HAL_Driver/Src/stm32f4xx_hal_pcd.c ****         /* out data packet received over EP */
2277:Drivers/STM32F4xx_HAL_Driver/Src/stm32f4xx_hal_pcd.c ****         ep->xfer_count = ep->xfer_size - (USBx_OUTEP(epnum)->DOEPTSIZ & USB_OTG_DOEPTSIZ_XFRSIZ);
2278:Drivers/STM32F4xx_HAL_Driver/Src/stm32f4xx_hal_pcd.c **** 
2279:Drivers/STM32F4xx_HAL_Driver/Src/stm32f4xx_hal_pcd.c ****         if (epnum == 0U)
2280:Drivers/STM32F4xx_HAL_Driver/Src/stm32f4xx_hal_pcd.c ****         {
2281:Drivers/STM32F4xx_HAL_Driver/Src/stm32f4xx_hal_pcd.c ****           if (ep->xfer_len == 0U)
2282:Drivers/STM32F4xx_HAL_Driver/Src/stm32f4xx_hal_pcd.c ****           {
2283:Drivers/STM32F4xx_HAL_Driver/Src/stm32f4xx_hal_pcd.c ****             /* this is ZLP, so prepare EP0 for next setup */
2284:Drivers/STM32F4xx_HAL_Driver/Src/stm32f4xx_hal_pcd.c ****             (void)USB_EP0_OutStart(hpcd->Instance, 1U, (uint8_t *)hpcd->Setup);
2285:Drivers/STM32F4xx_HAL_Driver/Src/stm32f4xx_hal_pcd.c ****           }
2286:Drivers/STM32F4xx_HAL_Driver/Src/stm32f4xx_hal_pcd.c ****           else
ARM GAS  /tmp/ccDYdWST.s 			page 117


2287:Drivers/STM32F4xx_HAL_Driver/Src/stm32f4xx_hal_pcd.c ****           {
2288:Drivers/STM32F4xx_HAL_Driver/Src/stm32f4xx_hal_pcd.c ****             ep->xfer_buff += ep->xfer_count;
2289:Drivers/STM32F4xx_HAL_Driver/Src/stm32f4xx_hal_pcd.c ****           }
2290:Drivers/STM32F4xx_HAL_Driver/Src/stm32f4xx_hal_pcd.c ****         }
2291:Drivers/STM32F4xx_HAL_Driver/Src/stm32f4xx_hal_pcd.c **** 
2292:Drivers/STM32F4xx_HAL_Driver/Src/stm32f4xx_hal_pcd.c **** #if (USE_HAL_PCD_REGISTER_CALLBACKS == 1U)
2293:Drivers/STM32F4xx_HAL_Driver/Src/stm32f4xx_hal_pcd.c ****         hpcd->DataOutStageCallback(hpcd, (uint8_t)epnum);
2294:Drivers/STM32F4xx_HAL_Driver/Src/stm32f4xx_hal_pcd.c **** #else
2295:Drivers/STM32F4xx_HAL_Driver/Src/stm32f4xx_hal_pcd.c ****         HAL_PCD_DataOutStageCallback(hpcd, (uint8_t)epnum);
2296:Drivers/STM32F4xx_HAL_Driver/Src/stm32f4xx_hal_pcd.c **** #endif /* USE_HAL_PCD_REGISTER_CALLBACKS */
2297:Drivers/STM32F4xx_HAL_Driver/Src/stm32f4xx_hal_pcd.c ****       }
2298:Drivers/STM32F4xx_HAL_Driver/Src/stm32f4xx_hal_pcd.c ****     }
2299:Drivers/STM32F4xx_HAL_Driver/Src/stm32f4xx_hal_pcd.c ****     else
2300:Drivers/STM32F4xx_HAL_Driver/Src/stm32f4xx_hal_pcd.c ****     {
2301:Drivers/STM32F4xx_HAL_Driver/Src/stm32f4xx_hal_pcd.c ****       /* ... */
2302:Drivers/STM32F4xx_HAL_Driver/Src/stm32f4xx_hal_pcd.c ****     }
2303:Drivers/STM32F4xx_HAL_Driver/Src/stm32f4xx_hal_pcd.c ****   }
2304:Drivers/STM32F4xx_HAL_Driver/Src/stm32f4xx_hal_pcd.c ****   else
2305:Drivers/STM32F4xx_HAL_Driver/Src/stm32f4xx_hal_pcd.c ****   {
2306:Drivers/STM32F4xx_HAL_Driver/Src/stm32f4xx_hal_pcd.c ****     if (gSNPSiD == USB_OTG_CORE_ID_310A)
2307:Drivers/STM32F4xx_HAL_Driver/Src/stm32f4xx_hal_pcd.c ****     {
2308:Drivers/STM32F4xx_HAL_Driver/Src/stm32f4xx_hal_pcd.c ****       /* StupPktRcvd = 1 this is a setup packet */
2309:Drivers/STM32F4xx_HAL_Driver/Src/stm32f4xx_hal_pcd.c ****       if ((DoepintReg & USB_OTG_DOEPINT_STPKTRX) == USB_OTG_DOEPINT_STPKTRX)
2310:Drivers/STM32F4xx_HAL_Driver/Src/stm32f4xx_hal_pcd.c ****       {
2311:Drivers/STM32F4xx_HAL_Driver/Src/stm32f4xx_hal_pcd.c ****         CLEAR_OUT_EP_INTR(epnum, USB_OTG_DOEPINT_STPKTRX);
2312:Drivers/STM32F4xx_HAL_Driver/Src/stm32f4xx_hal_pcd.c ****       }
2313:Drivers/STM32F4xx_HAL_Driver/Src/stm32f4xx_hal_pcd.c ****       else
2314:Drivers/STM32F4xx_HAL_Driver/Src/stm32f4xx_hal_pcd.c ****       {
2315:Drivers/STM32F4xx_HAL_Driver/Src/stm32f4xx_hal_pcd.c ****         if ((DoepintReg & USB_OTG_DOEPINT_OTEPSPR) == USB_OTG_DOEPINT_OTEPSPR)
2316:Drivers/STM32F4xx_HAL_Driver/Src/stm32f4xx_hal_pcd.c ****         {
2317:Drivers/STM32F4xx_HAL_Driver/Src/stm32f4xx_hal_pcd.c ****           CLEAR_OUT_EP_INTR(epnum, USB_OTG_DOEPINT_OTEPSPR);
2318:Drivers/STM32F4xx_HAL_Driver/Src/stm32f4xx_hal_pcd.c ****         }
2319:Drivers/STM32F4xx_HAL_Driver/Src/stm32f4xx_hal_pcd.c **** 
2320:Drivers/STM32F4xx_HAL_Driver/Src/stm32f4xx_hal_pcd.c **** #if (USE_HAL_PCD_REGISTER_CALLBACKS == 1U)
2321:Drivers/STM32F4xx_HAL_Driver/Src/stm32f4xx_hal_pcd.c ****         hpcd->DataOutStageCallback(hpcd, (uint8_t)epnum);
2322:Drivers/STM32F4xx_HAL_Driver/Src/stm32f4xx_hal_pcd.c **** #else
2323:Drivers/STM32F4xx_HAL_Driver/Src/stm32f4xx_hal_pcd.c ****         HAL_PCD_DataOutStageCallback(hpcd, (uint8_t)epnum);
2324:Drivers/STM32F4xx_HAL_Driver/Src/stm32f4xx_hal_pcd.c **** #endif /* USE_HAL_PCD_REGISTER_CALLBACKS */
2325:Drivers/STM32F4xx_HAL_Driver/Src/stm32f4xx_hal_pcd.c ****       }
2326:Drivers/STM32F4xx_HAL_Driver/Src/stm32f4xx_hal_pcd.c ****     }
2327:Drivers/STM32F4xx_HAL_Driver/Src/stm32f4xx_hal_pcd.c ****     else
2328:Drivers/STM32F4xx_HAL_Driver/Src/stm32f4xx_hal_pcd.c ****     {
2329:Drivers/STM32F4xx_HAL_Driver/Src/stm32f4xx_hal_pcd.c ****       if ((epnum == 0U) && (hpcd->OUT_ep[epnum].xfer_len == 0U))
2330:Drivers/STM32F4xx_HAL_Driver/Src/stm32f4xx_hal_pcd.c ****       {
2331:Drivers/STM32F4xx_HAL_Driver/Src/stm32f4xx_hal_pcd.c ****         /* this is ZLP, so prepare EP0 for next setup */
2332:Drivers/STM32F4xx_HAL_Driver/Src/stm32f4xx_hal_pcd.c ****         (void)USB_EP0_OutStart(hpcd->Instance, 0U, (uint8_t *)hpcd->Setup);
2333:Drivers/STM32F4xx_HAL_Driver/Src/stm32f4xx_hal_pcd.c ****       }
2334:Drivers/STM32F4xx_HAL_Driver/Src/stm32f4xx_hal_pcd.c **** 
2335:Drivers/STM32F4xx_HAL_Driver/Src/stm32f4xx_hal_pcd.c **** #if (USE_HAL_PCD_REGISTER_CALLBACKS == 1U)
2336:Drivers/STM32F4xx_HAL_Driver/Src/stm32f4xx_hal_pcd.c ****       hpcd->DataOutStageCallback(hpcd, (uint8_t)epnum);
2337:Drivers/STM32F4xx_HAL_Driver/Src/stm32f4xx_hal_pcd.c **** #else
2338:Drivers/STM32F4xx_HAL_Driver/Src/stm32f4xx_hal_pcd.c ****       HAL_PCD_DataOutStageCallback(hpcd, (uint8_t)epnum);
2339:Drivers/STM32F4xx_HAL_Driver/Src/stm32f4xx_hal_pcd.c **** #endif /* USE_HAL_PCD_REGISTER_CALLBACKS */
2340:Drivers/STM32F4xx_HAL_Driver/Src/stm32f4xx_hal_pcd.c ****     }
2341:Drivers/STM32F4xx_HAL_Driver/Src/stm32f4xx_hal_pcd.c ****   }
2342:Drivers/STM32F4xx_HAL_Driver/Src/stm32f4xx_hal_pcd.c **** 
2343:Drivers/STM32F4xx_HAL_Driver/Src/stm32f4xx_hal_pcd.c ****   return HAL_OK;
ARM GAS  /tmp/ccDYdWST.s 			page 118


2344:Drivers/STM32F4xx_HAL_Driver/Src/stm32f4xx_hal_pcd.c **** }
2345:Drivers/STM32F4xx_HAL_Driver/Src/stm32f4xx_hal_pcd.c **** 
2346:Drivers/STM32F4xx_HAL_Driver/Src/stm32f4xx_hal_pcd.c **** 
2347:Drivers/STM32F4xx_HAL_Driver/Src/stm32f4xx_hal_pcd.c **** /**
2348:Drivers/STM32F4xx_HAL_Driver/Src/stm32f4xx_hal_pcd.c ****   * @brief  process EP OUT setup packet received interrupt.
2349:Drivers/STM32F4xx_HAL_Driver/Src/stm32f4xx_hal_pcd.c ****   * @param  hpcd PCD handle
2350:Drivers/STM32F4xx_HAL_Driver/Src/stm32f4xx_hal_pcd.c ****   * @param  epnum endpoint number
2351:Drivers/STM32F4xx_HAL_Driver/Src/stm32f4xx_hal_pcd.c ****   * @retval HAL status
2352:Drivers/STM32F4xx_HAL_Driver/Src/stm32f4xx_hal_pcd.c ****   */
2353:Drivers/STM32F4xx_HAL_Driver/Src/stm32f4xx_hal_pcd.c **** static HAL_StatusTypeDef PCD_EP_OutSetupPacket_int(PCD_HandleTypeDef *hpcd, uint32_t epnum)
2354:Drivers/STM32F4xx_HAL_Driver/Src/stm32f4xx_hal_pcd.c **** {
2355:Drivers/STM32F4xx_HAL_Driver/Src/stm32f4xx_hal_pcd.c ****   const USB_OTG_GlobalTypeDef *USBx = hpcd->Instance;
 3183              		.loc 1 2355 32 is_stmt 0 view .LVU1300
 3184 0768 2968     		ldr	r1, [r5]
 3185              	.LBE81:
 3186              	.LBE80:
1152:Drivers/STM32F4xx_HAL_Driver/Src/stm32f4xx_hal_pcd.c ****             /* Class B setup phase done for previous decoded setup */
 3187              		.loc 1 1152 13 view .LVU1301
 3188 076a 0822     		movs	r2, #8
 3189 076c C8F80820 		str	r2, [r8, #8]
1154:Drivers/STM32F4xx_HAL_Driver/Src/stm32f4xx_hal_pcd.c ****           }
 3190              		.loc 1 1154 13 is_stmt 1 view .LVU1302
 3191              	.LVL241:
 3192              	.LBB84:
 3193              	.LBI80:
2353:Drivers/STM32F4xx_HAL_Driver/Src/stm32f4xx_hal_pcd.c **** {
 3194              		.loc 1 2353 26 view .LVU1303
 3195              	.LBB82:
 3196              		.loc 1 2355 3 view .LVU1304
2356:Drivers/STM32F4xx_HAL_Driver/Src/stm32f4xx_hal_pcd.c ****   uint32_t USBx_BASE = (uint32_t)USBx;
 3197              		.loc 1 2356 3 view .LVU1305
2357:Drivers/STM32F4xx_HAL_Driver/Src/stm32f4xx_hal_pcd.c ****   uint32_t gSNPSiD = *(__IO const uint32_t *)(&USBx->CID + 0x1U);
 3198              		.loc 1 2357 3 view .LVU1306
 3199              		.loc 1 2357 12 is_stmt 0 view .LVU1307
 3200 0770 086C     		ldr	r0, [r1, #64]
 3201              	.LVL242:
2358:Drivers/STM32F4xx_HAL_Driver/Src/stm32f4xx_hal_pcd.c ****   uint32_t DoepintReg = USBx_OUTEP(epnum)->DOEPINT;
 3202              		.loc 1 2358 3 is_stmt 1 view .LVU1308
 3203              		.loc 1 2358 25 is_stmt 0 view .LVU1309
 3204 0772 01F53062 		add	r2, r1, #2816
2359:Drivers/STM32F4xx_HAL_Driver/Src/stm32f4xx_hal_pcd.c **** 
2360:Drivers/STM32F4xx_HAL_Driver/Src/stm32f4xx_hal_pcd.c ****   if ((gSNPSiD > USB_OTG_CORE_ID_300A) &&
 3205              		.loc 1 2360 6 view .LVU1310
 3206 0776 BE49     		ldr	r1, .L405
 3207              	.LVL243:
2358:Drivers/STM32F4xx_HAL_Driver/Src/stm32f4xx_hal_pcd.c ****   uint32_t DoepintReg = USBx_OUTEP(epnum)->DOEPINT;
 3208              		.loc 1 2358 25 view .LVU1311
 3209 0778 02EB4A12 		add	r2, r2, r10, lsl #5
 3210              		.loc 1 2360 6 view .LVU1312
 3211 077c 8842     		cmp	r0, r1
2358:Drivers/STM32F4xx_HAL_Driver/Src/stm32f4xx_hal_pcd.c ****   uint32_t DoepintReg = USBx_OUTEP(epnum)->DOEPINT;
 3212              		.loc 1 2358 12 view .LVU1313
 3213 077e 9368     		ldr	r3, [r2, #8]
 3214              	.LVL244:
 3215              		.loc 1 2360 3 is_stmt 1 view .LVU1314
 3216              		.loc 1 2360 6 is_stmt 0 view .LVU1315
 3217 0780 67D8     		bhi	.L182
ARM GAS  /tmp/ccDYdWST.s 			page 119


2361:Drivers/STM32F4xx_HAL_Driver/Src/stm32f4xx_hal_pcd.c ****       ((DoepintReg & USB_OTG_DOEPINT_STPKTRX) == USB_OTG_DOEPINT_STPKTRX))
2362:Drivers/STM32F4xx_HAL_Driver/Src/stm32f4xx_hal_pcd.c ****   {
2363:Drivers/STM32F4xx_HAL_Driver/Src/stm32f4xx_hal_pcd.c ****     CLEAR_OUT_EP_INTR(epnum, USB_OTG_DOEPINT_STPKTRX);
2364:Drivers/STM32F4xx_HAL_Driver/Src/stm32f4xx_hal_pcd.c ****   }
2365:Drivers/STM32F4xx_HAL_Driver/Src/stm32f4xx_hal_pcd.c **** 
2366:Drivers/STM32F4xx_HAL_Driver/Src/stm32f4xx_hal_pcd.c ****   /* Inform the upper layer that a setup packet is available */
2367:Drivers/STM32F4xx_HAL_Driver/Src/stm32f4xx_hal_pcd.c **** #if (USE_HAL_PCD_REGISTER_CALLBACKS == 1U)
2368:Drivers/STM32F4xx_HAL_Driver/Src/stm32f4xx_hal_pcd.c ****   hpcd->SetupStageCallback(hpcd);
2369:Drivers/STM32F4xx_HAL_Driver/Src/stm32f4xx_hal_pcd.c **** #else
2370:Drivers/STM32F4xx_HAL_Driver/Src/stm32f4xx_hal_pcd.c ****   HAL_PCD_SetupStageCallback(hpcd);
 3218              		.loc 1 2370 3 is_stmt 1 view .LVU1316
 3219 0782 2846     		mov	r0, r5
 3220              	.LVL245:
 3221              		.loc 1 2370 3 is_stmt 0 view .LVU1317
 3222 0784 FFF7FEFF 		bl	HAL_PCD_SetupStageCallback
 3223              	.LVL246:
2371:Drivers/STM32F4xx_HAL_Driver/Src/stm32f4xx_hal_pcd.c **** #endif /* USE_HAL_PCD_REGISTER_CALLBACKS */
2372:Drivers/STM32F4xx_HAL_Driver/Src/stm32f4xx_hal_pcd.c **** 
2373:Drivers/STM32F4xx_HAL_Driver/Src/stm32f4xx_hal_pcd.c ****   if ((gSNPSiD > USB_OTG_CORE_ID_300A) && (hpcd->Init.dma_enable == 1U))
 3224              		.loc 1 2373 3 is_stmt 1 view .LVU1318
 3225 0788 5BE7     		b	.L181
 3226              	.LVL247:
 3227              	.L397:
 3228              		.loc 1 2373 3 is_stmt 0 view .LVU1319
 3229              	.LBE82:
 3230              	.LBE84:
1146:Drivers/STM32F4xx_HAL_Driver/Src/stm32f4xx_hal_pcd.c ****             (void)PCD_EP_OutXfrComplete_int(hpcd, epnum);
 3231              		.loc 1 1146 13 is_stmt 1 view .LVU1320
 3232              	.LBB85:
 3233              	.LBB86:
2244:Drivers/STM32F4xx_HAL_Driver/Src/stm32f4xx_hal_pcd.c ****   uint32_t USBx_BASE = (uint32_t)USBx;
 3234              		.loc 1 2244 32 is_stmt 0 view .LVU1321
 3235 078a 2868     		ldr	r0, [r5]
 3236              	.LVL248:
2244:Drivers/STM32F4xx_HAL_Driver/Src/stm32f4xx_hal_pcd.c ****   uint32_t USBx_BASE = (uint32_t)USBx;
 3237              		.loc 1 2244 32 view .LVU1322
 3238              	.LBE86:
 3239              	.LBE85:
1146:Drivers/STM32F4xx_HAL_Driver/Src/stm32f4xx_hal_pcd.c ****             (void)PCD_EP_OutXfrComplete_int(hpcd, epnum);
 3240              		.loc 1 1146 13 view .LVU1323
 3241 078c 0122     		movs	r2, #1
 3242 078e C8F80820 		str	r2, [r8, #8]
1147:Drivers/STM32F4xx_HAL_Driver/Src/stm32f4xx_hal_pcd.c ****           }
 3243              		.loc 1 1147 13 is_stmt 1 view .LVU1324
 3244              	.LVL249:
 3245              	.LBB94:
 3246              	.LBI85:
2241:Drivers/STM32F4xx_HAL_Driver/Src/stm32f4xx_hal_pcd.c **** {
 3247              		.loc 1 2241 26 view .LVU1325
 3248              	.LBB87:
2243:Drivers/STM32F4xx_HAL_Driver/Src/stm32f4xx_hal_pcd.c ****   const USB_OTG_GlobalTypeDef *USBx = hpcd->Instance;
 3249              		.loc 1 2243 3 view .LVU1326
2244:Drivers/STM32F4xx_HAL_Driver/Src/stm32f4xx_hal_pcd.c ****   uint32_t USBx_BASE = (uint32_t)USBx;
 3250              		.loc 1 2244 3 view .LVU1327
2245:Drivers/STM32F4xx_HAL_Driver/Src/stm32f4xx_hal_pcd.c ****   uint32_t gSNPSiD = *(__IO const uint32_t *)(&USBx->CID + 0x1U);
 3251              		.loc 1 2245 3 view .LVU1328
2246:Drivers/STM32F4xx_HAL_Driver/Src/stm32f4xx_hal_pcd.c ****   uint32_t DoepintReg = USBx_OUTEP(epnum)->DOEPINT;
ARM GAS  /tmp/ccDYdWST.s 			page 120


 3252              		.loc 1 2246 3 view .LVU1329
2249:Drivers/STM32F4xx_HAL_Driver/Src/stm32f4xx_hal_pcd.c ****   {
 3253              		.loc 1 2249 6 is_stmt 0 view .LVU1330
 3254 0792 A979     		ldrb	r1, [r5, #6]	@ zero_extendqisi2
2246:Drivers/STM32F4xx_HAL_Driver/Src/stm32f4xx_hal_pcd.c ****   uint32_t DoepintReg = USBx_OUTEP(epnum)->DOEPINT;
 3255              		.loc 1 2246 12 view .LVU1331
 3256 0794 D0F840E0 		ldr	lr, [r0, #64]
 3257              	.LVL250:
2247:Drivers/STM32F4xx_HAL_Driver/Src/stm32f4xx_hal_pcd.c **** 
 3258              		.loc 1 2247 3 is_stmt 1 view .LVU1332
2247:Drivers/STM32F4xx_HAL_Driver/Src/stm32f4xx_hal_pcd.c **** 
 3259              		.loc 1 2247 25 is_stmt 0 view .LVU1333
 3260 0798 00F53062 		add	r2, r0, #2816
 3261 079c 02EB4A12 		add	r2, r2, r10, lsl #5
2249:Drivers/STM32F4xx_HAL_Driver/Src/stm32f4xx_hal_pcd.c ****   {
 3262              		.loc 1 2249 6 view .LVU1334
 3263 07a0 0129     		cmp	r1, #1
2247:Drivers/STM32F4xx_HAL_Driver/Src/stm32f4xx_hal_pcd.c **** 
 3264              		.loc 1 2247 12 view .LVU1335
 3265 07a2 9368     		ldr	r3, [r2, #8]
 3266              	.LVL251:
2249:Drivers/STM32F4xx_HAL_Driver/Src/stm32f4xx_hal_pcd.c ****   {
 3267              		.loc 1 2249 3 is_stmt 1 view .LVU1336
2249:Drivers/STM32F4xx_HAL_Driver/Src/stm32f4xx_hal_pcd.c ****   {
 3268              		.loc 1 2249 6 is_stmt 0 view .LVU1337
 3269 07a4 67D0     		beq	.L400
2306:Drivers/STM32F4xx_HAL_Driver/Src/stm32f4xx_hal_pcd.c ****     {
 3270              		.loc 1 2306 5 is_stmt 1 view .LVU1338
2306:Drivers/STM32F4xx_HAL_Driver/Src/stm32f4xx_hal_pcd.c ****     {
 3271              		.loc 1 2306 8 is_stmt 0 view .LVU1339
 3272 07a6 B349     		ldr	r1, .L405+4
 3273 07a8 8E45     		cmp	lr, r1
 3274 07aa 00F0C080 		beq	.L401
2329:Drivers/STM32F4xx_HAL_Driver/Src/stm32f4xx_hal_pcd.c ****       {
 3275              		.loc 1 2329 7 is_stmt 1 view .LVU1340
2329:Drivers/STM32F4xx_HAL_Driver/Src/stm32f4xx_hal_pcd.c ****       {
 3276              		.loc 1 2329 10 is_stmt 0 view .LVU1341
 3277 07ae BAF1000F 		cmp	r10, #0
 3278 07b2 04D1     		bne	.L179
2329:Drivers/STM32F4xx_HAL_Driver/Src/stm32f4xx_hal_pcd.c ****       {
 3279              		.loc 1 2329 25 discriminator 1 view .LVU1342
 3280 07b4 D5F86422 		ldr	r2, [r5, #612]
 3281 07b8 002A     		cmp	r2, #0
 3282 07ba 00F08881 		beq	.L402
 3283              	.LVL252:
 3284              	.L179:
2338:Drivers/STM32F4xx_HAL_Driver/Src/stm32f4xx_hal_pcd.c **** #endif /* USE_HAL_PCD_REGISTER_CALLBACKS */
 3285              		.loc 1 2338 7 is_stmt 1 view .LVU1343
 3286 07be 2146     		mov	r1, r4
 3287 07c0 2846     		mov	r0, r5
 3288 07c2 FFF7FEFF 		bl	HAL_PCD_DataOutStageCallback
 3289              	.LVL253:
 3290 07c6 38E7     		b	.L168
 3291              	.LVL254:
 3292              	.L394:
2338:Drivers/STM32F4xx_HAL_Driver/Src/stm32f4xx_hal_pcd.c **** #endif /* USE_HAL_PCD_REGISTER_CALLBACKS */
 3293              		.loc 1 2338 7 is_stmt 0 view .LVU1344
ARM GAS  /tmp/ccDYdWST.s 			page 121


 3294              	.LBE87:
 3295              	.LBE94:
1255:Drivers/STM32F4xx_HAL_Driver/Src/stm32f4xx_hal_pcd.c **** 
 3296              		.loc 1 1255 13 is_stmt 1 view .LVU1345
1255:Drivers/STM32F4xx_HAL_Driver/Src/stm32f4xx_hal_pcd.c **** 
 3297              		.loc 1 1255 19 is_stmt 0 view .LVU1346
 3298 07c8 0498     		ldr	r0, [sp, #16]
 3299 07ca 5146     		mov	r1, r10
 3300 07cc FFF7FEFF 		bl	USB_FlushTxFifo
 3301              	.LVL255:
1257:Drivers/STM32F4xx_HAL_Driver/Src/stm32f4xx_hal_pcd.c **** 
 3302              		.loc 1 1257 13 is_stmt 1 view .LVU1347
1259:Drivers/STM32F4xx_HAL_Driver/Src/stm32f4xx_hal_pcd.c ****             {
 3303              		.loc 1 1259 13 view .LVU1348
1259:Drivers/STM32F4xx_HAL_Driver/Src/stm32f4xx_hal_pcd.c ****             {
 3304              		.loc 1 1259 16 is_stmt 0 view .LVU1349
 3305 07d0 98F81730 		ldrb	r3, [r8, #23]	@ zero_extendqisi2
 3306 07d4 012B     		cmp	r3, #1
 3307 07d6 00F0B280 		beq	.L403
 3308              	.L204:
1270:Drivers/STM32F4xx_HAL_Driver/Src/stm32f4xx_hal_pcd.c ****           }
 3309              		.loc 1 1270 13 is_stmt 1 view .LVU1350
 3310 07da 0223     		movs	r3, #2
 3311 07dc BB60     		str	r3, [r7, #8]
 3312 07de B6E6     		b	.L203
 3313              	.LVL256:
 3314              	.L356:
1109:Drivers/STM32F4xx_HAL_Driver/Src/stm32f4xx_hal_pcd.c ****         {
 3315              		.loc 1 1109 9 view .LVU1351
1109:Drivers/STM32F4xx_HAL_Driver/Src/stm32f4xx_hal_pcd.c ****         {
 3316              		.loc 1 1109 21 is_stmt 0 view .LVU1352
 3317 07e0 47F6F073 		movw	r3, #32752
1109:Drivers/STM32F4xx_HAL_Driver/Src/stm32f4xx_hal_pcd.c ****         {
 3318              		.loc 1 1109 12 view .LVU1353
 3319 07e4 1F42     		tst	r7, r3
 3320 07e6 3FF448AC 		beq	.L160
1111:Drivers/STM32F4xx_HAL_Driver/Src/stm32f4xx_hal_pcd.c ****                                (uint16_t)((RegVal & USB_OTG_GRXSTSP_BCNT) >> 4));
 3321              		.loc 1 1111 11 is_stmt 1 view .LVU1354
1111:Drivers/STM32F4xx_HAL_Driver/Src/stm32f4xx_hal_pcd.c ****                                (uint16_t)((RegVal & USB_OTG_GRXSTSP_BCNT) >> 4));
 3322              		.loc 1 1111 17 is_stmt 0 view .LVU1355
 3323 07ea 08EBC808 		add	r8, r8, r8, lsl #3
 3324              	.LVL257:
1111:Drivers/STM32F4xx_HAL_Driver/Src/stm32f4xx_hal_pcd.c ****                                (uint16_t)((RegVal & USB_OTG_GRXSTSP_BCNT) >> 4));
 3325              		.loc 1 1111 17 view .LVU1356
 3326 07ee 04EB8808 		add	r8, r4, r8, lsl #2
 3327 07f2 C7F30A12 		ubfx	r2, r7, #4, #11
 3328 07f6 D8F86012 		ldr	r1, [r8, #608]
 3329 07fa 3046     		mov	r0, r6
 3330 07fc 1746     		mov	r7, r2
 3331              	.LVL258:
1111:Drivers/STM32F4xx_HAL_Driver/Src/stm32f4xx_hal_pcd.c ****                                (uint16_t)((RegVal & USB_OTG_GRXSTSP_BCNT) >> 4));
 3332              		.loc 1 1111 17 view .LVU1357
 3333 07fe FFF7FEFF 		bl	USB_ReadPacket
 3334              	.LVL259:
1114:Drivers/STM32F4xx_HAL_Driver/Src/stm32f4xx_hal_pcd.c ****           ep->xfer_count += (RegVal & USB_OTG_GRXSTSP_BCNT) >> 4;
 3335              		.loc 1 1114 11 is_stmt 1 view .LVU1358
1114:Drivers/STM32F4xx_HAL_Driver/Src/stm32f4xx_hal_pcd.c ****           ep->xfer_count += (RegVal & USB_OTG_GRXSTSP_BCNT) >> 4;
ARM GAS  /tmp/ccDYdWST.s 			page 122


 3336              		.loc 1 1114 25 is_stmt 0 view .LVU1359
 3337 0802 D8F86032 		ldr	r3, [r8, #608]
1128:Drivers/STM32F4xx_HAL_Driver/Src/stm32f4xx_hal_pcd.c ****     }
 3338              		.loc 1 1128 7 view .LVU1360
 3339 0806 2068     		ldr	r0, [r4]
1114:Drivers/STM32F4xx_HAL_Driver/Src/stm32f4xx_hal_pcd.c ****           ep->xfer_count += (RegVal & USB_OTG_GRXSTSP_BCNT) >> 4;
 3340              		.loc 1 1114 25 view .LVU1361
 3341 0808 3B44     		add	r3, r3, r7
 3342 080a C8F86032 		str	r3, [r8, #608]
1115:Drivers/STM32F4xx_HAL_Driver/Src/stm32f4xx_hal_pcd.c ****         }
 3343              		.loc 1 1115 11 is_stmt 1 view .LVU1362
1115:Drivers/STM32F4xx_HAL_Driver/Src/stm32f4xx_hal_pcd.c ****         }
 3344              		.loc 1 1115 26 is_stmt 0 view .LVU1363
 3345 080e D8F86832 		ldr	r3, [r8, #616]
 3346 0812 3B44     		add	r3, r3, r7
 3347 0814 C8F86832 		str	r3, [r8, #616]
 3348 0818 2FE4     		b	.L160
 3349              	.LVL260:
 3350              	.L390:
1318:Drivers/STM32F4xx_HAL_Driver/Src/stm32f4xx_hal_pcd.c **** #endif /* USE_HAL_PCD_REGISTER_CALLBACKS */
 3351              		.loc 1 1318 9 is_stmt 1 view .LVU1364
 3352 081a 2046     		mov	r0, r4
 3353 081c FFF7FEFF 		bl	HAL_PCD_SuspendCallback
 3354              	.LVL261:
 3355 0820 89E5     		b	.L218
 3356              	.LVL262:
 3357              	.L389:
1518:Drivers/STM32F4xx_HAL_Driver/Src/stm32f4xx_hal_pcd.c **** #endif /* USE_HAL_PCD_REGISTER_CALLBACKS */
 3358              		.loc 1 1518 9 view .LVU1365
 3359 0822 2046     		mov	r0, r4
 3360 0824 FFF7FEFF 		bl	HAL_PCD_DisconnectCallback
 3361              	.LVL263:
1521:Drivers/STM32F4xx_HAL_Driver/Src/stm32f4xx_hal_pcd.c ****     }
 3362              		.loc 1 1521 11 is_stmt 0 view .LVU1366
 3363 0828 2368     		ldr	r3, [r4]
 3364 082a 79E5     		b	.L279
 3365              	.LVL264:
 3366              	.L393:
1225:Drivers/STM32F4xx_HAL_Driver/Src/stm32f4xx_hal_pcd.c **** 
 3367              		.loc 1 1225 15 is_stmt 1 view .LVU1367
1225:Drivers/STM32F4xx_HAL_Driver/Src/stm32f4xx_hal_pcd.c **** 
 3368              		.loc 1 1225 44 is_stmt 0 view .LVU1368
 3369 082c D8E90723 		ldrd	r2, r3, [r8, #28]
 3370              	.LVL265:
1225:Drivers/STM32F4xx_HAL_Driver/Src/stm32f4xx_hal_pcd.c **** 
 3371              		.loc 1 1225 44 view .LVU1369
 3372 0830 1344     		add	r3, r3, r2
 3373 0832 C8F82030 		str	r3, [r8, #32]
1228:Drivers/STM32F4xx_HAL_Driver/Src/stm32f4xx_hal_pcd.c ****               {
 3374              		.loc 1 1228 15 is_stmt 1 view .LVU1370
1228:Drivers/STM32F4xx_HAL_Driver/Src/stm32f4xx_hal_pcd.c ****               {
 3375              		.loc 1 1228 18 is_stmt 0 view .LVU1371
 3376 0836 BAF1000F 		cmp	r10, #0
 3377 083a 7FF475AE 		bne	.L198
1228:Drivers/STM32F4xx_HAL_Driver/Src/stm32f4xx_hal_pcd.c ****               {
 3378              		.loc 1 1228 33 discriminator 1 view .LVU1372
 3379 083e 636A     		ldr	r3, [r4, #36]
ARM GAS  /tmp/ccDYdWST.s 			page 123


 3380 0840 002B     		cmp	r3, #0
 3381 0842 7FF471AE 		bne	.L198
1231:Drivers/STM32F4xx_HAL_Driver/Src/stm32f4xx_hal_pcd.c ****               }
 3382              		.loc 1 1231 17 is_stmt 1 view .LVU1373
1231:Drivers/STM32F4xx_HAL_Driver/Src/stm32f4xx_hal_pcd.c ****               }
 3383              		.loc 1 1231 23 is_stmt 0 view .LVU1374
 3384 0846 2068     		ldr	r0, [r4]
 3385 0848 04F29C42 		addw	r2, r4, #1180
 3386 084c FFF7FEFF 		bl	USB_EP0_OutStart
 3387              	.LVL266:
 3388 0850 6AE6     		b	.L198
 3389              	.LVL267:
 3390              	.L182:
 3391              	.LBB95:
 3392              	.LBB83:
2360:Drivers/STM32F4xx_HAL_Driver/Src/stm32f4xx_hal_pcd.c ****       ((DoepintReg & USB_OTG_DOEPINT_STPKTRX) == USB_OTG_DOEPINT_STPKTRX))
 3393              		.loc 1 2360 40 discriminator 1 view .LVU1375
 3394 0852 1804     		lsls	r0, r3, #16
 3395              	.LVL268:
2363:Drivers/STM32F4xx_HAL_Driver/Src/stm32f4xx_hal_pcd.c ****   }
 3396              		.loc 1 2363 5 is_stmt 1 view .LVU1376
 3397 0854 44BF     		itt	mi
 3398 0856 4FF40041 		movmi	r1, #32768
 3399 085a 9160     		strmi	r1, [r2, #8]
2370:Drivers/STM32F4xx_HAL_Driver/Src/stm32f4xx_hal_pcd.c **** #endif /* USE_HAL_PCD_REGISTER_CALLBACKS */
 3400              		.loc 1 2370 3 view .LVU1377
 3401 085c 2846     		mov	r0, r5
 3402 085e FFF7FEFF 		bl	HAL_PCD_SetupStageCallback
 3403              	.LVL269:
 3404              		.loc 1 2373 3 view .LVU1378
 3405              		.loc 1 2373 40 is_stmt 0 discriminator 1 view .LVU1379
 3406 0862 A979     		ldrb	r1, [r5, #6]	@ zero_extendqisi2
 3407 0864 0129     		cmp	r1, #1
 3408 0866 7FF4ECAE 		bne	.L181
2374:Drivers/STM32F4xx_HAL_Driver/Src/stm32f4xx_hal_pcd.c ****   {
2375:Drivers/STM32F4xx_HAL_Driver/Src/stm32f4xx_hal_pcd.c ****     (void)USB_EP0_OutStart(hpcd->Instance, 1U, (uint8_t *)hpcd->Setup);
 3409              		.loc 1 2375 5 is_stmt 1 view .LVU1380
 3410              		.loc 1 2375 11 is_stmt 0 view .LVU1381
 3411 086a 2868     		ldr	r0, [r5]
 3412 086c 05F29C42 		addw	r2, r5, #1180
 3413 0870 FFF7FEFF 		bl	USB_EP0_OutStart
 3414              	.LVL270:
 3415 0874 E5E6     		b	.L181
 3416              	.LVL271:
 3417              	.L400:
 3418              		.loc 1 2375 11 view .LVU1382
 3419              	.LBE83:
 3420              	.LBE95:
 3421              	.LBB96:
 3422              	.LBB88:
2251:Drivers/STM32F4xx_HAL_Driver/Src/stm32f4xx_hal_pcd.c ****     {
 3423              		.loc 1 2251 5 is_stmt 1 view .LVU1383
2251:Drivers/STM32F4xx_HAL_Driver/Src/stm32f4xx_hal_pcd.c ****     {
 3424              		.loc 1 2251 8 is_stmt 0 view .LVU1384
 3425 0876 1907     		lsls	r1, r3, #28
 3426 0878 40F19180 		bpl	.L170
2254:Drivers/STM32F4xx_HAL_Driver/Src/stm32f4xx_hal_pcd.c ****           ((DoepintReg & USB_OTG_DOEPINT_STPKTRX) == USB_OTG_DOEPINT_STPKTRX))
ARM GAS  /tmp/ccDYdWST.s 			page 124


 3427              		.loc 1 2254 7 is_stmt 1 view .LVU1385
2254:Drivers/STM32F4xx_HAL_Driver/Src/stm32f4xx_hal_pcd.c ****           ((DoepintReg & USB_OTG_DOEPINT_STPKTRX) == USB_OTG_DOEPINT_STPKTRX))
 3428              		.loc 1 2254 10 is_stmt 0 view .LVU1386
 3429 087c 7C49     		ldr	r1, .L405
 3430 087e 8E45     		cmp	lr, r1
 3431 0880 7FF6DBAE 		bls	.L168
2254:Drivers/STM32F4xx_HAL_Driver/Src/stm32f4xx_hal_pcd.c ****           ((DoepintReg & USB_OTG_DOEPINT_STPKTRX) == USB_OTG_DOEPINT_STPKTRX))
 3432              		.loc 1 2254 44 discriminator 1 view .LVU1387
 3433 0884 1804     		lsls	r0, r3, #16
 3434              	.LVL272:
2254:Drivers/STM32F4xx_HAL_Driver/Src/stm32f4xx_hal_pcd.c ****           ((DoepintReg & USB_OTG_DOEPINT_STPKTRX) == USB_OTG_DOEPINT_STPKTRX))
 3435              		.loc 1 2254 44 discriminator 1 view .LVU1388
 3436 0886 7FF5D8AE 		bpl	.L168
 3437              	.LVL273:
 3438              	.L353:
2311:Drivers/STM32F4xx_HAL_Driver/Src/stm32f4xx_hal_pcd.c ****       }
 3439              		.loc 1 2311 9 is_stmt 1 view .LVU1389
 3440 088a 4FF40041 		mov	r1, #32768
 3441 088e 9160     		str	r1, [r2, #8]
 3442 0890 D3E6     		b	.L168
 3443              	.LVL274:
 3444              	.L395:
2311:Drivers/STM32F4xx_HAL_Driver/Src/stm32f4xx_hal_pcd.c ****       }
 3445              		.loc 1 2311 9 is_stmt 0 view .LVU1390
 3446              	.LBE88:
 3447              	.LBE96:
 3448              	.LBB97:
 3449              	.LBB36:
2225:Drivers/STM32F4xx_HAL_Driver/Src/stm32f4xx_hal_pcd.c ****   {
 3450              		.loc 1 2225 9 view .LVU1391
 3451 0892 069F     		ldr	r7, [sp, #24]
 3452 0894 D8F82450 		ldr	r5, [r8, #36]
 3453              	.LVL275:
2225:Drivers/STM32F4xx_HAL_Driver/Src/stm32f4xx_hal_pcd.c ****   {
 3454              		.loc 1 2225 9 view .LVU1392
 3455              	.LBE36:
 3456              	.LBE97:
1283:Drivers/STM32F4xx_HAL_Driver/Src/stm32f4xx_hal_pcd.c ****     {
 3457              		.loc 1 1283 9 view .LVU1393
 3458 0898 2668     		ldr	r6, [r4]
 3459              	.LVL276:
 3460              	.L206:
 3461              	.LBB98:
 3462              	.LBB37:
2225:Drivers/STM32F4xx_HAL_Driver/Src/stm32f4xx_hal_pcd.c ****   {
 3463              		.loc 1 2225 3 is_stmt 1 view .LVU1394
2225:Drivers/STM32F4xx_HAL_Driver/Src/stm32f4xx_hal_pcd.c ****   {
 3464              		.loc 1 2225 6 is_stmt 0 view .LVU1395
 3465 089a 9D42     		cmp	r5, r3
 3466 089c 3FF61FAE 		bhi	.L195
 3467 08a0 9AE6     		b	.L209
 3468              	.LVL277:
 3469              	.L378:
2225:Drivers/STM32F4xx_HAL_Driver/Src/stm32f4xx_hal_pcd.c ****   {
 3470              		.loc 1 2225 6 view .LVU1396
 3471              	.LBE37:
 3472              	.LBE98:
ARM GAS  /tmp/ccDYdWST.s 			page 125


1457:Drivers/STM32F4xx_HAL_Driver/Src/stm32f4xx_hal_pcd.c ****             ((RegVal & USB_OTG_DIEPCTL_EPENA) == USB_OTG_DIEPCTL_EPENA))
 3473              		.loc 1 1457 55 discriminator 1 view .LVU1397
 3474 08a2 0029     		cmp	r1, #0
 3475 08a4 BFF6C4AC 		bge	.L258
1460:Drivers/STM32F4xx_HAL_Driver/Src/stm32f4xx_hal_pcd.c **** 
 3476              		.loc 1 1460 11 is_stmt 1 view .LVU1398
 3477              	.LBB99:
 3478              	.LBB49:
2055:Drivers/STM32F4xx_HAL_Driver/Src/stm32f4xx_hal_pcd.c **** 
 3479              		.loc 1 2055 9 is_stmt 0 view .LVU1399
 3480 08a8 2068     		ldr	r0, [r4]
 3481              	.LBE49:
 3482              	.LBE99:
1460:Drivers/STM32F4xx_HAL_Driver/Src/stm32f4xx_hal_pcd.c **** 
 3483              		.loc 1 1460 48 view .LVU1400
 3484 08aa 84F8CB20 		strb	r2, [r4, #203]
1463:Drivers/STM32F4xx_HAL_Driver/Src/stm32f4xx_hal_pcd.c ****         }
 3485              		.loc 1 1463 11 is_stmt 1 view .LVU1401
 3486              	.LVL278:
 3487              	.LBB100:
2040:Drivers/STM32F4xx_HAL_Driver/Src/stm32f4xx_hal_pcd.c **** {
 3488              		.loc 1 2040 19 view .LVU1402
 3489              	.LBB50:
2042:Drivers/STM32F4xx_HAL_Driver/Src/stm32f4xx_hal_pcd.c ****   PCD_EPTypeDef *ep;
 3490              		.loc 1 2042 3 view .LVU1403
2043:Drivers/STM32F4xx_HAL_Driver/Src/stm32f4xx_hal_pcd.c **** 
 3491              		.loc 1 2043 3 view .LVU1404
2045:Drivers/STM32F4xx_HAL_Driver/Src/stm32f4xx_hal_pcd.c ****   {
 3492              		.loc 1 2045 3 view .LVU1405
2047:Drivers/STM32F4xx_HAL_Driver/Src/stm32f4xx_hal_pcd.c ****   }
 3493              		.loc 1 2047 5 view .LVU1406
2055:Drivers/STM32F4xx_HAL_Driver/Src/stm32f4xx_hal_pcd.c **** 
 3494              		.loc 1 2055 3 view .LVU1407
2055:Drivers/STM32F4xx_HAL_Driver/Src/stm32f4xx_hal_pcd.c **** 
 3495              		.loc 1 2055 9 is_stmt 0 view .LVU1408
 3496 08ae 04F1C801 		add	r1, r4, #200
 3497              	.LVL279:
2055:Drivers/STM32F4xx_HAL_Driver/Src/stm32f4xx_hal_pcd.c **** 
 3498              		.loc 1 2055 9 view .LVU1409
 3499 08b2 FFF7FEFF 		bl	USB_EPStopXfer
 3500              	.LVL280:
2057:Drivers/STM32F4xx_HAL_Driver/Src/stm32f4xx_hal_pcd.c **** }
 3501              		.loc 1 2057 3 is_stmt 1 view .LVU1410
2057:Drivers/STM32F4xx_HAL_Driver/Src/stm32f4xx_hal_pcd.c **** }
 3502              		.loc 1 2057 3 is_stmt 0 view .LVU1411
 3503              	.LBE50:
 3504              	.LBE100:
1453:Drivers/STM32F4xx_HAL_Driver/Src/stm32f4xx_hal_pcd.c ****       {
 3505              		.loc 1 1453 42 discriminator 1 view .LVU1412
 3506 08b6 2379     		ldrb	r3, [r4, #4]	@ zero_extendqisi2
 3507 08b8 BAE4     		b	.L258
 3508              	.LVL281:
 3509              	.L359:
1445:Drivers/STM32F4xx_HAL_Driver/Src/stm32f4xx_hal_pcd.c ****         }
 3510              		.loc 1 1445 11 is_stmt 1 view .LVU1413
 3511              	.LBB101:
2040:Drivers/STM32F4xx_HAL_Driver/Src/stm32f4xx_hal_pcd.c **** {
ARM GAS  /tmp/ccDYdWST.s 			page 126


 3512              		.loc 1 2040 19 view .LVU1414
 3513              	.LBB20:
2042:Drivers/STM32F4xx_HAL_Driver/Src/stm32f4xx_hal_pcd.c ****   PCD_EPTypeDef *ep;
 3514              		.loc 1 2042 3 view .LVU1415
2043:Drivers/STM32F4xx_HAL_Driver/Src/stm32f4xx_hal_pcd.c **** 
 3515              		.loc 1 2043 3 view .LVU1416
2045:Drivers/STM32F4xx_HAL_Driver/Src/stm32f4xx_hal_pcd.c ****   {
 3516              		.loc 1 2045 3 view .LVU1417
2051:Drivers/STM32F4xx_HAL_Driver/Src/stm32f4xx_hal_pcd.c ****   }
 3517              		.loc 1 2051 5 view .LVU1418
2055:Drivers/STM32F4xx_HAL_Driver/Src/stm32f4xx_hal_pcd.c **** 
 3518              		.loc 1 2055 3 view .LVU1419
2055:Drivers/STM32F4xx_HAL_Driver/Src/stm32f4xx_hal_pcd.c **** 
 3519              		.loc 1 2055 9 is_stmt 0 view .LVU1420
 3520 08ba 2068     		ldr	r0, [r4]
 3521 08bc 04F51E71 		add	r1, r4, #632
 3522              	.LVL282:
2055:Drivers/STM32F4xx_HAL_Driver/Src/stm32f4xx_hal_pcd.c **** 
 3523              		.loc 1 2055 9 view .LVU1421
 3524 08c0 FFF7FEFF 		bl	USB_EPStopXfer
 3525              	.LVL283:
2057:Drivers/STM32F4xx_HAL_Driver/Src/stm32f4xx_hal_pcd.c **** }
 3526              		.loc 1 2057 3 is_stmt 1 view .LVU1422
2057:Drivers/STM32F4xx_HAL_Driver/Src/stm32f4xx_hal_pcd.c **** }
 3527              		.loc 1 2057 3 is_stmt 0 view .LVU1423
 3528              	.LBE20:
 3529              	.LBE101:
1440:Drivers/STM32F4xx_HAL_Driver/Src/stm32f4xx_hal_pcd.c ****       {
 3530              		.loc 1 1440 42 discriminator 1 view .LVU1424
 3531 08c4 2379     		ldrb	r3, [r4, #4]	@ zero_extendqisi2
 3532 08c6 18E4     		b	.L235
 3533              	.LVL284:
 3534              	.L399:
1174:Drivers/STM32F4xx_HAL_Driver/Src/stm32f4xx_hal_pcd.c **** 
 3535              		.loc 1 1174 15 is_stmt 1 view .LVU1425
1174:Drivers/STM32F4xx_HAL_Driver/Src/stm32f4xx_hal_pcd.c **** 
 3536              		.loc 1 1174 37 is_stmt 0 view .LVU1426
 3537 08c8 0022     		movs	r2, #0
1179:Drivers/STM32F4xx_HAL_Driver/Src/stm32f4xx_hal_pcd.c **** #endif /* USE_HAL_PCD_REGISTER_CALLBACKS */
 3538              		.loc 1 1179 15 view .LVU1427
 3539 08ca 2146     		mov	r1, r4
1174:Drivers/STM32F4xx_HAL_Driver/Src/stm32f4xx_hal_pcd.c **** 
 3540              		.loc 1 1174 37 view .LVU1428
 3541 08cc 8BF85722 		strb	r2, [fp, #599]
1179:Drivers/STM32F4xx_HAL_Driver/Src/stm32f4xx_hal_pcd.c **** #endif /* USE_HAL_PCD_REGISTER_CALLBACKS */
 3542              		.loc 1 1179 15 is_stmt 1 view .LVU1429
 3543 08d0 2846     		mov	r0, r5
 3544 08d2 FFF7FEFF 		bl	HAL_PCD_ISOOUTIncompleteCallback
 3545              	.LVL285:
 3546 08d6 CAE6     		b	.L189
 3547              	.LVL286:
 3548              	.L379:
1457:Drivers/STM32F4xx_HAL_Driver/Src/stm32f4xx_hal_pcd.c ****             ((RegVal & USB_OTG_DIEPCTL_EPENA) == USB_OTG_DIEPCTL_EPENA))
 3549              		.loc 1 1457 55 is_stmt 0 discriminator 1 view .LVU1430
 3550 08d8 0029     		cmp	r1, #0
 3551 08da BFF6B2AC 		bge	.L259
1460:Drivers/STM32F4xx_HAL_Driver/Src/stm32f4xx_hal_pcd.c **** 
ARM GAS  /tmp/ccDYdWST.s 			page 127


 3552              		.loc 1 1460 11 is_stmt 1 view .LVU1431
 3553              	.LBB102:
 3554              	.LBB51:
2055:Drivers/STM32F4xx_HAL_Driver/Src/stm32f4xx_hal_pcd.c **** 
 3555              		.loc 1 2055 9 is_stmt 0 view .LVU1432
 3556 08de 2068     		ldr	r0, [r4]
 3557              	.LBE51:
 3558              	.LBE102:
1460:Drivers/STM32F4xx_HAL_Driver/Src/stm32f4xx_hal_pcd.c **** 
 3559              		.loc 1 1460 48 view .LVU1433
 3560 08e0 84F8EF20 		strb	r2, [r4, #239]
1463:Drivers/STM32F4xx_HAL_Driver/Src/stm32f4xx_hal_pcd.c ****         }
 3561              		.loc 1 1463 11 is_stmt 1 view .LVU1434
 3562              	.LVL287:
 3563              	.LBB103:
2040:Drivers/STM32F4xx_HAL_Driver/Src/stm32f4xx_hal_pcd.c **** {
 3564              		.loc 1 2040 19 view .LVU1435
 3565              	.LBB52:
2042:Drivers/STM32F4xx_HAL_Driver/Src/stm32f4xx_hal_pcd.c ****   PCD_EPTypeDef *ep;
 3566              		.loc 1 2042 3 view .LVU1436
2043:Drivers/STM32F4xx_HAL_Driver/Src/stm32f4xx_hal_pcd.c **** 
 3567              		.loc 1 2043 3 view .LVU1437
2045:Drivers/STM32F4xx_HAL_Driver/Src/stm32f4xx_hal_pcd.c ****   {
 3568              		.loc 1 2045 3 view .LVU1438
2047:Drivers/STM32F4xx_HAL_Driver/Src/stm32f4xx_hal_pcd.c ****   }
 3569              		.loc 1 2047 5 view .LVU1439
2055:Drivers/STM32F4xx_HAL_Driver/Src/stm32f4xx_hal_pcd.c **** 
 3570              		.loc 1 2055 3 view .LVU1440
2055:Drivers/STM32F4xx_HAL_Driver/Src/stm32f4xx_hal_pcd.c **** 
 3571              		.loc 1 2055 9 is_stmt 0 view .LVU1441
 3572 08e4 04F1EC01 		add	r1, r4, #236
 3573              	.LVL288:
2055:Drivers/STM32F4xx_HAL_Driver/Src/stm32f4xx_hal_pcd.c **** 
 3574              		.loc 1 2055 9 view .LVU1442
 3575 08e8 FFF7FEFF 		bl	USB_EPStopXfer
 3576              	.LVL289:
2057:Drivers/STM32F4xx_HAL_Driver/Src/stm32f4xx_hal_pcd.c **** }
 3577              		.loc 1 2057 3 is_stmt 1 view .LVU1443
2057:Drivers/STM32F4xx_HAL_Driver/Src/stm32f4xx_hal_pcd.c **** }
 3578              		.loc 1 2057 3 is_stmt 0 view .LVU1444
 3579              	.LBE52:
 3580              	.LBE103:
1453:Drivers/STM32F4xx_HAL_Driver/Src/stm32f4xx_hal_pcd.c ****       {
 3581              		.loc 1 1453 42 discriminator 1 view .LVU1445
 3582 08ec 2379     		ldrb	r3, [r4, #4]	@ zero_extendqisi2
 3583 08ee A8E4     		b	.L259
 3584              	.LVL290:
 3585              	.L360:
1445:Drivers/STM32F4xx_HAL_Driver/Src/stm32f4xx_hal_pcd.c ****         }
 3586              		.loc 1 1445 11 is_stmt 1 view .LVU1446
 3587              	.LBB104:
2040:Drivers/STM32F4xx_HAL_Driver/Src/stm32f4xx_hal_pcd.c **** {
 3588              		.loc 1 2040 19 view .LVU1447
 3589              	.LBB21:
2042:Drivers/STM32F4xx_HAL_Driver/Src/stm32f4xx_hal_pcd.c ****   PCD_EPTypeDef *ep;
 3590              		.loc 1 2042 3 view .LVU1448
2043:Drivers/STM32F4xx_HAL_Driver/Src/stm32f4xx_hal_pcd.c **** 
ARM GAS  /tmp/ccDYdWST.s 			page 128


 3591              		.loc 1 2043 3 view .LVU1449
2045:Drivers/STM32F4xx_HAL_Driver/Src/stm32f4xx_hal_pcd.c ****   {
 3592              		.loc 1 2045 3 view .LVU1450
2051:Drivers/STM32F4xx_HAL_Driver/Src/stm32f4xx_hal_pcd.c ****   }
 3593              		.loc 1 2051 5 view .LVU1451
2055:Drivers/STM32F4xx_HAL_Driver/Src/stm32f4xx_hal_pcd.c **** 
 3594              		.loc 1 2055 3 view .LVU1452
2055:Drivers/STM32F4xx_HAL_Driver/Src/stm32f4xx_hal_pcd.c **** 
 3595              		.loc 1 2055 9 is_stmt 0 view .LVU1453
 3596 08f0 2068     		ldr	r0, [r4]
 3597 08f2 04F52771 		add	r1, r4, #668
 3598              	.LVL291:
2055:Drivers/STM32F4xx_HAL_Driver/Src/stm32f4xx_hal_pcd.c **** 
 3599              		.loc 1 2055 9 view .LVU1454
 3600 08f6 FFF7FEFF 		bl	USB_EPStopXfer
 3601              	.LVL292:
2057:Drivers/STM32F4xx_HAL_Driver/Src/stm32f4xx_hal_pcd.c **** }
 3602              		.loc 1 2057 3 is_stmt 1 view .LVU1455
2057:Drivers/STM32F4xx_HAL_Driver/Src/stm32f4xx_hal_pcd.c **** }
 3603              		.loc 1 2057 3 is_stmt 0 view .LVU1456
 3604              	.LBE21:
 3605              	.LBE104:
1440:Drivers/STM32F4xx_HAL_Driver/Src/stm32f4xx_hal_pcd.c ****       {
 3606              		.loc 1 1440 42 discriminator 1 view .LVU1457
 3607 08fa 2379     		ldrb	r3, [r4, #4]	@ zero_extendqisi2
 3608 08fc 04E4     		b	.L237
 3609              	.LVL293:
 3610              	.L380:
1457:Drivers/STM32F4xx_HAL_Driver/Src/stm32f4xx_hal_pcd.c ****             ((RegVal & USB_OTG_DIEPCTL_EPENA) == USB_OTG_DIEPCTL_EPENA))
 3611              		.loc 1 1457 55 discriminator 1 view .LVU1458
 3612 08fe 0029     		cmp	r1, #0
 3613 0900 BFF6A8AC 		bge	.L260
1460:Drivers/STM32F4xx_HAL_Driver/Src/stm32f4xx_hal_pcd.c **** 
 3614              		.loc 1 1460 11 is_stmt 1 view .LVU1459
 3615              	.LBB105:
 3616              	.LBB53:
2055:Drivers/STM32F4xx_HAL_Driver/Src/stm32f4xx_hal_pcd.c **** 
 3617              		.loc 1 2055 9 is_stmt 0 view .LVU1460
 3618 0904 2068     		ldr	r0, [r4]
 3619              	.LBE53:
 3620              	.LBE105:
1460:Drivers/STM32F4xx_HAL_Driver/Src/stm32f4xx_hal_pcd.c **** 
 3621              		.loc 1 1460 48 view .LVU1461
 3622 0906 84F81321 		strb	r2, [r4, #275]
1463:Drivers/STM32F4xx_HAL_Driver/Src/stm32f4xx_hal_pcd.c ****         }
 3623              		.loc 1 1463 11 is_stmt 1 view .LVU1462
 3624              	.LVL294:
 3625              	.LBB106:
2040:Drivers/STM32F4xx_HAL_Driver/Src/stm32f4xx_hal_pcd.c **** {
 3626              		.loc 1 2040 19 view .LVU1463
 3627              	.LBB54:
2042:Drivers/STM32F4xx_HAL_Driver/Src/stm32f4xx_hal_pcd.c ****   PCD_EPTypeDef *ep;
 3628              		.loc 1 2042 3 view .LVU1464
2043:Drivers/STM32F4xx_HAL_Driver/Src/stm32f4xx_hal_pcd.c **** 
 3629              		.loc 1 2043 3 view .LVU1465
2045:Drivers/STM32F4xx_HAL_Driver/Src/stm32f4xx_hal_pcd.c ****   {
 3630              		.loc 1 2045 3 view .LVU1466
ARM GAS  /tmp/ccDYdWST.s 			page 129


2047:Drivers/STM32F4xx_HAL_Driver/Src/stm32f4xx_hal_pcd.c ****   }
 3631              		.loc 1 2047 5 view .LVU1467
2055:Drivers/STM32F4xx_HAL_Driver/Src/stm32f4xx_hal_pcd.c **** 
 3632              		.loc 1 2055 3 view .LVU1468
2055:Drivers/STM32F4xx_HAL_Driver/Src/stm32f4xx_hal_pcd.c **** 
 3633              		.loc 1 2055 9 is_stmt 0 view .LVU1469
 3634 090a 04F58871 		add	r1, r4, #272
 3635              	.LVL295:
2055:Drivers/STM32F4xx_HAL_Driver/Src/stm32f4xx_hal_pcd.c **** 
 3636              		.loc 1 2055 9 view .LVU1470
 3637 090e FFF7FEFF 		bl	USB_EPStopXfer
 3638              	.LVL296:
2057:Drivers/STM32F4xx_HAL_Driver/Src/stm32f4xx_hal_pcd.c **** }
 3639              		.loc 1 2057 3 is_stmt 1 view .LVU1471
2057:Drivers/STM32F4xx_HAL_Driver/Src/stm32f4xx_hal_pcd.c **** }
 3640              		.loc 1 2057 3 is_stmt 0 view .LVU1472
 3641              	.LBE54:
 3642              	.LBE106:
1453:Drivers/STM32F4xx_HAL_Driver/Src/stm32f4xx_hal_pcd.c ****       {
 3643              		.loc 1 1453 42 discriminator 1 view .LVU1473
 3644 0912 2379     		ldrb	r3, [r4, #4]	@ zero_extendqisi2
 3645 0914 9EE4     		b	.L260
 3646              	.LVL297:
 3647              	.L381:
1457:Drivers/STM32F4xx_HAL_Driver/Src/stm32f4xx_hal_pcd.c ****             ((RegVal & USB_OTG_DIEPCTL_EPENA) == USB_OTG_DIEPCTL_EPENA))
 3648              		.loc 1 1457 55 discriminator 1 view .LVU1474
 3649 0916 0029     		cmp	r1, #0
 3650 0918 BFF6A5AC 		bge	.L261
1460:Drivers/STM32F4xx_HAL_Driver/Src/stm32f4xx_hal_pcd.c **** 
 3651              		.loc 1 1460 11 is_stmt 1 view .LVU1475
 3652              	.LBB107:
 3653              	.LBB55:
2055:Drivers/STM32F4xx_HAL_Driver/Src/stm32f4xx_hal_pcd.c **** 
 3654              		.loc 1 2055 9 is_stmt 0 view .LVU1476
 3655 091c 2068     		ldr	r0, [r4]
 3656              	.LBE55:
 3657              	.LBE107:
1460:Drivers/STM32F4xx_HAL_Driver/Src/stm32f4xx_hal_pcd.c **** 
 3658              		.loc 1 1460 48 view .LVU1477
 3659 091e 84F83721 		strb	r2, [r4, #311]
1463:Drivers/STM32F4xx_HAL_Driver/Src/stm32f4xx_hal_pcd.c ****         }
 3660              		.loc 1 1463 11 is_stmt 1 view .LVU1478
 3661              	.LVL298:
 3662              	.LBB108:
2040:Drivers/STM32F4xx_HAL_Driver/Src/stm32f4xx_hal_pcd.c **** {
 3663              		.loc 1 2040 19 view .LVU1479
 3664              	.LBB56:
2042:Drivers/STM32F4xx_HAL_Driver/Src/stm32f4xx_hal_pcd.c ****   PCD_EPTypeDef *ep;
 3665              		.loc 1 2042 3 view .LVU1480
2043:Drivers/STM32F4xx_HAL_Driver/Src/stm32f4xx_hal_pcd.c **** 
 3666              		.loc 1 2043 3 view .LVU1481
2045:Drivers/STM32F4xx_HAL_Driver/Src/stm32f4xx_hal_pcd.c ****   {
 3667              		.loc 1 2045 3 view .LVU1482
2047:Drivers/STM32F4xx_HAL_Driver/Src/stm32f4xx_hal_pcd.c ****   }
 3668              		.loc 1 2047 5 view .LVU1483
2055:Drivers/STM32F4xx_HAL_Driver/Src/stm32f4xx_hal_pcd.c **** 
 3669              		.loc 1 2055 3 view .LVU1484
ARM GAS  /tmp/ccDYdWST.s 			page 130


2055:Drivers/STM32F4xx_HAL_Driver/Src/stm32f4xx_hal_pcd.c **** 
 3670              		.loc 1 2055 9 is_stmt 0 view .LVU1485
 3671 0922 04F59A71 		add	r1, r4, #308
 3672              	.LVL299:
2055:Drivers/STM32F4xx_HAL_Driver/Src/stm32f4xx_hal_pcd.c **** 
 3673              		.loc 1 2055 9 view .LVU1486
 3674 0926 FFF7FEFF 		bl	USB_EPStopXfer
 3675              	.LVL300:
2057:Drivers/STM32F4xx_HAL_Driver/Src/stm32f4xx_hal_pcd.c **** }
 3676              		.loc 1 2057 3 is_stmt 1 view .LVU1487
2057:Drivers/STM32F4xx_HAL_Driver/Src/stm32f4xx_hal_pcd.c **** }
 3677              		.loc 1 2057 3 is_stmt 0 view .LVU1488
 3678              	.LBE56:
 3679              	.LBE108:
1453:Drivers/STM32F4xx_HAL_Driver/Src/stm32f4xx_hal_pcd.c ****       {
 3680              		.loc 1 1453 42 discriminator 1 view .LVU1489
 3681 092a 2379     		ldrb	r3, [r4, #4]	@ zero_extendqisi2
 3682 092c 9BE4     		b	.L261
 3683              	.LVL301:
 3684              	.L401:
 3685              	.LBB109:
 3686              	.LBB89:
2309:Drivers/STM32F4xx_HAL_Driver/Src/stm32f4xx_hal_pcd.c ****       {
 3687              		.loc 1 2309 7 is_stmt 1 view .LVU1490
2309:Drivers/STM32F4xx_HAL_Driver/Src/stm32f4xx_hal_pcd.c ****       {
 3688              		.loc 1 2309 10 is_stmt 0 view .LVU1491
 3689 092e 1904     		lsls	r1, r3, #16
 3690 0930 ABD4     		bmi	.L353
2315:Drivers/STM32F4xx_HAL_Driver/Src/stm32f4xx_hal_pcd.c ****         {
 3691              		.loc 1 2315 9 is_stmt 1 view .LVU1492
2315:Drivers/STM32F4xx_HAL_Driver/Src/stm32f4xx_hal_pcd.c ****         {
 3692              		.loc 1 2315 12 is_stmt 0 view .LVU1493
 3693 0932 9B06     		lsls	r3, r3, #26
 3694              	.LVL302:
2315:Drivers/STM32F4xx_HAL_Driver/Src/stm32f4xx_hal_pcd.c ****         {
 3695              		.loc 1 2315 12 view .LVU1494
 3696 0934 7FF543AF 		bpl	.L179
2317:Drivers/STM32F4xx_HAL_Driver/Src/stm32f4xx_hal_pcd.c ****         }
 3697              		.loc 1 2317 11 is_stmt 1 view .LVU1495
 3698 0938 2021     		movs	r1, #32
 3699 093a 9160     		str	r1, [r2, #8]
2323:Drivers/STM32F4xx_HAL_Driver/Src/stm32f4xx_hal_pcd.c **** #endif /* USE_HAL_PCD_REGISTER_CALLBACKS */
 3700              		.loc 1 2323 9 view .LVU1496
 3701 093c 3FE7     		b	.L179
 3702              	.LVL303:
 3703              	.L403:
2323:Drivers/STM32F4xx_HAL_Driver/Src/stm32f4xx_hal_pcd.c **** #endif /* USE_HAL_PCD_REGISTER_CALLBACKS */
 3704              		.loc 1 2323 9 is_stmt 0 view .LVU1497
 3705              	.LBE89:
 3706              	.LBE109:
1261:Drivers/STM32F4xx_HAL_Driver/Src/stm32f4xx_hal_pcd.c **** 
 3707              		.loc 1 1261 15 is_stmt 1 view .LVU1498
1261:Drivers/STM32F4xx_HAL_Driver/Src/stm32f4xx_hal_pcd.c **** 
 3708              		.loc 1 1261 37 is_stmt 0 view .LVU1499
 3709 093e 0023     		movs	r3, #0
 3710 0940 88F81730 		strb	r3, [r8, #23]
1266:Drivers/STM32F4xx_HAL_Driver/Src/stm32f4xx_hal_pcd.c **** #endif /* USE_HAL_PCD_REGISTER_CALLBACKS */
ARM GAS  /tmp/ccDYdWST.s 			page 131


 3711              		.loc 1 1266 15 is_stmt 1 view .LVU1500
 3712 0944 5946     		mov	r1, fp
 3713 0946 2046     		mov	r0, r4
 3714 0948 FFF7FEFF 		bl	HAL_PCD_ISOINIncompleteCallback
 3715              	.LVL304:
 3716 094c 45E7     		b	.L204
 3717              	.LVL305:
 3718              	.L382:
1457:Drivers/STM32F4xx_HAL_Driver/Src/stm32f4xx_hal_pcd.c ****             ((RegVal & USB_OTG_DIEPCTL_EPENA) == USB_OTG_DIEPCTL_EPENA))
 3719              		.loc 1 1457 55 is_stmt 0 discriminator 1 view .LVU1501
 3720 094e 0029     		cmp	r1, #0
 3721 0950 BFF692AC 		bge	.L262
1460:Drivers/STM32F4xx_HAL_Driver/Src/stm32f4xx_hal_pcd.c **** 
 3722              		.loc 1 1460 11 is_stmt 1 view .LVU1502
 3723              	.LBB110:
 3724              	.LBB57:
2055:Drivers/STM32F4xx_HAL_Driver/Src/stm32f4xx_hal_pcd.c **** 
 3725              		.loc 1 2055 9 is_stmt 0 view .LVU1503
 3726 0954 2068     		ldr	r0, [r4]
 3727              	.LBE57:
 3728              	.LBE110:
1460:Drivers/STM32F4xx_HAL_Driver/Src/stm32f4xx_hal_pcd.c **** 
 3729              		.loc 1 1460 48 view .LVU1504
 3730 0956 84F85B21 		strb	r2, [r4, #347]
1463:Drivers/STM32F4xx_HAL_Driver/Src/stm32f4xx_hal_pcd.c ****         }
 3731              		.loc 1 1463 11 is_stmt 1 view .LVU1505
 3732              	.LVL306:
 3733              	.LBB111:
2040:Drivers/STM32F4xx_HAL_Driver/Src/stm32f4xx_hal_pcd.c **** {
 3734              		.loc 1 2040 19 view .LVU1506
 3735              	.LBB58:
2042:Drivers/STM32F4xx_HAL_Driver/Src/stm32f4xx_hal_pcd.c ****   PCD_EPTypeDef *ep;
 3736              		.loc 1 2042 3 view .LVU1507
2043:Drivers/STM32F4xx_HAL_Driver/Src/stm32f4xx_hal_pcd.c **** 
 3737              		.loc 1 2043 3 view .LVU1508
2045:Drivers/STM32F4xx_HAL_Driver/Src/stm32f4xx_hal_pcd.c ****   {
 3738              		.loc 1 2045 3 view .LVU1509
2047:Drivers/STM32F4xx_HAL_Driver/Src/stm32f4xx_hal_pcd.c ****   }
 3739              		.loc 1 2047 5 view .LVU1510
2055:Drivers/STM32F4xx_HAL_Driver/Src/stm32f4xx_hal_pcd.c **** 
 3740              		.loc 1 2055 3 view .LVU1511
2055:Drivers/STM32F4xx_HAL_Driver/Src/stm32f4xx_hal_pcd.c **** 
 3741              		.loc 1 2055 9 is_stmt 0 view .LVU1512
 3742 095a 04F5AC71 		add	r1, r4, #344
 3743              	.LVL307:
2055:Drivers/STM32F4xx_HAL_Driver/Src/stm32f4xx_hal_pcd.c **** 
 3744              		.loc 1 2055 9 view .LVU1513
 3745 095e FFF7FEFF 		bl	USB_EPStopXfer
 3746              	.LVL308:
2057:Drivers/STM32F4xx_HAL_Driver/Src/stm32f4xx_hal_pcd.c **** }
 3747              		.loc 1 2057 3 is_stmt 1 view .LVU1514
2057:Drivers/STM32F4xx_HAL_Driver/Src/stm32f4xx_hal_pcd.c **** }
 3748              		.loc 1 2057 3 is_stmt 0 view .LVU1515
 3749              	.LBE58:
 3750              	.LBE111:
1453:Drivers/STM32F4xx_HAL_Driver/Src/stm32f4xx_hal_pcd.c ****       {
 3751              		.loc 1 1453 42 discriminator 1 view .LVU1516
ARM GAS  /tmp/ccDYdWST.s 			page 132


 3752 0962 2379     		ldrb	r3, [r4, #4]	@ zero_extendqisi2
 3753 0964 88E4     		b	.L262
 3754              	.LVL309:
 3755              	.L363:
1445:Drivers/STM32F4xx_HAL_Driver/Src/stm32f4xx_hal_pcd.c ****         }
 3756              		.loc 1 1445 11 is_stmt 1 view .LVU1517
 3757              	.LBB112:
2040:Drivers/STM32F4xx_HAL_Driver/Src/stm32f4xx_hal_pcd.c **** {
 3758              		.loc 1 2040 19 view .LVU1518
 3759              	.LBB22:
2042:Drivers/STM32F4xx_HAL_Driver/Src/stm32f4xx_hal_pcd.c ****   PCD_EPTypeDef *ep;
 3760              		.loc 1 2042 3 view .LVU1519
2043:Drivers/STM32F4xx_HAL_Driver/Src/stm32f4xx_hal_pcd.c **** 
 3761              		.loc 1 2043 3 view .LVU1520
2045:Drivers/STM32F4xx_HAL_Driver/Src/stm32f4xx_hal_pcd.c ****   {
 3762              		.loc 1 2045 3 view .LVU1521
2051:Drivers/STM32F4xx_HAL_Driver/Src/stm32f4xx_hal_pcd.c ****   }
 3763              		.loc 1 2051 5 view .LVU1522
2055:Drivers/STM32F4xx_HAL_Driver/Src/stm32f4xx_hal_pcd.c **** 
 3764              		.loc 1 2055 3 view .LVU1523
2055:Drivers/STM32F4xx_HAL_Driver/Src/stm32f4xx_hal_pcd.c **** 
 3765              		.loc 1 2055 9 is_stmt 0 view .LVU1524
 3766 0966 2068     		ldr	r0, [r4]
 3767 0968 04F54271 		add	r1, r4, #776
 3768              	.LVL310:
2055:Drivers/STM32F4xx_HAL_Driver/Src/stm32f4xx_hal_pcd.c **** 
 3769              		.loc 1 2055 9 view .LVU1525
 3770 096c FFF7FEFF 		bl	USB_EPStopXfer
 3771              	.LVL311:
2057:Drivers/STM32F4xx_HAL_Driver/Src/stm32f4xx_hal_pcd.c **** }
 3772              		.loc 1 2057 3 is_stmt 1 view .LVU1526
2057:Drivers/STM32F4xx_HAL_Driver/Src/stm32f4xx_hal_pcd.c **** }
 3773              		.loc 1 2057 3 is_stmt 0 view .LVU1527
 3774              	.LBE22:
 3775              	.LBE112:
1440:Drivers/STM32F4xx_HAL_Driver/Src/stm32f4xx_hal_pcd.c ****       {
 3776              		.loc 1 1440 42 discriminator 1 view .LVU1528
 3777 0970 2379     		ldrb	r3, [r4, #4]	@ zero_extendqisi2
 3778 0972 FFF7DEBB 		b	.L240
 3779              	.LVL312:
 3780              	.L383:
1457:Drivers/STM32F4xx_HAL_Driver/Src/stm32f4xx_hal_pcd.c ****             ((RegVal & USB_OTG_DIEPCTL_EPENA) == USB_OTG_DIEPCTL_EPENA))
 3781              		.loc 1 1457 55 discriminator 1 view .LVU1529
 3782 0976 0029     		cmp	r1, #0
 3783 0978 BFF687AC 		bge	.L263
1460:Drivers/STM32F4xx_HAL_Driver/Src/stm32f4xx_hal_pcd.c **** 
 3784              		.loc 1 1460 11 is_stmt 1 view .LVU1530
 3785              	.LBB113:
 3786              	.LBB59:
2055:Drivers/STM32F4xx_HAL_Driver/Src/stm32f4xx_hal_pcd.c **** 
 3787              		.loc 1 2055 9 is_stmt 0 view .LVU1531
 3788 097c 2068     		ldr	r0, [r4]
 3789              	.LBE59:
 3790              	.LBE113:
1460:Drivers/STM32F4xx_HAL_Driver/Src/stm32f4xx_hal_pcd.c **** 
 3791              		.loc 1 1460 48 view .LVU1532
 3792 097e 84F87F21 		strb	r2, [r4, #383]
ARM GAS  /tmp/ccDYdWST.s 			page 133


1463:Drivers/STM32F4xx_HAL_Driver/Src/stm32f4xx_hal_pcd.c ****         }
 3793              		.loc 1 1463 11 is_stmt 1 view .LVU1533
 3794              	.LVL313:
 3795              	.LBB114:
2040:Drivers/STM32F4xx_HAL_Driver/Src/stm32f4xx_hal_pcd.c **** {
 3796              		.loc 1 2040 19 view .LVU1534
 3797              	.LBB60:
2042:Drivers/STM32F4xx_HAL_Driver/Src/stm32f4xx_hal_pcd.c ****   PCD_EPTypeDef *ep;
 3798              		.loc 1 2042 3 view .LVU1535
2043:Drivers/STM32F4xx_HAL_Driver/Src/stm32f4xx_hal_pcd.c **** 
 3799              		.loc 1 2043 3 view .LVU1536
2045:Drivers/STM32F4xx_HAL_Driver/Src/stm32f4xx_hal_pcd.c ****   {
 3800              		.loc 1 2045 3 view .LVU1537
2047:Drivers/STM32F4xx_HAL_Driver/Src/stm32f4xx_hal_pcd.c ****   }
 3801              		.loc 1 2047 5 view .LVU1538
2055:Drivers/STM32F4xx_HAL_Driver/Src/stm32f4xx_hal_pcd.c **** 
 3802              		.loc 1 2055 3 view .LVU1539
2055:Drivers/STM32F4xx_HAL_Driver/Src/stm32f4xx_hal_pcd.c **** 
 3803              		.loc 1 2055 9 is_stmt 0 view .LVU1540
 3804 0982 04F5BE71 		add	r1, r4, #380
 3805              	.LVL314:
2055:Drivers/STM32F4xx_HAL_Driver/Src/stm32f4xx_hal_pcd.c **** 
 3806              		.loc 1 2055 9 view .LVU1541
 3807 0986 FFF7FEFF 		bl	USB_EPStopXfer
 3808              	.LVL315:
2057:Drivers/STM32F4xx_HAL_Driver/Src/stm32f4xx_hal_pcd.c **** }
 3809              		.loc 1 2057 3 is_stmt 1 view .LVU1542
2057:Drivers/STM32F4xx_HAL_Driver/Src/stm32f4xx_hal_pcd.c **** }
 3810              		.loc 1 2057 3 is_stmt 0 view .LVU1543
 3811              	.LBE60:
 3812              	.LBE114:
1453:Drivers/STM32F4xx_HAL_Driver/Src/stm32f4xx_hal_pcd.c ****       {
 3813              		.loc 1 1453 42 discriminator 1 view .LVU1544
 3814 098a 2379     		ldrb	r3, [r4, #4]	@ zero_extendqisi2
 3815 098c 7DE4     		b	.L263
 3816              	.LVL316:
 3817              	.L364:
1445:Drivers/STM32F4xx_HAL_Driver/Src/stm32f4xx_hal_pcd.c ****         }
 3818              		.loc 1 1445 11 is_stmt 1 view .LVU1545
 3819              	.LBB115:
2040:Drivers/STM32F4xx_HAL_Driver/Src/stm32f4xx_hal_pcd.c **** {
 3820              		.loc 1 2040 19 view .LVU1546
 3821              	.LBB23:
2042:Drivers/STM32F4xx_HAL_Driver/Src/stm32f4xx_hal_pcd.c ****   PCD_EPTypeDef *ep;
 3822              		.loc 1 2042 3 view .LVU1547
2043:Drivers/STM32F4xx_HAL_Driver/Src/stm32f4xx_hal_pcd.c **** 
 3823              		.loc 1 2043 3 view .LVU1548
2045:Drivers/STM32F4xx_HAL_Driver/Src/stm32f4xx_hal_pcd.c ****   {
 3824              		.loc 1 2045 3 view .LVU1549
2051:Drivers/STM32F4xx_HAL_Driver/Src/stm32f4xx_hal_pcd.c ****   }
 3825              		.loc 1 2051 5 view .LVU1550
2055:Drivers/STM32F4xx_HAL_Driver/Src/stm32f4xx_hal_pcd.c **** 
 3826              		.loc 1 2055 3 view .LVU1551
2055:Drivers/STM32F4xx_HAL_Driver/Src/stm32f4xx_hal_pcd.c **** 
 3827              		.loc 1 2055 9 is_stmt 0 view .LVU1552
 3828 098e 2068     		ldr	r0, [r4]
 3829 0990 04F54B71 		add	r1, r4, #812
ARM GAS  /tmp/ccDYdWST.s 			page 134


 3830              	.LVL317:
2055:Drivers/STM32F4xx_HAL_Driver/Src/stm32f4xx_hal_pcd.c **** 
 3831              		.loc 1 2055 9 view .LVU1553
 3832 0994 FFF7FEFF 		bl	USB_EPStopXfer
 3833              	.LVL318:
2057:Drivers/STM32F4xx_HAL_Driver/Src/stm32f4xx_hal_pcd.c **** }
 3834              		.loc 1 2057 3 is_stmt 1 view .LVU1554
2057:Drivers/STM32F4xx_HAL_Driver/Src/stm32f4xx_hal_pcd.c **** }
 3835              		.loc 1 2057 3 is_stmt 0 view .LVU1555
 3836              	.LBE23:
 3837              	.LBE115:
1440:Drivers/STM32F4xx_HAL_Driver/Src/stm32f4xx_hal_pcd.c ****       {
 3838              		.loc 1 1440 42 discriminator 1 view .LVU1556
 3839 0998 2379     		ldrb	r3, [r4, #4]	@ zero_extendqisi2
 3840 099a FFF7D1BB 		b	.L241
 3841              	.LVL319:
 3842              	.L170:
 3843              	.LBB116:
 3844              	.LBB90:
2260:Drivers/STM32F4xx_HAL_Driver/Src/stm32f4xx_hal_pcd.c ****     {
 3845              		.loc 1 2260 10 is_stmt 1 view .LVU1557
2260:Drivers/STM32F4xx_HAL_Driver/Src/stm32f4xx_hal_pcd.c ****     {
 3846              		.loc 1 2260 13 is_stmt 0 view .LVU1558
 3847 099e 9906     		lsls	r1, r3, #26
 3848 09a0 72D5     		bpl	.L172
2262:Drivers/STM32F4xx_HAL_Driver/Src/stm32f4xx_hal_pcd.c ****     }
 3849              		.loc 1 2262 7 is_stmt 1 view .LVU1559
 3850 09a2 2021     		movs	r1, #32
 3851 09a4 9160     		str	r1, [r2, #8]
 3852 09a6 48E6     		b	.L168
 3853              	.LVL320:
 3854              	.L384:
2262:Drivers/STM32F4xx_HAL_Driver/Src/stm32f4xx_hal_pcd.c ****     }
 3855              		.loc 1 2262 7 is_stmt 0 view .LVU1560
 3856              	.LBE90:
 3857              	.LBE116:
1457:Drivers/STM32F4xx_HAL_Driver/Src/stm32f4xx_hal_pcd.c ****             ((RegVal & USB_OTG_DIEPCTL_EPENA) == USB_OTG_DIEPCTL_EPENA))
 3858              		.loc 1 1457 55 discriminator 1 view .LVU1561
 3859 09a8 0029     		cmp	r1, #0
 3860 09aa BFF677AC 		bge	.L264
1460:Drivers/STM32F4xx_HAL_Driver/Src/stm32f4xx_hal_pcd.c **** 
 3861              		.loc 1 1460 11 is_stmt 1 view .LVU1562
 3862              	.LBB117:
 3863              	.LBB61:
2055:Drivers/STM32F4xx_HAL_Driver/Src/stm32f4xx_hal_pcd.c **** 
 3864              		.loc 1 2055 9 is_stmt 0 view .LVU1563
 3865 09ae 2068     		ldr	r0, [r4]
 3866              	.LBE61:
 3867              	.LBE117:
1460:Drivers/STM32F4xx_HAL_Driver/Src/stm32f4xx_hal_pcd.c **** 
 3868              		.loc 1 1460 48 view .LVU1564
 3869 09b0 84F8A321 		strb	r2, [r4, #419]
1463:Drivers/STM32F4xx_HAL_Driver/Src/stm32f4xx_hal_pcd.c ****         }
 3870              		.loc 1 1463 11 is_stmt 1 view .LVU1565
 3871              	.LVL321:
 3872              	.LBB118:
2040:Drivers/STM32F4xx_HAL_Driver/Src/stm32f4xx_hal_pcd.c **** {
ARM GAS  /tmp/ccDYdWST.s 			page 135


 3873              		.loc 1 2040 19 view .LVU1566
 3874              	.LBB62:
2042:Drivers/STM32F4xx_HAL_Driver/Src/stm32f4xx_hal_pcd.c ****   PCD_EPTypeDef *ep;
 3875              		.loc 1 2042 3 view .LVU1567
2043:Drivers/STM32F4xx_HAL_Driver/Src/stm32f4xx_hal_pcd.c **** 
 3876              		.loc 1 2043 3 view .LVU1568
2045:Drivers/STM32F4xx_HAL_Driver/Src/stm32f4xx_hal_pcd.c ****   {
 3877              		.loc 1 2045 3 view .LVU1569
2047:Drivers/STM32F4xx_HAL_Driver/Src/stm32f4xx_hal_pcd.c ****   }
 3878              		.loc 1 2047 5 view .LVU1570
2055:Drivers/STM32F4xx_HAL_Driver/Src/stm32f4xx_hal_pcd.c **** 
 3879              		.loc 1 2055 3 view .LVU1571
2055:Drivers/STM32F4xx_HAL_Driver/Src/stm32f4xx_hal_pcd.c **** 
 3880              		.loc 1 2055 9 is_stmt 0 view .LVU1572
 3881 09b4 04F5D071 		add	r1, r4, #416
 3882              	.LVL322:
2055:Drivers/STM32F4xx_HAL_Driver/Src/stm32f4xx_hal_pcd.c **** 
 3883              		.loc 1 2055 9 view .LVU1573
 3884 09b8 FFF7FEFF 		bl	USB_EPStopXfer
 3885              	.LVL323:
2057:Drivers/STM32F4xx_HAL_Driver/Src/stm32f4xx_hal_pcd.c **** }
 3886              		.loc 1 2057 3 is_stmt 1 view .LVU1574
2057:Drivers/STM32F4xx_HAL_Driver/Src/stm32f4xx_hal_pcd.c **** }
 3887              		.loc 1 2057 3 is_stmt 0 view .LVU1575
 3888              	.LBE62:
 3889              	.LBE118:
1453:Drivers/STM32F4xx_HAL_Driver/Src/stm32f4xx_hal_pcd.c ****       {
 3890              		.loc 1 1453 42 discriminator 1 view .LVU1576
 3891 09bc 2379     		ldrb	r3, [r4, #4]	@ zero_extendqisi2
 3892 09be 6DE4     		b	.L264
 3893              	.LVL324:
 3894              	.L365:
1445:Drivers/STM32F4xx_HAL_Driver/Src/stm32f4xx_hal_pcd.c ****         }
 3895              		.loc 1 1445 11 is_stmt 1 view .LVU1577
 3896              	.LBB119:
2040:Drivers/STM32F4xx_HAL_Driver/Src/stm32f4xx_hal_pcd.c **** {
 3897              		.loc 1 2040 19 view .LVU1578
 3898              	.LBB24:
2042:Drivers/STM32F4xx_HAL_Driver/Src/stm32f4xx_hal_pcd.c ****   PCD_EPTypeDef *ep;
 3899              		.loc 1 2042 3 view .LVU1579
2043:Drivers/STM32F4xx_HAL_Driver/Src/stm32f4xx_hal_pcd.c **** 
 3900              		.loc 1 2043 3 view .LVU1580
2045:Drivers/STM32F4xx_HAL_Driver/Src/stm32f4xx_hal_pcd.c ****   {
 3901              		.loc 1 2045 3 view .LVU1581
2051:Drivers/STM32F4xx_HAL_Driver/Src/stm32f4xx_hal_pcd.c ****   }
 3902              		.loc 1 2051 5 view .LVU1582
2055:Drivers/STM32F4xx_HAL_Driver/Src/stm32f4xx_hal_pcd.c **** 
 3903              		.loc 1 2055 3 view .LVU1583
2055:Drivers/STM32F4xx_HAL_Driver/Src/stm32f4xx_hal_pcd.c **** 
 3904              		.loc 1 2055 9 is_stmt 0 view .LVU1584
 3905 09c0 2068     		ldr	r0, [r4]
 3906 09c2 04F55471 		add	r1, r4, #848
 3907              	.LVL325:
2055:Drivers/STM32F4xx_HAL_Driver/Src/stm32f4xx_hal_pcd.c **** 
 3908              		.loc 1 2055 9 view .LVU1585
 3909 09c6 FFF7FEFF 		bl	USB_EPStopXfer
 3910              	.LVL326:
ARM GAS  /tmp/ccDYdWST.s 			page 136


2057:Drivers/STM32F4xx_HAL_Driver/Src/stm32f4xx_hal_pcd.c **** }
 3911              		.loc 1 2057 3 is_stmt 1 view .LVU1586
2057:Drivers/STM32F4xx_HAL_Driver/Src/stm32f4xx_hal_pcd.c **** }
 3912              		.loc 1 2057 3 is_stmt 0 view .LVU1587
 3913              	.LBE24:
 3914              	.LBE119:
1440:Drivers/STM32F4xx_HAL_Driver/Src/stm32f4xx_hal_pcd.c ****       {
 3915              		.loc 1 1440 42 discriminator 1 view .LVU1588
 3916 09ca 2379     		ldrb	r3, [r4, #4]	@ zero_extendqisi2
 3917 09cc FFF7BFBB 		b	.L242
 3918              	.LVL327:
 3919              	.L385:
1457:Drivers/STM32F4xx_HAL_Driver/Src/stm32f4xx_hal_pcd.c ****             ((RegVal & USB_OTG_DIEPCTL_EPENA) == USB_OTG_DIEPCTL_EPENA))
 3920              		.loc 1 1457 55 discriminator 1 view .LVU1589
 3921 09d0 0029     		cmp	r1, #0
 3922 09d2 BFF66CAC 		bge	.L265
1460:Drivers/STM32F4xx_HAL_Driver/Src/stm32f4xx_hal_pcd.c **** 
 3923              		.loc 1 1460 11 is_stmt 1 view .LVU1590
 3924              	.LBB120:
 3925              	.LBB63:
2055:Drivers/STM32F4xx_HAL_Driver/Src/stm32f4xx_hal_pcd.c **** 
 3926              		.loc 1 2055 9 is_stmt 0 view .LVU1591
 3927 09d6 2068     		ldr	r0, [r4]
 3928              	.LBE63:
 3929              	.LBE120:
1460:Drivers/STM32F4xx_HAL_Driver/Src/stm32f4xx_hal_pcd.c **** 
 3930              		.loc 1 1460 48 view .LVU1592
 3931 09d8 84F8C721 		strb	r2, [r4, #455]
1463:Drivers/STM32F4xx_HAL_Driver/Src/stm32f4xx_hal_pcd.c ****         }
 3932              		.loc 1 1463 11 is_stmt 1 view .LVU1593
 3933              	.LVL328:
 3934              	.LBB121:
2040:Drivers/STM32F4xx_HAL_Driver/Src/stm32f4xx_hal_pcd.c **** {
 3935              		.loc 1 2040 19 view .LVU1594
 3936              	.LBB64:
2042:Drivers/STM32F4xx_HAL_Driver/Src/stm32f4xx_hal_pcd.c ****   PCD_EPTypeDef *ep;
 3937              		.loc 1 2042 3 view .LVU1595
2043:Drivers/STM32F4xx_HAL_Driver/Src/stm32f4xx_hal_pcd.c **** 
 3938              		.loc 1 2043 3 view .LVU1596
2045:Drivers/STM32F4xx_HAL_Driver/Src/stm32f4xx_hal_pcd.c ****   {
 3939              		.loc 1 2045 3 view .LVU1597
2047:Drivers/STM32F4xx_HAL_Driver/Src/stm32f4xx_hal_pcd.c ****   }
 3940              		.loc 1 2047 5 view .LVU1598
2055:Drivers/STM32F4xx_HAL_Driver/Src/stm32f4xx_hal_pcd.c **** 
 3941              		.loc 1 2055 3 view .LVU1599
2055:Drivers/STM32F4xx_HAL_Driver/Src/stm32f4xx_hal_pcd.c **** 
 3942              		.loc 1 2055 9 is_stmt 0 view .LVU1600
 3943 09dc 04F5E271 		add	r1, r4, #452
 3944              	.LVL329:
2055:Drivers/STM32F4xx_HAL_Driver/Src/stm32f4xx_hal_pcd.c **** 
 3945              		.loc 1 2055 9 view .LVU1601
 3946 09e0 FFF7FEFF 		bl	USB_EPStopXfer
 3947              	.LVL330:
2057:Drivers/STM32F4xx_HAL_Driver/Src/stm32f4xx_hal_pcd.c **** }
 3948              		.loc 1 2057 3 is_stmt 1 view .LVU1602
2057:Drivers/STM32F4xx_HAL_Driver/Src/stm32f4xx_hal_pcd.c **** }
 3949              		.loc 1 2057 3 is_stmt 0 view .LVU1603
ARM GAS  /tmp/ccDYdWST.s 			page 137


 3950              	.LBE64:
 3951              	.LBE121:
1453:Drivers/STM32F4xx_HAL_Driver/Src/stm32f4xx_hal_pcd.c ****       {
 3952              		.loc 1 1453 42 discriminator 1 view .LVU1604
 3953 09e4 2379     		ldrb	r3, [r4, #4]	@ zero_extendqisi2
 3954 09e6 62E4     		b	.L265
 3955              	.LVL331:
 3956              	.L366:
1445:Drivers/STM32F4xx_HAL_Driver/Src/stm32f4xx_hal_pcd.c ****         }
 3957              		.loc 1 1445 11 is_stmt 1 view .LVU1605
 3958              	.LBB122:
2040:Drivers/STM32F4xx_HAL_Driver/Src/stm32f4xx_hal_pcd.c **** {
 3959              		.loc 1 2040 19 view .LVU1606
 3960              	.LBB25:
2042:Drivers/STM32F4xx_HAL_Driver/Src/stm32f4xx_hal_pcd.c ****   PCD_EPTypeDef *ep;
 3961              		.loc 1 2042 3 view .LVU1607
2043:Drivers/STM32F4xx_HAL_Driver/Src/stm32f4xx_hal_pcd.c **** 
 3962              		.loc 1 2043 3 view .LVU1608
2045:Drivers/STM32F4xx_HAL_Driver/Src/stm32f4xx_hal_pcd.c ****   {
 3963              		.loc 1 2045 3 view .LVU1609
2051:Drivers/STM32F4xx_HAL_Driver/Src/stm32f4xx_hal_pcd.c ****   }
 3964              		.loc 1 2051 5 view .LVU1610
2055:Drivers/STM32F4xx_HAL_Driver/Src/stm32f4xx_hal_pcd.c **** 
 3965              		.loc 1 2055 3 view .LVU1611
2055:Drivers/STM32F4xx_HAL_Driver/Src/stm32f4xx_hal_pcd.c **** 
 3966              		.loc 1 2055 9 is_stmt 0 view .LVU1612
 3967 09e8 2068     		ldr	r0, [r4]
 3968 09ea 04F55D71 		add	r1, r4, #884
 3969              	.LVL332:
2055:Drivers/STM32F4xx_HAL_Driver/Src/stm32f4xx_hal_pcd.c **** 
 3970              		.loc 1 2055 9 view .LVU1613
 3971 09ee FFF7FEFF 		bl	USB_EPStopXfer
 3972              	.LVL333:
2057:Drivers/STM32F4xx_HAL_Driver/Src/stm32f4xx_hal_pcd.c **** }
 3973              		.loc 1 2057 3 is_stmt 1 view .LVU1614
2057:Drivers/STM32F4xx_HAL_Driver/Src/stm32f4xx_hal_pcd.c **** }
 3974              		.loc 1 2057 3 is_stmt 0 view .LVU1615
 3975              	.LBE25:
 3976              	.LBE122:
1440:Drivers/STM32F4xx_HAL_Driver/Src/stm32f4xx_hal_pcd.c ****       {
 3977              		.loc 1 1440 42 discriminator 1 view .LVU1616
 3978 09f2 2379     		ldrb	r3, [r4, #4]	@ zero_extendqisi2
 3979 09f4 FFF7B2BB 		b	.L243
 3980              	.LVL334:
 3981              	.L386:
1457:Drivers/STM32F4xx_HAL_Driver/Src/stm32f4xx_hal_pcd.c ****             ((RegVal & USB_OTG_DIEPCTL_EPENA) == USB_OTG_DIEPCTL_EPENA))
 3982              		.loc 1 1457 55 discriminator 1 view .LVU1617
 3983 09f8 0029     		cmp	r1, #0
 3984 09fa BFF661AC 		bge	.L266
1460:Drivers/STM32F4xx_HAL_Driver/Src/stm32f4xx_hal_pcd.c **** 
 3985              		.loc 1 1460 11 is_stmt 1 view .LVU1618
 3986              	.LBB123:
 3987              	.LBB65:
2055:Drivers/STM32F4xx_HAL_Driver/Src/stm32f4xx_hal_pcd.c **** 
 3988              		.loc 1 2055 9 is_stmt 0 view .LVU1619
 3989 09fe 2068     		ldr	r0, [r4]
 3990              	.LBE65:
ARM GAS  /tmp/ccDYdWST.s 			page 138


 3991              	.LBE123:
1460:Drivers/STM32F4xx_HAL_Driver/Src/stm32f4xx_hal_pcd.c **** 
 3992              		.loc 1 1460 48 view .LVU1620
 3993 0a00 84F8EB21 		strb	r2, [r4, #491]
1463:Drivers/STM32F4xx_HAL_Driver/Src/stm32f4xx_hal_pcd.c ****         }
 3994              		.loc 1 1463 11 is_stmt 1 view .LVU1621
 3995              	.LVL335:
 3996              	.LBB124:
2040:Drivers/STM32F4xx_HAL_Driver/Src/stm32f4xx_hal_pcd.c **** {
 3997              		.loc 1 2040 19 view .LVU1622
 3998              	.LBB66:
2042:Drivers/STM32F4xx_HAL_Driver/Src/stm32f4xx_hal_pcd.c ****   PCD_EPTypeDef *ep;
 3999              		.loc 1 2042 3 view .LVU1623
2043:Drivers/STM32F4xx_HAL_Driver/Src/stm32f4xx_hal_pcd.c **** 
 4000              		.loc 1 2043 3 view .LVU1624
2045:Drivers/STM32F4xx_HAL_Driver/Src/stm32f4xx_hal_pcd.c ****   {
 4001              		.loc 1 2045 3 view .LVU1625
2047:Drivers/STM32F4xx_HAL_Driver/Src/stm32f4xx_hal_pcd.c ****   }
 4002              		.loc 1 2047 5 view .LVU1626
2055:Drivers/STM32F4xx_HAL_Driver/Src/stm32f4xx_hal_pcd.c **** 
 4003              		.loc 1 2055 3 view .LVU1627
2055:Drivers/STM32F4xx_HAL_Driver/Src/stm32f4xx_hal_pcd.c **** 
 4004              		.loc 1 2055 9 is_stmt 0 view .LVU1628
 4005 0a04 04F5F471 		add	r1, r4, #488
 4006              	.LVL336:
2055:Drivers/STM32F4xx_HAL_Driver/Src/stm32f4xx_hal_pcd.c **** 
 4007              		.loc 1 2055 9 view .LVU1629
 4008 0a08 FFF7FEFF 		bl	USB_EPStopXfer
 4009              	.LVL337:
2057:Drivers/STM32F4xx_HAL_Driver/Src/stm32f4xx_hal_pcd.c **** }
 4010              		.loc 1 2057 3 is_stmt 1 view .LVU1630
2057:Drivers/STM32F4xx_HAL_Driver/Src/stm32f4xx_hal_pcd.c **** }
 4011              		.loc 1 2057 3 is_stmt 0 view .LVU1631
 4012              	.LBE66:
 4013              	.LBE124:
1453:Drivers/STM32F4xx_HAL_Driver/Src/stm32f4xx_hal_pcd.c ****       {
 4014              		.loc 1 1453 42 discriminator 1 view .LVU1632
 4015 0a0c 2379     		ldrb	r3, [r4, #4]	@ zero_extendqisi2
 4016 0a0e 57E4     		b	.L266
 4017              	.LVL338:
 4018              	.L367:
1445:Drivers/STM32F4xx_HAL_Driver/Src/stm32f4xx_hal_pcd.c ****         }
 4019              		.loc 1 1445 11 is_stmt 1 view .LVU1633
 4020              	.LBB125:
2040:Drivers/STM32F4xx_HAL_Driver/Src/stm32f4xx_hal_pcd.c **** {
 4021              		.loc 1 2040 19 view .LVU1634
 4022              	.LBB26:
2042:Drivers/STM32F4xx_HAL_Driver/Src/stm32f4xx_hal_pcd.c ****   PCD_EPTypeDef *ep;
 4023              		.loc 1 2042 3 view .LVU1635
2043:Drivers/STM32F4xx_HAL_Driver/Src/stm32f4xx_hal_pcd.c **** 
 4024              		.loc 1 2043 3 view .LVU1636
2045:Drivers/STM32F4xx_HAL_Driver/Src/stm32f4xx_hal_pcd.c ****   {
 4025              		.loc 1 2045 3 view .LVU1637
2051:Drivers/STM32F4xx_HAL_Driver/Src/stm32f4xx_hal_pcd.c ****   }
 4026              		.loc 1 2051 5 view .LVU1638
2055:Drivers/STM32F4xx_HAL_Driver/Src/stm32f4xx_hal_pcd.c **** 
 4027              		.loc 1 2055 3 view .LVU1639
ARM GAS  /tmp/ccDYdWST.s 			page 139


2055:Drivers/STM32F4xx_HAL_Driver/Src/stm32f4xx_hal_pcd.c **** 
 4028              		.loc 1 2055 9 is_stmt 0 view .LVU1640
 4029 0a10 2068     		ldr	r0, [r4]
 4030 0a12 04F56671 		add	r1, r4, #920
 4031              	.LVL339:
2055:Drivers/STM32F4xx_HAL_Driver/Src/stm32f4xx_hal_pcd.c **** 
 4032              		.loc 1 2055 9 view .LVU1641
 4033 0a16 FFF7FEFF 		bl	USB_EPStopXfer
 4034              	.LVL340:
2057:Drivers/STM32F4xx_HAL_Driver/Src/stm32f4xx_hal_pcd.c **** }
 4035              		.loc 1 2057 3 is_stmt 1 view .LVU1642
2057:Drivers/STM32F4xx_HAL_Driver/Src/stm32f4xx_hal_pcd.c **** }
 4036              		.loc 1 2057 3 is_stmt 0 view .LVU1643
 4037              	.LBE26:
 4038              	.LBE125:
1440:Drivers/STM32F4xx_HAL_Driver/Src/stm32f4xx_hal_pcd.c ****       {
 4039              		.loc 1 1440 42 discriminator 1 view .LVU1644
 4040 0a1a 2379     		ldrb	r3, [r4, #4]	@ zero_extendqisi2
 4041 0a1c FFF7A5BB 		b	.L244
 4042              	.LVL341:
 4043              	.L387:
1457:Drivers/STM32F4xx_HAL_Driver/Src/stm32f4xx_hal_pcd.c ****             ((RegVal & USB_OTG_DIEPCTL_EPENA) == USB_OTG_DIEPCTL_EPENA))
 4044              		.loc 1 1457 55 discriminator 1 view .LVU1645
 4045 0a20 0029     		cmp	r1, #0
 4046 0a22 BFF656AC 		bge	.L267
1460:Drivers/STM32F4xx_HAL_Driver/Src/stm32f4xx_hal_pcd.c **** 
 4047              		.loc 1 1460 11 is_stmt 1 view .LVU1646
 4048              	.LBB126:
 4049              	.LBB67:
2055:Drivers/STM32F4xx_HAL_Driver/Src/stm32f4xx_hal_pcd.c **** 
 4050              		.loc 1 2055 9 is_stmt 0 view .LVU1647
 4051 0a26 2068     		ldr	r0, [r4]
 4052              	.LBE67:
 4053              	.LBE126:
1460:Drivers/STM32F4xx_HAL_Driver/Src/stm32f4xx_hal_pcd.c **** 
 4054              		.loc 1 1460 48 view .LVU1648
 4055 0a28 84F80F22 		strb	r2, [r4, #527]
1463:Drivers/STM32F4xx_HAL_Driver/Src/stm32f4xx_hal_pcd.c ****         }
 4056              		.loc 1 1463 11 is_stmt 1 view .LVU1649
 4057              	.LVL342:
 4058              	.LBB127:
2040:Drivers/STM32F4xx_HAL_Driver/Src/stm32f4xx_hal_pcd.c **** {
 4059              		.loc 1 2040 19 view .LVU1650
 4060              	.LBB68:
2042:Drivers/STM32F4xx_HAL_Driver/Src/stm32f4xx_hal_pcd.c ****   PCD_EPTypeDef *ep;
 4061              		.loc 1 2042 3 view .LVU1651
2043:Drivers/STM32F4xx_HAL_Driver/Src/stm32f4xx_hal_pcd.c **** 
 4062              		.loc 1 2043 3 view .LVU1652
2045:Drivers/STM32F4xx_HAL_Driver/Src/stm32f4xx_hal_pcd.c ****   {
 4063              		.loc 1 2045 3 view .LVU1653
2047:Drivers/STM32F4xx_HAL_Driver/Src/stm32f4xx_hal_pcd.c ****   }
 4064              		.loc 1 2047 5 view .LVU1654
2055:Drivers/STM32F4xx_HAL_Driver/Src/stm32f4xx_hal_pcd.c **** 
 4065              		.loc 1 2055 3 view .LVU1655
2055:Drivers/STM32F4xx_HAL_Driver/Src/stm32f4xx_hal_pcd.c **** 
 4066              		.loc 1 2055 9 is_stmt 0 view .LVU1656
 4067 0a2c 04F50371 		add	r1, r4, #524
ARM GAS  /tmp/ccDYdWST.s 			page 140


 4068              	.LVL343:
2055:Drivers/STM32F4xx_HAL_Driver/Src/stm32f4xx_hal_pcd.c **** 
 4069              		.loc 1 2055 9 view .LVU1657
 4070 0a30 FFF7FEFF 		bl	USB_EPStopXfer
 4071              	.LVL344:
2057:Drivers/STM32F4xx_HAL_Driver/Src/stm32f4xx_hal_pcd.c **** }
 4072              		.loc 1 2057 3 is_stmt 1 view .LVU1658
2057:Drivers/STM32F4xx_HAL_Driver/Src/stm32f4xx_hal_pcd.c **** }
 4073              		.loc 1 2057 3 is_stmt 0 view .LVU1659
 4074              	.LBE68:
 4075              	.LBE127:
1453:Drivers/STM32F4xx_HAL_Driver/Src/stm32f4xx_hal_pcd.c ****       {
 4076              		.loc 1 1453 42 discriminator 1 view .LVU1660
 4077 0a34 2379     		ldrb	r3, [r4, #4]	@ zero_extendqisi2
 4078 0a36 4CE4     		b	.L267
 4079              	.LVL345:
 4080              	.L368:
1445:Drivers/STM32F4xx_HAL_Driver/Src/stm32f4xx_hal_pcd.c ****         }
 4081              		.loc 1 1445 11 is_stmt 1 view .LVU1661
 4082              	.LBB128:
2040:Drivers/STM32F4xx_HAL_Driver/Src/stm32f4xx_hal_pcd.c **** {
 4083              		.loc 1 2040 19 view .LVU1662
 4084              	.LBB27:
2042:Drivers/STM32F4xx_HAL_Driver/Src/stm32f4xx_hal_pcd.c ****   PCD_EPTypeDef *ep;
 4085              		.loc 1 2042 3 view .LVU1663
2043:Drivers/STM32F4xx_HAL_Driver/Src/stm32f4xx_hal_pcd.c **** 
 4086              		.loc 1 2043 3 view .LVU1664
2045:Drivers/STM32F4xx_HAL_Driver/Src/stm32f4xx_hal_pcd.c ****   {
 4087              		.loc 1 2045 3 view .LVU1665
2051:Drivers/STM32F4xx_HAL_Driver/Src/stm32f4xx_hal_pcd.c ****   }
 4088              		.loc 1 2051 5 view .LVU1666
2055:Drivers/STM32F4xx_HAL_Driver/Src/stm32f4xx_hal_pcd.c **** 
 4089              		.loc 1 2055 3 view .LVU1667
2055:Drivers/STM32F4xx_HAL_Driver/Src/stm32f4xx_hal_pcd.c **** 
 4090              		.loc 1 2055 9 is_stmt 0 view .LVU1668
 4091 0a38 2068     		ldr	r0, [r4]
 4092 0a3a 04F56F71 		add	r1, r4, #956
 4093              	.LVL346:
2055:Drivers/STM32F4xx_HAL_Driver/Src/stm32f4xx_hal_pcd.c **** 
 4094              		.loc 1 2055 9 view .LVU1669
 4095 0a3e FFF7FEFF 		bl	USB_EPStopXfer
 4096              	.LVL347:
2057:Drivers/STM32F4xx_HAL_Driver/Src/stm32f4xx_hal_pcd.c **** }
 4097              		.loc 1 2057 3 is_stmt 1 view .LVU1670
2057:Drivers/STM32F4xx_HAL_Driver/Src/stm32f4xx_hal_pcd.c **** }
 4098              		.loc 1 2057 3 is_stmt 0 view .LVU1671
 4099              	.LBE27:
 4100              	.LBE128:
1440:Drivers/STM32F4xx_HAL_Driver/Src/stm32f4xx_hal_pcd.c ****       {
 4101              		.loc 1 1440 42 discriminator 1 view .LVU1672
 4102 0a42 2379     		ldrb	r3, [r4, #4]	@ zero_extendqisi2
 4103 0a44 FFF798BB 		b	.L245
 4104              	.LVL348:
 4105              	.L388:
1457:Drivers/STM32F4xx_HAL_Driver/Src/stm32f4xx_hal_pcd.c ****             ((RegVal & USB_OTG_DIEPCTL_EPENA) == USB_OTG_DIEPCTL_EPENA))
 4106              		.loc 1 1457 55 discriminator 1 view .LVU1673
 4107 0a48 0029     		cmp	r1, #0
ARM GAS  /tmp/ccDYdWST.s 			page 141


 4108 0a4a BFF64BAC 		bge	.L268
1460:Drivers/STM32F4xx_HAL_Driver/Src/stm32f4xx_hal_pcd.c **** 
 4109              		.loc 1 1460 11 is_stmt 1 view .LVU1674
 4110              	.LBB129:
 4111              	.LBB69:
2055:Drivers/STM32F4xx_HAL_Driver/Src/stm32f4xx_hal_pcd.c **** 
 4112              		.loc 1 2055 9 is_stmt 0 view .LVU1675
 4113 0a4e 2068     		ldr	r0, [r4]
 4114              	.LBE69:
 4115              	.LBE129:
1460:Drivers/STM32F4xx_HAL_Driver/Src/stm32f4xx_hal_pcd.c **** 
 4116              		.loc 1 1460 48 view .LVU1676
 4117 0a50 84F83322 		strb	r2, [r4, #563]
1463:Drivers/STM32F4xx_HAL_Driver/Src/stm32f4xx_hal_pcd.c ****         }
 4118              		.loc 1 1463 11 is_stmt 1 view .LVU1677
 4119              	.LVL349:
 4120              	.LBB130:
2040:Drivers/STM32F4xx_HAL_Driver/Src/stm32f4xx_hal_pcd.c **** {
 4121              		.loc 1 2040 19 view .LVU1678
 4122              	.LBB70:
2042:Drivers/STM32F4xx_HAL_Driver/Src/stm32f4xx_hal_pcd.c ****   PCD_EPTypeDef *ep;
 4123              		.loc 1 2042 3 view .LVU1679
2043:Drivers/STM32F4xx_HAL_Driver/Src/stm32f4xx_hal_pcd.c **** 
 4124              		.loc 1 2043 3 view .LVU1680
2045:Drivers/STM32F4xx_HAL_Driver/Src/stm32f4xx_hal_pcd.c ****   {
 4125              		.loc 1 2045 3 view .LVU1681
2047:Drivers/STM32F4xx_HAL_Driver/Src/stm32f4xx_hal_pcd.c ****   }
 4126              		.loc 1 2047 5 view .LVU1682
2055:Drivers/STM32F4xx_HAL_Driver/Src/stm32f4xx_hal_pcd.c **** 
 4127              		.loc 1 2055 3 view .LVU1683
2055:Drivers/STM32F4xx_HAL_Driver/Src/stm32f4xx_hal_pcd.c **** 
 4128              		.loc 1 2055 9 is_stmt 0 view .LVU1684
 4129 0a54 04F50C71 		add	r1, r4, #560
 4130              	.LVL350:
2055:Drivers/STM32F4xx_HAL_Driver/Src/stm32f4xx_hal_pcd.c **** 
 4131              		.loc 1 2055 9 view .LVU1685
 4132 0a58 FFF7FEFF 		bl	USB_EPStopXfer
 4133              	.LVL351:
2057:Drivers/STM32F4xx_HAL_Driver/Src/stm32f4xx_hal_pcd.c **** }
 4134              		.loc 1 2057 3 is_stmt 1 view .LVU1686
2057:Drivers/STM32F4xx_HAL_Driver/Src/stm32f4xx_hal_pcd.c **** }
 4135              		.loc 1 2057 3 is_stmt 0 view .LVU1687
 4136              	.LBE70:
 4137              	.LBE130:
1453:Drivers/STM32F4xx_HAL_Driver/Src/stm32f4xx_hal_pcd.c ****       {
 4138              		.loc 1 1453 42 discriminator 1 view .LVU1688
 4139 0a5c 2379     		ldrb	r3, [r4, #4]	@ zero_extendqisi2
 4140 0a5e 41E4     		b	.L268
 4141              	.LVL352:
 4142              	.L369:
1445:Drivers/STM32F4xx_HAL_Driver/Src/stm32f4xx_hal_pcd.c ****         }
 4143              		.loc 1 1445 11 is_stmt 1 view .LVU1689
 4144              	.LBB131:
2040:Drivers/STM32F4xx_HAL_Driver/Src/stm32f4xx_hal_pcd.c **** {
 4145              		.loc 1 2040 19 view .LVU1690
 4146              	.LBB28:
2042:Drivers/STM32F4xx_HAL_Driver/Src/stm32f4xx_hal_pcd.c ****   PCD_EPTypeDef *ep;
ARM GAS  /tmp/ccDYdWST.s 			page 142


 4147              		.loc 1 2042 3 view .LVU1691
2043:Drivers/STM32F4xx_HAL_Driver/Src/stm32f4xx_hal_pcd.c **** 
 4148              		.loc 1 2043 3 view .LVU1692
2045:Drivers/STM32F4xx_HAL_Driver/Src/stm32f4xx_hal_pcd.c ****   {
 4149              		.loc 1 2045 3 view .LVU1693
2051:Drivers/STM32F4xx_HAL_Driver/Src/stm32f4xx_hal_pcd.c ****   }
 4150              		.loc 1 2051 5 view .LVU1694
2055:Drivers/STM32F4xx_HAL_Driver/Src/stm32f4xx_hal_pcd.c **** 
 4151              		.loc 1 2055 3 view .LVU1695
2055:Drivers/STM32F4xx_HAL_Driver/Src/stm32f4xx_hal_pcd.c **** 
 4152              		.loc 1 2055 9 is_stmt 0 view .LVU1696
 4153 0a60 2068     		ldr	r0, [r4]
 4154 0a62 04F57871 		add	r1, r4, #992
 4155              	.LVL353:
2055:Drivers/STM32F4xx_HAL_Driver/Src/stm32f4xx_hal_pcd.c **** 
 4156              		.loc 1 2055 9 view .LVU1697
 4157 0a66 FFF7FEFF 		bl	USB_EPStopXfer
 4158              	.LVL354:
2057:Drivers/STM32F4xx_HAL_Driver/Src/stm32f4xx_hal_pcd.c **** }
 4159              		.loc 1 2057 3 is_stmt 1 view .LVU1698
2057:Drivers/STM32F4xx_HAL_Driver/Src/stm32f4xx_hal_pcd.c **** }
 4160              		.loc 1 2057 3 is_stmt 0 view .LVU1699
 4161              	.LBE28:
 4162              	.LBE131:
1440:Drivers/STM32F4xx_HAL_Driver/Src/stm32f4xx_hal_pcd.c ****       {
 4163              		.loc 1 1440 42 discriminator 1 view .LVU1700
 4164 0a6a 2379     		ldrb	r3, [r4, #4]	@ zero_extendqisi2
 4165 0a6c FFF78BBB 		b	.L246
 4166              	.L406:
 4167              		.align	2
 4168              	.L405:
 4169 0a70 0A30544F 		.word	1330917386
 4170 0a74 0A31544F 		.word	1330917642
 4171              	.LVL355:
 4172              	.L370:
1445:Drivers/STM32F4xx_HAL_Driver/Src/stm32f4xx_hal_pcd.c ****         }
 4173              		.loc 1 1445 11 is_stmt 1 view .LVU1701
 4174              	.LBB132:
2040:Drivers/STM32F4xx_HAL_Driver/Src/stm32f4xx_hal_pcd.c **** {
 4175              		.loc 1 2040 19 view .LVU1702
 4176              	.LBB29:
2042:Drivers/STM32F4xx_HAL_Driver/Src/stm32f4xx_hal_pcd.c ****   PCD_EPTypeDef *ep;
 4177              		.loc 1 2042 3 view .LVU1703
2043:Drivers/STM32F4xx_HAL_Driver/Src/stm32f4xx_hal_pcd.c **** 
 4178              		.loc 1 2043 3 view .LVU1704
2045:Drivers/STM32F4xx_HAL_Driver/Src/stm32f4xx_hal_pcd.c ****   {
 4179              		.loc 1 2045 3 view .LVU1705
2051:Drivers/STM32F4xx_HAL_Driver/Src/stm32f4xx_hal_pcd.c ****   }
 4180              		.loc 1 2051 5 view .LVU1706
2055:Drivers/STM32F4xx_HAL_Driver/Src/stm32f4xx_hal_pcd.c **** 
 4181              		.loc 1 2055 3 view .LVU1707
2055:Drivers/STM32F4xx_HAL_Driver/Src/stm32f4xx_hal_pcd.c **** 
 4182              		.loc 1 2055 9 is_stmt 0 view .LVU1708
 4183 0a78 2068     		ldr	r0, [r4]
 4184 0a7a 04F20441 		addw	r1, r4, #1028
 4185              	.LVL356:
2055:Drivers/STM32F4xx_HAL_Driver/Src/stm32f4xx_hal_pcd.c **** 
ARM GAS  /tmp/ccDYdWST.s 			page 143


 4186              		.loc 1 2055 9 view .LVU1709
 4187 0a7e FFF7FEFF 		bl	USB_EPStopXfer
 4188              	.LVL357:
2057:Drivers/STM32F4xx_HAL_Driver/Src/stm32f4xx_hal_pcd.c **** }
 4189              		.loc 1 2057 3 is_stmt 1 view .LVU1710
2057:Drivers/STM32F4xx_HAL_Driver/Src/stm32f4xx_hal_pcd.c **** }
 4190              		.loc 1 2057 3 is_stmt 0 view .LVU1711
 4191              	.LBE29:
 4192              	.LBE132:
1440:Drivers/STM32F4xx_HAL_Driver/Src/stm32f4xx_hal_pcd.c ****       {
 4193              		.loc 1 1440 42 discriminator 1 view .LVU1712
 4194 0a82 2379     		ldrb	r3, [r4, #4]	@ zero_extendqisi2
 4195 0a84 FFF786BB 		b	.L247
 4196              	.LVL358:
 4197              	.L172:
 4198              	.LBB133:
 4199              	.LBB91:
2264:Drivers/STM32F4xx_HAL_Driver/Src/stm32f4xx_hal_pcd.c ****     {
 4200              		.loc 1 2264 10 is_stmt 1 view .LVU1713
2267:Drivers/STM32F4xx_HAL_Driver/Src/stm32f4xx_hal_pcd.c ****           ((DoepintReg & USB_OTG_DOEPINT_STPKTRX) == USB_OTG_DOEPINT_STPKTRX))
 4201              		.loc 1 2267 7 view .LVU1714
2267:Drivers/STM32F4xx_HAL_Driver/Src/stm32f4xx_hal_pcd.c ****           ((DoepintReg & USB_OTG_DOEPINT_STPKTRX) == USB_OTG_DOEPINT_STPKTRX))
 4202              		.loc 1 2267 10 is_stmt 0 view .LVU1715
 4203 0a88 1B49     		ldr	r1, .L407
 4204 0a8a 8E45     		cmp	lr, r1
 4205 0a8c 02D9     		bls	.L173
2267:Drivers/STM32F4xx_HAL_Driver/Src/stm32f4xx_hal_pcd.c ****           ((DoepintReg & USB_OTG_DOEPINT_STPKTRX) == USB_OTG_DOEPINT_STPKTRX))
 4206              		.loc 1 2267 44 discriminator 1 view .LVU1716
 4207 0a8e 1B04     		lsls	r3, r3, #16
 4208              	.LVL359:
2267:Drivers/STM32F4xx_HAL_Driver/Src/stm32f4xx_hal_pcd.c ****           ((DoepintReg & USB_OTG_DOEPINT_STPKTRX) == USB_OTG_DOEPINT_STPKTRX))
 4209              		.loc 1 2267 44 discriminator 1 view .LVU1717
 4210 0a90 3FF5FBAE 		bmi	.L353
 4211              	.L173:
2274:Drivers/STM32F4xx_HAL_Driver/Src/stm32f4xx_hal_pcd.c **** 
 4212              		.loc 1 2274 9 is_stmt 1 view .LVU1718
 4213              	.LVL360:
2277:Drivers/STM32F4xx_HAL_Driver/Src/stm32f4xx_hal_pcd.c **** 
 4214              		.loc 1 2277 9 view .LVU1719
2277:Drivers/STM32F4xx_HAL_Driver/Src/stm32f4xx_hal_pcd.c **** 
 4215              		.loc 1 2277 60 is_stmt 0 view .LVU1720
 4216 0a94 1169     		ldr	r1, [r2, #16]
2277:Drivers/STM32F4xx_HAL_Driver/Src/stm32f4xx_hal_pcd.c **** 
 4217              		.loc 1 2277 40 view .LVU1721
 4218 0a96 DBF87422 		ldr	r2, [fp, #628]
2277:Drivers/STM32F4xx_HAL_Driver/Src/stm32f4xx_hal_pcd.c **** 
 4219              		.loc 1 2277 71 view .LVU1722
 4220 0a9a C1F31201 		ubfx	r1, r1, #0, #19
2277:Drivers/STM32F4xx_HAL_Driver/Src/stm32f4xx_hal_pcd.c **** 
 4221              		.loc 1 2277 40 view .LVU1723
 4222 0a9e 521A     		subs	r2, r2, r1
2277:Drivers/STM32F4xx_HAL_Driver/Src/stm32f4xx_hal_pcd.c **** 
 4223              		.loc 1 2277 24 view .LVU1724
 4224 0aa0 CBF86822 		str	r2, [fp, #616]
2279:Drivers/STM32F4xx_HAL_Driver/Src/stm32f4xx_hal_pcd.c ****         {
 4225              		.loc 1 2279 9 is_stmt 1 view .LVU1725
2279:Drivers/STM32F4xx_HAL_Driver/Src/stm32f4xx_hal_pcd.c ****         {
ARM GAS  /tmp/ccDYdWST.s 			page 144


 4226              		.loc 1 2279 12 is_stmt 0 view .LVU1726
 4227 0aa4 BAF1000F 		cmp	r10, #0
 4228 0aa8 7FF489AE 		bne	.L179
2281:Drivers/STM32F4xx_HAL_Driver/Src/stm32f4xx_hal_pcd.c ****           {
 4229              		.loc 1 2281 11 is_stmt 1 view .LVU1727
2281:Drivers/STM32F4xx_HAL_Driver/Src/stm32f4xx_hal_pcd.c ****           {
 4230              		.loc 1 2281 14 is_stmt 0 view .LVU1728
 4231 0aac D5F86412 		ldr	r1, [r5, #612]
 4232 0ab0 D9B1     		cbz	r1, .L404
2288:Drivers/STM32F4xx_HAL_Driver/Src/stm32f4xx_hal_pcd.c ****           }
 4233              		.loc 1 2288 13 is_stmt 1 view .LVU1729
2288:Drivers/STM32F4xx_HAL_Driver/Src/stm32f4xx_hal_pcd.c ****           }
 4234              		.loc 1 2288 27 is_stmt 0 view .LVU1730
 4235 0ab2 D5F86012 		ldr	r1, [r5, #608]
 4236 0ab6 1144     		add	r1, r1, r2
 4237 0ab8 C5F86012 		str	r1, [r5, #608]
2295:Drivers/STM32F4xx_HAL_Driver/Src/stm32f4xx_hal_pcd.c **** #endif /* USE_HAL_PCD_REGISTER_CALLBACKS */
 4238              		.loc 1 2295 9 is_stmt 1 view .LVU1731
 4239 0abc 7FE6     		b	.L179
 4240              	.LVL361:
 4241              	.L371:
2295:Drivers/STM32F4xx_HAL_Driver/Src/stm32f4xx_hal_pcd.c **** #endif /* USE_HAL_PCD_REGISTER_CALLBACKS */
 4242              		.loc 1 2295 9 is_stmt 0 view .LVU1732
 4243              	.LBE91:
 4244              	.LBE133:
1445:Drivers/STM32F4xx_HAL_Driver/Src/stm32f4xx_hal_pcd.c ****         }
 4245              		.loc 1 1445 11 is_stmt 1 view .LVU1733
 4246              	.LBB134:
2040:Drivers/STM32F4xx_HAL_Driver/Src/stm32f4xx_hal_pcd.c **** {
 4247              		.loc 1 2040 19 view .LVU1734
 4248              	.LBB30:
2042:Drivers/STM32F4xx_HAL_Driver/Src/stm32f4xx_hal_pcd.c ****   PCD_EPTypeDef *ep;
 4249              		.loc 1 2042 3 view .LVU1735
2043:Drivers/STM32F4xx_HAL_Driver/Src/stm32f4xx_hal_pcd.c **** 
 4250              		.loc 1 2043 3 view .LVU1736
2045:Drivers/STM32F4xx_HAL_Driver/Src/stm32f4xx_hal_pcd.c ****   {
 4251              		.loc 1 2045 3 view .LVU1737
2051:Drivers/STM32F4xx_HAL_Driver/Src/stm32f4xx_hal_pcd.c ****   }
 4252              		.loc 1 2051 5 view .LVU1738
2055:Drivers/STM32F4xx_HAL_Driver/Src/stm32f4xx_hal_pcd.c **** 
 4253              		.loc 1 2055 3 view .LVU1739
2055:Drivers/STM32F4xx_HAL_Driver/Src/stm32f4xx_hal_pcd.c **** 
 4254              		.loc 1 2055 9 is_stmt 0 view .LVU1740
 4255 0abe 2068     		ldr	r0, [r4]
 4256 0ac0 04F58561 		add	r1, r4, #1064
 4257              	.LVL362:
2055:Drivers/STM32F4xx_HAL_Driver/Src/stm32f4xx_hal_pcd.c **** 
 4258              		.loc 1 2055 9 view .LVU1741
 4259 0ac4 FFF7FEFF 		bl	USB_EPStopXfer
 4260              	.LVL363:
2057:Drivers/STM32F4xx_HAL_Driver/Src/stm32f4xx_hal_pcd.c **** }
 4261              		.loc 1 2057 3 is_stmt 1 view .LVU1742
2057:Drivers/STM32F4xx_HAL_Driver/Src/stm32f4xx_hal_pcd.c **** }
 4262              		.loc 1 2057 3 is_stmt 0 view .LVU1743
 4263              	.LBE30:
 4264              	.LBE134:
1440:Drivers/STM32F4xx_HAL_Driver/Src/stm32f4xx_hal_pcd.c ****       {
ARM GAS  /tmp/ccDYdWST.s 			page 145


 4265              		.loc 1 1440 42 discriminator 1 view .LVU1744
 4266 0ac8 2379     		ldrb	r3, [r4, #4]	@ zero_extendqisi2
 4267 0aca FFF76ABB 		b	.L248
 4268              	.LVL364:
 4269              	.L402:
 4270              	.LBB135:
 4271              	.LBB92:
2332:Drivers/STM32F4xx_HAL_Driver/Src/stm32f4xx_hal_pcd.c ****       }
 4272              		.loc 1 2332 9 is_stmt 1 view .LVU1745
2332:Drivers/STM32F4xx_HAL_Driver/Src/stm32f4xx_hal_pcd.c ****       }
 4273              		.loc 1 2332 15 is_stmt 0 view .LVU1746
 4274 0ace 05F29C42 		addw	r2, r5, #1180
 4275 0ad2 5146     		mov	r1, r10
 4276 0ad4 FFF7FEFF 		bl	USB_EP0_OutStart
 4277              	.LVL365:
2332:Drivers/STM32F4xx_HAL_Driver/Src/stm32f4xx_hal_pcd.c ****       }
 4278              		.loc 1 2332 15 view .LVU1747
 4279 0ad8 71E6     		b	.L179
 4280              	.LVL366:
 4281              	.L372:
2332:Drivers/STM32F4xx_HAL_Driver/Src/stm32f4xx_hal_pcd.c ****       }
 4282              		.loc 1 2332 15 view .LVU1748
 4283              	.LBE92:
 4284              	.LBE135:
1445:Drivers/STM32F4xx_HAL_Driver/Src/stm32f4xx_hal_pcd.c ****         }
 4285              		.loc 1 1445 11 is_stmt 1 view .LVU1749
 4286              	.LBB136:
2040:Drivers/STM32F4xx_HAL_Driver/Src/stm32f4xx_hal_pcd.c **** {
 4287              		.loc 1 2040 19 view .LVU1750
 4288              	.LBB31:
2042:Drivers/STM32F4xx_HAL_Driver/Src/stm32f4xx_hal_pcd.c ****   PCD_EPTypeDef *ep;
 4289              		.loc 1 2042 3 view .LVU1751
2043:Drivers/STM32F4xx_HAL_Driver/Src/stm32f4xx_hal_pcd.c **** 
 4290              		.loc 1 2043 3 view .LVU1752
2045:Drivers/STM32F4xx_HAL_Driver/Src/stm32f4xx_hal_pcd.c ****   {
 4291              		.loc 1 2045 3 view .LVU1753
2051:Drivers/STM32F4xx_HAL_Driver/Src/stm32f4xx_hal_pcd.c ****   }
 4292              		.loc 1 2051 5 view .LVU1754
2055:Drivers/STM32F4xx_HAL_Driver/Src/stm32f4xx_hal_pcd.c **** 
 4293              		.loc 1 2055 3 view .LVU1755
2055:Drivers/STM32F4xx_HAL_Driver/Src/stm32f4xx_hal_pcd.c **** 
 4294              		.loc 1 2055 9 is_stmt 0 view .LVU1756
 4295 0ada 2068     		ldr	r0, [r4]
 4296 0adc 04F24C41 		addw	r1, r4, #1100
 4297              	.LVL367:
2055:Drivers/STM32F4xx_HAL_Driver/Src/stm32f4xx_hal_pcd.c **** 
 4298              		.loc 1 2055 9 view .LVU1757
 4299 0ae0 FFF7FEFF 		bl	USB_EPStopXfer
 4300              	.LVL368:
2057:Drivers/STM32F4xx_HAL_Driver/Src/stm32f4xx_hal_pcd.c **** }
 4301              		.loc 1 2057 3 is_stmt 1 view .LVU1758
2057:Drivers/STM32F4xx_HAL_Driver/Src/stm32f4xx_hal_pcd.c **** }
 4302              		.loc 1 2057 3 is_stmt 0 view .LVU1759
 4303              	.LBE31:
 4304              	.LBE136:
1440:Drivers/STM32F4xx_HAL_Driver/Src/stm32f4xx_hal_pcd.c ****       {
 4305              		.loc 1 1440 42 discriminator 1 view .LVU1760
ARM GAS  /tmp/ccDYdWST.s 			page 146


 4306 0ae4 2379     		ldrb	r3, [r4, #4]	@ zero_extendqisi2
 4307 0ae6 FFF763BB 		b	.L249
 4308              	.LVL369:
 4309              	.L404:
 4310              	.LBB137:
 4311              	.LBB93:
2284:Drivers/STM32F4xx_HAL_Driver/Src/stm32f4xx_hal_pcd.c ****           }
 4312              		.loc 1 2284 13 is_stmt 1 view .LVU1761
2284:Drivers/STM32F4xx_HAL_Driver/Src/stm32f4xx_hal_pcd.c ****           }
 4313              		.loc 1 2284 19 is_stmt 0 view .LVU1762
 4314 0aea 05F29C42 		addw	r2, r5, #1180
 4315 0aee 0121     		movs	r1, #1
 4316 0af0 FFF7FEFF 		bl	USB_EP0_OutStart
 4317              	.LVL370:
2284:Drivers/STM32F4xx_HAL_Driver/Src/stm32f4xx_hal_pcd.c ****           }
 4318              		.loc 1 2284 19 view .LVU1763
 4319 0af4 63E6     		b	.L179
 4320              	.L408:
 4321 0af6 00BF     		.align	2
 4322              	.L407:
 4323 0af8 0A30544F 		.word	1330917386
 4324              	.LBE93:
 4325              	.LBE137:
 4326              		.cfi_endproc
 4327              	.LFE140:
 4329              		.section	.text.HAL_PCD_DevConnect,"ax",%progbits
 4330              		.align	1
 4331              		.p2align 2,,3
 4332              		.global	HAL_PCD_DevConnect
 4333              		.syntax unified
 4334              		.thumb
 4335              		.thumb_func
 4337              	HAL_PCD_DevConnect:
 4338              	.LVL371:
 4339              	.LFB153:
1750:Drivers/STM32F4xx_HAL_Driver/Src/stm32f4xx_hal_pcd.c ****   USB_OTG_GlobalTypeDef *USBx = hpcd->Instance;
 4340              		.loc 1 1750 1 is_stmt 1 view -0
 4341              		.cfi_startproc
 4342              		@ args = 0, pretend = 0, frame = 0
 4343              		@ frame_needed = 0, uses_anonymous_args = 0
1751:Drivers/STM32F4xx_HAL_Driver/Src/stm32f4xx_hal_pcd.c **** 
 4344              		.loc 1 1751 3 view .LVU1765
1750:Drivers/STM32F4xx_HAL_Driver/Src/stm32f4xx_hal_pcd.c ****   USB_OTG_GlobalTypeDef *USBx = hpcd->Instance;
 4345              		.loc 1 1750 1 is_stmt 0 view .LVU1766
 4346 0000 10B5     		push	{r4, lr}
 4347              	.LCFI13:
 4348              		.cfi_def_cfa_offset 8
 4349              		.cfi_offset 4, -8
 4350              		.cfi_offset 14, -4
1753:Drivers/STM32F4xx_HAL_Driver/Src/stm32f4xx_hal_pcd.c **** 
 4351              		.loc 1 1753 3 view .LVU1767
 4352 0002 90F89434 		ldrb	r3, [r0, #1172]	@ zero_extendqisi2
 4353 0006 012B     		cmp	r3, #1
1750:Drivers/STM32F4xx_HAL_Driver/Src/stm32f4xx_hal_pcd.c ****   USB_OTG_GlobalTypeDef *USBx = hpcd->Instance;
 4354              		.loc 1 1750 1 view .LVU1768
 4355 0008 0446     		mov	r4, r0
1751:Drivers/STM32F4xx_HAL_Driver/Src/stm32f4xx_hal_pcd.c **** 
ARM GAS  /tmp/ccDYdWST.s 			page 147


 4356              		.loc 1 1751 26 view .LVU1769
 4357 000a 0068     		ldr	r0, [r0]
 4358              	.LVL372:
1753:Drivers/STM32F4xx_HAL_Driver/Src/stm32f4xx_hal_pcd.c **** 
 4359              		.loc 1 1753 3 is_stmt 1 view .LVU1770
1753:Drivers/STM32F4xx_HAL_Driver/Src/stm32f4xx_hal_pcd.c **** 
 4360              		.loc 1 1753 3 view .LVU1771
 4361 000c 1AD0     		beq	.L412
1753:Drivers/STM32F4xx_HAL_Driver/Src/stm32f4xx_hal_pcd.c **** 
 4362              		.loc 1 1753 3 discriminator 2 view .LVU1772
 4363 000e 0123     		movs	r3, #1
 4364 0010 84F89434 		strb	r3, [r4, #1172]
1753:Drivers/STM32F4xx_HAL_Driver/Src/stm32f4xx_hal_pcd.c **** 
 4365              		.loc 1 1753 3 discriminator 2 view .LVU1773
1755:Drivers/STM32F4xx_HAL_Driver/Src/stm32f4xx_hal_pcd.c ****       (hpcd->Init.battery_charging_enable == 1U))
 4366              		.loc 1 1755 3 view .LVU1774
1755:Drivers/STM32F4xx_HAL_Driver/Src/stm32f4xx_hal_pcd.c ****       (hpcd->Init.battery_charging_enable == 1U))
 4367              		.loc 1 1755 13 is_stmt 0 view .LVU1775
 4368 0014 C368     		ldr	r3, [r0, #12]
1755:Drivers/STM32F4xx_HAL_Driver/Src/stm32f4xx_hal_pcd.c ****       (hpcd->Init.battery_charging_enable == 1U))
 4369              		.loc 1 1755 6 view .LVU1776
 4370 0016 5B06     		lsls	r3, r3, #25
 4371 0018 02D5     		bpl	.L411
1755:Drivers/STM32F4xx_HAL_Driver/Src/stm32f4xx_hal_pcd.c ****       (hpcd->Init.battery_charging_enable == 1U))
 4372              		.loc 1 1755 56 discriminator 1 view .LVU1777
 4373 001a 637B     		ldrb	r3, [r4, #13]	@ zero_extendqisi2
 4374 001c 012B     		cmp	r3, #1
 4375 001e 06D0     		beq	.L417
 4376              	.L411:
1761:Drivers/STM32F4xx_HAL_Driver/Src/stm32f4xx_hal_pcd.c ****   __HAL_UNLOCK(hpcd);
 4377              		.loc 1 1761 3 is_stmt 1 view .LVU1778
1761:Drivers/STM32F4xx_HAL_Driver/Src/stm32f4xx_hal_pcd.c ****   __HAL_UNLOCK(hpcd);
 4378              		.loc 1 1761 9 is_stmt 0 view .LVU1779
 4379 0020 FFF7FEFF 		bl	USB_DevConnect
 4380              	.LVL373:
1762:Drivers/STM32F4xx_HAL_Driver/Src/stm32f4xx_hal_pcd.c **** 
 4381              		.loc 1 1762 3 is_stmt 1 view .LVU1780
1762:Drivers/STM32F4xx_HAL_Driver/Src/stm32f4xx_hal_pcd.c **** 
 4382              		.loc 1 1762 3 view .LVU1781
 4383 0024 0023     		movs	r3, #0
1764:Drivers/STM32F4xx_HAL_Driver/Src/stm32f4xx_hal_pcd.c **** }
 4384              		.loc 1 1764 10 is_stmt 0 view .LVU1782
 4385 0026 1846     		mov	r0, r3
1762:Drivers/STM32F4xx_HAL_Driver/Src/stm32f4xx_hal_pcd.c **** 
 4386              		.loc 1 1762 3 view .LVU1783
 4387 0028 84F89434 		strb	r3, [r4, #1172]
1762:Drivers/STM32F4xx_HAL_Driver/Src/stm32f4xx_hal_pcd.c **** 
 4388              		.loc 1 1762 3 is_stmt 1 view .LVU1784
1764:Drivers/STM32F4xx_HAL_Driver/Src/stm32f4xx_hal_pcd.c **** }
 4389              		.loc 1 1764 3 view .LVU1785
 4390              	.L410:
1765:Drivers/STM32F4xx_HAL_Driver/Src/stm32f4xx_hal_pcd.c **** 
 4391              		.loc 1 1765 1 is_stmt 0 view .LVU1786
 4392 002c 10BD     		pop	{r4, pc}
 4393              	.LVL374:
 4394              	.L417:
1759:Drivers/STM32F4xx_HAL_Driver/Src/stm32f4xx_hal_pcd.c ****   }
ARM GAS  /tmp/ccDYdWST.s 			page 148


 4395              		.loc 1 1759 5 is_stmt 1 view .LVU1787
1759:Drivers/STM32F4xx_HAL_Driver/Src/stm32f4xx_hal_pcd.c ****   }
 4396              		.loc 1 1759 9 is_stmt 0 view .LVU1788
 4397 002e 836B     		ldr	r3, [r0, #56]
1759:Drivers/STM32F4xx_HAL_Driver/Src/stm32f4xx_hal_pcd.c ****   }
 4398              		.loc 1 1759 17 view .LVU1789
 4399 0030 43F48033 		orr	r3, r3, #65536
 4400 0034 8363     		str	r3, [r0, #56]
1761:Drivers/STM32F4xx_HAL_Driver/Src/stm32f4xx_hal_pcd.c ****   __HAL_UNLOCK(hpcd);
 4401              		.loc 1 1761 3 is_stmt 1 view .LVU1790
1761:Drivers/STM32F4xx_HAL_Driver/Src/stm32f4xx_hal_pcd.c ****   __HAL_UNLOCK(hpcd);
 4402              		.loc 1 1761 9 is_stmt 0 view .LVU1791
 4403 0036 FFF7FEFF 		bl	USB_DevConnect
 4404              	.LVL375:
1762:Drivers/STM32F4xx_HAL_Driver/Src/stm32f4xx_hal_pcd.c **** 
 4405              		.loc 1 1762 3 is_stmt 1 view .LVU1792
1762:Drivers/STM32F4xx_HAL_Driver/Src/stm32f4xx_hal_pcd.c **** 
 4406              		.loc 1 1762 3 view .LVU1793
 4407 003a 0023     		movs	r3, #0
1764:Drivers/STM32F4xx_HAL_Driver/Src/stm32f4xx_hal_pcd.c **** }
 4408              		.loc 1 1764 10 is_stmt 0 view .LVU1794
 4409 003c 1846     		mov	r0, r3
1762:Drivers/STM32F4xx_HAL_Driver/Src/stm32f4xx_hal_pcd.c **** 
 4410              		.loc 1 1762 3 view .LVU1795
 4411 003e 84F89434 		strb	r3, [r4, #1172]
1762:Drivers/STM32F4xx_HAL_Driver/Src/stm32f4xx_hal_pcd.c **** 
 4412              		.loc 1 1762 3 is_stmt 1 view .LVU1796
1764:Drivers/STM32F4xx_HAL_Driver/Src/stm32f4xx_hal_pcd.c **** }
 4413              		.loc 1 1764 3 view .LVU1797
 4414 0042 F3E7     		b	.L410
 4415              	.LVL376:
 4416              	.L412:
1753:Drivers/STM32F4xx_HAL_Driver/Src/stm32f4xx_hal_pcd.c **** 
 4417              		.loc 1 1753 3 is_stmt 0 discriminator 1 view .LVU1798
 4418 0044 0220     		movs	r0, #2
 4419              	.LVL377:
1765:Drivers/STM32F4xx_HAL_Driver/Src/stm32f4xx_hal_pcd.c **** 
 4420              		.loc 1 1765 1 view .LVU1799
 4421 0046 10BD     		pop	{r4, pc}
1765:Drivers/STM32F4xx_HAL_Driver/Src/stm32f4xx_hal_pcd.c **** 
 4422              		.loc 1 1765 1 view .LVU1800
 4423              		.cfi_endproc
 4424              	.LFE153:
 4426              		.section	.text.HAL_PCD_DevDisconnect,"ax",%progbits
 4427              		.align	1
 4428              		.p2align 2,,3
 4429              		.global	HAL_PCD_DevDisconnect
 4430              		.syntax unified
 4431              		.thumb
 4432              		.thumb_func
 4434              	HAL_PCD_DevDisconnect:
 4435              	.LVL378:
 4436              	.LFB154:
1773:Drivers/STM32F4xx_HAL_Driver/Src/stm32f4xx_hal_pcd.c ****   USB_OTG_GlobalTypeDef *USBx = hpcd->Instance;
 4437              		.loc 1 1773 1 is_stmt 1 view -0
 4438              		.cfi_startproc
 4439              		@ args = 0, pretend = 0, frame = 0
ARM GAS  /tmp/ccDYdWST.s 			page 149


 4440              		@ frame_needed = 0, uses_anonymous_args = 0
1774:Drivers/STM32F4xx_HAL_Driver/Src/stm32f4xx_hal_pcd.c **** 
 4441              		.loc 1 1774 3 view .LVU1802
1776:Drivers/STM32F4xx_HAL_Driver/Src/stm32f4xx_hal_pcd.c ****   (void)USB_DevDisconnect(hpcd->Instance);
 4442              		.loc 1 1776 3 view .LVU1803
1776:Drivers/STM32F4xx_HAL_Driver/Src/stm32f4xx_hal_pcd.c ****   (void)USB_DevDisconnect(hpcd->Instance);
 4443              		.loc 1 1776 3 view .LVU1804
1773:Drivers/STM32F4xx_HAL_Driver/Src/stm32f4xx_hal_pcd.c ****   USB_OTG_GlobalTypeDef *USBx = hpcd->Instance;
 4444              		.loc 1 1773 1 is_stmt 0 view .LVU1805
 4445 0000 38B5     		push	{r3, r4, r5, lr}
 4446              	.LCFI14:
 4447              		.cfi_def_cfa_offset 16
 4448              		.cfi_offset 3, -16
 4449              		.cfi_offset 4, -12
 4450              		.cfi_offset 5, -8
 4451              		.cfi_offset 14, -4
1776:Drivers/STM32F4xx_HAL_Driver/Src/stm32f4xx_hal_pcd.c ****   (void)USB_DevDisconnect(hpcd->Instance);
 4452              		.loc 1 1776 3 view .LVU1806
 4453 0002 90F89434 		ldrb	r3, [r0, #1172]	@ zero_extendqisi2
 4454 0006 012B     		cmp	r3, #1
 4455 0008 11D0     		beq	.L421
1774:Drivers/STM32F4xx_HAL_Driver/Src/stm32f4xx_hal_pcd.c **** 
 4456              		.loc 1 1774 26 view .LVU1807
 4457 000a 0568     		ldr	r5, [r0]
1776:Drivers/STM32F4xx_HAL_Driver/Src/stm32f4xx_hal_pcd.c ****   (void)USB_DevDisconnect(hpcd->Instance);
 4458              		.loc 1 1776 3 is_stmt 1 discriminator 2 view .LVU1808
 4459 000c 0123     		movs	r3, #1
 4460 000e 80F89434 		strb	r3, [r0, #1172]
 4461              	.LVL379:
1776:Drivers/STM32F4xx_HAL_Driver/Src/stm32f4xx_hal_pcd.c ****   (void)USB_DevDisconnect(hpcd->Instance);
 4462              		.loc 1 1776 3 discriminator 2 view .LVU1809
1777:Drivers/STM32F4xx_HAL_Driver/Src/stm32f4xx_hal_pcd.c **** 
 4463              		.loc 1 1777 3 view .LVU1810
 4464 0012 0446     		mov	r4, r0
1777:Drivers/STM32F4xx_HAL_Driver/Src/stm32f4xx_hal_pcd.c **** 
 4465              		.loc 1 1777 9 is_stmt 0 view .LVU1811
 4466 0014 2846     		mov	r0, r5
 4467              	.LVL380:
1777:Drivers/STM32F4xx_HAL_Driver/Src/stm32f4xx_hal_pcd.c **** 
 4468              		.loc 1 1777 9 view .LVU1812
 4469 0016 FFF7FEFF 		bl	USB_DevDisconnect
 4470              	.LVL381:
1779:Drivers/STM32F4xx_HAL_Driver/Src/stm32f4xx_hal_pcd.c ****       (hpcd->Init.battery_charging_enable == 1U))
 4471              		.loc 1 1779 3 is_stmt 1 view .LVU1813
1779:Drivers/STM32F4xx_HAL_Driver/Src/stm32f4xx_hal_pcd.c ****       (hpcd->Init.battery_charging_enable == 1U))
 4472              		.loc 1 1779 13 is_stmt 0 view .LVU1814
 4473 001a EB68     		ldr	r3, [r5, #12]
1779:Drivers/STM32F4xx_HAL_Driver/Src/stm32f4xx_hal_pcd.c ****       (hpcd->Init.battery_charging_enable == 1U))
 4474              		.loc 1 1779 6 view .LVU1815
 4475 001c 5B06     		lsls	r3, r3, #25
 4476 001e 02D5     		bpl	.L420
1779:Drivers/STM32F4xx_HAL_Driver/Src/stm32f4xx_hal_pcd.c ****       (hpcd->Init.battery_charging_enable == 1U))
 4477              		.loc 1 1779 56 discriminator 1 view .LVU1816
 4478 0020 637B     		ldrb	r3, [r4, #13]	@ zero_extendqisi2
 4479 0022 012B     		cmp	r3, #1
 4480 0024 05D0     		beq	.L426
 4481              	.L420:
ARM GAS  /tmp/ccDYdWST.s 			page 150


1786:Drivers/STM32F4xx_HAL_Driver/Src/stm32f4xx_hal_pcd.c **** 
 4482              		.loc 1 1786 3 is_stmt 1 view .LVU1817
1786:Drivers/STM32F4xx_HAL_Driver/Src/stm32f4xx_hal_pcd.c **** 
 4483              		.loc 1 1786 3 view .LVU1818
 4484 0026 0020     		movs	r0, #0
 4485 0028 84F89404 		strb	r0, [r4, #1172]
1786:Drivers/STM32F4xx_HAL_Driver/Src/stm32f4xx_hal_pcd.c **** 
 4486              		.loc 1 1786 3 view .LVU1819
1788:Drivers/STM32F4xx_HAL_Driver/Src/stm32f4xx_hal_pcd.c **** }
 4487              		.loc 1 1788 3 view .LVU1820
 4488              	.L419:
1789:Drivers/STM32F4xx_HAL_Driver/Src/stm32f4xx_hal_pcd.c **** 
 4489              		.loc 1 1789 1 is_stmt 0 view .LVU1821
 4490 002c 38BD     		pop	{r3, r4, r5, pc}
 4491              	.LVL382:
 4492              	.L421:
1776:Drivers/STM32F4xx_HAL_Driver/Src/stm32f4xx_hal_pcd.c ****   (void)USB_DevDisconnect(hpcd->Instance);
 4493              		.loc 1 1776 3 discriminator 1 view .LVU1822
 4494 002e 0220     		movs	r0, #2
 4495              	.LVL383:
1789:Drivers/STM32F4xx_HAL_Driver/Src/stm32f4xx_hal_pcd.c **** 
 4496              		.loc 1 1789 1 view .LVU1823
 4497 0030 38BD     		pop	{r3, r4, r5, pc}
 4498              	.LVL384:
 4499              	.L426:
1783:Drivers/STM32F4xx_HAL_Driver/Src/stm32f4xx_hal_pcd.c ****   }
 4500              		.loc 1 1783 5 is_stmt 1 view .LVU1824
1783:Drivers/STM32F4xx_HAL_Driver/Src/stm32f4xx_hal_pcd.c ****   }
 4501              		.loc 1 1783 9 is_stmt 0 view .LVU1825
 4502 0032 AB6B     		ldr	r3, [r5, #56]
1786:Drivers/STM32F4xx_HAL_Driver/Src/stm32f4xx_hal_pcd.c **** 
 4503              		.loc 1 1786 3 view .LVU1826
 4504 0034 0020     		movs	r0, #0
1783:Drivers/STM32F4xx_HAL_Driver/Src/stm32f4xx_hal_pcd.c ****   }
 4505              		.loc 1 1783 17 view .LVU1827
 4506 0036 23F48033 		bic	r3, r3, #65536
 4507 003a AB63     		str	r3, [r5, #56]
1786:Drivers/STM32F4xx_HAL_Driver/Src/stm32f4xx_hal_pcd.c **** 
 4508              		.loc 1 1786 3 is_stmt 1 view .LVU1828
1786:Drivers/STM32F4xx_HAL_Driver/Src/stm32f4xx_hal_pcd.c **** 
 4509              		.loc 1 1786 3 view .LVU1829
 4510 003c 84F89404 		strb	r0, [r4, #1172]
1786:Drivers/STM32F4xx_HAL_Driver/Src/stm32f4xx_hal_pcd.c **** 
 4511              		.loc 1 1786 3 view .LVU1830
1788:Drivers/STM32F4xx_HAL_Driver/Src/stm32f4xx_hal_pcd.c **** }
 4512              		.loc 1 1788 3 view .LVU1831
 4513 0040 F4E7     		b	.L419
 4514              		.cfi_endproc
 4515              	.LFE154:
 4517 0042 00BF     		.section	.text.HAL_PCD_SetAddress,"ax",%progbits
 4518              		.align	1
 4519              		.p2align 2,,3
 4520              		.global	HAL_PCD_SetAddress
 4521              		.syntax unified
 4522              		.thumb
 4523              		.thumb_func
 4525              	HAL_PCD_SetAddress:
ARM GAS  /tmp/ccDYdWST.s 			page 151


 4526              	.LVL385:
 4527              	.LFB155:
1798:Drivers/STM32F4xx_HAL_Driver/Src/stm32f4xx_hal_pcd.c ****   __HAL_LOCK(hpcd);
 4528              		.loc 1 1798 1 view -0
 4529              		.cfi_startproc
 4530              		@ args = 0, pretend = 0, frame = 0
 4531              		@ frame_needed = 0, uses_anonymous_args = 0
1799:Drivers/STM32F4xx_HAL_Driver/Src/stm32f4xx_hal_pcd.c ****   hpcd->USB_Address = address;
 4532              		.loc 1 1799 3 view .LVU1833
1799:Drivers/STM32F4xx_HAL_Driver/Src/stm32f4xx_hal_pcd.c ****   hpcd->USB_Address = address;
 4533              		.loc 1 1799 3 view .LVU1834
 4534 0000 90F89424 		ldrb	r2, [r0, #1172]	@ zero_extendqisi2
 4535 0004 012A     		cmp	r2, #1
 4536 0006 0DD0     		beq	.L429
1799:Drivers/STM32F4xx_HAL_Driver/Src/stm32f4xx_hal_pcd.c ****   hpcd->USB_Address = address;
 4537              		.loc 1 1799 3 discriminator 2 view .LVU1835
1798:Drivers/STM32F4xx_HAL_Driver/Src/stm32f4xx_hal_pcd.c ****   __HAL_LOCK(hpcd);
 4538              		.loc 1 1798 1 is_stmt 0 view .LVU1836
 4539 0008 10B5     		push	{r4, lr}
 4540              	.LCFI15:
 4541              		.cfi_def_cfa_offset 8
 4542              		.cfi_offset 4, -8
 4543              		.cfi_offset 14, -4
 4544 000a 0446     		mov	r4, r0
1799:Drivers/STM32F4xx_HAL_Driver/Src/stm32f4xx_hal_pcd.c ****   hpcd->USB_Address = address;
 4545              		.loc 1 1799 3 discriminator 2 view .LVU1837
 4546 000c 0122     		movs	r2, #1
1801:Drivers/STM32F4xx_HAL_Driver/Src/stm32f4xx_hal_pcd.c ****   __HAL_UNLOCK(hpcd);
 4547              		.loc 1 1801 9 view .LVU1838
 4548 000e 0068     		ldr	r0, [r0]
 4549              	.LVL386:
1799:Drivers/STM32F4xx_HAL_Driver/Src/stm32f4xx_hal_pcd.c ****   hpcd->USB_Address = address;
 4550              		.loc 1 1799 3 discriminator 2 view .LVU1839
 4551 0010 84F89424 		strb	r2, [r4, #1172]
1799:Drivers/STM32F4xx_HAL_Driver/Src/stm32f4xx_hal_pcd.c ****   hpcd->USB_Address = address;
 4552              		.loc 1 1799 3 is_stmt 1 discriminator 2 view .LVU1840
1800:Drivers/STM32F4xx_HAL_Driver/Src/stm32f4xx_hal_pcd.c ****   (void)USB_SetDevAddress(hpcd->Instance, address);
 4553              		.loc 1 1800 3 view .LVU1841
1800:Drivers/STM32F4xx_HAL_Driver/Src/stm32f4xx_hal_pcd.c ****   (void)USB_SetDevAddress(hpcd->Instance, address);
 4554              		.loc 1 1800 21 is_stmt 0 view .LVU1842
 4555 0014 6174     		strb	r1, [r4, #17]
1801:Drivers/STM32F4xx_HAL_Driver/Src/stm32f4xx_hal_pcd.c ****   __HAL_UNLOCK(hpcd);
 4556              		.loc 1 1801 3 is_stmt 1 view .LVU1843
1801:Drivers/STM32F4xx_HAL_Driver/Src/stm32f4xx_hal_pcd.c ****   __HAL_UNLOCK(hpcd);
 4557              		.loc 1 1801 9 is_stmt 0 view .LVU1844
 4558 0016 FFF7FEFF 		bl	USB_SetDevAddress
 4559              	.LVL387:
1802:Drivers/STM32F4xx_HAL_Driver/Src/stm32f4xx_hal_pcd.c **** 
 4560              		.loc 1 1802 3 is_stmt 1 view .LVU1845
1802:Drivers/STM32F4xx_HAL_Driver/Src/stm32f4xx_hal_pcd.c **** 
 4561              		.loc 1 1802 3 view .LVU1846
 4562 001a 0023     		movs	r3, #0
 4563 001c 84F89434 		strb	r3, [r4, #1172]
1802:Drivers/STM32F4xx_HAL_Driver/Src/stm32f4xx_hal_pcd.c **** 
 4564              		.loc 1 1802 3 view .LVU1847
1804:Drivers/STM32F4xx_HAL_Driver/Src/stm32f4xx_hal_pcd.c **** }
 4565              		.loc 1 1804 3 view .LVU1848
ARM GAS  /tmp/ccDYdWST.s 			page 152


1804:Drivers/STM32F4xx_HAL_Driver/Src/stm32f4xx_hal_pcd.c **** }
 4566              		.loc 1 1804 10 is_stmt 0 view .LVU1849
 4567 0020 1846     		mov	r0, r3
1805:Drivers/STM32F4xx_HAL_Driver/Src/stm32f4xx_hal_pcd.c **** /**
 4568              		.loc 1 1805 1 view .LVU1850
 4569 0022 10BD     		pop	{r4, pc}
 4570              	.LVL388:
 4571              	.L429:
 4572              	.LCFI16:
 4573              		.cfi_def_cfa_offset 0
 4574              		.cfi_restore 4
 4575              		.cfi_restore 14
1799:Drivers/STM32F4xx_HAL_Driver/Src/stm32f4xx_hal_pcd.c ****   hpcd->USB_Address = address;
 4576              		.loc 1 1799 3 discriminator 1 view .LVU1851
 4577 0024 0220     		movs	r0, #2
 4578              	.LVL389:
1805:Drivers/STM32F4xx_HAL_Driver/Src/stm32f4xx_hal_pcd.c **** /**
 4579              		.loc 1 1805 1 view .LVU1852
 4580 0026 7047     		bx	lr
 4581              		.cfi_endproc
 4582              	.LFE155:
 4584              		.section	.text.HAL_PCD_EP_Open,"ax",%progbits
 4585              		.align	1
 4586              		.p2align 2,,3
 4587              		.global	HAL_PCD_EP_Open
 4588              		.syntax unified
 4589              		.thumb
 4590              		.thumb_func
 4592              	HAL_PCD_EP_Open:
 4593              	.LVL390:
 4594              	.LFB156:
1816:Drivers/STM32F4xx_HAL_Driver/Src/stm32f4xx_hal_pcd.c ****   HAL_StatusTypeDef  ret = HAL_OK;
 4595              		.loc 1 1816 1 is_stmt 1 view -0
 4596              		.cfi_startproc
 4597              		@ args = 0, pretend = 0, frame = 0
 4598              		@ frame_needed = 0, uses_anonymous_args = 0
1817:Drivers/STM32F4xx_HAL_Driver/Src/stm32f4xx_hal_pcd.c ****   PCD_EPTypeDef *ep;
 4599              		.loc 1 1817 3 view .LVU1854
1818:Drivers/STM32F4xx_HAL_Driver/Src/stm32f4xx_hal_pcd.c **** 
 4600              		.loc 1 1818 3 view .LVU1855
1820:Drivers/STM32F4xx_HAL_Driver/Src/stm32f4xx_hal_pcd.c ****   {
 4601              		.loc 1 1820 3 view .LVU1856
1816:Drivers/STM32F4xx_HAL_Driver/Src/stm32f4xx_hal_pcd.c ****   HAL_StatusTypeDef  ret = HAL_OK;
 4602              		.loc 1 1816 1 is_stmt 0 view .LVU1857
 4603 0000 10B5     		push	{r4, lr}
 4604              	.LCFI17:
 4605              		.cfi_def_cfa_offset 8
 4606              		.cfi_offset 4, -8
 4607              		.cfi_offset 14, -4
 4608 0002 01F00F0E 		and	lr, r1, #15
 4609 0006 0EEBCE0C 		add	ip, lr, lr, lsl #3
1820:Drivers/STM32F4xx_HAL_Driver/Src/stm32f4xx_hal_pcd.c ****   {
 4610              		.loc 1 1820 6 view .LVU1858
 4611 000a 0906     		lsls	r1, r1, #24
 4612              	.LVL391:
1816:Drivers/STM32F4xx_HAL_Driver/Src/stm32f4xx_hal_pcd.c ****   HAL_StatusTypeDef  ret = HAL_OK;
 4613              		.loc 1 1816 1 view .LVU1859
ARM GAS  /tmp/ccDYdWST.s 			page 153


 4614 000c 0446     		mov	r4, r0
 4615 000e 4FEA8C0C 		lsl	ip, ip, #2
1820:Drivers/STM32F4xx_HAL_Driver/Src/stm32f4xx_hal_pcd.c ****   {
 4616              		.loc 1 1820 6 view .LVU1860
 4617 0012 25D4     		bmi	.L445
1827:Drivers/STM32F4xx_HAL_Driver/Src/stm32f4xx_hal_pcd.c ****     ep->is_in = 0U;
 4618              		.loc 1 1827 5 is_stmt 1 view .LVU1861
1827:Drivers/STM32F4xx_HAL_Driver/Src/stm32f4xx_hal_pcd.c ****     ep->is_in = 0U;
 4619              		.loc 1 1827 8 is_stmt 0 view .LVU1862
 4620 0014 0CF51571 		add	r1, ip, #596
 4621 0018 0144     		add	r1, r1, r0
 4622              	.LVL392:
1828:Drivers/STM32F4xx_HAL_Driver/Src/stm32f4xx_hal_pcd.c ****   }
 4623              		.loc 1 1828 5 is_stmt 1 view .LVU1863
1828:Drivers/STM32F4xx_HAL_Driver/Src/stm32f4xx_hal_pcd.c ****   }
 4624              		.loc 1 1828 15 is_stmt 0 view .LVU1864
 4625 001a 0EEBCE00 		add	r0, lr, lr, lsl #3
 4626              	.LVL393:
1828:Drivers/STM32F4xx_HAL_Driver/Src/stm32f4xx_hal_pcd.c ****   }
 4627              		.loc 1 1828 15 view .LVU1865
 4628 001e 04EB8000 		add	r0, r4, r0, lsl #2
 4629 0022 4FF0000C 		mov	ip, #0
 4630 0026 80F855C2 		strb	ip, [r0, #597]
 4631              	.L436:
1831:Drivers/STM32F4xx_HAL_Driver/Src/stm32f4xx_hal_pcd.c ****   ep->maxpacket = ep_mps;
 4632              		.loc 1 1831 3 is_stmt 1 view .LVU1866
1832:Drivers/STM32F4xx_HAL_Driver/Src/stm32f4xx_hal_pcd.c ****   ep->type = ep_type;
 4633              		.loc 1 1832 17 is_stmt 0 view .LVU1867
 4634 002a 8A60     		str	r2, [r1, #8]
1835:Drivers/STM32F4xx_HAL_Driver/Src/stm32f4xx_hal_pcd.c ****   {
 4635              		.loc 1 1835 6 view .LVU1868
 4636 002c 4A78     		ldrb	r2, [r1, #1]	@ zero_extendqisi2
 4637              	.LVL394:
1831:Drivers/STM32F4xx_HAL_Driver/Src/stm32f4xx_hal_pcd.c ****   ep->maxpacket = ep_mps;
 4638              		.loc 1 1831 11 view .LVU1869
 4639 002e 81F800E0 		strb	lr, [r1]
1832:Drivers/STM32F4xx_HAL_Driver/Src/stm32f4xx_hal_pcd.c ****   ep->type = ep_type;
 4640              		.loc 1 1832 3 is_stmt 1 view .LVU1870
1833:Drivers/STM32F4xx_HAL_Driver/Src/stm32f4xx_hal_pcd.c **** 
 4641              		.loc 1 1833 3 view .LVU1871
1833:Drivers/STM32F4xx_HAL_Driver/Src/stm32f4xx_hal_pcd.c **** 
 4642              		.loc 1 1833 12 is_stmt 0 view .LVU1872
 4643 0032 0B71     		strb	r3, [r1, #4]
1835:Drivers/STM32F4xx_HAL_Driver/Src/stm32f4xx_hal_pcd.c ****   {
 4644              		.loc 1 1835 3 is_stmt 1 view .LVU1873
1835:Drivers/STM32F4xx_HAL_Driver/Src/stm32f4xx_hal_pcd.c ****   {
 4645              		.loc 1 1835 6 is_stmt 0 view .LVU1874
 4646 0034 0AB1     		cbz	r2, .L437
1838:Drivers/STM32F4xx_HAL_Driver/Src/stm32f4xx_hal_pcd.c ****   }
 4647              		.loc 1 1838 5 is_stmt 1 view .LVU1875
1838:Drivers/STM32F4xx_HAL_Driver/Src/stm32f4xx_hal_pcd.c ****   }
 4648              		.loc 1 1838 25 is_stmt 0 view .LVU1876
 4649 0036 A1F81AE0 		strh	lr, [r1, #26]	@ movhi
 4650              	.L437:
1842:Drivers/STM32F4xx_HAL_Driver/Src/stm32f4xx_hal_pcd.c ****   {
 4651              		.loc 1 1842 3 is_stmt 1 view .LVU1877
1842:Drivers/STM32F4xx_HAL_Driver/Src/stm32f4xx_hal_pcd.c ****   {
ARM GAS  /tmp/ccDYdWST.s 			page 154


 4652              		.loc 1 1842 6 is_stmt 0 view .LVU1878
 4653 003a 022B     		cmp	r3, #2
1844:Drivers/STM32F4xx_HAL_Driver/Src/stm32f4xx_hal_pcd.c ****   }
 4654              		.loc 1 1844 5 is_stmt 1 view .LVU1879
1844:Drivers/STM32F4xx_HAL_Driver/Src/stm32f4xx_hal_pcd.c ****   }
 4655              		.loc 1 1844 24 is_stmt 0 view .LVU1880
 4656 003c 04BF     		itt	eq
 4657 003e 0023     		moveq	r3, #0
 4658              	.LVL395:
1844:Drivers/STM32F4xx_HAL_Driver/Src/stm32f4xx_hal_pcd.c ****   }
 4659              		.loc 1 1844 24 view .LVU1881
 4660 0040 4B71     		strbeq	r3, [r1, #5]
1847:Drivers/STM32F4xx_HAL_Driver/Src/stm32f4xx_hal_pcd.c ****   (void)USB_ActivateEndpoint(hpcd->Instance, ep);
 4661              		.loc 1 1847 3 is_stmt 1 view .LVU1882
1847:Drivers/STM32F4xx_HAL_Driver/Src/stm32f4xx_hal_pcd.c ****   (void)USB_ActivateEndpoint(hpcd->Instance, ep);
 4662              		.loc 1 1847 3 view .LVU1883
 4663 0042 94F89434 		ldrb	r3, [r4, #1172]	@ zero_extendqisi2
 4664 0046 012B     		cmp	r3, #1
 4665 0048 16D0     		beq	.L440
1847:Drivers/STM32F4xx_HAL_Driver/Src/stm32f4xx_hal_pcd.c ****   (void)USB_ActivateEndpoint(hpcd->Instance, ep);
 4666              		.loc 1 1847 3 discriminator 2 view .LVU1884
 4667 004a 0123     		movs	r3, #1
 4668 004c 84F89434 		strb	r3, [r4, #1172]
 4669              	.LVL396:
1847:Drivers/STM32F4xx_HAL_Driver/Src/stm32f4xx_hal_pcd.c ****   (void)USB_ActivateEndpoint(hpcd->Instance, ep);
 4670              		.loc 1 1847 3 discriminator 2 view .LVU1885
1848:Drivers/STM32F4xx_HAL_Driver/Src/stm32f4xx_hal_pcd.c ****   __HAL_UNLOCK(hpcd);
 4671              		.loc 1 1848 3 view .LVU1886
1848:Drivers/STM32F4xx_HAL_Driver/Src/stm32f4xx_hal_pcd.c ****   __HAL_UNLOCK(hpcd);
 4672              		.loc 1 1848 9 is_stmt 0 view .LVU1887
 4673 0050 2068     		ldr	r0, [r4]
 4674 0052 FFF7FEFF 		bl	USB_ActivateEndpoint
 4675              	.LVL397:
1849:Drivers/STM32F4xx_HAL_Driver/Src/stm32f4xx_hal_pcd.c **** 
 4676              		.loc 1 1849 3 is_stmt 1 view .LVU1888
1849:Drivers/STM32F4xx_HAL_Driver/Src/stm32f4xx_hal_pcd.c **** 
 4677              		.loc 1 1849 3 view .LVU1889
 4678 0056 0023     		movs	r3, #0
 4679 0058 84F89434 		strb	r3, [r4, #1172]
1849:Drivers/STM32F4xx_HAL_Driver/Src/stm32f4xx_hal_pcd.c **** 
 4680              		.loc 1 1849 3 view .LVU1890
1851:Drivers/STM32F4xx_HAL_Driver/Src/stm32f4xx_hal_pcd.c **** }
 4681              		.loc 1 1851 3 view .LVU1891
1851:Drivers/STM32F4xx_HAL_Driver/Src/stm32f4xx_hal_pcd.c **** }
 4682              		.loc 1 1851 10 is_stmt 0 view .LVU1892
 4683 005c 1846     		mov	r0, r3
1852:Drivers/STM32F4xx_HAL_Driver/Src/stm32f4xx_hal_pcd.c **** 
 4684              		.loc 1 1852 1 view .LVU1893
 4685 005e 10BD     		pop	{r4, pc}
 4686              	.LVL398:
 4687              	.L445:
1822:Drivers/STM32F4xx_HAL_Driver/Src/stm32f4xx_hal_pcd.c ****     ep->is_in = 1U;
 4688              		.loc 1 1822 5 is_stmt 1 view .LVU1894
1822:Drivers/STM32F4xx_HAL_Driver/Src/stm32f4xx_hal_pcd.c ****     ep->is_in = 1U;
 4689              		.loc 1 1822 8 is_stmt 0 view .LVU1895
 4690 0060 0CF11401 		add	r1, ip, #20
 4691 0064 0144     		add	r1, r1, r0
ARM GAS  /tmp/ccDYdWST.s 			page 155


 4692              	.LVL399:
1823:Drivers/STM32F4xx_HAL_Driver/Src/stm32f4xx_hal_pcd.c ****   }
 4693              		.loc 1 1823 5 is_stmt 1 view .LVU1896
1823:Drivers/STM32F4xx_HAL_Driver/Src/stm32f4xx_hal_pcd.c ****   }
 4694              		.loc 1 1823 15 is_stmt 0 view .LVU1897
 4695 0066 0EEBCE00 		add	r0, lr, lr, lsl #3
 4696              	.LVL400:
1823:Drivers/STM32F4xx_HAL_Driver/Src/stm32f4xx_hal_pcd.c ****   }
 4697              		.loc 1 1823 15 view .LVU1898
 4698 006a 04EB8000 		add	r0, r4, r0, lsl #2
 4699 006e 4FF0010C 		mov	ip, #1
 4700 0072 80F815C0 		strb	ip, [r0, #21]
 4701 0076 D8E7     		b	.L436
 4702              	.LVL401:
 4703              	.L440:
1847:Drivers/STM32F4xx_HAL_Driver/Src/stm32f4xx_hal_pcd.c ****   (void)USB_ActivateEndpoint(hpcd->Instance, ep);
 4704              		.loc 1 1847 3 discriminator 1 view .LVU1899
 4705 0078 0220     		movs	r0, #2
1852:Drivers/STM32F4xx_HAL_Driver/Src/stm32f4xx_hal_pcd.c **** 
 4706              		.loc 1 1852 1 view .LVU1900
 4707 007a 10BD     		pop	{r4, pc}
1852:Drivers/STM32F4xx_HAL_Driver/Src/stm32f4xx_hal_pcd.c **** 
 4708              		.loc 1 1852 1 view .LVU1901
 4709              		.cfi_endproc
 4710              	.LFE156:
 4712              		.section	.text.HAL_PCD_EP_Close,"ax",%progbits
 4713              		.align	1
 4714              		.p2align 2,,3
 4715              		.global	HAL_PCD_EP_Close
 4716              		.syntax unified
 4717              		.thumb
 4718              		.thumb_func
 4720              	HAL_PCD_EP_Close:
 4721              	.LVL402:
 4722              	.LFB157:
1861:Drivers/STM32F4xx_HAL_Driver/Src/stm32f4xx_hal_pcd.c ****   PCD_EPTypeDef *ep;
 4723              		.loc 1 1861 1 is_stmt 1 view -0
 4724              		.cfi_startproc
 4725              		@ args = 0, pretend = 0, frame = 0
 4726              		@ frame_needed = 0, uses_anonymous_args = 0
1862:Drivers/STM32F4xx_HAL_Driver/Src/stm32f4xx_hal_pcd.c **** 
 4727              		.loc 1 1862 3 view .LVU1903
1864:Drivers/STM32F4xx_HAL_Driver/Src/stm32f4xx_hal_pcd.c ****   {
 4728              		.loc 1 1864 3 view .LVU1904
 4729 0000 01F00F03 		and	r3, r1, #15
 4730 0004 01F00F02 		and	r2, r1, #15
1861:Drivers/STM32F4xx_HAL_Driver/Src/stm32f4xx_hal_pcd.c ****   PCD_EPTypeDef *ep;
 4731              		.loc 1 1861 1 is_stmt 0 view .LVU1905
 4732 0008 10B5     		push	{r4, lr}
 4733              	.LCFI18:
 4734              		.cfi_def_cfa_offset 8
 4735              		.cfi_offset 4, -8
 4736              		.cfi_offset 14, -4
 4737 000a 03EBC303 		add	r3, r3, r3, lsl #3
1861:Drivers/STM32F4xx_HAL_Driver/Src/stm32f4xx_hal_pcd.c ****   PCD_EPTypeDef *ep;
 4738              		.loc 1 1861 1 view .LVU1906
 4739 000e 0446     		mov	r4, r0
ARM GAS  /tmp/ccDYdWST.s 			page 156


1864:Drivers/STM32F4xx_HAL_Driver/Src/stm32f4xx_hal_pcd.c ****   {
 4740              		.loc 1 1864 6 view .LVU1907
 4741 0010 0906     		lsls	r1, r1, #24
 4742              	.LVL403:
1867:Drivers/STM32F4xx_HAL_Driver/Src/stm32f4xx_hal_pcd.c ****   }
 4743              		.loc 1 1867 15 view .LVU1908
 4744 0012 02EBC200 		add	r0, r2, r2, lsl #3
 4745              	.LVL404:
1867:Drivers/STM32F4xx_HAL_Driver/Src/stm32f4xx_hal_pcd.c ****   }
 4746              		.loc 1 1867 15 view .LVU1909
 4747 0016 4FEA8303 		lsl	r3, r3, #2
 4748 001a 04EB8000 		add	r0, r4, r0, lsl #2
1864:Drivers/STM32F4xx_HAL_Driver/Src/stm32f4xx_hal_pcd.c ****   {
 4749              		.loc 1 1864 6 view .LVU1910
 4750 001e 16D4     		bmi	.L452
1871:Drivers/STM32F4xx_HAL_Driver/Src/stm32f4xx_hal_pcd.c ****     ep->is_in = 0U;
 4751              		.loc 1 1871 5 is_stmt 1 view .LVU1911
1871:Drivers/STM32F4xx_HAL_Driver/Src/stm32f4xx_hal_pcd.c ****     ep->is_in = 0U;
 4752              		.loc 1 1871 8 is_stmt 0 view .LVU1912
 4753 0020 03F51573 		add	r3, r3, #596
 4754 0024 E118     		adds	r1, r4, r3
 4755              	.LVL405:
1872:Drivers/STM32F4xx_HAL_Driver/Src/stm32f4xx_hal_pcd.c ****   }
 4756              		.loc 1 1872 5 is_stmt 1 view .LVU1913
1872:Drivers/STM32F4xx_HAL_Driver/Src/stm32f4xx_hal_pcd.c ****   }
 4757              		.loc 1 1872 15 is_stmt 0 view .LVU1914
 4758 0026 4FF0000C 		mov	ip, #0
 4759 002a 80F855C2 		strb	ip, [r0, #597]
1874:Drivers/STM32F4xx_HAL_Driver/Src/stm32f4xx_hal_pcd.c **** 
 4760              		.loc 1 1874 3 is_stmt 1 view .LVU1915
1874:Drivers/STM32F4xx_HAL_Driver/Src/stm32f4xx_hal_pcd.c **** 
 4761              		.loc 1 1874 11 is_stmt 0 view .LVU1916
 4762 002e 0A70     		strb	r2, [r1]
1876:Drivers/STM32F4xx_HAL_Driver/Src/stm32f4xx_hal_pcd.c ****   (void)USB_DeactivateEndpoint(hpcd->Instance, ep);
 4763              		.loc 1 1876 3 is_stmt 1 view .LVU1917
1876:Drivers/STM32F4xx_HAL_Driver/Src/stm32f4xx_hal_pcd.c ****   (void)USB_DeactivateEndpoint(hpcd->Instance, ep);
 4764              		.loc 1 1876 3 view .LVU1918
 4765 0030 94F89434 		ldrb	r3, [r4, #1172]	@ zero_extendqisi2
 4766 0034 012B     		cmp	r3, #1
 4767 0036 15D0     		beq	.L450
 4768              	.L453:
1876:Drivers/STM32F4xx_HAL_Driver/Src/stm32f4xx_hal_pcd.c ****   (void)USB_DeactivateEndpoint(hpcd->Instance, ep);
 4769              		.loc 1 1876 3 discriminator 2 view .LVU1919
 4770 0038 0123     		movs	r3, #1
 4771 003a 84F89434 		strb	r3, [r4, #1172]
1876:Drivers/STM32F4xx_HAL_Driver/Src/stm32f4xx_hal_pcd.c ****   (void)USB_DeactivateEndpoint(hpcd->Instance, ep);
 4772              		.loc 1 1876 3 discriminator 2 view .LVU1920
1877:Drivers/STM32F4xx_HAL_Driver/Src/stm32f4xx_hal_pcd.c ****   __HAL_UNLOCK(hpcd);
 4773              		.loc 1 1877 3 view .LVU1921
1877:Drivers/STM32F4xx_HAL_Driver/Src/stm32f4xx_hal_pcd.c ****   __HAL_UNLOCK(hpcd);
 4774              		.loc 1 1877 9 is_stmt 0 view .LVU1922
 4775 003e 2068     		ldr	r0, [r4]
 4776 0040 FFF7FEFF 		bl	USB_DeactivateEndpoint
 4777              	.LVL406:
1878:Drivers/STM32F4xx_HAL_Driver/Src/stm32f4xx_hal_pcd.c ****   return HAL_OK;
 4778              		.loc 1 1878 3 is_stmt 1 view .LVU1923
1878:Drivers/STM32F4xx_HAL_Driver/Src/stm32f4xx_hal_pcd.c ****   return HAL_OK;
ARM GAS  /tmp/ccDYdWST.s 			page 157


 4779              		.loc 1 1878 3 view .LVU1924
 4780 0044 0023     		movs	r3, #0
 4781 0046 84F89434 		strb	r3, [r4, #1172]
1878:Drivers/STM32F4xx_HAL_Driver/Src/stm32f4xx_hal_pcd.c ****   return HAL_OK;
 4782              		.loc 1 1878 3 view .LVU1925
1879:Drivers/STM32F4xx_HAL_Driver/Src/stm32f4xx_hal_pcd.c **** }
 4783              		.loc 1 1879 3 view .LVU1926
1879:Drivers/STM32F4xx_HAL_Driver/Src/stm32f4xx_hal_pcd.c **** }
 4784              		.loc 1 1879 10 is_stmt 0 view .LVU1927
 4785 004a 1846     		mov	r0, r3
1880:Drivers/STM32F4xx_HAL_Driver/Src/stm32f4xx_hal_pcd.c **** 
 4786              		.loc 1 1880 1 view .LVU1928
 4787 004c 10BD     		pop	{r4, pc}
 4788              	.LVL407:
 4789              	.L452:
1866:Drivers/STM32F4xx_HAL_Driver/Src/stm32f4xx_hal_pcd.c ****     ep->is_in = 1U;
 4790              		.loc 1 1866 5 is_stmt 1 view .LVU1929
1866:Drivers/STM32F4xx_HAL_Driver/Src/stm32f4xx_hal_pcd.c ****     ep->is_in = 1U;
 4791              		.loc 1 1866 8 is_stmt 0 view .LVU1930
 4792 004e 1433     		adds	r3, r3, #20
 4793 0050 E118     		adds	r1, r4, r3
 4794              	.LVL408:
1867:Drivers/STM32F4xx_HAL_Driver/Src/stm32f4xx_hal_pcd.c ****   }
 4795              		.loc 1 1867 5 is_stmt 1 view .LVU1931
1867:Drivers/STM32F4xx_HAL_Driver/Src/stm32f4xx_hal_pcd.c ****   }
 4796              		.loc 1 1867 15 is_stmt 0 view .LVU1932
 4797 0052 4FF0010C 		mov	ip, #1
 4798 0056 80F815C0 		strb	ip, [r0, #21]
1874:Drivers/STM32F4xx_HAL_Driver/Src/stm32f4xx_hal_pcd.c **** 
 4799              		.loc 1 1874 3 is_stmt 1 view .LVU1933
1874:Drivers/STM32F4xx_HAL_Driver/Src/stm32f4xx_hal_pcd.c **** 
 4800              		.loc 1 1874 11 is_stmt 0 view .LVU1934
 4801 005a 0A70     		strb	r2, [r1]
1876:Drivers/STM32F4xx_HAL_Driver/Src/stm32f4xx_hal_pcd.c ****   (void)USB_DeactivateEndpoint(hpcd->Instance, ep);
 4802              		.loc 1 1876 3 is_stmt 1 view .LVU1935
1876:Drivers/STM32F4xx_HAL_Driver/Src/stm32f4xx_hal_pcd.c ****   (void)USB_DeactivateEndpoint(hpcd->Instance, ep);
 4803              		.loc 1 1876 3 view .LVU1936
 4804 005c 94F89434 		ldrb	r3, [r4, #1172]	@ zero_extendqisi2
 4805 0060 012B     		cmp	r3, #1
 4806 0062 E9D1     		bne	.L453
 4807              	.L450:
1876:Drivers/STM32F4xx_HAL_Driver/Src/stm32f4xx_hal_pcd.c ****   (void)USB_DeactivateEndpoint(hpcd->Instance, ep);
 4808              		.loc 1 1876 3 is_stmt 0 discriminator 1 view .LVU1937
 4809 0064 0220     		movs	r0, #2
1880:Drivers/STM32F4xx_HAL_Driver/Src/stm32f4xx_hal_pcd.c **** 
 4810              		.loc 1 1880 1 view .LVU1938
 4811 0066 10BD     		pop	{r4, pc}
1880:Drivers/STM32F4xx_HAL_Driver/Src/stm32f4xx_hal_pcd.c **** 
 4812              		.loc 1 1880 1 view .LVU1939
 4813              		.cfi_endproc
 4814              	.LFE157:
 4816              		.section	.text.HAL_PCD_EP_Receive,"ax",%progbits
 4817              		.align	1
 4818              		.p2align 2,,3
 4819              		.global	HAL_PCD_EP_Receive
 4820              		.syntax unified
 4821              		.thumb
ARM GAS  /tmp/ccDYdWST.s 			page 158


 4822              		.thumb_func
 4824              	HAL_PCD_EP_Receive:
 4825              	.LVL409:
 4826              	.LFB158:
1892:Drivers/STM32F4xx_HAL_Driver/Src/stm32f4xx_hal_pcd.c ****   PCD_EPTypeDef *ep;
 4827              		.loc 1 1892 1 is_stmt 1 view -0
 4828              		.cfi_startproc
 4829              		@ args = 0, pretend = 0, frame = 0
 4830              		@ frame_needed = 0, uses_anonymous_args = 0
1893:Drivers/STM32F4xx_HAL_Driver/Src/stm32f4xx_hal_pcd.c **** 
 4831              		.loc 1 1893 3 view .LVU1941
1895:Drivers/STM32F4xx_HAL_Driver/Src/stm32f4xx_hal_pcd.c **** 
 4832              		.loc 1 1895 3 view .LVU1942
1892:Drivers/STM32F4xx_HAL_Driver/Src/stm32f4xx_hal_pcd.c ****   PCD_EPTypeDef *ep;
 4833              		.loc 1 1892 1 is_stmt 0 view .LVU1943
 4834 0000 10B5     		push	{r4, lr}
 4835              	.LCFI19:
 4836              		.cfi_def_cfa_offset 8
 4837              		.cfi_offset 4, -8
 4838              		.cfi_offset 14, -4
 4839 0002 01F00F0E 		and	lr, r1, #15
1898:Drivers/STM32F4xx_HAL_Driver/Src/stm32f4xx_hal_pcd.c ****   ep->xfer_len = len;
 4840              		.loc 1 1898 17 view .LVU1944
 4841 0006 0EEBCE0C 		add	ip, lr, lr, lsl #3
 4842 000a 00EB8C0C 		add	ip, r0, ip, lsl #2
1892:Drivers/STM32F4xx_HAL_Driver/Src/stm32f4xx_hal_pcd.c ****   PCD_EPTypeDef *ep;
 4843              		.loc 1 1892 1 view .LVU1945
 4844 000e 1446     		mov	r4, r2
1899:Drivers/STM32F4xx_HAL_Driver/Src/stm32f4xx_hal_pcd.c ****   ep->xfer_count = 0U;
 4845              		.loc 1 1899 16 view .LVU1946
 4846 0010 CCF86432 		str	r3, [ip, #612]
1900:Drivers/STM32F4xx_HAL_Driver/Src/stm32f4xx_hal_pcd.c ****   ep->is_in = 0U;
 4847              		.loc 1 1900 18 view .LVU1947
 4848 0014 0023     		movs	r3, #0
 4849              	.LVL410:
1902:Drivers/STM32F4xx_HAL_Driver/Src/stm32f4xx_hal_pcd.c **** 
 4850              		.loc 1 1902 11 view .LVU1948
 4851 0016 8CF854E2 		strb	lr, [ip, #596]
1898:Drivers/STM32F4xx_HAL_Driver/Src/stm32f4xx_hal_pcd.c ****   ep->xfer_len = len;
 4852              		.loc 1 1898 17 view .LVU1949
 4853 001a CCF86022 		str	r2, [ip, #608]
1900:Drivers/STM32F4xx_HAL_Driver/Src/stm32f4xx_hal_pcd.c ****   ep->is_in = 0U;
 4854              		.loc 1 1900 18 view .LVU1950
 4855 001e CCF86832 		str	r3, [ip, #616]
1901:Drivers/STM32F4xx_HAL_Driver/Src/stm32f4xx_hal_pcd.c ****   ep->num = ep_addr & EP_ADDR_MSK;
 4856              		.loc 1 1901 13 view .LVU1951
 4857 0022 8CF85532 		strb	r3, [ip, #597]
1904:Drivers/STM32F4xx_HAL_Driver/Src/stm32f4xx_hal_pcd.c ****   {
 4858              		.loc 1 1904 17 view .LVU1952
 4859 0026 8279     		ldrb	r2, [r0, #6]	@ zero_extendqisi2
 4860              	.LVL411:
1895:Drivers/STM32F4xx_HAL_Driver/Src/stm32f4xx_hal_pcd.c **** 
 4861              		.loc 1 1895 6 view .LVU1953
 4862 0028 2421     		movs	r1, #36
 4863              	.LVL412:
1895:Drivers/STM32F4xx_HAL_Driver/Src/stm32f4xx_hal_pcd.c **** 
 4864              		.loc 1 1895 6 view .LVU1954
ARM GAS  /tmp/ccDYdWST.s 			page 159


 4865 002a 01FB0E01 		mla	r1, r1, lr, r0
1904:Drivers/STM32F4xx_HAL_Driver/Src/stm32f4xx_hal_pcd.c ****   {
 4866              		.loc 1 1904 6 view .LVU1955
 4867 002e 012A     		cmp	r2, #1
1895:Drivers/STM32F4xx_HAL_Driver/Src/stm32f4xx_hal_pcd.c **** 
 4868              		.loc 1 1895 6 view .LVU1956
 4869 0030 01F51571 		add	r1, r1, #596
 4870              	.LVL413:
1898:Drivers/STM32F4xx_HAL_Driver/Src/stm32f4xx_hal_pcd.c ****   ep->xfer_len = len;
 4871              		.loc 1 1898 3 is_stmt 1 view .LVU1957
1899:Drivers/STM32F4xx_HAL_Driver/Src/stm32f4xx_hal_pcd.c ****   ep->xfer_count = 0U;
 4872              		.loc 1 1899 3 view .LVU1958
1900:Drivers/STM32F4xx_HAL_Driver/Src/stm32f4xx_hal_pcd.c ****   ep->is_in = 0U;
 4873              		.loc 1 1900 3 view .LVU1959
1901:Drivers/STM32F4xx_HAL_Driver/Src/stm32f4xx_hal_pcd.c ****   ep->num = ep_addr & EP_ADDR_MSK;
 4874              		.loc 1 1901 3 view .LVU1960
1902:Drivers/STM32F4xx_HAL_Driver/Src/stm32f4xx_hal_pcd.c **** 
 4875              		.loc 1 1902 3 view .LVU1961
1904:Drivers/STM32F4xx_HAL_Driver/Src/stm32f4xx_hal_pcd.c ****   {
 4876              		.loc 1 1904 3 view .LVU1962
1906:Drivers/STM32F4xx_HAL_Driver/Src/stm32f4xx_hal_pcd.c ****   }
 4877              		.loc 1 1906 5 view .LVU1963
1909:Drivers/STM32F4xx_HAL_Driver/Src/stm32f4xx_hal_pcd.c **** 
 4878              		.loc 1 1909 3 view .LVU1964
1906:Drivers/STM32F4xx_HAL_Driver/Src/stm32f4xx_hal_pcd.c ****   }
 4879              		.loc 1 1906 18 is_stmt 0 view .LVU1965
 4880 0034 08BF     		it	eq
 4881 0036 CCF87042 		streq	r4, [ip, #624]
1909:Drivers/STM32F4xx_HAL_Driver/Src/stm32f4xx_hal_pcd.c **** 
 4882              		.loc 1 1909 9 view .LVU1966
 4883 003a 0068     		ldr	r0, [r0]
 4884              	.LVL414:
1909:Drivers/STM32F4xx_HAL_Driver/Src/stm32f4xx_hal_pcd.c **** 
 4885              		.loc 1 1909 9 view .LVU1967
 4886 003c FFF7FEFF 		bl	USB_EPStartXfer
 4887              	.LVL415:
1911:Drivers/STM32F4xx_HAL_Driver/Src/stm32f4xx_hal_pcd.c **** }
 4888              		.loc 1 1911 3 is_stmt 1 view .LVU1968
1912:Drivers/STM32F4xx_HAL_Driver/Src/stm32f4xx_hal_pcd.c **** 
 4889              		.loc 1 1912 1 is_stmt 0 view .LVU1969
 4890 0040 0020     		movs	r0, #0
 4891 0042 10BD     		pop	{r4, pc}
1912:Drivers/STM32F4xx_HAL_Driver/Src/stm32f4xx_hal_pcd.c **** 
 4892              		.loc 1 1912 1 view .LVU1970
 4893              		.cfi_endproc
 4894              	.LFE158:
 4896              		.section	.text.HAL_PCD_EP_GetRxCount,"ax",%progbits
 4897              		.align	1
 4898              		.p2align 2,,3
 4899              		.global	HAL_PCD_EP_GetRxCount
 4900              		.syntax unified
 4901              		.thumb
 4902              		.thumb_func
 4904              	HAL_PCD_EP_GetRxCount:
 4905              	.LVL416:
 4906              	.LFB159:
1921:Drivers/STM32F4xx_HAL_Driver/Src/stm32f4xx_hal_pcd.c ****   return hpcd->OUT_ep[ep_addr & EP_ADDR_MSK].xfer_count;
ARM GAS  /tmp/ccDYdWST.s 			page 160


 4907              		.loc 1 1921 1 is_stmt 1 view -0
 4908              		.cfi_startproc
 4909              		@ args = 0, pretend = 0, frame = 0
 4910              		@ frame_needed = 0, uses_anonymous_args = 0
 4911              		@ link register save eliminated.
1922:Drivers/STM32F4xx_HAL_Driver/Src/stm32f4xx_hal_pcd.c **** }
 4912              		.loc 1 1922 3 view .LVU1972
1922:Drivers/STM32F4xx_HAL_Driver/Src/stm32f4xx_hal_pcd.c **** }
 4913              		.loc 1 1922 31 is_stmt 0 view .LVU1973
 4914 0000 01F00F01 		and	r1, r1, #15
 4915              	.LVL417:
1922:Drivers/STM32F4xx_HAL_Driver/Src/stm32f4xx_hal_pcd.c **** }
 4916              		.loc 1 1922 45 view .LVU1974
 4917 0004 01EBC101 		add	r1, r1, r1, lsl #3
 4918 0008 00EB8100 		add	r0, r0, r1, lsl #2
 4919              	.LVL418:
1923:Drivers/STM32F4xx_HAL_Driver/Src/stm32f4xx_hal_pcd.c **** /**
 4920              		.loc 1 1923 1 view .LVU1975
 4921 000c D0F86802 		ldr	r0, [r0, #616]
 4922 0010 7047     		bx	lr
 4923              		.cfi_endproc
 4924              	.LFE159:
 4926 0012 00BF     		.section	.text.HAL_PCD_EP_Transmit,"ax",%progbits
 4927              		.align	1
 4928              		.p2align 2,,3
 4929              		.global	HAL_PCD_EP_Transmit
 4930              		.syntax unified
 4931              		.thumb
 4932              		.thumb_func
 4934              	HAL_PCD_EP_Transmit:
 4935              	.LVL419:
 4936              	.LFB160:
1933:Drivers/STM32F4xx_HAL_Driver/Src/stm32f4xx_hal_pcd.c ****   PCD_EPTypeDef *ep;
 4937              		.loc 1 1933 1 is_stmt 1 view -0
 4938              		.cfi_startproc
 4939              		@ args = 0, pretend = 0, frame = 0
 4940              		@ frame_needed = 0, uses_anonymous_args = 0
1934:Drivers/STM32F4xx_HAL_Driver/Src/stm32f4xx_hal_pcd.c **** 
 4941              		.loc 1 1934 3 view .LVU1977
1936:Drivers/STM32F4xx_HAL_Driver/Src/stm32f4xx_hal_pcd.c **** 
 4942              		.loc 1 1936 3 view .LVU1978
1933:Drivers/STM32F4xx_HAL_Driver/Src/stm32f4xx_hal_pcd.c ****   PCD_EPTypeDef *ep;
 4943              		.loc 1 1933 1 is_stmt 0 view .LVU1979
 4944 0000 10B5     		push	{r4, lr}
 4945              	.LCFI20:
 4946              		.cfi_def_cfa_offset 8
 4947              		.cfi_offset 4, -8
 4948              		.cfi_offset 14, -4
 4949 0002 01F00F0E 		and	lr, r1, #15
1939:Drivers/STM32F4xx_HAL_Driver/Src/stm32f4xx_hal_pcd.c ****   ep->xfer_len = len;
 4950              		.loc 1 1939 17 view .LVU1980
 4951 0006 0EEBCE0C 		add	ip, lr, lr, lsl #3
 4952 000a 00EB8C0C 		add	ip, r0, ip, lsl #2
1933:Drivers/STM32F4xx_HAL_Driver/Src/stm32f4xx_hal_pcd.c ****   PCD_EPTypeDef *ep;
 4953              		.loc 1 1933 1 view .LVU1981
 4954 000e 1446     		mov	r4, r2
1940:Drivers/STM32F4xx_HAL_Driver/Src/stm32f4xx_hal_pcd.c ****   ep->xfer_count = 0U;
ARM GAS  /tmp/ccDYdWST.s 			page 161


 4955              		.loc 1 1940 16 view .LVU1982
 4956 0010 CCF82430 		str	r3, [ip, #36]
1941:Drivers/STM32F4xx_HAL_Driver/Src/stm32f4xx_hal_pcd.c ****   ep->is_in = 1U;
 4957              		.loc 1 1941 18 view .LVU1983
 4958 0014 0023     		movs	r3, #0
 4959              	.LVL420:
1941:Drivers/STM32F4xx_HAL_Driver/Src/stm32f4xx_hal_pcd.c ****   ep->is_in = 1U;
 4960              		.loc 1 1941 18 view .LVU1984
 4961 0016 CCF82830 		str	r3, [ip, #40]
1942:Drivers/STM32F4xx_HAL_Driver/Src/stm32f4xx_hal_pcd.c ****   ep->num = ep_addr & EP_ADDR_MSK;
 4962              		.loc 1 1942 13 view .LVU1985
 4963 001a 0123     		movs	r3, #1
1943:Drivers/STM32F4xx_HAL_Driver/Src/stm32f4xx_hal_pcd.c **** 
 4964              		.loc 1 1943 11 view .LVU1986
 4965 001c 8CF814E0 		strb	lr, [ip, #20]
1939:Drivers/STM32F4xx_HAL_Driver/Src/stm32f4xx_hal_pcd.c ****   ep->xfer_len = len;
 4966              		.loc 1 1939 17 view .LVU1987
 4967 0020 CCF82020 		str	r2, [ip, #32]
1942:Drivers/STM32F4xx_HAL_Driver/Src/stm32f4xx_hal_pcd.c ****   ep->num = ep_addr & EP_ADDR_MSK;
 4968              		.loc 1 1942 13 view .LVU1988
 4969 0024 8CF81530 		strb	r3, [ip, #21]
1945:Drivers/STM32F4xx_HAL_Driver/Src/stm32f4xx_hal_pcd.c ****   {
 4970              		.loc 1 1945 17 view .LVU1989
 4971 0028 8279     		ldrb	r2, [r0, #6]	@ zero_extendqisi2
 4972              	.LVL421:
1936:Drivers/STM32F4xx_HAL_Driver/Src/stm32f4xx_hal_pcd.c **** 
 4973              		.loc 1 1936 6 view .LVU1990
 4974 002a 2421     		movs	r1, #36
 4975              	.LVL422:
1936:Drivers/STM32F4xx_HAL_Driver/Src/stm32f4xx_hal_pcd.c **** 
 4976              		.loc 1 1936 6 view .LVU1991
 4977 002c 01FB0E01 		mla	r1, r1, lr, r0
1945:Drivers/STM32F4xx_HAL_Driver/Src/stm32f4xx_hal_pcd.c ****   {
 4978              		.loc 1 1945 6 view .LVU1992
 4979 0030 9A42     		cmp	r2, r3
1936:Drivers/STM32F4xx_HAL_Driver/Src/stm32f4xx_hal_pcd.c **** 
 4980              		.loc 1 1936 6 view .LVU1993
 4981 0032 01F11401 		add	r1, r1, #20
 4982              	.LVL423:
1939:Drivers/STM32F4xx_HAL_Driver/Src/stm32f4xx_hal_pcd.c ****   ep->xfer_len = len;
 4983              		.loc 1 1939 3 is_stmt 1 view .LVU1994
1940:Drivers/STM32F4xx_HAL_Driver/Src/stm32f4xx_hal_pcd.c ****   ep->xfer_count = 0U;
 4984              		.loc 1 1940 3 view .LVU1995
1941:Drivers/STM32F4xx_HAL_Driver/Src/stm32f4xx_hal_pcd.c ****   ep->is_in = 1U;
 4985              		.loc 1 1941 3 view .LVU1996
1942:Drivers/STM32F4xx_HAL_Driver/Src/stm32f4xx_hal_pcd.c ****   ep->num = ep_addr & EP_ADDR_MSK;
 4986              		.loc 1 1942 3 view .LVU1997
1943:Drivers/STM32F4xx_HAL_Driver/Src/stm32f4xx_hal_pcd.c **** 
 4987              		.loc 1 1943 3 view .LVU1998
1945:Drivers/STM32F4xx_HAL_Driver/Src/stm32f4xx_hal_pcd.c ****   {
 4988              		.loc 1 1945 3 view .LVU1999
1947:Drivers/STM32F4xx_HAL_Driver/Src/stm32f4xx_hal_pcd.c ****   }
 4989              		.loc 1 1947 5 view .LVU2000
1950:Drivers/STM32F4xx_HAL_Driver/Src/stm32f4xx_hal_pcd.c **** 
 4990              		.loc 1 1950 3 view .LVU2001
1947:Drivers/STM32F4xx_HAL_Driver/Src/stm32f4xx_hal_pcd.c ****   }
 4991              		.loc 1 1947 18 is_stmt 0 view .LVU2002
ARM GAS  /tmp/ccDYdWST.s 			page 162


 4992 0036 08BF     		it	eq
 4993 0038 CCF83040 		streq	r4, [ip, #48]
1950:Drivers/STM32F4xx_HAL_Driver/Src/stm32f4xx_hal_pcd.c **** 
 4994              		.loc 1 1950 9 view .LVU2003
 4995 003c 0068     		ldr	r0, [r0]
 4996              	.LVL424:
1950:Drivers/STM32F4xx_HAL_Driver/Src/stm32f4xx_hal_pcd.c **** 
 4997              		.loc 1 1950 9 view .LVU2004
 4998 003e FFF7FEFF 		bl	USB_EPStartXfer
 4999              	.LVL425:
1952:Drivers/STM32F4xx_HAL_Driver/Src/stm32f4xx_hal_pcd.c **** }
 5000              		.loc 1 1952 3 is_stmt 1 view .LVU2005
1953:Drivers/STM32F4xx_HAL_Driver/Src/stm32f4xx_hal_pcd.c **** 
 5001              		.loc 1 1953 1 is_stmt 0 view .LVU2006
 5002 0042 0020     		movs	r0, #0
 5003 0044 10BD     		pop	{r4, pc}
1953:Drivers/STM32F4xx_HAL_Driver/Src/stm32f4xx_hal_pcd.c **** 
 5004              		.loc 1 1953 1 view .LVU2007
 5005              		.cfi_endproc
 5006              	.LFE160:
 5008 0046 00BF     		.section	.text.HAL_PCD_EP_SetStall,"ax",%progbits
 5009              		.align	1
 5010              		.p2align 2,,3
 5011              		.global	HAL_PCD_EP_SetStall
 5012              		.syntax unified
 5013              		.thumb
 5014              		.thumb_func
 5016              	HAL_PCD_EP_SetStall:
 5017              	.LVL426:
 5018              	.LFB161:
1962:Drivers/STM32F4xx_HAL_Driver/Src/stm32f4xx_hal_pcd.c ****   PCD_EPTypeDef *ep;
 5019              		.loc 1 1962 1 is_stmt 1 view -0
 5020              		.cfi_startproc
 5021              		@ args = 0, pretend = 0, frame = 0
 5022              		@ frame_needed = 0, uses_anonymous_args = 0
1963:Drivers/STM32F4xx_HAL_Driver/Src/stm32f4xx_hal_pcd.c **** 
 5023              		.loc 1 1963 3 view .LVU2009
1965:Drivers/STM32F4xx_HAL_Driver/Src/stm32f4xx_hal_pcd.c ****   {
 5024              		.loc 1 1965 3 view .LVU2010
1962:Drivers/STM32F4xx_HAL_Driver/Src/stm32f4xx_hal_pcd.c ****   PCD_EPTypeDef *ep;
 5025              		.loc 1 1962 1 is_stmt 0 view .LVU2011
 5026 0000 38B5     		push	{r3, r4, r5, lr}
 5027              	.LCFI21:
 5028              		.cfi_def_cfa_offset 16
 5029              		.cfi_offset 3, -16
 5030              		.cfi_offset 4, -12
 5031              		.cfi_offset 5, -8
 5032              		.cfi_offset 14, -4
1965:Drivers/STM32F4xx_HAL_Driver/Src/stm32f4xx_hal_pcd.c ****   {
 5033              		.loc 1 1965 6 view .LVU2012
 5034 0002 0379     		ldrb	r3, [r0, #4]	@ zero_extendqisi2
 5035 0004 01F00F05 		and	r5, r1, #15
 5036 0008 AB42     		cmp	r3, r5
 5037 000a 32D3     		bcc	.L466
1970:Drivers/STM32F4xx_HAL_Driver/Src/stm32f4xx_hal_pcd.c ****   {
 5038              		.loc 1 1970 3 is_stmt 1 view .LVU2013
1970:Drivers/STM32F4xx_HAL_Driver/Src/stm32f4xx_hal_pcd.c ****   {
ARM GAS  /tmp/ccDYdWST.s 			page 163


 5039              		.loc 1 1970 6 is_stmt 0 view .LVU2014
 5040 000c 0B06     		lsls	r3, r1, #24
 5041 000e 0446     		mov	r4, r0
 5042 0010 1CD4     		bmi	.L469
1977:Drivers/STM32F4xx_HAL_Driver/Src/stm32f4xx_hal_pcd.c ****     ep->is_in = 0U;
 5043              		.loc 1 1977 5 is_stmt 1 view .LVU2015
1978:Drivers/STM32F4xx_HAL_Driver/Src/stm32f4xx_hal_pcd.c ****   }
 5044              		.loc 1 1978 15 is_stmt 0 view .LVU2016
 5045 0012 01EBC103 		add	r3, r1, r1, lsl #3
1977:Drivers/STM32F4xx_HAL_Driver/Src/stm32f4xx_hal_pcd.c ****     ep->is_in = 0U;
 5046              		.loc 1 1977 8 view .LVU2017
 5047 0016 2422     		movs	r2, #36
 5048 0018 02FB0101 		mla	r1, r2, r1, r0
 5049              	.LVL427:
1978:Drivers/STM32F4xx_HAL_Driver/Src/stm32f4xx_hal_pcd.c ****   }
 5050              		.loc 1 1978 15 view .LVU2018
 5051 001c 00EB8303 		add	r3, r0, r3, lsl #2
1977:Drivers/STM32F4xx_HAL_Driver/Src/stm32f4xx_hal_pcd.c ****     ep->is_in = 0U;
 5052              		.loc 1 1977 8 view .LVU2019
 5053 0020 01F51571 		add	r1, r1, #596
 5054              	.LVL428:
1978:Drivers/STM32F4xx_HAL_Driver/Src/stm32f4xx_hal_pcd.c ****   }
 5055              		.loc 1 1978 5 is_stmt 1 view .LVU2020
1978:Drivers/STM32F4xx_HAL_Driver/Src/stm32f4xx_hal_pcd.c ****   }
 5056              		.loc 1 1978 15 is_stmt 0 view .LVU2021
 5057 0024 0022     		movs	r2, #0
 5058 0026 83F85522 		strb	r2, [r3, #597]
1981:Drivers/STM32F4xx_HAL_Driver/Src/stm32f4xx_hal_pcd.c ****   ep->num = ep_addr & EP_ADDR_MSK;
 5059              		.loc 1 1981 3 is_stmt 1 view .LVU2022
1981:Drivers/STM32F4xx_HAL_Driver/Src/stm32f4xx_hal_pcd.c ****   ep->num = ep_addr & EP_ADDR_MSK;
 5060              		.loc 1 1981 16 is_stmt 0 view .LVU2023
 5061 002a 0123     		movs	r3, #1
 5062 002c 8B70     		strb	r3, [r1, #2]
1982:Drivers/STM32F4xx_HAL_Driver/Src/stm32f4xx_hal_pcd.c **** 
 5063              		.loc 1 1982 3 is_stmt 1 view .LVU2024
1982:Drivers/STM32F4xx_HAL_Driver/Src/stm32f4xx_hal_pcd.c **** 
 5064              		.loc 1 1982 11 is_stmt 0 view .LVU2025
 5065 002e 0D70     		strb	r5, [r1]
1984:Drivers/STM32F4xx_HAL_Driver/Src/stm32f4xx_hal_pcd.c **** 
 5066              		.loc 1 1984 3 is_stmt 1 view .LVU2026
1984:Drivers/STM32F4xx_HAL_Driver/Src/stm32f4xx_hal_pcd.c **** 
 5067              		.loc 1 1984 3 view .LVU2027
 5068 0030 94F89424 		ldrb	r2, [r4, #1172]	@ zero_extendqisi2
 5069 0034 9A42     		cmp	r2, r3
 5070 0036 1AD0     		beq	.L467
 5071              	.L471:
1984:Drivers/STM32F4xx_HAL_Driver/Src/stm32f4xx_hal_pcd.c **** 
 5072              		.loc 1 1984 3 discriminator 2 view .LVU2028
1986:Drivers/STM32F4xx_HAL_Driver/Src/stm32f4xx_hal_pcd.c **** 
 5073              		.loc 1 1986 9 is_stmt 0 view .LVU2029
 5074 0038 2068     		ldr	r0, [r4]
 5075              	.LVL429:
1984:Drivers/STM32F4xx_HAL_Driver/Src/stm32f4xx_hal_pcd.c **** 
 5076              		.loc 1 1984 3 discriminator 2 view .LVU2030
 5077 003a 84F89434 		strb	r3, [r4, #1172]
1984:Drivers/STM32F4xx_HAL_Driver/Src/stm32f4xx_hal_pcd.c **** 
 5078              		.loc 1 1984 3 is_stmt 1 discriminator 2 view .LVU2031
ARM GAS  /tmp/ccDYdWST.s 			page 164


1986:Drivers/STM32F4xx_HAL_Driver/Src/stm32f4xx_hal_pcd.c **** 
 5079              		.loc 1 1986 3 view .LVU2032
1986:Drivers/STM32F4xx_HAL_Driver/Src/stm32f4xx_hal_pcd.c **** 
 5080              		.loc 1 1986 9 is_stmt 0 view .LVU2033
 5081 003e FFF7FEFF 		bl	USB_EPSetStall
 5082              	.LVL430:
1988:Drivers/STM32F4xx_HAL_Driver/Src/stm32f4xx_hal_pcd.c ****   {
 5083              		.loc 1 1988 3 is_stmt 1 view .LVU2034
1988:Drivers/STM32F4xx_HAL_Driver/Src/stm32f4xx_hal_pcd.c ****   {
 5084              		.loc 1 1988 6 is_stmt 0 view .LVU2035
 5085 0042 C5B1     		cbz	r5, .L470
 5086              	.L465:
1993:Drivers/STM32F4xx_HAL_Driver/Src/stm32f4xx_hal_pcd.c **** 
 5087              		.loc 1 1993 3 is_stmt 1 view .LVU2036
1993:Drivers/STM32F4xx_HAL_Driver/Src/stm32f4xx_hal_pcd.c **** 
 5088              		.loc 1 1993 3 view .LVU2037
 5089 0044 0020     		movs	r0, #0
 5090 0046 84F89404 		strb	r0, [r4, #1172]
1993:Drivers/STM32F4xx_HAL_Driver/Src/stm32f4xx_hal_pcd.c **** 
 5091              		.loc 1 1993 3 view .LVU2038
1995:Drivers/STM32F4xx_HAL_Driver/Src/stm32f4xx_hal_pcd.c **** }
 5092              		.loc 1 1995 3 view .LVU2039
1996:Drivers/STM32F4xx_HAL_Driver/Src/stm32f4xx_hal_pcd.c **** 
 5093              		.loc 1 1996 1 is_stmt 0 view .LVU2040
 5094 004a 38BD     		pop	{r3, r4, r5, pc}
 5095              	.LVL431:
 5096              	.L469:
1972:Drivers/STM32F4xx_HAL_Driver/Src/stm32f4xx_hal_pcd.c ****     ep->is_in = 1U;
 5097              		.loc 1 1972 5 is_stmt 1 view .LVU2041
1973:Drivers/STM32F4xx_HAL_Driver/Src/stm32f4xx_hal_pcd.c ****   }
 5098              		.loc 1 1973 15 is_stmt 0 view .LVU2042
 5099 004c 05EBC503 		add	r3, r5, r5, lsl #3
1972:Drivers/STM32F4xx_HAL_Driver/Src/stm32f4xx_hal_pcd.c ****     ep->is_in = 1U;
 5100              		.loc 1 1972 8 view .LVU2043
 5101 0050 2421     		movs	r1, #36
 5102              	.LVL432:
1972:Drivers/STM32F4xx_HAL_Driver/Src/stm32f4xx_hal_pcd.c ****     ep->is_in = 1U;
 5103              		.loc 1 1972 8 view .LVU2044
 5104 0052 01FB0501 		mla	r1, r1, r5, r0
1973:Drivers/STM32F4xx_HAL_Driver/Src/stm32f4xx_hal_pcd.c ****   }
 5105              		.loc 1 1973 15 view .LVU2045
 5106 0056 00EB8303 		add	r3, r0, r3, lsl #2
 5107 005a 0122     		movs	r2, #1
1972:Drivers/STM32F4xx_HAL_Driver/Src/stm32f4xx_hal_pcd.c ****     ep->is_in = 1U;
 5108              		.loc 1 1972 8 view .LVU2046
 5109 005c 1431     		adds	r1, r1, #20
 5110              	.LVL433:
1973:Drivers/STM32F4xx_HAL_Driver/Src/stm32f4xx_hal_pcd.c ****   }
 5111              		.loc 1 1973 5 is_stmt 1 view .LVU2047
1973:Drivers/STM32F4xx_HAL_Driver/Src/stm32f4xx_hal_pcd.c ****   }
 5112              		.loc 1 1973 15 is_stmt 0 view .LVU2048
 5113 005e 5A75     		strb	r2, [r3, #21]
1981:Drivers/STM32F4xx_HAL_Driver/Src/stm32f4xx_hal_pcd.c ****   ep->num = ep_addr & EP_ADDR_MSK;
 5114              		.loc 1 1981 3 is_stmt 1 view .LVU2049
1981:Drivers/STM32F4xx_HAL_Driver/Src/stm32f4xx_hal_pcd.c ****   ep->num = ep_addr & EP_ADDR_MSK;
 5115              		.loc 1 1981 16 is_stmt 0 view .LVU2050
 5116 0060 0123     		movs	r3, #1
ARM GAS  /tmp/ccDYdWST.s 			page 165


 5117 0062 8B70     		strb	r3, [r1, #2]
1982:Drivers/STM32F4xx_HAL_Driver/Src/stm32f4xx_hal_pcd.c **** 
 5118              		.loc 1 1982 3 is_stmt 1 view .LVU2051
1982:Drivers/STM32F4xx_HAL_Driver/Src/stm32f4xx_hal_pcd.c **** 
 5119              		.loc 1 1982 11 is_stmt 0 view .LVU2052
 5120 0064 0D70     		strb	r5, [r1]
1984:Drivers/STM32F4xx_HAL_Driver/Src/stm32f4xx_hal_pcd.c **** 
 5121              		.loc 1 1984 3 is_stmt 1 view .LVU2053
1984:Drivers/STM32F4xx_HAL_Driver/Src/stm32f4xx_hal_pcd.c **** 
 5122              		.loc 1 1984 3 view .LVU2054
 5123 0066 94F89424 		ldrb	r2, [r4, #1172]	@ zero_extendqisi2
 5124 006a 9A42     		cmp	r2, r3
 5125 006c E4D1     		bne	.L471
 5126              	.L467:
1984:Drivers/STM32F4xx_HAL_Driver/Src/stm32f4xx_hal_pcd.c **** 
 5127              		.loc 1 1984 3 is_stmt 0 discriminator 1 view .LVU2055
 5128 006e 0220     		movs	r0, #2
 5129              	.LVL434:
1996:Drivers/STM32F4xx_HAL_Driver/Src/stm32f4xx_hal_pcd.c **** 
 5130              		.loc 1 1996 1 view .LVU2056
 5131 0070 38BD     		pop	{r3, r4, r5, pc}
 5132              	.LVL435:
 5133              	.L466:
1967:Drivers/STM32F4xx_HAL_Driver/Src/stm32f4xx_hal_pcd.c ****   }
 5134              		.loc 1 1967 12 view .LVU2057
 5135 0072 0120     		movs	r0, #1
 5136              	.LVL436:
1996:Drivers/STM32F4xx_HAL_Driver/Src/stm32f4xx_hal_pcd.c **** 
 5137              		.loc 1 1996 1 view .LVU2058
 5138 0074 38BD     		pop	{r3, r4, r5, pc}
 5139              	.LVL437:
 5140              	.L470:
1990:Drivers/STM32F4xx_HAL_Driver/Src/stm32f4xx_hal_pcd.c ****   }
 5141              		.loc 1 1990 5 is_stmt 1 view .LVU2059
1990:Drivers/STM32F4xx_HAL_Driver/Src/stm32f4xx_hal_pcd.c ****   }
 5142              		.loc 1 1990 11 is_stmt 0 view .LVU2060
 5143 0076 A179     		ldrb	r1, [r4, #6]	@ zero_extendqisi2
 5144 0078 2068     		ldr	r0, [r4]
 5145 007a 04F29C42 		addw	r2, r4, #1180
 5146 007e FFF7FEFF 		bl	USB_EP0_OutStart
 5147              	.LVL438:
 5148 0082 DFE7     		b	.L465
 5149              		.cfi_endproc
 5150              	.LFE161:
 5152              		.section	.text.HAL_PCD_EP_ClrStall,"ax",%progbits
 5153              		.align	1
 5154              		.p2align 2,,3
 5155              		.global	HAL_PCD_EP_ClrStall
 5156              		.syntax unified
 5157              		.thumb
 5158              		.thumb_func
 5160              	HAL_PCD_EP_ClrStall:
 5161              	.LVL439:
 5162              	.LFB162:
2005:Drivers/STM32F4xx_HAL_Driver/Src/stm32f4xx_hal_pcd.c ****   PCD_EPTypeDef *ep;
 5163              		.loc 1 2005 1 is_stmt 1 view -0
 5164              		.cfi_startproc
ARM GAS  /tmp/ccDYdWST.s 			page 166


 5165              		@ args = 0, pretend = 0, frame = 0
 5166              		@ frame_needed = 0, uses_anonymous_args = 0
2006:Drivers/STM32F4xx_HAL_Driver/Src/stm32f4xx_hal_pcd.c **** 
 5167              		.loc 1 2006 3 view .LVU2062
2008:Drivers/STM32F4xx_HAL_Driver/Src/stm32f4xx_hal_pcd.c ****   {
 5168              		.loc 1 2008 3 view .LVU2063
2005:Drivers/STM32F4xx_HAL_Driver/Src/stm32f4xx_hal_pcd.c ****   PCD_EPTypeDef *ep;
 5169              		.loc 1 2005 1 is_stmt 0 view .LVU2064
 5170 0000 38B5     		push	{r3, r4, r5, lr}
 5171              	.LCFI22:
 5172              		.cfi_def_cfa_offset 16
 5173              		.cfi_offset 3, -16
 5174              		.cfi_offset 4, -12
 5175              		.cfi_offset 5, -8
 5176              		.cfi_offset 14, -4
2008:Drivers/STM32F4xx_HAL_Driver/Src/stm32f4xx_hal_pcd.c ****   {
 5177              		.loc 1 2008 6 view .LVU2065
 5178 0002 0379     		ldrb	r3, [r0, #4]	@ zero_extendqisi2
 5179 0004 01F00F02 		and	r2, r1, #15
 5180 0008 9342     		cmp	r3, r2
 5181 000a 2ED3     		bcc	.L476
2013:Drivers/STM32F4xx_HAL_Driver/Src/stm32f4xx_hal_pcd.c ****   {
 5182              		.loc 1 2013 3 is_stmt 1 view .LVU2066
 5183 000c 0446     		mov	r4, r0
 5184 000e 02EBC203 		add	r3, r2, r2, lsl #3
2016:Drivers/STM32F4xx_HAL_Driver/Src/stm32f4xx_hal_pcd.c ****   }
 5185              		.loc 1 2016 15 is_stmt 0 view .LVU2067
 5186 0012 02EBC200 		add	r0, r2, r2, lsl #3
 5187              	.LVL440:
2013:Drivers/STM32F4xx_HAL_Driver/Src/stm32f4xx_hal_pcd.c ****   {
 5188              		.loc 1 2013 6 view .LVU2068
 5189 0016 0906     		lsls	r1, r1, #24
 5190              	.LVL441:
2013:Drivers/STM32F4xx_HAL_Driver/Src/stm32f4xx_hal_pcd.c ****   {
 5191              		.loc 1 2013 6 view .LVU2069
 5192 0018 4FEA8303 		lsl	r3, r3, #2
2016:Drivers/STM32F4xx_HAL_Driver/Src/stm32f4xx_hal_pcd.c ****   }
 5193              		.loc 1 2016 15 view .LVU2070
 5194 001c 04EB8000 		add	r0, r4, r0, lsl #2
2013:Drivers/STM32F4xx_HAL_Driver/Src/stm32f4xx_hal_pcd.c ****   {
 5195              		.loc 1 2013 6 view .LVU2071
 5196 0020 16D4     		bmi	.L479
2020:Drivers/STM32F4xx_HAL_Driver/Src/stm32f4xx_hal_pcd.c ****     ep->is_in = 0U;
 5197              		.loc 1 2020 5 is_stmt 1 view .LVU2072
2020:Drivers/STM32F4xx_HAL_Driver/Src/stm32f4xx_hal_pcd.c ****     ep->is_in = 0U;
 5198              		.loc 1 2020 8 is_stmt 0 view .LVU2073
 5199 0022 03F51573 		add	r3, r3, #596
 5200 0026 E118     		adds	r1, r4, r3
 5201              	.LVL442:
2021:Drivers/STM32F4xx_HAL_Driver/Src/stm32f4xx_hal_pcd.c ****   }
 5202              		.loc 1 2021 5 is_stmt 1 view .LVU2074
2021:Drivers/STM32F4xx_HAL_Driver/Src/stm32f4xx_hal_pcd.c ****   }
 5203              		.loc 1 2021 15 is_stmt 0 view .LVU2075
 5204 0028 0025     		movs	r5, #0
 5205 002a 80F85552 		strb	r5, [r0, #597]
2024:Drivers/STM32F4xx_HAL_Driver/Src/stm32f4xx_hal_pcd.c ****   ep->num = ep_addr & EP_ADDR_MSK;
 5206              		.loc 1 2024 3 is_stmt 1 view .LVU2076
ARM GAS  /tmp/ccDYdWST.s 			page 167


2024:Drivers/STM32F4xx_HAL_Driver/Src/stm32f4xx_hal_pcd.c ****   ep->num = ep_addr & EP_ADDR_MSK;
 5207              		.loc 1 2024 16 is_stmt 0 view .LVU2077
 5208 002e 0025     		movs	r5, #0
 5209 0030 8D70     		strb	r5, [r1, #2]
2025:Drivers/STM32F4xx_HAL_Driver/Src/stm32f4xx_hal_pcd.c **** 
 5210              		.loc 1 2025 3 is_stmt 1 view .LVU2078
2025:Drivers/STM32F4xx_HAL_Driver/Src/stm32f4xx_hal_pcd.c **** 
 5211              		.loc 1 2025 11 is_stmt 0 view .LVU2079
 5212 0032 0A70     		strb	r2, [r1]
2027:Drivers/STM32F4xx_HAL_Driver/Src/stm32f4xx_hal_pcd.c ****   (void)USB_EPClearStall(hpcd->Instance, ep);
 5213              		.loc 1 2027 3 is_stmt 1 view .LVU2080
2027:Drivers/STM32F4xx_HAL_Driver/Src/stm32f4xx_hal_pcd.c ****   (void)USB_EPClearStall(hpcd->Instance, ep);
 5214              		.loc 1 2027 3 view .LVU2081
 5215 0034 94F89434 		ldrb	r3, [r4, #1172]	@ zero_extendqisi2
 5216 0038 012B     		cmp	r3, #1
 5217 003a 14D0     		beq	.L477
 5218              	.L480:
2027:Drivers/STM32F4xx_HAL_Driver/Src/stm32f4xx_hal_pcd.c ****   (void)USB_EPClearStall(hpcd->Instance, ep);
 5219              		.loc 1 2027 3 discriminator 2 view .LVU2082
 5220 003c 0123     		movs	r3, #1
2028:Drivers/STM32F4xx_HAL_Driver/Src/stm32f4xx_hal_pcd.c ****   __HAL_UNLOCK(hpcd);
 5221              		.loc 1 2028 9 is_stmt 0 view .LVU2083
 5222 003e 2068     		ldr	r0, [r4]
2027:Drivers/STM32F4xx_HAL_Driver/Src/stm32f4xx_hal_pcd.c ****   (void)USB_EPClearStall(hpcd->Instance, ep);
 5223              		.loc 1 2027 3 discriminator 2 view .LVU2084
 5224 0040 84F89434 		strb	r3, [r4, #1172]
2027:Drivers/STM32F4xx_HAL_Driver/Src/stm32f4xx_hal_pcd.c ****   (void)USB_EPClearStall(hpcd->Instance, ep);
 5225              		.loc 1 2027 3 is_stmt 1 discriminator 2 view .LVU2085
2028:Drivers/STM32F4xx_HAL_Driver/Src/stm32f4xx_hal_pcd.c ****   __HAL_UNLOCK(hpcd);
 5226              		.loc 1 2028 3 view .LVU2086
2028:Drivers/STM32F4xx_HAL_Driver/Src/stm32f4xx_hal_pcd.c ****   __HAL_UNLOCK(hpcd);
 5227              		.loc 1 2028 9 is_stmt 0 view .LVU2087
 5228 0044 FFF7FEFF 		bl	USB_EPClearStall
 5229              	.LVL443:
2029:Drivers/STM32F4xx_HAL_Driver/Src/stm32f4xx_hal_pcd.c **** 
 5230              		.loc 1 2029 3 is_stmt 1 view .LVU2088
2029:Drivers/STM32F4xx_HAL_Driver/Src/stm32f4xx_hal_pcd.c **** 
 5231              		.loc 1 2029 3 view .LVU2089
 5232 0048 84F89454 		strb	r5, [r4, #1172]
2029:Drivers/STM32F4xx_HAL_Driver/Src/stm32f4xx_hal_pcd.c **** 
 5233              		.loc 1 2029 3 view .LVU2090
2031:Drivers/STM32F4xx_HAL_Driver/Src/stm32f4xx_hal_pcd.c **** }
 5234              		.loc 1 2031 3 view .LVU2091
2031:Drivers/STM32F4xx_HAL_Driver/Src/stm32f4xx_hal_pcd.c **** }
 5235              		.loc 1 2031 10 is_stmt 0 view .LVU2092
 5236 004c 2846     		mov	r0, r5
2032:Drivers/STM32F4xx_HAL_Driver/Src/stm32f4xx_hal_pcd.c **** 
 5237              		.loc 1 2032 1 view .LVU2093
 5238 004e 38BD     		pop	{r3, r4, r5, pc}
 5239              	.LVL444:
 5240              	.L479:
2015:Drivers/STM32F4xx_HAL_Driver/Src/stm32f4xx_hal_pcd.c ****     ep->is_in = 1U;
 5241              		.loc 1 2015 5 is_stmt 1 view .LVU2094
2015:Drivers/STM32F4xx_HAL_Driver/Src/stm32f4xx_hal_pcd.c ****     ep->is_in = 1U;
 5242              		.loc 1 2015 8 is_stmt 0 view .LVU2095
 5243 0050 1433     		adds	r3, r3, #20
 5244 0052 E118     		adds	r1, r4, r3
ARM GAS  /tmp/ccDYdWST.s 			page 168


 5245              	.LVL445:
2016:Drivers/STM32F4xx_HAL_Driver/Src/stm32f4xx_hal_pcd.c ****   }
 5246              		.loc 1 2016 5 is_stmt 1 view .LVU2096
2016:Drivers/STM32F4xx_HAL_Driver/Src/stm32f4xx_hal_pcd.c ****   }
 5247              		.loc 1 2016 15 is_stmt 0 view .LVU2097
 5248 0054 0125     		movs	r5, #1
 5249 0056 4575     		strb	r5, [r0, #21]
2024:Drivers/STM32F4xx_HAL_Driver/Src/stm32f4xx_hal_pcd.c ****   ep->num = ep_addr & EP_ADDR_MSK;
 5250              		.loc 1 2024 3 is_stmt 1 view .LVU2098
2024:Drivers/STM32F4xx_HAL_Driver/Src/stm32f4xx_hal_pcd.c ****   ep->num = ep_addr & EP_ADDR_MSK;
 5251              		.loc 1 2024 16 is_stmt 0 view .LVU2099
 5252 0058 0025     		movs	r5, #0
 5253 005a 8D70     		strb	r5, [r1, #2]
2025:Drivers/STM32F4xx_HAL_Driver/Src/stm32f4xx_hal_pcd.c **** 
 5254              		.loc 1 2025 3 is_stmt 1 view .LVU2100
2025:Drivers/STM32F4xx_HAL_Driver/Src/stm32f4xx_hal_pcd.c **** 
 5255              		.loc 1 2025 11 is_stmt 0 view .LVU2101
 5256 005c 0A70     		strb	r2, [r1]
2027:Drivers/STM32F4xx_HAL_Driver/Src/stm32f4xx_hal_pcd.c ****   (void)USB_EPClearStall(hpcd->Instance, ep);
 5257              		.loc 1 2027 3 is_stmt 1 view .LVU2102
2027:Drivers/STM32F4xx_HAL_Driver/Src/stm32f4xx_hal_pcd.c ****   (void)USB_EPClearStall(hpcd->Instance, ep);
 5258              		.loc 1 2027 3 view .LVU2103
 5259 005e 94F89434 		ldrb	r3, [r4, #1172]	@ zero_extendqisi2
 5260 0062 012B     		cmp	r3, #1
 5261 0064 EAD1     		bne	.L480
 5262              	.L477:
2027:Drivers/STM32F4xx_HAL_Driver/Src/stm32f4xx_hal_pcd.c ****   (void)USB_EPClearStall(hpcd->Instance, ep);
 5263              		.loc 1 2027 3 is_stmt 0 discriminator 1 view .LVU2104
 5264 0066 0220     		movs	r0, #2
2032:Drivers/STM32F4xx_HAL_Driver/Src/stm32f4xx_hal_pcd.c **** 
 5265              		.loc 1 2032 1 view .LVU2105
 5266 0068 38BD     		pop	{r3, r4, r5, pc}
 5267              	.LVL446:
 5268              	.L476:
2010:Drivers/STM32F4xx_HAL_Driver/Src/stm32f4xx_hal_pcd.c ****   }
 5269              		.loc 1 2010 12 view .LVU2106
 5270 006a 0120     		movs	r0, #1
 5271              	.LVL447:
2032:Drivers/STM32F4xx_HAL_Driver/Src/stm32f4xx_hal_pcd.c **** 
 5272              		.loc 1 2032 1 view .LVU2107
 5273 006c 38BD     		pop	{r3, r4, r5, pc}
 5274              		.cfi_endproc
 5275              	.LFE162:
 5277 006e 00BF     		.section	.text.HAL_PCD_EP_Abort,"ax",%progbits
 5278              		.align	1
 5279              		.p2align 2,,3
 5280              		.global	HAL_PCD_EP_Abort
 5281              		.syntax unified
 5282              		.thumb
 5283              		.thumb_func
 5285              	HAL_PCD_EP_Abort:
 5286              	.LVL448:
 5287              	.LFB163:
2041:Drivers/STM32F4xx_HAL_Driver/Src/stm32f4xx_hal_pcd.c ****   HAL_StatusTypeDef ret;
 5288              		.loc 1 2041 1 is_stmt 1 view -0
 5289              		.cfi_startproc
 5290              		@ args = 0, pretend = 0, frame = 0
ARM GAS  /tmp/ccDYdWST.s 			page 169


 5291              		@ frame_needed = 0, uses_anonymous_args = 0
 5292              		@ link register save eliminated.
2042:Drivers/STM32F4xx_HAL_Driver/Src/stm32f4xx_hal_pcd.c ****   PCD_EPTypeDef *ep;
 5293              		.loc 1 2042 3 view .LVU2109
2043:Drivers/STM32F4xx_HAL_Driver/Src/stm32f4xx_hal_pcd.c **** 
 5294              		.loc 1 2043 3 view .LVU2110
2045:Drivers/STM32F4xx_HAL_Driver/Src/stm32f4xx_hal_pcd.c ****   {
 5295              		.loc 1 2045 3 view .LVU2111
 5296 0000 01F00F03 		and	r3, r1, #15
 5297 0004 03EBC303 		add	r3, r3, r3, lsl #3
 5298 0008 9B00     		lsls	r3, r3, #2
2045:Drivers/STM32F4xx_HAL_Driver/Src/stm32f4xx_hal_pcd.c ****   {
 5299              		.loc 1 2045 6 is_stmt 0 view .LVU2112
 5300 000a 0A06     		lsls	r2, r1, #24
2047:Drivers/STM32F4xx_HAL_Driver/Src/stm32f4xx_hal_pcd.c ****   }
 5301              		.loc 1 2047 5 is_stmt 1 view .LVU2113
2047:Drivers/STM32F4xx_HAL_Driver/Src/stm32f4xx_hal_pcd.c ****   }
 5302              		.loc 1 2047 8 is_stmt 0 view .LVU2114
 5303 000c 4CBF     		ite	mi
 5304 000e 1433     		addmi	r3, r3, #20
2051:Drivers/STM32F4xx_HAL_Driver/Src/stm32f4xx_hal_pcd.c ****   }
 5305              		.loc 1 2051 5 is_stmt 1 view .LVU2115
2051:Drivers/STM32F4xx_HAL_Driver/Src/stm32f4xx_hal_pcd.c ****   }
 5306              		.loc 1 2051 8 is_stmt 0 view .LVU2116
 5307 0010 03F51573 		addpl	r3, r3, #596
 5308 0014 C118     		adds	r1, r0, r3
 5309              	.LVL449:
2055:Drivers/STM32F4xx_HAL_Driver/Src/stm32f4xx_hal_pcd.c **** 
 5310              		.loc 1 2055 3 is_stmt 1 view .LVU2117
2055:Drivers/STM32F4xx_HAL_Driver/Src/stm32f4xx_hal_pcd.c **** 
 5311              		.loc 1 2055 9 is_stmt 0 view .LVU2118
 5312 0016 0068     		ldr	r0, [r0]
 5313              	.LVL450:
2055:Drivers/STM32F4xx_HAL_Driver/Src/stm32f4xx_hal_pcd.c **** 
 5314              		.loc 1 2055 9 view .LVU2119
 5315 0018 FFF7FEBF 		b	USB_EPStopXfer
 5316              	.LVL451:
2055:Drivers/STM32F4xx_HAL_Driver/Src/stm32f4xx_hal_pcd.c **** 
 5317              		.loc 1 2055 9 view .LVU2120
 5318              		.cfi_endproc
 5319              	.LFE163:
 5321              		.section	.text.HAL_PCD_EP_Flush,"ax",%progbits
 5322              		.align	1
 5323              		.p2align 2,,3
 5324              		.global	HAL_PCD_EP_Flush
 5325              		.syntax unified
 5326              		.thumb
 5327              		.thumb_func
 5329              	HAL_PCD_EP_Flush:
 5330              	.LVL452:
 5331              	.LFB164:
2067:Drivers/STM32F4xx_HAL_Driver/Src/stm32f4xx_hal_pcd.c ****   __HAL_LOCK(hpcd);
 5332              		.loc 1 2067 1 is_stmt 1 view -0
 5333              		.cfi_startproc
 5334              		@ args = 0, pretend = 0, frame = 0
 5335              		@ frame_needed = 0, uses_anonymous_args = 0
2068:Drivers/STM32F4xx_HAL_Driver/Src/stm32f4xx_hal_pcd.c **** 
ARM GAS  /tmp/ccDYdWST.s 			page 170


 5336              		.loc 1 2068 3 view .LVU2122
2068:Drivers/STM32F4xx_HAL_Driver/Src/stm32f4xx_hal_pcd.c **** 
 5337              		.loc 1 2068 3 view .LVU2123
 5338 0000 90F89434 		ldrb	r3, [r0, #1172]	@ zero_extendqisi2
 5339 0004 012B     		cmp	r3, #1
 5340 0006 15D0     		beq	.L488
2068:Drivers/STM32F4xx_HAL_Driver/Src/stm32f4xx_hal_pcd.c **** 
 5341              		.loc 1 2068 3 discriminator 2 view .LVU2124
 5342 0008 0123     		movs	r3, #1
2067:Drivers/STM32F4xx_HAL_Driver/Src/stm32f4xx_hal_pcd.c ****   __HAL_LOCK(hpcd);
 5343              		.loc 1 2067 1 is_stmt 0 view .LVU2125
 5344 000a 10B5     		push	{r4, lr}
 5345              	.LCFI23:
 5346              		.cfi_def_cfa_offset 8
 5347              		.cfi_offset 4, -8
 5348              		.cfi_offset 14, -4
2068:Drivers/STM32F4xx_HAL_Driver/Src/stm32f4xx_hal_pcd.c **** 
 5349              		.loc 1 2068 3 discriminator 2 view .LVU2126
 5350 000c 80F89434 		strb	r3, [r0, #1172]
2068:Drivers/STM32F4xx_HAL_Driver/Src/stm32f4xx_hal_pcd.c **** 
 5351              		.loc 1 2068 3 is_stmt 1 discriminator 2 view .LVU2127
2070:Drivers/STM32F4xx_HAL_Driver/Src/stm32f4xx_hal_pcd.c ****   {
 5352              		.loc 1 2070 3 view .LVU2128
2070:Drivers/STM32F4xx_HAL_Driver/Src/stm32f4xx_hal_pcd.c ****   {
 5353              		.loc 1 2070 6 is_stmt 0 view .LVU2129
 5354 0010 0B06     		lsls	r3, r1, #24
 5355 0012 0446     		mov	r4, r0
2072:Drivers/STM32F4xx_HAL_Driver/Src/stm32f4xx_hal_pcd.c ****   }
 5356              		.loc 1 2072 31 view .LVU2130
 5357 0014 0068     		ldr	r0, [r0]
 5358              	.LVL453:
2070:Drivers/STM32F4xx_HAL_Driver/Src/stm32f4xx_hal_pcd.c ****   {
 5359              		.loc 1 2070 6 view .LVU2131
 5360 0016 05D4     		bmi	.L493
2076:Drivers/STM32F4xx_HAL_Driver/Src/stm32f4xx_hal_pcd.c ****   }
 5361              		.loc 1 2076 5 is_stmt 1 view .LVU2132
2076:Drivers/STM32F4xx_HAL_Driver/Src/stm32f4xx_hal_pcd.c ****   }
 5362              		.loc 1 2076 11 is_stmt 0 view .LVU2133
 5363 0018 FFF7FEFF 		bl	USB_FlushRxFifo
 5364              	.LVL454:
2079:Drivers/STM32F4xx_HAL_Driver/Src/stm32f4xx_hal_pcd.c **** 
 5365              		.loc 1 2079 3 is_stmt 1 view .LVU2134
2079:Drivers/STM32F4xx_HAL_Driver/Src/stm32f4xx_hal_pcd.c **** 
 5366              		.loc 1 2079 3 view .LVU2135
 5367 001c 0020     		movs	r0, #0
 5368 001e 84F89404 		strb	r0, [r4, #1172]
2079:Drivers/STM32F4xx_HAL_Driver/Src/stm32f4xx_hal_pcd.c **** 
 5369              		.loc 1 2079 3 view .LVU2136
2081:Drivers/STM32F4xx_HAL_Driver/Src/stm32f4xx_hal_pcd.c **** }
 5370              		.loc 1 2081 3 view .LVU2137
2082:Drivers/STM32F4xx_HAL_Driver/Src/stm32f4xx_hal_pcd.c **** 
 5371              		.loc 1 2082 1 is_stmt 0 view .LVU2138
 5372 0022 10BD     		pop	{r4, pc}
 5373              	.LVL455:
 5374              	.L493:
2072:Drivers/STM32F4xx_HAL_Driver/Src/stm32f4xx_hal_pcd.c ****   }
 5375              		.loc 1 2072 5 is_stmt 1 view .LVU2139
ARM GAS  /tmp/ccDYdWST.s 			page 171


2072:Drivers/STM32F4xx_HAL_Driver/Src/stm32f4xx_hal_pcd.c ****   }
 5376              		.loc 1 2072 11 is_stmt 0 view .LVU2140
 5377 0024 01F00F01 		and	r1, r1, #15
 5378              	.LVL456:
2072:Drivers/STM32F4xx_HAL_Driver/Src/stm32f4xx_hal_pcd.c ****   }
 5379              		.loc 1 2072 11 view .LVU2141
 5380 0028 FFF7FEFF 		bl	USB_FlushTxFifo
 5381              	.LVL457:
2079:Drivers/STM32F4xx_HAL_Driver/Src/stm32f4xx_hal_pcd.c **** 
 5382              		.loc 1 2079 3 is_stmt 1 view .LVU2142
2079:Drivers/STM32F4xx_HAL_Driver/Src/stm32f4xx_hal_pcd.c **** 
 5383              		.loc 1 2079 3 view .LVU2143
 5384 002c 0020     		movs	r0, #0
 5385 002e 84F89404 		strb	r0, [r4, #1172]
2079:Drivers/STM32F4xx_HAL_Driver/Src/stm32f4xx_hal_pcd.c **** 
 5386              		.loc 1 2079 3 view .LVU2144
2081:Drivers/STM32F4xx_HAL_Driver/Src/stm32f4xx_hal_pcd.c **** }
 5387              		.loc 1 2081 3 view .LVU2145
2082:Drivers/STM32F4xx_HAL_Driver/Src/stm32f4xx_hal_pcd.c **** 
 5388              		.loc 1 2082 1 is_stmt 0 view .LVU2146
 5389 0032 10BD     		pop	{r4, pc}
 5390              	.LVL458:
 5391              	.L488:
 5392              	.LCFI24:
 5393              		.cfi_def_cfa_offset 0
 5394              		.cfi_restore 4
 5395              		.cfi_restore 14
2068:Drivers/STM32F4xx_HAL_Driver/Src/stm32f4xx_hal_pcd.c **** 
 5396              		.loc 1 2068 3 discriminator 1 view .LVU2147
 5397 0034 0220     		movs	r0, #2
 5398              	.LVL459:
2082:Drivers/STM32F4xx_HAL_Driver/Src/stm32f4xx_hal_pcd.c **** 
 5399              		.loc 1 2082 1 view .LVU2148
 5400 0036 7047     		bx	lr
 5401              		.cfi_endproc
 5402              	.LFE164:
 5404              		.section	.text.HAL_PCD_ActivateRemoteWakeup,"ax",%progbits
 5405              		.align	1
 5406              		.p2align 2,,3
 5407              		.global	HAL_PCD_ActivateRemoteWakeup
 5408              		.syntax unified
 5409              		.thumb
 5410              		.thumb_func
 5412              	HAL_PCD_ActivateRemoteWakeup:
 5413              	.LVL460:
 5414              	.LFB165:
2090:Drivers/STM32F4xx_HAL_Driver/Src/stm32f4xx_hal_pcd.c ****   return (USB_ActivateRemoteWakeup(hpcd->Instance));
 5415              		.loc 1 2090 1 is_stmt 1 view -0
 5416              		.cfi_startproc
 5417              		@ args = 0, pretend = 0, frame = 0
 5418              		@ frame_needed = 0, uses_anonymous_args = 0
 5419              		@ link register save eliminated.
2091:Drivers/STM32F4xx_HAL_Driver/Src/stm32f4xx_hal_pcd.c **** }
 5420              		.loc 1 2091 3 view .LVU2150
2091:Drivers/STM32F4xx_HAL_Driver/Src/stm32f4xx_hal_pcd.c **** }
 5421              		.loc 1 2091 11 is_stmt 0 view .LVU2151
 5422 0000 0068     		ldr	r0, [r0]
ARM GAS  /tmp/ccDYdWST.s 			page 172


 5423              	.LVL461:
2091:Drivers/STM32F4xx_HAL_Driver/Src/stm32f4xx_hal_pcd.c **** }
 5424              		.loc 1 2091 11 view .LVU2152
 5425 0002 FFF7FEBF 		b	USB_ActivateRemoteWakeup
 5426              	.LVL462:
 5427              		.cfi_endproc
 5428              	.LFE165:
 5430 0006 00BF     		.section	.text.HAL_PCD_DeActivateRemoteWakeup,"ax",%progbits
 5431              		.align	1
 5432              		.p2align 2,,3
 5433              		.global	HAL_PCD_DeActivateRemoteWakeup
 5434              		.syntax unified
 5435              		.thumb
 5436              		.thumb_func
 5438              	HAL_PCD_DeActivateRemoteWakeup:
 5439              	.LVL463:
 5440              	.LFB166:
2100:Drivers/STM32F4xx_HAL_Driver/Src/stm32f4xx_hal_pcd.c ****   return (USB_DeActivateRemoteWakeup(hpcd->Instance));
 5441              		.loc 1 2100 1 is_stmt 1 view -0
 5442              		.cfi_startproc
 5443              		@ args = 0, pretend = 0, frame = 0
 5444              		@ frame_needed = 0, uses_anonymous_args = 0
 5445              		@ link register save eliminated.
2101:Drivers/STM32F4xx_HAL_Driver/Src/stm32f4xx_hal_pcd.c **** }
 5446              		.loc 1 2101 3 view .LVU2154
2101:Drivers/STM32F4xx_HAL_Driver/Src/stm32f4xx_hal_pcd.c **** }
 5447              		.loc 1 2101 11 is_stmt 0 view .LVU2155
 5448 0000 0068     		ldr	r0, [r0]
 5449              	.LVL464:
2101:Drivers/STM32F4xx_HAL_Driver/Src/stm32f4xx_hal_pcd.c **** }
 5450              		.loc 1 2101 11 view .LVU2156
 5451 0002 FFF7FEBF 		b	USB_DeActivateRemoteWakeup
 5452              	.LVL465:
 5453              		.cfi_endproc
 5454              	.LFE166:
 5456 0006 00BF     		.section	.text.HAL_PCD_GetState,"ax",%progbits
 5457              		.align	1
 5458              		.p2align 2,,3
 5459              		.global	HAL_PCD_GetState
 5460              		.syntax unified
 5461              		.thumb
 5462              		.thumb_func
 5464              	HAL_PCD_GetState:
 5465              	.LVL466:
 5466              	.LFB167:
2129:Drivers/STM32F4xx_HAL_Driver/Src/stm32f4xx_hal_pcd.c ****   return hpcd->State;
 5467              		.loc 1 2129 1 is_stmt 1 view -0
 5468              		.cfi_startproc
 5469              		@ args = 0, pretend = 0, frame = 0
 5470              		@ frame_needed = 0, uses_anonymous_args = 0
 5471              		@ link register save eliminated.
2130:Drivers/STM32F4xx_HAL_Driver/Src/stm32f4xx_hal_pcd.c **** }
 5472              		.loc 1 2130 3 view .LVU2158
2130:Drivers/STM32F4xx_HAL_Driver/Src/stm32f4xx_hal_pcd.c **** }
 5473              		.loc 1 2130 14 is_stmt 0 view .LVU2159
 5474 0000 90F89504 		ldrb	r0, [r0, #1173]	@ zero_extendqisi2
 5475              	.LVL467:
ARM GAS  /tmp/ccDYdWST.s 			page 173


2131:Drivers/STM32F4xx_HAL_Driver/Src/stm32f4xx_hal_pcd.c **** 
 5476              		.loc 1 2131 1 view .LVU2160
 5477 0004 7047     		bx	lr
 5478              		.cfi_endproc
 5479              	.LFE167:
 5481 0006 00BF     		.section	.text.HAL_PCD_SetTestMode,"ax",%progbits
 5482              		.align	1
 5483              		.p2align 2,,3
 5484              		.global	HAL_PCD_SetTestMode
 5485              		.syntax unified
 5486              		.thumb
 5487              		.thumb_func
 5489              	HAL_PCD_SetTestMode:
 5490              	.LVL468:
 5491              	.LFB168:
2141:Drivers/STM32F4xx_HAL_Driver/Src/stm32f4xx_hal_pcd.c ****   const USB_OTG_GlobalTypeDef *USBx = hpcd->Instance;
 5492              		.loc 1 2141 1 is_stmt 1 view -0
 5493              		.cfi_startproc
 5494              		@ args = 0, pretend = 0, frame = 0
 5495              		@ frame_needed = 0, uses_anonymous_args = 0
 5496              		@ link register save eliminated.
2142:Drivers/STM32F4xx_HAL_Driver/Src/stm32f4xx_hal_pcd.c ****   uint32_t USBx_BASE = (uint32_t)USBx;
 5497              		.loc 1 2142 3 view .LVU2162
2145:Drivers/STM32F4xx_HAL_Driver/Src/stm32f4xx_hal_pcd.c ****   {
 5498              		.loc 1 2145 3 is_stmt 0 view .LVU2163
 5499 0000 4B1E     		subs	r3, r1, #1
 5500              	.LVL469:
2143:Drivers/STM32F4xx_HAL_Driver/Src/stm32f4xx_hal_pcd.c **** 
 5501              		.loc 1 2143 3 is_stmt 1 view .LVU2164
2145:Drivers/STM32F4xx_HAL_Driver/Src/stm32f4xx_hal_pcd.c ****   {
 5502              		.loc 1 2145 3 view .LVU2165
 5503 0002 042B     		cmp	r3, #4
 5504 0004 06D8     		bhi	.L498
2152:Drivers/STM32F4xx_HAL_Driver/Src/stm32f4xx_hal_pcd.c ****       break;
 5505              		.loc 1 2152 7 view .LVU2166
2152:Drivers/STM32F4xx_HAL_Driver/Src/stm32f4xx_hal_pcd.c ****       break;
 5506              		.loc 1 2152 18 is_stmt 0 view .LVU2167
 5507 0006 0368     		ldr	r3, [r0]
 5508 0008 D3F80428 		ldr	r2, [r3, #2052]
2152:Drivers/STM32F4xx_HAL_Driver/Src/stm32f4xx_hal_pcd.c ****       break;
 5509              		.loc 1 2152 25 view .LVU2168
 5510 000c 42EA0112 		orr	r2, r2, r1, lsl #4
 5511 0010 C3F80428 		str	r2, [r3, #2052]
2153:Drivers/STM32F4xx_HAL_Driver/Src/stm32f4xx_hal_pcd.c **** 
 5512              		.loc 1 2153 7 is_stmt 1 view .LVU2169
 5513              	.L498:
2159:Drivers/STM32F4xx_HAL_Driver/Src/stm32f4xx_hal_pcd.c **** }
 5514              		.loc 1 2159 3 view .LVU2170
2160:Drivers/STM32F4xx_HAL_Driver/Src/stm32f4xx_hal_pcd.c **** #endif /* defined (USB_OTG_FS) || defined (USB_OTG_HS) */
 5515              		.loc 1 2160 1 is_stmt 0 view .LVU2171
 5516 0014 0020     		movs	r0, #0
 5517              	.LVL470:
2160:Drivers/STM32F4xx_HAL_Driver/Src/stm32f4xx_hal_pcd.c **** #endif /* defined (USB_OTG_FS) || defined (USB_OTG_HS) */
 5518              		.loc 1 2160 1 view .LVU2172
 5519 0016 7047     		bx	lr
 5520              		.cfi_endproc
 5521              	.LFE168:
ARM GAS  /tmp/ccDYdWST.s 			page 174


 5523              		.text
 5524              	.Letext0:
 5525              		.file 2 "/usr/arm-none-eabi/include/machine/_default_types.h"
 5526              		.file 3 "/usr/arm-none-eabi/include/sys/_stdint.h"
 5527              		.file 4 "Drivers/CMSIS/Device/ST/STM32F4xx/Include/stm32f411xe.h"
 5528              		.file 5 "Drivers/STM32F4xx_HAL_Driver/Inc/stm32f4xx_hal_def.h"
 5529              		.file 6 "Drivers/STM32F4xx_HAL_Driver/Inc/stm32f4xx_ll_usb.h"
 5530              		.file 7 "Drivers/STM32F4xx_HAL_Driver/Inc/stm32f4xx_hal_pcd.h"
 5531              		.file 8 "Drivers/STM32F4xx_HAL_Driver/Inc/stm32f4xx_hal_pcd_ex.h"
 5532              		.file 9 "Drivers/STM32F4xx_HAL_Driver/Inc/stm32f4xx_hal_rcc.h"
ARM GAS  /tmp/ccDYdWST.s 			page 175


DEFINED SYMBOLS
                            *ABS*:00000000 stm32f4xx_hal_pcd.c
     /tmp/ccDYdWST.s:21     .text.HAL_PCD_MspInit:00000000 $t
     /tmp/ccDYdWST.s:28     .text.HAL_PCD_MspInit:00000000 HAL_PCD_MspInit
     /tmp/ccDYdWST.s:43     .text.HAL_PCD_Init:00000000 $t
     /tmp/ccDYdWST.s:50     .text.HAL_PCD_Init:00000000 HAL_PCD_Init
     /tmp/ccDYdWST.s:967    .text.HAL_PCD_MspDeInit:00000000 $t
     /tmp/ccDYdWST.s:974    .text.HAL_PCD_MspDeInit:00000000 HAL_PCD_MspDeInit
     /tmp/ccDYdWST.s:986    .text.HAL_PCD_DeInit:00000000 $t
     /tmp/ccDYdWST.s:993    .text.HAL_PCD_DeInit:00000000 HAL_PCD_DeInit
     /tmp/ccDYdWST.s:1052   .text.HAL_PCD_Start:00000000 $t
     /tmp/ccDYdWST.s:1059   .text.HAL_PCD_Start:00000000 HAL_PCD_Start
     /tmp/ccDYdWST.s:1137   .text.HAL_PCD_Stop:00000000 $t
     /tmp/ccDYdWST.s:1144   .text.HAL_PCD_Stop:00000000 HAL_PCD_Stop
     /tmp/ccDYdWST.s:1238   .text.HAL_PCD_WKUP_IRQHandler:00000000 $t
     /tmp/ccDYdWST.s:1245   .text.HAL_PCD_WKUP_IRQHandler:00000000 HAL_PCD_WKUP_IRQHandler
     /tmp/ccDYdWST.s:1272   .text.HAL_PCD_WKUP_IRQHandler:00000018 $d
     /tmp/ccDYdWST.s:1277   .text.HAL_PCD_DataOutStageCallback:00000000 $t
     /tmp/ccDYdWST.s:1284   .text.HAL_PCD_DataOutStageCallback:00000000 HAL_PCD_DataOutStageCallback
     /tmp/ccDYdWST.s:1300   .text.HAL_PCD_DataInStageCallback:00000000 $t
     /tmp/ccDYdWST.s:1307   .text.HAL_PCD_DataInStageCallback:00000000 HAL_PCD_DataInStageCallback
     /tmp/ccDYdWST.s:1319   .text.HAL_PCD_SetupStageCallback:00000000 $t
     /tmp/ccDYdWST.s:1326   .text.HAL_PCD_SetupStageCallback:00000000 HAL_PCD_SetupStageCallback
     /tmp/ccDYdWST.s:1338   .text.HAL_PCD_SOFCallback:00000000 $t
     /tmp/ccDYdWST.s:1345   .text.HAL_PCD_SOFCallback:00000000 HAL_PCD_SOFCallback
     /tmp/ccDYdWST.s:1357   .text.HAL_PCD_ResetCallback:00000000 $t
     /tmp/ccDYdWST.s:1364   .text.HAL_PCD_ResetCallback:00000000 HAL_PCD_ResetCallback
     /tmp/ccDYdWST.s:1376   .text.HAL_PCD_SuspendCallback:00000000 $t
     /tmp/ccDYdWST.s:1383   .text.HAL_PCD_SuspendCallback:00000000 HAL_PCD_SuspendCallback
     /tmp/ccDYdWST.s:1395   .text.HAL_PCD_ResumeCallback:00000000 $t
     /tmp/ccDYdWST.s:1402   .text.HAL_PCD_ResumeCallback:00000000 HAL_PCD_ResumeCallback
     /tmp/ccDYdWST.s:1414   .text.HAL_PCD_ISOOUTIncompleteCallback:00000000 $t
     /tmp/ccDYdWST.s:1421   .text.HAL_PCD_ISOOUTIncompleteCallback:00000000 HAL_PCD_ISOOUTIncompleteCallback
     /tmp/ccDYdWST.s:1433   .text.HAL_PCD_ISOINIncompleteCallback:00000000 $t
     /tmp/ccDYdWST.s:1440   .text.HAL_PCD_ISOINIncompleteCallback:00000000 HAL_PCD_ISOINIncompleteCallback
     /tmp/ccDYdWST.s:1452   .text.HAL_PCD_ConnectCallback:00000000 $t
     /tmp/ccDYdWST.s:1459   .text.HAL_PCD_ConnectCallback:00000000 HAL_PCD_ConnectCallback
     /tmp/ccDYdWST.s:1471   .text.HAL_PCD_DisconnectCallback:00000000 $t
     /tmp/ccDYdWST.s:1478   .text.HAL_PCD_DisconnectCallback:00000000 HAL_PCD_DisconnectCallback
     /tmp/ccDYdWST.s:1490   .text.HAL_PCD_IRQHandler:00000000 $t
     /tmp/ccDYdWST.s:1497   .text.HAL_PCD_IRQHandler:00000000 HAL_PCD_IRQHandler
     /tmp/ccDYdWST.s:4169   .text.HAL_PCD_IRQHandler:00000a70 $d
     /tmp/ccDYdWST.s:4183   .text.HAL_PCD_IRQHandler:00000a78 $t
     /tmp/ccDYdWST.s:4323   .text.HAL_PCD_IRQHandler:00000af8 $d
     /tmp/ccDYdWST.s:4330   .text.HAL_PCD_DevConnect:00000000 $t
     /tmp/ccDYdWST.s:4337   .text.HAL_PCD_DevConnect:00000000 HAL_PCD_DevConnect
     /tmp/ccDYdWST.s:4427   .text.HAL_PCD_DevDisconnect:00000000 $t
     /tmp/ccDYdWST.s:4434   .text.HAL_PCD_DevDisconnect:00000000 HAL_PCD_DevDisconnect
     /tmp/ccDYdWST.s:4518   .text.HAL_PCD_SetAddress:00000000 $t
     /tmp/ccDYdWST.s:4525   .text.HAL_PCD_SetAddress:00000000 HAL_PCD_SetAddress
     /tmp/ccDYdWST.s:4585   .text.HAL_PCD_EP_Open:00000000 $t
     /tmp/ccDYdWST.s:4592   .text.HAL_PCD_EP_Open:00000000 HAL_PCD_EP_Open
     /tmp/ccDYdWST.s:4713   .text.HAL_PCD_EP_Close:00000000 $t
     /tmp/ccDYdWST.s:4720   .text.HAL_PCD_EP_Close:00000000 HAL_PCD_EP_Close
     /tmp/ccDYdWST.s:4817   .text.HAL_PCD_EP_Receive:00000000 $t
     /tmp/ccDYdWST.s:4824   .text.HAL_PCD_EP_Receive:00000000 HAL_PCD_EP_Receive
     /tmp/ccDYdWST.s:4897   .text.HAL_PCD_EP_GetRxCount:00000000 $t
ARM GAS  /tmp/ccDYdWST.s 			page 176


     /tmp/ccDYdWST.s:4904   .text.HAL_PCD_EP_GetRxCount:00000000 HAL_PCD_EP_GetRxCount
     /tmp/ccDYdWST.s:4927   .text.HAL_PCD_EP_Transmit:00000000 $t
     /tmp/ccDYdWST.s:4934   .text.HAL_PCD_EP_Transmit:00000000 HAL_PCD_EP_Transmit
     /tmp/ccDYdWST.s:5009   .text.HAL_PCD_EP_SetStall:00000000 $t
     /tmp/ccDYdWST.s:5016   .text.HAL_PCD_EP_SetStall:00000000 HAL_PCD_EP_SetStall
     /tmp/ccDYdWST.s:5153   .text.HAL_PCD_EP_ClrStall:00000000 $t
     /tmp/ccDYdWST.s:5160   .text.HAL_PCD_EP_ClrStall:00000000 HAL_PCD_EP_ClrStall
     /tmp/ccDYdWST.s:5278   .text.HAL_PCD_EP_Abort:00000000 $t
     /tmp/ccDYdWST.s:5285   .text.HAL_PCD_EP_Abort:00000000 HAL_PCD_EP_Abort
     /tmp/ccDYdWST.s:5322   .text.HAL_PCD_EP_Flush:00000000 $t
     /tmp/ccDYdWST.s:5329   .text.HAL_PCD_EP_Flush:00000000 HAL_PCD_EP_Flush
     /tmp/ccDYdWST.s:5405   .text.HAL_PCD_ActivateRemoteWakeup:00000000 $t
     /tmp/ccDYdWST.s:5412   .text.HAL_PCD_ActivateRemoteWakeup:00000000 HAL_PCD_ActivateRemoteWakeup
     /tmp/ccDYdWST.s:5431   .text.HAL_PCD_DeActivateRemoteWakeup:00000000 $t
     /tmp/ccDYdWST.s:5438   .text.HAL_PCD_DeActivateRemoteWakeup:00000000 HAL_PCD_DeActivateRemoteWakeup
     /tmp/ccDYdWST.s:5457   .text.HAL_PCD_GetState:00000000 $t
     /tmp/ccDYdWST.s:5464   .text.HAL_PCD_GetState:00000000 HAL_PCD_GetState
     /tmp/ccDYdWST.s:5482   .text.HAL_PCD_SetTestMode:00000000 $t
     /tmp/ccDYdWST.s:5489   .text.HAL_PCD_SetTestMode:00000000 HAL_PCD_SetTestMode

UNDEFINED SYMBOLS
USB_DisableGlobalInt
USB_CoreInit
USB_SetCurrentMode
USB_DevInit
USB_DevDisconnect
USB_StopDevice
USB_EnableGlobalInt
USB_DevConnect
USB_FlushTxFifo
USB_GetMode
USB_ReadInterrupts
USB_EPStopXfer
USB_ActivateSetup
USB_GetDevSpeed
HAL_RCC_GetHCLKFreq
USB_SetTurnaroundTime
USB_EP0_OutStart
USB_ReadDevAllInEpInterrupt
USB_ReadDevInEPInterrupt
USB_WritePacket
USB_ReadDevAllOutEpInterrupt
USB_ReadDevOutEPInterrupt
HAL_PCDEx_LPM_Callback
USB_ReadPacket
USB_SetDevAddress
USB_ActivateEndpoint
USB_DeactivateEndpoint
USB_EPStartXfer
USB_EPSetStall
USB_EPClearStall
USB_FlushRxFifo
USB_ActivateRemoteWakeup
USB_DeActivateRemoteWakeup
