ARM GAS  /tmp/cccI0J7J.s 			page 1


   1              		.cpu cortex-m4
   2              		.arch armv7e-m
   3              		.fpu fpv4-sp-d16
   4              		.eabi_attribute 27, 1
   5              		.eabi_attribute 28, 1
   6              		.eabi_attribute 20, 1
   7              		.eabi_attribute 21, 1
   8              		.eabi_attribute 23, 3
   9              		.eabi_attribute 24, 1
  10              		.eabi_attribute 25, 1
  11              		.eabi_attribute 26, 1
  12              		.eabi_attribute 30, 2
  13              		.eabi_attribute 34, 1
  14              		.eabi_attribute 18, 4
  15              		.file	"usb_device.c"
  16              		.text
  17              	.Ltext0:
  18              		.cfi_sections	.debug_frame
  19              		.file 1 "USB_DEVICE/App/usb_device.c"
  20              		.section	.text.MX_USB_DEVICE_Init,"ax",%progbits
  21              		.align	1
  22              		.p2align 2,,3
  23              		.global	MX_USB_DEVICE_Init
  24              		.syntax unified
  25              		.thumb
  26              		.thumb_func
  28              	MX_USB_DEVICE_Init:
  29              	.LFB138:
   1:USB_DEVICE/App/usb_device.c **** /* USER CODE BEGIN Header */
   2:USB_DEVICE/App/usb_device.c **** /**
   3:USB_DEVICE/App/usb_device.c ****   ******************************************************************************
   4:USB_DEVICE/App/usb_device.c ****   * @file           : usb_device.c
   5:USB_DEVICE/App/usb_device.c ****   * @version        : v1.0_Cube
   6:USB_DEVICE/App/usb_device.c ****   * @brief          : This file implements the USB Device
   7:USB_DEVICE/App/usb_device.c ****   ******************************************************************************
   8:USB_DEVICE/App/usb_device.c ****   * @attention
   9:USB_DEVICE/App/usb_device.c ****   *
  10:USB_DEVICE/App/usb_device.c ****   * Copyright (c) 2023 STMicroelectronics.
  11:USB_DEVICE/App/usb_device.c ****   * All rights reserved.
  12:USB_DEVICE/App/usb_device.c ****   *
  13:USB_DEVICE/App/usb_device.c ****   * This software is licensed under terms that can be found in the LICENSE file
  14:USB_DEVICE/App/usb_device.c ****   * in the root directory of this software component.
  15:USB_DEVICE/App/usb_device.c ****   * If no LICENSE file comes with this software, it is provided AS-IS.
  16:USB_DEVICE/App/usb_device.c ****   *
  17:USB_DEVICE/App/usb_device.c ****   ******************************************************************************
  18:USB_DEVICE/App/usb_device.c ****   */
  19:USB_DEVICE/App/usb_device.c **** 
  20:USB_DEVICE/App/usb_device.c **** #include "usb_device.h"
  21:USB_DEVICE/App/usb_device.c **** #include "usbd_core.h"
  22:USB_DEVICE/App/usb_device.c **** #include "usbd_desc.h"
  23:USB_DEVICE/App/usb_device.c **** #include "usbd_customhid.h"
  24:USB_DEVICE/App/usb_device.c **** #include "usbd_custom_hid_if.h"
  25:USB_DEVICE/App/usb_device.c **** 
  26:USB_DEVICE/App/usb_device.c **** USBD_HandleTypeDef hUsbDeviceFS;
  27:USB_DEVICE/App/usb_device.c **** 
  28:USB_DEVICE/App/usb_device.c **** void MX_USB_DEVICE_Init(void){
  30              		.loc 1 28 30 view -0
ARM GAS  /tmp/cccI0J7J.s 			page 2


  31              		.cfi_startproc
  32              		@ args = 0, pretend = 0, frame = 0
  33              		@ frame_needed = 0, uses_anonymous_args = 0
  29:USB_DEVICE/App/usb_device.c ****   if (USBD_Init(&hUsbDeviceFS, &FS_Desc, DEVICE_FS) != USBD_OK)
  34              		.loc 1 29 3 view .LVU1
  28:USB_DEVICE/App/usb_device.c ****   if (USBD_Init(&hUsbDeviceFS, &FS_Desc, DEVICE_FS) != USBD_OK)
  35              		.loc 1 28 30 is_stmt 0 view .LVU2
  36 0000 08B5     		push	{r3, lr}
  37              	.LCFI0:
  38              		.cfi_def_cfa_offset 8
  39              		.cfi_offset 3, -8
  40              		.cfi_offset 14, -4
  41              		.loc 1 29 7 view .LVU3
  42 0002 1849     		ldr	r1, .L21
  43 0004 1848     		ldr	r0, .L21+4
  44 0006 0022     		movs	r2, #0
  45 0008 FFF7FEFF 		bl	USBD_Init
  46              	.LVL0:
  47              		.loc 1 29 6 discriminator 1 view .LVU4
  48 000c 70B9     		cbnz	r0, .L17
  30:USB_DEVICE/App/usb_device.c ****   {
  31:USB_DEVICE/App/usb_device.c ****     Error_Handler();
  32:USB_DEVICE/App/usb_device.c ****   }
  33:USB_DEVICE/App/usb_device.c ****   if (USBD_RegisterClass(&hUsbDeviceFS, &USB_MIDI) != USBD_OK)
  49              		.loc 1 33 3 is_stmt 1 view .LVU5
  50              		.loc 1 33 7 is_stmt 0 view .LVU6
  51 000e 1749     		ldr	r1, .L21+8
  52 0010 1548     		ldr	r0, .L21+4
  53 0012 FFF7FEFF 		bl	USBD_RegisterClass
  54              	.LVL1:
  55              		.loc 1 33 6 discriminator 1 view .LVU7
  56 0016 88B9     		cbnz	r0, .L18
  57              	.L3:
  34:USB_DEVICE/App/usb_device.c ****   {
  35:USB_DEVICE/App/usb_device.c ****     Error_Handler();
  36:USB_DEVICE/App/usb_device.c ****   }
  37:USB_DEVICE/App/usb_device.c ****   if (USB_MIDI_RegisterInterface(&hUsbDeviceFS, &USB_MIDI_dev) != USBD_OK)
  58              		.loc 1 37 3 is_stmt 1 view .LVU8
  59              		.loc 1 37 7 is_stmt 0 view .LVU9
  60 0018 1549     		ldr	r1, .L21+12
  61 001a 1348     		ldr	r0, .L21+4
  62 001c FFF7FEFF 		bl	USB_MIDI_RegisterInterface
  63              	.LVL2:
  64              		.loc 1 37 6 discriminator 1 view .LVU10
  65 0020 A0B9     		cbnz	r0, .L19
  66              	.L4:
  38:USB_DEVICE/App/usb_device.c ****   {
  39:USB_DEVICE/App/usb_device.c ****     Error_Handler();
  40:USB_DEVICE/App/usb_device.c ****   }
  41:USB_DEVICE/App/usb_device.c ****   if (USBD_Start(&hUsbDeviceFS) != USBD_OK)
  67              		.loc 1 41 3 is_stmt 1 view .LVU11
  68              		.loc 1 41 7 is_stmt 0 view .LVU12
  69 0022 1148     		ldr	r0, .L21+4
  70 0024 FFF7FEFF 		bl	USBD_Start
  71              	.LVL3:
  72              		.loc 1 41 6 discriminator 1 view .LVU13
  73 0028 B8B9     		cbnz	r0, .L20
ARM GAS  /tmp/cccI0J7J.s 			page 3


  74              	.L1:
  42:USB_DEVICE/App/usb_device.c ****   {
  43:USB_DEVICE/App/usb_device.c ****     Error_Handler();
  44:USB_DEVICE/App/usb_device.c ****   }
  45:USB_DEVICE/App/usb_device.c **** }
  75              		.loc 1 45 1 view .LVU14
  76 002a 08BD     		pop	{r3, pc}
  77              	.L17:
  31:USB_DEVICE/App/usb_device.c ****   }
  78              		.loc 1 31 5 is_stmt 1 view .LVU15
  79 002c FFF7FEFF 		bl	Error_Handler
  80              	.LVL4:
  33:USB_DEVICE/App/usb_device.c ****   {
  81              		.loc 1 33 3 view .LVU16
  33:USB_DEVICE/App/usb_device.c ****   {
  82              		.loc 1 33 7 is_stmt 0 view .LVU17
  83 0030 0E49     		ldr	r1, .L21+8
  84 0032 0D48     		ldr	r0, .L21+4
  85 0034 FFF7FEFF 		bl	USBD_RegisterClass
  86              	.LVL5:
  33:USB_DEVICE/App/usb_device.c ****   {
  87              		.loc 1 33 6 discriminator 1 view .LVU18
  88 0038 0028     		cmp	r0, #0
  89 003a EDD0     		beq	.L3
  90              	.L18:
  35:USB_DEVICE/App/usb_device.c ****   }
  91              		.loc 1 35 5 is_stmt 1 view .LVU19
  92 003c FFF7FEFF 		bl	Error_Handler
  93              	.LVL6:
  37:USB_DEVICE/App/usb_device.c ****   {
  94              		.loc 1 37 3 view .LVU20
  37:USB_DEVICE/App/usb_device.c ****   {
  95              		.loc 1 37 7 is_stmt 0 view .LVU21
  96 0040 0B49     		ldr	r1, .L21+12
  97 0042 0948     		ldr	r0, .L21+4
  98 0044 FFF7FEFF 		bl	USB_MIDI_RegisterInterface
  99              	.LVL7:
  37:USB_DEVICE/App/usb_device.c ****   {
 100              		.loc 1 37 6 discriminator 1 view .LVU22
 101 0048 0028     		cmp	r0, #0
 102 004a EAD0     		beq	.L4
 103              	.L19:
  39:USB_DEVICE/App/usb_device.c ****   }
 104              		.loc 1 39 5 is_stmt 1 view .LVU23
 105 004c FFF7FEFF 		bl	Error_Handler
 106              	.LVL8:
  41:USB_DEVICE/App/usb_device.c ****   {
 107              		.loc 1 41 3 view .LVU24
  41:USB_DEVICE/App/usb_device.c ****   {
 108              		.loc 1 41 7 is_stmt 0 view .LVU25
 109 0050 0548     		ldr	r0, .L21+4
 110 0052 FFF7FEFF 		bl	USBD_Start
 111              	.LVL9:
  41:USB_DEVICE/App/usb_device.c ****   {
 112              		.loc 1 41 6 discriminator 1 view .LVU26
 113 0056 0028     		cmp	r0, #0
 114 0058 E7D0     		beq	.L1
ARM GAS  /tmp/cccI0J7J.s 			page 4


 115              	.L20:
  43:USB_DEVICE/App/usb_device.c ****   }
 116              		.loc 1 43 5 is_stmt 1 view .LVU27
 117              		.loc 1 45 1 is_stmt 0 view .LVU28
 118 005a BDE80840 		pop	{r3, lr}
 119              	.LCFI1:
 120              		.cfi_restore 14
 121              		.cfi_restore 3
 122              		.cfi_def_cfa_offset 0
  43:USB_DEVICE/App/usb_device.c ****   }
 123              		.loc 1 43 5 view .LVU29
 124 005e FFF7FEBF 		b	Error_Handler
 125              	.LVL10:
 126              	.L22:
 127 0062 00BF     		.align	2
 128              	.L21:
 129 0064 00000000 		.word	FS_Desc
 130 0068 00000000 		.word	hUsbDeviceFS
 131 006c 00000000 		.word	USB_MIDI
 132 0070 00000000 		.word	USB_MIDI_dev
 133              		.cfi_endproc
 134              	.LFE138:
 136              		.global	hUsbDeviceFS
 137              		.section	.bss.hUsbDeviceFS,"aw",%nobits
 138              		.align	2
 141              	hUsbDeviceFS:
 142 0000 00000000 		.space	732
 142      00000000 
 142      00000000 
 142      00000000 
 142      00000000 
 143              		.text
 144              	.Letext0:
 145              		.file 2 "/usr/arm-none-eabi/include/machine/_default_types.h"
 146              		.file 3 "/usr/arm-none-eabi/include/sys/_stdint.h"
 147              		.file 4 "Middlewares/ST/STM32_USB_Device_Library/Core/Inc/usbd_def.h"
 148              		.file 5 "Middlewares/ST/STM32_USB_Device_Library/Class/CustomHID/Inc/usbd_customhid.h"
 149              		.file 6 "USB_DEVICE/App/usbd_desc.h"
 150              		.file 7 "USB_DEVICE/App/usbd_custom_hid_if.h"
 151              		.file 8 "Middlewares/ST/STM32_USB_Device_Library/Core/Inc/usbd_core.h"
 152              		.file 9 "src/main.h"
ARM GAS  /tmp/cccI0J7J.s 			page 5

