ARM GAS  /tmp/cc11Km7m.s 			page 1


   1              		.cpu cortex-m4
   2              		.arch armv7e-m
   3              		.fpu fpv4-sp-d16
   4              		.eabi_attribute 27, 1
   5              		.eabi_attribute 28, 1
   6              		.eabi_attribute 20, 1
   7              		.eabi_attribute 21, 1
   8              		.eabi_attribute 23, 3
   9              		.eabi_attribute 24, 1
  10              		.eabi_attribute 25, 1
  11              		.eabi_attribute 26, 1
  12              		.eabi_attribute 30, 2
  13              		.eabi_attribute 34, 1
  14              		.eabi_attribute 18, 4
  15              		.file	"usbd_custom_hid_if.c"
  16              		.text
  17              	.Ltext0:
  18              		.cfi_sections	.debug_frame
  19              		.file 1 "USB_DEVICE/App/usbd_custom_hid_if.c"
  20              		.section	.text.CUSTOM_HID_Init_FS,"ax",%progbits
  21              		.align	1
  22              		.p2align 2,,3
  23              		.syntax unified
  24              		.thumb
  25              		.thumb_func
  27              	CUSTOM_HID_Init_FS:
  28              	.LFB138:
   1:USB_DEVICE/App/usbd_custom_hid_if.c **** #include "usbd_custom_hid_if.h"
   2:USB_DEVICE/App/usbd_custom_hid_if.c **** 
   3:USB_DEVICE/App/usbd_custom_hid_if.c **** static int8_t CUSTOM_HID_Init_FS(void);
   4:USB_DEVICE/App/usbd_custom_hid_if.c **** static int8_t CUSTOM_HID_DeInit_FS(void);
   5:USB_DEVICE/App/usbd_custom_hid_if.c **** static int8_t CUSTOM_HID_OutEvent_FS(uint8_t *data, uint8_t size);
   6:USB_DEVICE/App/usbd_custom_hid_if.c **** 
   7:USB_DEVICE/App/usbd_custom_hid_if.c **** USB_MIDI_ItfTypeDef USB_MIDI_dev =
   8:USB_DEVICE/App/usbd_custom_hid_if.c **** {
   9:USB_DEVICE/App/usbd_custom_hid_if.c ****   NULL,
  10:USB_DEVICE/App/usbd_custom_hid_if.c ****   CUSTOM_HID_Init_FS,
  11:USB_DEVICE/App/usbd_custom_hid_if.c ****   CUSTOM_HID_DeInit_FS,
  12:USB_DEVICE/App/usbd_custom_hid_if.c ****   CUSTOM_HID_OutEvent_FS
  13:USB_DEVICE/App/usbd_custom_hid_if.c **** };
  14:USB_DEVICE/App/usbd_custom_hid_if.c **** 
  15:USB_DEVICE/App/usbd_custom_hid_if.c **** extern USBD_HandleTypeDef hUsbDeviceFS;
  16:USB_DEVICE/App/usbd_custom_hid_if.c **** extern void USB_MIDI_dout(MIDIMesg *);
  17:USB_DEVICE/App/usbd_custom_hid_if.c **** extern void USB_MIDI_sysex(uint8_t *data, uint16_t size);
  18:USB_DEVICE/App/usbd_custom_hid_if.c **** 
  19:USB_DEVICE/App/usbd_custom_hid_if.c **** static int8_t CUSTOM_HID_Init_FS(void) { return (USBD_OK); }
  29              		.loc 1 19 40 view -0
  30              		.cfi_startproc
  31              		@ args = 0, pretend = 0, frame = 0
  32              		@ frame_needed = 0, uses_anonymous_args = 0
  33              		@ link register save eliminated.
  34              		.loc 1 19 42 view .LVU1
  35              		.loc 1 19 60 is_stmt 0 view .LVU2
  36 0000 0020     		movs	r0, #0
  37 0002 7047     		bx	lr
  38              		.cfi_endproc
  39              	.LFE138:
ARM GAS  /tmp/cc11Km7m.s 			page 2


  41              		.section	.text.CUSTOM_HID_OutEvent_FS,"ax",%progbits
  42              		.align	1
  43              		.p2align 2,,3
  44              		.syntax unified
  45              		.thumb
  46              		.thumb_func
  48              	CUSTOM_HID_OutEvent_FS:
  49              	.LVL0:
  50              	.LFB140:
  20:USB_DEVICE/App/usbd_custom_hid_if.c **** static int8_t CUSTOM_HID_DeInit_FS(void) { return (USBD_OK); }
  21:USB_DEVICE/App/usbd_custom_hid_if.c **** 
  22:USB_DEVICE/App/usbd_custom_hid_if.c **** //Sizes of different commands (taken from page 16 of https://www.usb.org/sites/default/files/midi10
  23:USB_DEVICE/App/usbd_custom_hid_if.c **** static const uint8_t MIDI_sizes[16] = {
  24:USB_DEVICE/App/usbd_custom_hid_if.c ****     0, 0, 2, 3,
  25:USB_DEVICE/App/usbd_custom_hid_if.c ****     3, 1, 2, 3,
  26:USB_DEVICE/App/usbd_custom_hid_if.c ****     3, 3, 3, 3,
  27:USB_DEVICE/App/usbd_custom_hid_if.c ****     2, 2, 3, 1
  28:USB_DEVICE/App/usbd_custom_hid_if.c **** };
  29:USB_DEVICE/App/usbd_custom_hid_if.c **** 
  30:USB_DEVICE/App/usbd_custom_hid_if.c **** static uint8_t sysex_buffer[512];
  31:USB_DEVICE/App/usbd_custom_hid_if.c **** static uint16_t sysex_cursor;
  32:USB_DEVICE/App/usbd_custom_hid_if.c **** static int8_t CUSTOM_HID_OutEvent_FS(uint8_t *data, uint8_t size){
  51              		.loc 1 32 66 is_stmt 1 view -0
  52              		.cfi_startproc
  53              		@ args = 0, pretend = 0, frame = 0
  54              		@ frame_needed = 0, uses_anonymous_args = 0
  33:USB_DEVICE/App/usbd_custom_hid_if.c ****     while(((int8_t)size) > 0){
  55              		.loc 1 33 5 view .LVU4
  32:USB_DEVICE/App/usbd_custom_hid_if.c ****     while(((int8_t)size) > 0){
  56              		.loc 1 32 66 is_stmt 0 view .LVU5
  57 0000 2DE9F047 		push	{r4, r5, r6, r7, r8, r9, r10, lr}
  58              	.LCFI0:
  59              		.cfi_def_cfa_offset 32
  60              		.cfi_offset 4, -32
  61              		.cfi_offset 5, -28
  62              		.cfi_offset 6, -24
  63              		.cfi_offset 7, -20
  64              		.cfi_offset 8, -16
  65              		.cfi_offset 9, -12
  66              		.cfi_offset 10, -8
  67              		.cfi_offset 14, -4
  68              	.LBB2:
  34:USB_DEVICE/App/usbd_custom_hid_if.c ****         uint8_t cmd_size = MIDI_sizes[data[0] & 0x0f];
  69              		.loc 1 34 17 view .LVU6
  70 0004 234F     		ldr	r7, .L18
  71              	.LBE2:
  32:USB_DEVICE/App/usbd_custom_hid_if.c ****     while(((int8_t)size) > 0){
  72              		.loc 1 32 66 view .LVU7
  73 0006 0C46     		mov	r4, r1
  74              	.LVL1:
  75              	.L5:
  33:USB_DEVICE/App/usbd_custom_hid_if.c ****     while(((int8_t)size) > 0){
  76              		.loc 1 33 26 is_stmt 1 view .LVU8
  77 0008 63B2     		sxtb	r3, r4
  78 000a 002B     		cmp	r3, #0
  79 000c 15DD     		ble	.L8
  80              	.LBB3:
ARM GAS  /tmp/cc11Km7m.s 			page 3


  81              		.loc 1 34 9 view .LVU9
  82 000e 8046     		mov	r8, r0
  35:USB_DEVICE/App/usbd_custom_hid_if.c ****         uint8_t cmd = data[0] & 0x0f;
  36:USB_DEVICE/App/usbd_custom_hid_if.c ****         data++;
  37:USB_DEVICE/App/usbd_custom_hid_if.c ****         size--;
  83              		.loc 1 37 13 is_stmt 0 view .LVU10
  84 0010 013C     		subs	r4, r4, #1
  85              	.LVL2:
  86              		.loc 1 37 13 view .LVU11
  87 0012 18F8015B 		ldrb	r5, [r8], #1	@ zero_extendqisi2
  88 0016 05F00F05 		and	r5, r5, #15
  89 001a E4B2     		uxtb	r4, r4
  90              	.LVL3:
  34:USB_DEVICE/App/usbd_custom_hid_if.c ****         uint8_t cmd_size = MIDI_sizes[data[0] & 0x0f];
  91              		.loc 1 34 17 view .LVU12
  92 001c 7E5D     		ldrb	r6, [r7, r5]	@ zero_extendqisi2
  93              	.LVL4:
  35:USB_DEVICE/App/usbd_custom_hid_if.c ****         uint8_t cmd = data[0] & 0x0f;
  94              		.loc 1 35 9 is_stmt 1 view .LVU13
  36:USB_DEVICE/App/usbd_custom_hid_if.c ****         size--;
  95              		.loc 1 36 9 view .LVU14
  96              		.loc 1 37 9 view .LVU15
  38:USB_DEVICE/App/usbd_custom_hid_if.c **** 
  39:USB_DEVICE/App/usbd_custom_hid_if.c ****         if(cmd_size == 0)continue; //Undefined cmd, skipping
  97              		.loc 1 39 9 view .LVU16
  98              		.loc 1 39 11 is_stmt 0 view .LVU17
  99 001e 06B3     		cbz	r6, .L14
  40:USB_DEVICE/App/usbd_custom_hid_if.c **** 
  41:USB_DEVICE/App/usbd_custom_hid_if.c ****         //Sysex start, end and data
  42:USB_DEVICE/App/usbd_custom_hid_if.c ****         if(cmd >= 0x04 && cmd <= 0x7){
 100              		.loc 1 42 9 is_stmt 1 view .LVU18
 101              		.loc 1 42 11 is_stmt 0 view .LVU19
 102 0020 2B1F     		subs	r3, r5, #4
 103 0022 032B     		cmp	r3, #3
 104 0024 12D8     		bhi	.L6
  43:USB_DEVICE/App/usbd_custom_hid_if.c ****             if(data[0] == 0xf0){
 105              		.loc 1 43 13 is_stmt 1 view .LVU20
 106              		.loc 1 43 15 is_stmt 0 view .LVU21
 107 0026 4378     		ldrb	r3, [r0, #1]	@ zero_extendqisi2
 108 0028 F02B     		cmp	r3, #240
 109 002a 1CD0     		beq	.L15
  44:USB_DEVICE/App/usbd_custom_hid_if.c ****                 sysex_cursor = 0;
  45:USB_DEVICE/App/usbd_custom_hid_if.c ****             }
  46:USB_DEVICE/App/usbd_custom_hid_if.c ****             //Avoid segfault
  47:USB_DEVICE/App/usbd_custom_hid_if.c ****             if(sysex_cursor > 500)break;
 110              		.loc 1 47 13 is_stmt 1 view .LVU22
 111              		.loc 1 47 29 is_stmt 0 view .LVU23
 112 002c DFF870A0 		ldr	r10, .L18+12
 113 0030 BAF80090 		ldrh	r9, [r10]
 114              		.loc 1 47 15 view .LVU24
 115 0034 B9F5FA7F 		cmp	r9, #500
 116 0038 29D9     		bls	.L17
 117              	.LVL5:
 118              	.L8:
 119              		.loc 1 47 15 view .LVU25
 120              	.LBE3:
  48:USB_DEVICE/App/usbd_custom_hid_if.c ****             memcpy(sysex_buffer + sysex_cursor, data, cmd_size);
ARM GAS  /tmp/cc11Km7m.s 			page 4


  49:USB_DEVICE/App/usbd_custom_hid_if.c **** 
  50:USB_DEVICE/App/usbd_custom_hid_if.c ****             sysex_cursor += cmd_size;
  51:USB_DEVICE/App/usbd_custom_hid_if.c ****             data += cmd_size;
  52:USB_DEVICE/App/usbd_custom_hid_if.c ****             size -= cmd_size;
  53:USB_DEVICE/App/usbd_custom_hid_if.c **** 
  54:USB_DEVICE/App/usbd_custom_hid_if.c ****             if(cmd != 0x04)USB_MIDI_sysex(sysex_buffer, sysex_cursor);
  55:USB_DEVICE/App/usbd_custom_hid_if.c ****             continue;
  56:USB_DEVICE/App/usbd_custom_hid_if.c ****         }
  57:USB_DEVICE/App/usbd_custom_hid_if.c **** 
  58:USB_DEVICE/App/usbd_custom_hid_if.c ****         if(cmd < 0x8 || cmd > 0xe){
  59:USB_DEVICE/App/usbd_custom_hid_if.c ****             data += cmd_size;
  60:USB_DEVICE/App/usbd_custom_hid_if.c ****             size -= cmd_size;
  61:USB_DEVICE/App/usbd_custom_hid_if.c ****             continue;
  62:USB_DEVICE/App/usbd_custom_hid_if.c ****         }
  63:USB_DEVICE/App/usbd_custom_hid_if.c **** 
  64:USB_DEVICE/App/usbd_custom_hid_if.c ****         USB_MIDI_dout((MIDIMesg *)data);
  65:USB_DEVICE/App/usbd_custom_hid_if.c ****         data += cmd_size;
  66:USB_DEVICE/App/usbd_custom_hid_if.c ****         size -= cmd_size;
  67:USB_DEVICE/App/usbd_custom_hid_if.c ****     }
  68:USB_DEVICE/App/usbd_custom_hid_if.c **** 
  69:USB_DEVICE/App/usbd_custom_hid_if.c ****     if(USB_MIDI_ReceivePacket(&hUsbDeviceFS) != (uint8_t)USBD_OK){
 121              		.loc 1 69 5 is_stmt 1 view .LVU26
 122              		.loc 1 69 8 is_stmt 0 view .LVU27
 123 003a 1748     		ldr	r0, .L18+4
 124 003c FFF7FEFF 		bl	USB_MIDI_ReceivePacket
 125              	.LVL6:
 126              		.loc 1 69 7 discriminator 1 view .LVU28
 127 0040 0038     		subs	r0, r0, #0
 128 0042 18BF     		it	ne
 129 0044 0120     		movne	r0, #1
  70:USB_DEVICE/App/usbd_custom_hid_if.c ****         return -1;
  71:USB_DEVICE/App/usbd_custom_hid_if.c ****     }
  72:USB_DEVICE/App/usbd_custom_hid_if.c **** 
  73:USB_DEVICE/App/usbd_custom_hid_if.c ****     return (USBD_OK);
  74:USB_DEVICE/App/usbd_custom_hid_if.c **** }
 130              		.loc 1 74 1 view .LVU29
 131 0046 4042     		rsbs	r0, r0, #0
 132 0048 BDE8F087 		pop	{r4, r5, r6, r7, r8, r9, r10, pc}
 133              	.LVL7:
 134              	.L6:
 135              	.LBB4:
  58:USB_DEVICE/App/usbd_custom_hid_if.c ****             data += cmd_size;
 136              		.loc 1 58 9 is_stmt 1 view .LVU30
  58:USB_DEVICE/App/usbd_custom_hid_if.c ****             data += cmd_size;
 137              		.loc 1 58 11 is_stmt 0 view .LVU31
 138 004c 083D     		subs	r5, r5, #8
 139              	.LVL8:
  58:USB_DEVICE/App/usbd_custom_hid_if.c ****             data += cmd_size;
 140              		.loc 1 58 11 view .LVU32
 141 004e 062D     		cmp	r5, #6
 142 0050 02D8     		bhi	.L12
  64:USB_DEVICE/App/usbd_custom_hid_if.c ****         data += cmd_size;
 143              		.loc 1 64 9 is_stmt 1 view .LVU33
 144 0052 4046     		mov	r0, r8
 145 0054 FFF7FEFF 		bl	USB_MIDI_dout
 146              	.LVL9:
  65:USB_DEVICE/App/usbd_custom_hid_if.c ****         size -= cmd_size;
ARM GAS  /tmp/cc11Km7m.s 			page 5


 147              		.loc 1 65 9 view .LVU34
  66:USB_DEVICE/App/usbd_custom_hid_if.c ****     }
 148              		.loc 1 66 9 view .LVU35
 149              	.L12:
  52:USB_DEVICE/App/usbd_custom_hid_if.c **** 
 150              		.loc 1 52 18 is_stmt 0 view .LVU36
 151 0058 A41B     		subs	r4, r4, r6
  59:USB_DEVICE/App/usbd_custom_hid_if.c ****             size -= cmd_size;
 152              		.loc 1 59 18 view .LVU37
 153 005a 08EB0600 		add	r0, r8, r6
  52:USB_DEVICE/App/usbd_custom_hid_if.c **** 
 154              		.loc 1 52 18 view .LVU38
 155 005e E4B2     		uxtb	r4, r4
 156 0060 D2E7     		b	.L5
 157              	.LVL10:
 158              	.L14:
  36:USB_DEVICE/App/usbd_custom_hid_if.c ****         size--;
 159              		.loc 1 36 13 view .LVU39
 160 0062 4046     		mov	r0, r8
 161 0064 D0E7     		b	.L5
 162              	.L15:
  36:USB_DEVICE/App/usbd_custom_hid_if.c ****         size--;
 163              		.loc 1 36 13 view .LVU40
 164 0066 0D48     		ldr	r0, .L18+8
 165 0068 DFF834A0 		ldr	r10, .L18+12
  47:USB_DEVICE/App/usbd_custom_hid_if.c ****             memcpy(sysex_buffer + sysex_cursor, data, cmd_size);
 166              		.loc 1 47 29 view .LVU41
 167 006c 4FF00009 		mov	r9, #0
 168              	.L7:
  48:USB_DEVICE/App/usbd_custom_hid_if.c **** 
 169              		.loc 1 48 13 is_stmt 1 view .LVU42
 170 0070 4146     		mov	r1, r8
 171 0072 3246     		mov	r2, r6
 172 0074 FFF7FEFF 		bl	memcpy
 173              	.LVL11:
  50:USB_DEVICE/App/usbd_custom_hid_if.c ****             data += cmd_size;
 174              		.loc 1 50 13 view .LVU43
  50:USB_DEVICE/App/usbd_custom_hid_if.c ****             data += cmd_size;
 175              		.loc 1 50 26 is_stmt 0 view .LVU44
 176 0078 06EB0901 		add	r1, r6, r9
 177 007c 89B2     		uxth	r1, r1
  54:USB_DEVICE/App/usbd_custom_hid_if.c ****             continue;
 178              		.loc 1 54 15 view .LVU45
 179 007e 042D     		cmp	r5, #4
  50:USB_DEVICE/App/usbd_custom_hid_if.c ****             data += cmd_size;
 180              		.loc 1 50 26 view .LVU46
 181 0080 AAF80010 		strh	r1, [r10]	@ movhi
  51:USB_DEVICE/App/usbd_custom_hid_if.c ****             size -= cmd_size;
 182              		.loc 1 51 13 is_stmt 1 view .LVU47
 183              	.LVL12:
  52:USB_DEVICE/App/usbd_custom_hid_if.c **** 
 184              		.loc 1 52 13 view .LVU48
  54:USB_DEVICE/App/usbd_custom_hid_if.c ****             continue;
 185              		.loc 1 54 13 view .LVU49
  54:USB_DEVICE/App/usbd_custom_hid_if.c ****             continue;
 186              		.loc 1 54 15 is_stmt 0 view .LVU50
 187 0084 E8D0     		beq	.L12
ARM GAS  /tmp/cc11Km7m.s 			page 6


  54:USB_DEVICE/App/usbd_custom_hid_if.c ****             continue;
 188              		.loc 1 54 28 is_stmt 1 discriminator 1 view .LVU51
 189 0086 0548     		ldr	r0, .L18+8
 190 0088 FFF7FEFF 		bl	USB_MIDI_sysex
 191              	.LVL13:
 192 008c E4E7     		b	.L12
 193              	.LVL14:
 194              	.L17:
  48:USB_DEVICE/App/usbd_custom_hid_if.c **** 
 195              		.loc 1 48 13 is_stmt 0 view .LVU52
 196 008e 0348     		ldr	r0, .L18+8
 197 0090 4844     		add	r0, r0, r9
 198 0092 EDE7     		b	.L7
 199              	.L19:
 200              		.align	2
 201              	.L18:
 202 0094 00000000 		.word	MIDI_sizes
 203 0098 00000000 		.word	hUsbDeviceFS
 204 009c 00000000 		.word	sysex_buffer
 205 00a0 00000000 		.word	sysex_cursor
 206              	.LBE4:
 207              		.cfi_endproc
 208              	.LFE140:
 210              		.section	.text.CUSTOM_HID_DeInit_FS,"ax",%progbits
 211              		.align	1
 212              		.p2align 2,,3
 213              		.syntax unified
 214              		.thumb
 215              		.thumb_func
 217              	CUSTOM_HID_DeInit_FS:
 218              	.LFB142:
 219              		.cfi_startproc
  20:USB_DEVICE/App/usbd_custom_hid_if.c **** 
 220              		.loc 1 20 15 is_stmt 1 view -0
 221              		@ args = 0, pretend = 0, frame = 0
 222              		@ frame_needed = 0, uses_anonymous_args = 0
 223              		@ link register save eliminated.
 224 0000 0020     		movs	r0, #0
 225 0002 7047     		bx	lr
 226              		.cfi_endproc
 227              	.LFE142:
 229              		.section	.bss.sysex_cursor,"aw",%nobits
 230              		.align	1
 233              	sysex_cursor:
 234 0000 0000     		.space	2
 235              		.section	.bss.sysex_buffer,"aw",%nobits
 236              		.align	2
 239              	sysex_buffer:
 240 0000 00000000 		.space	512
 240      00000000 
 240      00000000 
 240      00000000 
 240      00000000 
 241              		.section	.rodata.MIDI_sizes,"a"
 242              		.align	2
 245              	MIDI_sizes:
 246 0000 00000203 		.ascii	"\000\000\002\003\003\001\002\003\003\003\003\003\002"
ARM GAS  /tmp/cc11Km7m.s 			page 7


 246      03010203 
 246      03030303 
 246      02
 247 000d 020301   		.ascii	"\002\003\001"
 248              		.global	USB_MIDI_dev
 249              		.section	.data.USB_MIDI_dev,"aw"
 250              		.align	2
 253              	USB_MIDI_dev:
 254 0000 00000000 		.word	0
 255 0004 00000000 		.word	CUSTOM_HID_Init_FS
 256 0008 00000000 		.word	CUSTOM_HID_DeInit_FS
 257 000c 00000000 		.word	CUSTOM_HID_OutEvent_FS
 258              		.text
 259              	.Letext0:
 260              		.file 2 "/usr/arm-none-eabi/include/machine/_default_types.h"
 261              		.file 3 "/usr/lib/gcc/arm-none-eabi/13.2.0/include/stddef.h"
 262              		.file 4 "/usr/arm-none-eabi/include/sys/_stdint.h"
 263              		.file 5 "Middlewares/ST/STM32_USB_Device_Library/Core/Inc/usbd_def.h"
 264              		.file 6 "Middlewares/ST/STM32_USB_Device_Library/Class/CustomHID/Inc/usbd_customhid.h"
 265              		.file 7 "USB_DEVICE/App/usbd_custom_hid_if.h"
 266              		.file 8 "/usr/arm-none-eabi/include/string.h"
 267              		.file 9 "<built-in>"
ARM GAS  /tmp/cc11Km7m.s 			page 8

