ARM GAS  /tmp/ccEnClGU.s 			page 1


   1              		.cpu cortex-m4
   2              		.arch armv7e-m
   3              		.fpu fpv4-sp-d16
   4              		.eabi_attribute 27, 1
   5              		.eabi_attribute 28, 1
   6              		.eabi_attribute 20, 1
   7              		.eabi_attribute 21, 1
   8              		.eabi_attribute 23, 3
   9              		.eabi_attribute 24, 1
  10              		.eabi_attribute 25, 1
  11              		.eabi_attribute 26, 1
  12              		.eabi_attribute 30, 2
  13              		.eabi_attribute 34, 1
  14              		.eabi_attribute 18, 4
  15              		.file	"usbd_conf.c"
  16              		.text
  17              	.Ltext0:
  18              		.cfi_sections	.debug_frame
  19              		.file 1 "USB_DEVICE/Target/usbd_conf.c"
  20              		.section	.text.HAL_PCD_MspInit,"ax",%progbits
  21              		.align	1
  22              		.p2align 2,,3
  23              		.global	HAL_PCD_MspInit
  24              		.syntax unified
  25              		.thumb
  26              		.thumb_func
  28              	HAL_PCD_MspInit:
  29              	.LVL0:
  30              	.LFB138:
   1:USB_DEVICE/Target/usbd_conf.c **** /* USER CODE BEGIN Header */
   2:USB_DEVICE/Target/usbd_conf.c **** /**
   3:USB_DEVICE/Target/usbd_conf.c ****   ******************************************************************************
   4:USB_DEVICE/Target/usbd_conf.c ****   * @file           : Target/usbd_conf.c
   5:USB_DEVICE/Target/usbd_conf.c ****   * @version        : v1.0_Cube
   6:USB_DEVICE/Target/usbd_conf.c ****   * @brief          : This file implements the board support package for the USB device library
   7:USB_DEVICE/Target/usbd_conf.c ****   ******************************************************************************
   8:USB_DEVICE/Target/usbd_conf.c ****   * @attention
   9:USB_DEVICE/Target/usbd_conf.c ****   *
  10:USB_DEVICE/Target/usbd_conf.c ****   * Copyright (c) 2023 STMicroelectronics.
  11:USB_DEVICE/Target/usbd_conf.c ****   * All rights reserved.
  12:USB_DEVICE/Target/usbd_conf.c ****   *
  13:USB_DEVICE/Target/usbd_conf.c ****   * This software is licensed under terms that can be found in the LICENSE file
  14:USB_DEVICE/Target/usbd_conf.c ****   * in the root directory of this software component.
  15:USB_DEVICE/Target/usbd_conf.c ****   * If no LICENSE file comes with this software, it is provided AS-IS.
  16:USB_DEVICE/Target/usbd_conf.c ****   *
  17:USB_DEVICE/Target/usbd_conf.c ****   ******************************************************************************
  18:USB_DEVICE/Target/usbd_conf.c ****   */
  19:USB_DEVICE/Target/usbd_conf.c **** /* USER CODE END Header */
  20:USB_DEVICE/Target/usbd_conf.c **** 
  21:USB_DEVICE/Target/usbd_conf.c **** /* Includes ------------------------------------------------------------------*/
  22:USB_DEVICE/Target/usbd_conf.c **** #include "stm32f4xx.h"
  23:USB_DEVICE/Target/usbd_conf.c **** #include "stm32f4xx_hal.h"
  24:USB_DEVICE/Target/usbd_conf.c **** #include "usbd_def.h"
  25:USB_DEVICE/Target/usbd_conf.c **** #include "usbd_core.h"
  26:USB_DEVICE/Target/usbd_conf.c **** 
  27:USB_DEVICE/Target/usbd_conf.c **** #include "usbd_customhid.h"
  28:USB_DEVICE/Target/usbd_conf.c **** 
ARM GAS  /tmp/ccEnClGU.s 			page 2


  29:USB_DEVICE/Target/usbd_conf.c **** /* USER CODE BEGIN Includes */
  30:USB_DEVICE/Target/usbd_conf.c **** 
  31:USB_DEVICE/Target/usbd_conf.c **** /* USER CODE END Includes */
  32:USB_DEVICE/Target/usbd_conf.c **** 
  33:USB_DEVICE/Target/usbd_conf.c **** /* Private typedef -----------------------------------------------------------*/
  34:USB_DEVICE/Target/usbd_conf.c **** /* Private define ------------------------------------------------------------*/
  35:USB_DEVICE/Target/usbd_conf.c **** /* Private macro -------------------------------------------------------------*/
  36:USB_DEVICE/Target/usbd_conf.c **** 
  37:USB_DEVICE/Target/usbd_conf.c **** /* USER CODE BEGIN PV */
  38:USB_DEVICE/Target/usbd_conf.c **** /* Private variables ---------------------------------------------------------*/
  39:USB_DEVICE/Target/usbd_conf.c **** 
  40:USB_DEVICE/Target/usbd_conf.c **** /* USER CODE END PV */
  41:USB_DEVICE/Target/usbd_conf.c **** 
  42:USB_DEVICE/Target/usbd_conf.c **** PCD_HandleTypeDef hpcd_USB_OTG_FS;
  43:USB_DEVICE/Target/usbd_conf.c **** void Error_Handler(void);
  44:USB_DEVICE/Target/usbd_conf.c **** 
  45:USB_DEVICE/Target/usbd_conf.c **** /* External functions --------------------------------------------------------*/
  46:USB_DEVICE/Target/usbd_conf.c **** void SystemClock_Config(void);
  47:USB_DEVICE/Target/usbd_conf.c **** 
  48:USB_DEVICE/Target/usbd_conf.c **** /* USER CODE BEGIN 0 */
  49:USB_DEVICE/Target/usbd_conf.c **** 
  50:USB_DEVICE/Target/usbd_conf.c **** /* USER CODE END 0 */
  51:USB_DEVICE/Target/usbd_conf.c **** 
  52:USB_DEVICE/Target/usbd_conf.c **** /* USER CODE BEGIN PFP */
  53:USB_DEVICE/Target/usbd_conf.c **** /* Private function prototypes -----------------------------------------------*/
  54:USB_DEVICE/Target/usbd_conf.c **** USBD_StatusTypeDef USBD_Get_USB_Status(HAL_StatusTypeDef hal_status);
  55:USB_DEVICE/Target/usbd_conf.c **** 
  56:USB_DEVICE/Target/usbd_conf.c **** /* USER CODE END PFP */
  57:USB_DEVICE/Target/usbd_conf.c **** 
  58:USB_DEVICE/Target/usbd_conf.c **** /* Private functions ---------------------------------------------------------*/
  59:USB_DEVICE/Target/usbd_conf.c **** 
  60:USB_DEVICE/Target/usbd_conf.c **** /* USER CODE BEGIN 1 */
  61:USB_DEVICE/Target/usbd_conf.c **** 
  62:USB_DEVICE/Target/usbd_conf.c **** /* USER CODE END 1 */
  63:USB_DEVICE/Target/usbd_conf.c **** 
  64:USB_DEVICE/Target/usbd_conf.c **** /*******************************************************************************
  65:USB_DEVICE/Target/usbd_conf.c ****                        LL Driver Callbacks (PCD -> USB Device Library)
  66:USB_DEVICE/Target/usbd_conf.c **** *******************************************************************************/
  67:USB_DEVICE/Target/usbd_conf.c **** /* MSP Init */
  68:USB_DEVICE/Target/usbd_conf.c **** 
  69:USB_DEVICE/Target/usbd_conf.c **** void HAL_PCD_MspInit(PCD_HandleTypeDef* pcdHandle)
  70:USB_DEVICE/Target/usbd_conf.c **** {
  31              		.loc 1 70 1 view -0
  32              		.cfi_startproc
  33              		@ args = 0, pretend = 0, frame = 32
  34              		@ frame_needed = 0, uses_anonymous_args = 0
  71:USB_DEVICE/Target/usbd_conf.c ****   GPIO_InitTypeDef GPIO_InitStruct = {0};
  35              		.loc 1 71 3 view .LVU1
  70:USB_DEVICE/Target/usbd_conf.c ****   GPIO_InitTypeDef GPIO_InitStruct = {0};
  36              		.loc 1 70 1 is_stmt 0 view .LVU2
  37 0000 30B5     		push	{r4, r5, lr}
  38              	.LCFI0:
  39              		.cfi_def_cfa_offset 12
  40              		.cfi_offset 4, -12
  41              		.cfi_offset 5, -8
  42              		.cfi_offset 14, -4
  72:USB_DEVICE/Target/usbd_conf.c ****   if(pcdHandle->Instance==USB_OTG_FS)
ARM GAS  /tmp/ccEnClGU.s 			page 3


  43              		.loc 1 72 5 view .LVU3
  44 0002 0368     		ldr	r3, [r0]
  70:USB_DEVICE/Target/usbd_conf.c ****   GPIO_InitTypeDef GPIO_InitStruct = {0};
  45              		.loc 1 70 1 view .LVU4
  46 0004 89B0     		sub	sp, sp, #36
  47              	.LCFI1:
  48              		.cfi_def_cfa_offset 48
  71:USB_DEVICE/Target/usbd_conf.c ****   GPIO_InitTypeDef GPIO_InitStruct = {0};
  49              		.loc 1 71 20 view .LVU5
  50 0006 0024     		movs	r4, #0
  51              		.loc 1 72 5 view .LVU6
  52 0008 B3F1A04F 		cmp	r3, #1342177280
  71:USB_DEVICE/Target/usbd_conf.c ****   GPIO_InitTypeDef GPIO_InitStruct = {0};
  53              		.loc 1 71 20 view .LVU7
  54 000c CDE90244 		strd	r4, r4, [sp, #8]
  55 0010 CDE90444 		strd	r4, r4, [sp, #16]
  56 0014 0694     		str	r4, [sp, #24]
  57              		.loc 1 72 3 is_stmt 1 view .LVU8
  58              		.loc 1 72 5 is_stmt 0 view .LVU9
  59 0016 01D0     		beq	.L5
  73:USB_DEVICE/Target/usbd_conf.c ****   {
  74:USB_DEVICE/Target/usbd_conf.c ****   /* USER CODE BEGIN USB_OTG_FS_MspInit 0 */
  75:USB_DEVICE/Target/usbd_conf.c **** 
  76:USB_DEVICE/Target/usbd_conf.c ****   /* USER CODE END USB_OTG_FS_MspInit 0 */
  77:USB_DEVICE/Target/usbd_conf.c **** 
  78:USB_DEVICE/Target/usbd_conf.c ****     __HAL_RCC_GPIOA_CLK_ENABLE();
  79:USB_DEVICE/Target/usbd_conf.c ****     /**USB_OTG_FS GPIO Configuration
  80:USB_DEVICE/Target/usbd_conf.c ****     PA11     ------> USB_OTG_FS_DM
  81:USB_DEVICE/Target/usbd_conf.c ****     PA12     ------> USB_OTG_FS_DP
  82:USB_DEVICE/Target/usbd_conf.c ****     */
  83:USB_DEVICE/Target/usbd_conf.c ****     GPIO_InitStruct.Pin = GPIO_PIN_11|GPIO_PIN_12;
  84:USB_DEVICE/Target/usbd_conf.c ****     GPIO_InitStruct.Mode = GPIO_MODE_AF_PP;
  85:USB_DEVICE/Target/usbd_conf.c ****     GPIO_InitStruct.Pull = GPIO_NOPULL;
  86:USB_DEVICE/Target/usbd_conf.c ****     GPIO_InitStruct.Speed = GPIO_SPEED_FREQ_VERY_HIGH;
  87:USB_DEVICE/Target/usbd_conf.c ****     GPIO_InitStruct.Alternate = GPIO_AF10_OTG_FS;
  88:USB_DEVICE/Target/usbd_conf.c ****     HAL_GPIO_Init(GPIOA, &GPIO_InitStruct);
  89:USB_DEVICE/Target/usbd_conf.c **** 
  90:USB_DEVICE/Target/usbd_conf.c ****     /* Peripheral clock enable */
  91:USB_DEVICE/Target/usbd_conf.c ****     __HAL_RCC_USB_OTG_FS_CLK_ENABLE();
  92:USB_DEVICE/Target/usbd_conf.c **** 
  93:USB_DEVICE/Target/usbd_conf.c ****     /* Peripheral interrupt init */
  94:USB_DEVICE/Target/usbd_conf.c ****     HAL_NVIC_SetPriority(OTG_FS_IRQn, 0, 0);
  95:USB_DEVICE/Target/usbd_conf.c ****     HAL_NVIC_EnableIRQ(OTG_FS_IRQn);
  96:USB_DEVICE/Target/usbd_conf.c ****   /* USER CODE BEGIN USB_OTG_FS_MspInit 1 */
  97:USB_DEVICE/Target/usbd_conf.c **** 
  98:USB_DEVICE/Target/usbd_conf.c ****   /* USER CODE END USB_OTG_FS_MspInit 1 */
  99:USB_DEVICE/Target/usbd_conf.c ****   }
 100:USB_DEVICE/Target/usbd_conf.c **** }
  60              		.loc 1 100 1 view .LVU10
  61 0018 09B0     		add	sp, sp, #36
  62              	.LCFI2:
  63              		.cfi_remember_state
  64              		.cfi_def_cfa_offset 12
  65              		@ sp needed
  66 001a 30BD     		pop	{r4, r5, pc}
  67              	.L5:
  68              	.LCFI3:
ARM GAS  /tmp/ccEnClGU.s 			page 4


  69              		.cfi_restore_state
  78:USB_DEVICE/Target/usbd_conf.c ****     /**USB_OTG_FS GPIO Configuration
  70              		.loc 1 78 5 is_stmt 1 view .LVU11
  71              	.LBB24:
  78:USB_DEVICE/Target/usbd_conf.c ****     /**USB_OTG_FS GPIO Configuration
  72              		.loc 1 78 5 view .LVU12
  73 001c 174D     		ldr	r5, .L6
  74 001e 0094     		str	r4, [sp]
  78:USB_DEVICE/Target/usbd_conf.c ****     /**USB_OTG_FS GPIO Configuration
  75              		.loc 1 78 5 view .LVU13
  76 0020 2B6B     		ldr	r3, [r5, #48]
  77 0022 43F00103 		orr	r3, r3, #1
  78 0026 2B63     		str	r3, [r5, #48]
  78:USB_DEVICE/Target/usbd_conf.c ****     /**USB_OTG_FS GPIO Configuration
  79              		.loc 1 78 5 view .LVU14
  80 0028 2B6B     		ldr	r3, [r5, #48]
  81 002a 03F00103 		and	r3, r3, #1
  82 002e 0093     		str	r3, [sp]
  78:USB_DEVICE/Target/usbd_conf.c ****     /**USB_OTG_FS GPIO Configuration
  83              		.loc 1 78 5 view .LVU15
  84              	.LBE24:
  83:USB_DEVICE/Target/usbd_conf.c ****     GPIO_InitStruct.Mode = GPIO_MODE_AF_PP;
  85              		.loc 1 83 25 is_stmt 0 view .LVU16
  86 0030 4FF4C052 		mov	r2, #6144
  87 0034 0223     		movs	r3, #2
  88 0036 CDE90223 		strd	r2, [sp, #8]
  89              	.LBB25:
  78:USB_DEVICE/Target/usbd_conf.c ****     /**USB_OTG_FS GPIO Configuration
  90              		.loc 1 78 5 view .LVU17
  91 003a 0098     		ldr	r0, [sp]
  92              	.LVL1:
  78:USB_DEVICE/Target/usbd_conf.c ****     /**USB_OTG_FS GPIO Configuration
  93              		.loc 1 78 5 view .LVU18
  94              	.LBE25:
  78:USB_DEVICE/Target/usbd_conf.c ****     /**USB_OTG_FS GPIO Configuration
  95              		.loc 1 78 5 is_stmt 1 view .LVU19
  83:USB_DEVICE/Target/usbd_conf.c ****     GPIO_InitStruct.Mode = GPIO_MODE_AF_PP;
  96              		.loc 1 83 5 view .LVU20
  84:USB_DEVICE/Target/usbd_conf.c ****     GPIO_InitStruct.Pull = GPIO_NOPULL;
  97              		.loc 1 84 5 view .LVU21
  85:USB_DEVICE/Target/usbd_conf.c ****     GPIO_InitStruct.Speed = GPIO_SPEED_FREQ_VERY_HIGH;
  98              		.loc 1 85 5 view .LVU22
  86:USB_DEVICE/Target/usbd_conf.c ****     GPIO_InitStruct.Alternate = GPIO_AF10_OTG_FS;
  99              		.loc 1 86 5 view .LVU23
  87:USB_DEVICE/Target/usbd_conf.c ****     HAL_GPIO_Init(GPIOA, &GPIO_InitStruct);
 100              		.loc 1 87 5 view .LVU24
  88:USB_DEVICE/Target/usbd_conf.c **** 
 101              		.loc 1 88 5 is_stmt 0 view .LVU25
 102 003c 1048     		ldr	r0, .L6+4
 103 003e 02A9     		add	r1, sp, #8
  86:USB_DEVICE/Target/usbd_conf.c ****     GPIO_InitStruct.Alternate = GPIO_AF10_OTG_FS;
 104              		.loc 1 86 27 view .LVU26
 105 0040 0322     		movs	r2, #3
 106 0042 0A23     		movs	r3, #10
 107 0044 CDE90523 		strd	r2, r3, [sp, #20]
  88:USB_DEVICE/Target/usbd_conf.c **** 
 108              		.loc 1 88 5 is_stmt 1 view .LVU27
ARM GAS  /tmp/ccEnClGU.s 			page 5


 109 0048 FFF7FEFF 		bl	HAL_GPIO_Init
 110              	.LVL2:
  91:USB_DEVICE/Target/usbd_conf.c **** 
 111              		.loc 1 91 5 view .LVU28
  91:USB_DEVICE/Target/usbd_conf.c **** 
 112              		.loc 1 91 5 view .LVU29
 113 004c 6B6B     		ldr	r3, [r5, #52]
 114 004e 43F08003 		orr	r3, r3, #128
 115 0052 6B63     		str	r3, [r5, #52]
  91:USB_DEVICE/Target/usbd_conf.c **** 
 116              		.loc 1 91 5 view .LVU30
 117              	.LBB26:
  91:USB_DEVICE/Target/usbd_conf.c **** 
 118              		.loc 1 91 5 view .LVU31
 119 0054 0194     		str	r4, [sp, #4]
  91:USB_DEVICE/Target/usbd_conf.c **** 
 120              		.loc 1 91 5 view .LVU32
 121 0056 6B6C     		ldr	r3, [r5, #68]
 122 0058 43F48043 		orr	r3, r3, #16384
 123 005c 6B64     		str	r3, [r5, #68]
  91:USB_DEVICE/Target/usbd_conf.c **** 
 124              		.loc 1 91 5 view .LVU33
 125 005e 6B6C     		ldr	r3, [r5, #68]
 126 0060 03F48043 		and	r3, r3, #16384
 127              	.LBE26:
  94:USB_DEVICE/Target/usbd_conf.c ****     HAL_NVIC_EnableIRQ(OTG_FS_IRQn);
 128              		.loc 1 94 5 is_stmt 0 view .LVU34
 129 0064 2246     		mov	r2, r4
 130 0066 2146     		mov	r1, r4
 131              	.LBB27:
  91:USB_DEVICE/Target/usbd_conf.c **** 
 132              		.loc 1 91 5 view .LVU35
 133 0068 0193     		str	r3, [sp, #4]
  91:USB_DEVICE/Target/usbd_conf.c **** 
 134              		.loc 1 91 5 is_stmt 1 view .LVU36
 135              	.LBE27:
  94:USB_DEVICE/Target/usbd_conf.c ****     HAL_NVIC_EnableIRQ(OTG_FS_IRQn);
 136              		.loc 1 94 5 is_stmt 0 view .LVU37
 137 006a 4320     		movs	r0, #67
 138              	.LBB28:
  91:USB_DEVICE/Target/usbd_conf.c **** 
 139              		.loc 1 91 5 view .LVU38
 140 006c 019B     		ldr	r3, [sp, #4]
 141              	.LBE28:
  91:USB_DEVICE/Target/usbd_conf.c **** 
 142              		.loc 1 91 5 is_stmt 1 view .LVU39
  91:USB_DEVICE/Target/usbd_conf.c **** 
 143              		.loc 1 91 5 view .LVU40
  94:USB_DEVICE/Target/usbd_conf.c ****     HAL_NVIC_EnableIRQ(OTG_FS_IRQn);
 144              		.loc 1 94 5 view .LVU41
 145 006e FFF7FEFF 		bl	HAL_NVIC_SetPriority
 146              	.LVL3:
  95:USB_DEVICE/Target/usbd_conf.c ****   /* USER CODE BEGIN USB_OTG_FS_MspInit 1 */
 147              		.loc 1 95 5 view .LVU42
 148 0072 4320     		movs	r0, #67
 149 0074 FFF7FEFF 		bl	HAL_NVIC_EnableIRQ
 150              	.LVL4:
ARM GAS  /tmp/ccEnClGU.s 			page 6


 151              		.loc 1 100 1 is_stmt 0 view .LVU43
 152 0078 09B0     		add	sp, sp, #36
 153              	.LCFI4:
 154              		.cfi_def_cfa_offset 12
 155              		@ sp needed
 156 007a 30BD     		pop	{r4, r5, pc}
 157              	.L7:
 158              		.align	2
 159              	.L6:
 160 007c 00380240 		.word	1073887232
 161 0080 00000240 		.word	1073872896
 162              		.cfi_endproc
 163              	.LFE138:
 165              		.section	.text.HAL_PCD_MspDeInit,"ax",%progbits
 166              		.align	1
 167              		.p2align 2,,3
 168              		.global	HAL_PCD_MspDeInit
 169              		.syntax unified
 170              		.thumb
 171              		.thumb_func
 173              	HAL_PCD_MspDeInit:
 174              	.LVL5:
 175              	.LFB139:
 101:USB_DEVICE/Target/usbd_conf.c **** 
 102:USB_DEVICE/Target/usbd_conf.c **** void HAL_PCD_MspDeInit(PCD_HandleTypeDef* pcdHandle)
 103:USB_DEVICE/Target/usbd_conf.c **** {
 176              		.loc 1 103 1 is_stmt 1 view -0
 177              		.cfi_startproc
 178              		@ args = 0, pretend = 0, frame = 0
 179              		@ frame_needed = 0, uses_anonymous_args = 0
 104:USB_DEVICE/Target/usbd_conf.c ****   if(pcdHandle->Instance==USB_OTG_FS)
 180              		.loc 1 104 3 view .LVU45
 103:USB_DEVICE/Target/usbd_conf.c ****   if(pcdHandle->Instance==USB_OTG_FS)
 181              		.loc 1 103 1 is_stmt 0 view .LVU46
 182 0000 08B5     		push	{r3, lr}
 183              	.LCFI5:
 184              		.cfi_def_cfa_offset 8
 185              		.cfi_offset 3, -8
 186              		.cfi_offset 14, -4
 187              		.loc 1 104 5 view .LVU47
 188 0002 0368     		ldr	r3, [r0]
 189 0004 B3F1A04F 		cmp	r3, #1342177280
 190 0008 00D0     		beq	.L11
 105:USB_DEVICE/Target/usbd_conf.c ****   {
 106:USB_DEVICE/Target/usbd_conf.c ****   /* USER CODE BEGIN USB_OTG_FS_MspDeInit 0 */
 107:USB_DEVICE/Target/usbd_conf.c **** 
 108:USB_DEVICE/Target/usbd_conf.c ****   /* USER CODE END USB_OTG_FS_MspDeInit 0 */
 109:USB_DEVICE/Target/usbd_conf.c ****     /* Peripheral clock disable */
 110:USB_DEVICE/Target/usbd_conf.c ****     __HAL_RCC_USB_OTG_FS_CLK_DISABLE();
 111:USB_DEVICE/Target/usbd_conf.c **** 
 112:USB_DEVICE/Target/usbd_conf.c ****     /**USB_OTG_FS GPIO Configuration
 113:USB_DEVICE/Target/usbd_conf.c ****     PA11     ------> USB_OTG_FS_DM
 114:USB_DEVICE/Target/usbd_conf.c ****     PA12     ------> USB_OTG_FS_DP
 115:USB_DEVICE/Target/usbd_conf.c ****     */
 116:USB_DEVICE/Target/usbd_conf.c ****     HAL_GPIO_DeInit(GPIOA, GPIO_PIN_11|GPIO_PIN_12);
 117:USB_DEVICE/Target/usbd_conf.c **** 
 118:USB_DEVICE/Target/usbd_conf.c ****     /* Peripheral interrupt Deinit*/
ARM GAS  /tmp/ccEnClGU.s 			page 7


 119:USB_DEVICE/Target/usbd_conf.c ****     HAL_NVIC_DisableIRQ(OTG_FS_IRQn);
 120:USB_DEVICE/Target/usbd_conf.c **** 
 121:USB_DEVICE/Target/usbd_conf.c ****   /* USER CODE BEGIN USB_OTG_FS_MspDeInit 1 */
 122:USB_DEVICE/Target/usbd_conf.c **** 
 123:USB_DEVICE/Target/usbd_conf.c ****   /* USER CODE END USB_OTG_FS_MspDeInit 1 */
 124:USB_DEVICE/Target/usbd_conf.c ****   }
 125:USB_DEVICE/Target/usbd_conf.c **** }
 191              		.loc 1 125 1 view .LVU48
 192 000a 08BD     		pop	{r3, pc}
 193              	.L11:
 110:USB_DEVICE/Target/usbd_conf.c **** 
 194              		.loc 1 110 5 is_stmt 1 view .LVU49
 195 000c 074A     		ldr	r2, .L12
 116:USB_DEVICE/Target/usbd_conf.c **** 
 196              		.loc 1 116 5 is_stmt 0 view .LVU50
 197 000e 0848     		ldr	r0, .L12+4
 198              	.LVL6:
 110:USB_DEVICE/Target/usbd_conf.c **** 
 199              		.loc 1 110 5 view .LVU51
 200 0010 536B     		ldr	r3, [r2, #52]
 201 0012 23F08003 		bic	r3, r3, #128
 202 0016 5363     		str	r3, [r2, #52]
 116:USB_DEVICE/Target/usbd_conf.c **** 
 203              		.loc 1 116 5 is_stmt 1 view .LVU52
 204 0018 4FF4C051 		mov	r1, #6144
 205 001c FFF7FEFF 		bl	HAL_GPIO_DeInit
 206              	.LVL7:
 119:USB_DEVICE/Target/usbd_conf.c **** 
 207              		.loc 1 119 5 view .LVU53
 208              		.loc 1 125 1 is_stmt 0 view .LVU54
 209 0020 BDE80840 		pop	{r3, lr}
 210              	.LCFI6:
 211              		.cfi_restore 14
 212              		.cfi_restore 3
 213              		.cfi_def_cfa_offset 0
 119:USB_DEVICE/Target/usbd_conf.c **** 
 214              		.loc 1 119 5 view .LVU55
 215 0024 4320     		movs	r0, #67
 216 0026 FFF7FEBF 		b	HAL_NVIC_DisableIRQ
 217              	.LVL8:
 218              	.L13:
 219 002a 00BF     		.align	2
 220              	.L12:
 221 002c 00380240 		.word	1073887232
 222 0030 00000240 		.word	1073872896
 223              		.cfi_endproc
 224              	.LFE139:
 226              		.section	.text.HAL_PCD_SetupStageCallback,"ax",%progbits
 227              		.align	1
 228              		.p2align 2,,3
 229              		.global	HAL_PCD_SetupStageCallback
 230              		.syntax unified
 231              		.thumb
 232              		.thumb_func
 234              	HAL_PCD_SetupStageCallback:
 235              	.LVL9:
 236              	.LFB140:
ARM GAS  /tmp/ccEnClGU.s 			page 8


 126:USB_DEVICE/Target/usbd_conf.c **** 
 127:USB_DEVICE/Target/usbd_conf.c **** /**
 128:USB_DEVICE/Target/usbd_conf.c ****   * @brief  Setup stage callback
 129:USB_DEVICE/Target/usbd_conf.c ****   * @param  hpcd: PCD handle
 130:USB_DEVICE/Target/usbd_conf.c ****   * @retval None
 131:USB_DEVICE/Target/usbd_conf.c ****   */
 132:USB_DEVICE/Target/usbd_conf.c **** #if (USE_HAL_PCD_REGISTER_CALLBACKS == 1U)
 133:USB_DEVICE/Target/usbd_conf.c **** static void PCD_SetupStageCallback(PCD_HandleTypeDef *hpcd)
 134:USB_DEVICE/Target/usbd_conf.c **** #else
 135:USB_DEVICE/Target/usbd_conf.c **** void HAL_PCD_SetupStageCallback(PCD_HandleTypeDef *hpcd)
 136:USB_DEVICE/Target/usbd_conf.c **** #endif /* USE_HAL_PCD_REGISTER_CALLBACKS */
 137:USB_DEVICE/Target/usbd_conf.c **** {
 237              		.loc 1 137 1 is_stmt 1 view -0
 238              		.cfi_startproc
 239              		@ args = 0, pretend = 0, frame = 0
 240              		@ frame_needed = 0, uses_anonymous_args = 0
 241              		@ link register save eliminated.
 138:USB_DEVICE/Target/usbd_conf.c ****   USBD_LL_SetupStage((USBD_HandleTypeDef*)hpcd->pData, (uint8_t *)hpcd->Setup);
 242              		.loc 1 138 3 view .LVU57
 243 0000 00F29C41 		addw	r1, r0, #1180
 244 0004 D0F8E004 		ldr	r0, [r0, #1248]
 245              	.LVL10:
 246              		.loc 1 138 3 is_stmt 0 view .LVU58
 247 0008 FFF7FEBF 		b	USBD_LL_SetupStage
 248              	.LVL11:
 249              		.loc 1 138 3 view .LVU59
 250              		.cfi_endproc
 251              	.LFE140:
 253              		.section	.text.HAL_PCD_DataOutStageCallback,"ax",%progbits
 254              		.align	1
 255              		.p2align 2,,3
 256              		.global	HAL_PCD_DataOutStageCallback
 257              		.syntax unified
 258              		.thumb
 259              		.thumb_func
 261              	HAL_PCD_DataOutStageCallback:
 262              	.LVL12:
 263              	.LFB141:
 139:USB_DEVICE/Target/usbd_conf.c **** }
 140:USB_DEVICE/Target/usbd_conf.c **** 
 141:USB_DEVICE/Target/usbd_conf.c **** /**
 142:USB_DEVICE/Target/usbd_conf.c ****   * @brief  Data Out stage callback.
 143:USB_DEVICE/Target/usbd_conf.c ****   * @param  hpcd: PCD handle
 144:USB_DEVICE/Target/usbd_conf.c ****   * @param  epnum: Endpoint number
 145:USB_DEVICE/Target/usbd_conf.c ****   * @retval None
 146:USB_DEVICE/Target/usbd_conf.c ****   */
 147:USB_DEVICE/Target/usbd_conf.c **** #if (USE_HAL_PCD_REGISTER_CALLBACKS == 1U)
 148:USB_DEVICE/Target/usbd_conf.c **** static void PCD_DataOutStageCallback(PCD_HandleTypeDef *hpcd, uint8_t epnum)
 149:USB_DEVICE/Target/usbd_conf.c **** #else
 150:USB_DEVICE/Target/usbd_conf.c **** void HAL_PCD_DataOutStageCallback(PCD_HandleTypeDef *hpcd, uint8_t epnum)
 151:USB_DEVICE/Target/usbd_conf.c **** #endif /* USE_HAL_PCD_REGISTER_CALLBACKS */
 152:USB_DEVICE/Target/usbd_conf.c **** {
 264              		.loc 1 152 1 is_stmt 1 view -0
 265              		.cfi_startproc
 266              		@ args = 0, pretend = 0, frame = 0
 267              		@ frame_needed = 0, uses_anonymous_args = 0
 268              		@ link register save eliminated.
ARM GAS  /tmp/ccEnClGU.s 			page 9


 153:USB_DEVICE/Target/usbd_conf.c ****   USBD_LL_DataOutStage((USBD_HandleTypeDef*)hpcd->pData, epnum, hpcd->OUT_ep[epnum].xfer_buff);
 269              		.loc 1 153 3 view .LVU61
 270 0000 01EBC103 		add	r3, r1, r1, lsl #3
 271 0004 00EB8303 		add	r3, r0, r3, lsl #2
 272 0008 D0F8E004 		ldr	r0, [r0, #1248]
 273              	.LVL13:
 274              		.loc 1 153 3 is_stmt 0 view .LVU62
 275 000c D3F86022 		ldr	r2, [r3, #608]
 276 0010 FFF7FEBF 		b	USBD_LL_DataOutStage
 277              	.LVL14:
 278              		.loc 1 153 3 view .LVU63
 279              		.cfi_endproc
 280              	.LFE141:
 282              		.section	.text.HAL_PCD_DataInStageCallback,"ax",%progbits
 283              		.align	1
 284              		.p2align 2,,3
 285              		.global	HAL_PCD_DataInStageCallback
 286              		.syntax unified
 287              		.thumb
 288              		.thumb_func
 290              	HAL_PCD_DataInStageCallback:
 291              	.LVL15:
 292              	.LFB142:
 154:USB_DEVICE/Target/usbd_conf.c **** }
 155:USB_DEVICE/Target/usbd_conf.c **** 
 156:USB_DEVICE/Target/usbd_conf.c **** /**
 157:USB_DEVICE/Target/usbd_conf.c ****   * @brief  Data In stage callback.
 158:USB_DEVICE/Target/usbd_conf.c ****   * @param  hpcd: PCD handle
 159:USB_DEVICE/Target/usbd_conf.c ****   * @param  epnum: Endpoint number
 160:USB_DEVICE/Target/usbd_conf.c ****   * @retval None
 161:USB_DEVICE/Target/usbd_conf.c ****   */
 162:USB_DEVICE/Target/usbd_conf.c **** #if (USE_HAL_PCD_REGISTER_CALLBACKS == 1U)
 163:USB_DEVICE/Target/usbd_conf.c **** static void PCD_DataInStageCallback(PCD_HandleTypeDef *hpcd, uint8_t epnum)
 164:USB_DEVICE/Target/usbd_conf.c **** #else
 165:USB_DEVICE/Target/usbd_conf.c **** void HAL_PCD_DataInStageCallback(PCD_HandleTypeDef *hpcd, uint8_t epnum)
 166:USB_DEVICE/Target/usbd_conf.c **** #endif /* USE_HAL_PCD_REGISTER_CALLBACKS */
 167:USB_DEVICE/Target/usbd_conf.c **** {
 293              		.loc 1 167 1 is_stmt 1 view -0
 294              		.cfi_startproc
 295              		@ args = 0, pretend = 0, frame = 0
 296              		@ frame_needed = 0, uses_anonymous_args = 0
 297              		@ link register save eliminated.
 168:USB_DEVICE/Target/usbd_conf.c ****   USBD_LL_DataInStage((USBD_HandleTypeDef*)hpcd->pData, epnum, hpcd->IN_ep[epnum].xfer_buff);
 298              		.loc 1 168 3 view .LVU65
 299 0000 01EBC103 		add	r3, r1, r1, lsl #3
 300 0004 00EB8303 		add	r3, r0, r3, lsl #2
 301 0008 D0F8E004 		ldr	r0, [r0, #1248]
 302              	.LVL16:
 303              		.loc 1 168 3 is_stmt 0 view .LVU66
 304 000c 1A6A     		ldr	r2, [r3, #32]
 305 000e FFF7FEBF 		b	USBD_LL_DataInStage
 306              	.LVL17:
 307              		.loc 1 168 3 view .LVU67
 308              		.cfi_endproc
 309              	.LFE142:
 311 0012 00BF     		.section	.text.HAL_PCD_SOFCallback,"ax",%progbits
 312              		.align	1
ARM GAS  /tmp/ccEnClGU.s 			page 10


 313              		.p2align 2,,3
 314              		.global	HAL_PCD_SOFCallback
 315              		.syntax unified
 316              		.thumb
 317              		.thumb_func
 319              	HAL_PCD_SOFCallback:
 320              	.LVL18:
 321              	.LFB143:
 169:USB_DEVICE/Target/usbd_conf.c **** }
 170:USB_DEVICE/Target/usbd_conf.c **** 
 171:USB_DEVICE/Target/usbd_conf.c **** /**
 172:USB_DEVICE/Target/usbd_conf.c ****   * @brief  SOF callback.
 173:USB_DEVICE/Target/usbd_conf.c ****   * @param  hpcd: PCD handle
 174:USB_DEVICE/Target/usbd_conf.c ****   * @retval None
 175:USB_DEVICE/Target/usbd_conf.c ****   */
 176:USB_DEVICE/Target/usbd_conf.c **** #if (USE_HAL_PCD_REGISTER_CALLBACKS == 1U)
 177:USB_DEVICE/Target/usbd_conf.c **** static void PCD_SOFCallback(PCD_HandleTypeDef *hpcd)
 178:USB_DEVICE/Target/usbd_conf.c **** #else
 179:USB_DEVICE/Target/usbd_conf.c **** void HAL_PCD_SOFCallback(PCD_HandleTypeDef *hpcd)
 180:USB_DEVICE/Target/usbd_conf.c **** #endif /* USE_HAL_PCD_REGISTER_CALLBACKS */
 181:USB_DEVICE/Target/usbd_conf.c **** {
 322              		.loc 1 181 1 is_stmt 1 view -0
 323              		.cfi_startproc
 324              		@ args = 0, pretend = 0, frame = 0
 325              		@ frame_needed = 0, uses_anonymous_args = 0
 326              		@ link register save eliminated.
 182:USB_DEVICE/Target/usbd_conf.c ****   USBD_LL_SOF((USBD_HandleTypeDef*)hpcd->pData);
 327              		.loc 1 182 3 view .LVU69
 328 0000 D0F8E004 		ldr	r0, [r0, #1248]
 329              	.LVL19:
 330              		.loc 1 182 3 is_stmt 0 view .LVU70
 331 0004 FFF7FEBF 		b	USBD_LL_SOF
 332              	.LVL20:
 333              		.cfi_endproc
 334              	.LFE143:
 336              		.section	.text.HAL_PCD_ResetCallback,"ax",%progbits
 337              		.align	1
 338              		.p2align 2,,3
 339              		.global	HAL_PCD_ResetCallback
 340              		.syntax unified
 341              		.thumb
 342              		.thumb_func
 344              	HAL_PCD_ResetCallback:
 345              	.LVL21:
 346              	.LFB144:
 183:USB_DEVICE/Target/usbd_conf.c **** }
 184:USB_DEVICE/Target/usbd_conf.c **** 
 185:USB_DEVICE/Target/usbd_conf.c **** /**
 186:USB_DEVICE/Target/usbd_conf.c ****   * @brief  Reset callback.
 187:USB_DEVICE/Target/usbd_conf.c ****   * @param  hpcd: PCD handle
 188:USB_DEVICE/Target/usbd_conf.c ****   * @retval None
 189:USB_DEVICE/Target/usbd_conf.c ****   */
 190:USB_DEVICE/Target/usbd_conf.c **** #if (USE_HAL_PCD_REGISTER_CALLBACKS == 1U)
 191:USB_DEVICE/Target/usbd_conf.c **** static void PCD_ResetCallback(PCD_HandleTypeDef *hpcd)
 192:USB_DEVICE/Target/usbd_conf.c **** #else
 193:USB_DEVICE/Target/usbd_conf.c **** void HAL_PCD_ResetCallback(PCD_HandleTypeDef *hpcd)
 194:USB_DEVICE/Target/usbd_conf.c **** #endif /* USE_HAL_PCD_REGISTER_CALLBACKS */
ARM GAS  /tmp/ccEnClGU.s 			page 11


 195:USB_DEVICE/Target/usbd_conf.c **** {
 347              		.loc 1 195 1 is_stmt 1 view -0
 348              		.cfi_startproc
 349              		@ args = 0, pretend = 0, frame = 0
 350              		@ frame_needed = 0, uses_anonymous_args = 0
 196:USB_DEVICE/Target/usbd_conf.c ****    USBD_SpeedTypeDef speed = USBD_SPEED_FULL;
 351              		.loc 1 196 4 view .LVU72
 197:USB_DEVICE/Target/usbd_conf.c **** 
 198:USB_DEVICE/Target/usbd_conf.c ****   if ( hpcd->Init.speed != PCD_SPEED_FULL)
 352              		.loc 1 198 3 view .LVU73
 195:USB_DEVICE/Target/usbd_conf.c ****    USBD_SpeedTypeDef speed = USBD_SPEED_FULL;
 353              		.loc 1 195 1 is_stmt 0 view .LVU74
 354 0000 10B5     		push	{r4, lr}
 355              	.LCFI7:
 356              		.cfi_def_cfa_offset 8
 357              		.cfi_offset 4, -8
 358              		.cfi_offset 14, -4
 359              		.loc 1 198 6 view .LVU75
 360 0002 C379     		ldrb	r3, [r0, #7]	@ zero_extendqisi2
 361 0004 022B     		cmp	r3, #2
 195:USB_DEVICE/Target/usbd_conf.c ****    USBD_SpeedTypeDef speed = USBD_SPEED_FULL;
 362              		.loc 1 195 1 view .LVU76
 363 0006 0446     		mov	r4, r0
 364              		.loc 1 198 6 view .LVU77
 365 0008 01D0     		beq	.L19
 199:USB_DEVICE/Target/usbd_conf.c ****   {
 200:USB_DEVICE/Target/usbd_conf.c ****     Error_Handler();
 366              		.loc 1 200 5 is_stmt 1 view .LVU78
 367 000a FFF7FEFF 		bl	Error_Handler
 368              	.LVL22:
 369              	.L19:
 201:USB_DEVICE/Target/usbd_conf.c ****   }
 202:USB_DEVICE/Target/usbd_conf.c ****     /* Set Speed. */
 203:USB_DEVICE/Target/usbd_conf.c ****   USBD_LL_SetSpeed((USBD_HandleTypeDef*)hpcd->pData, speed);
 370              		.loc 1 203 3 view .LVU79
 371 000e D4F8E004 		ldr	r0, [r4, #1248]
 372 0012 0121     		movs	r1, #1
 373 0014 FFF7FEFF 		bl	USBD_LL_SetSpeed
 374              	.LVL23:
 204:USB_DEVICE/Target/usbd_conf.c **** 
 205:USB_DEVICE/Target/usbd_conf.c ****   /* Reset Device. */
 206:USB_DEVICE/Target/usbd_conf.c ****   USBD_LL_Reset((USBD_HandleTypeDef*)hpcd->pData);
 375              		.loc 1 206 3 view .LVU80
 376 0018 D4F8E004 		ldr	r0, [r4, #1248]
 207:USB_DEVICE/Target/usbd_conf.c **** }
 377              		.loc 1 207 1 is_stmt 0 view .LVU81
 378 001c BDE81040 		pop	{r4, lr}
 379              	.LCFI8:
 380              		.cfi_restore 14
 381              		.cfi_restore 4
 382              		.cfi_def_cfa_offset 0
 383              	.LVL24:
 206:USB_DEVICE/Target/usbd_conf.c **** }
 384              		.loc 1 206 3 view .LVU82
 385 0020 FFF7FEBF 		b	USBD_LL_Reset
 386              	.LVL25:
 387              		.cfi_endproc
ARM GAS  /tmp/ccEnClGU.s 			page 12


 388              	.LFE144:
 390              		.section	.text.HAL_PCD_SuspendCallback,"ax",%progbits
 391              		.align	1
 392              		.p2align 2,,3
 393              		.global	HAL_PCD_SuspendCallback
 394              		.syntax unified
 395              		.thumb
 396              		.thumb_func
 398              	HAL_PCD_SuspendCallback:
 399              	.LVL26:
 400              	.LFB145:
 208:USB_DEVICE/Target/usbd_conf.c **** 
 209:USB_DEVICE/Target/usbd_conf.c **** /**
 210:USB_DEVICE/Target/usbd_conf.c ****   * @brief  Suspend callback.
 211:USB_DEVICE/Target/usbd_conf.c ****   * When Low power mode is enabled the debug cannot be used (IAR, Keil doesn't support it)
 212:USB_DEVICE/Target/usbd_conf.c ****   * @param  hpcd: PCD handle
 213:USB_DEVICE/Target/usbd_conf.c ****   * @retval None
 214:USB_DEVICE/Target/usbd_conf.c ****   */
 215:USB_DEVICE/Target/usbd_conf.c **** #if (USE_HAL_PCD_REGISTER_CALLBACKS == 1U)
 216:USB_DEVICE/Target/usbd_conf.c **** static void PCD_SuspendCallback(PCD_HandleTypeDef *hpcd)
 217:USB_DEVICE/Target/usbd_conf.c **** #else
 218:USB_DEVICE/Target/usbd_conf.c **** void HAL_PCD_SuspendCallback(PCD_HandleTypeDef *hpcd)
 219:USB_DEVICE/Target/usbd_conf.c **** #endif /* USE_HAL_PCD_REGISTER_CALLBACKS */
 220:USB_DEVICE/Target/usbd_conf.c **** {
 401              		.loc 1 220 1 is_stmt 1 view -0
 402              		.cfi_startproc
 403              		@ args = 0, pretend = 0, frame = 0
 404              		@ frame_needed = 0, uses_anonymous_args = 0
 221:USB_DEVICE/Target/usbd_conf.c ****   /* Inform USB library that core enters in suspend Mode. */
 222:USB_DEVICE/Target/usbd_conf.c ****   USBD_LL_Suspend((USBD_HandleTypeDef*)hpcd->pData);
 405              		.loc 1 222 3 view .LVU84
 220:USB_DEVICE/Target/usbd_conf.c ****   /* Inform USB library that core enters in suspend Mode. */
 406              		.loc 1 220 1 is_stmt 0 view .LVU85
 407 0000 10B5     		push	{r4, lr}
 408              	.LCFI9:
 409              		.cfi_def_cfa_offset 8
 410              		.cfi_offset 4, -8
 411              		.cfi_offset 14, -4
 220:USB_DEVICE/Target/usbd_conf.c ****   /* Inform USB library that core enters in suspend Mode. */
 412              		.loc 1 220 1 view .LVU86
 413 0002 0446     		mov	r4, r0
 414              		.loc 1 222 3 view .LVU87
 415 0004 D0F8E004 		ldr	r0, [r0, #1248]
 416              	.LVL27:
 417              		.loc 1 222 3 view .LVU88
 418 0008 FFF7FEFF 		bl	USBD_LL_Suspend
 419              	.LVL28:
 223:USB_DEVICE/Target/usbd_conf.c ****   __HAL_PCD_GATE_PHYCLOCK(hpcd);
 420              		.loc 1 223 3 is_stmt 1 view .LVU89
 421 000c 2268     		ldr	r2, [r4]
 422 000e D2F8003E 		ldr	r3, [r2, #3584]
 423 0012 43F00103 		orr	r3, r3, #1
 424 0016 C2F8003E 		str	r3, [r2, #3584]
 224:USB_DEVICE/Target/usbd_conf.c ****   /* Enter in STOP mode. */
 225:USB_DEVICE/Target/usbd_conf.c ****   /* USER CODE BEGIN 2 */
 226:USB_DEVICE/Target/usbd_conf.c ****   if (hpcd->Init.low_power_enable)
 425              		.loc 1 226 3 view .LVU90
ARM GAS  /tmp/ccEnClGU.s 			page 13


 426              		.loc 1 226 6 is_stmt 0 view .LVU91
 427 001a E37A     		ldrb	r3, [r4, #11]	@ zero_extendqisi2
 428 001c 23B1     		cbz	r3, .L24
 227:USB_DEVICE/Target/usbd_conf.c ****   {
 228:USB_DEVICE/Target/usbd_conf.c ****     /* Set SLEEPDEEP bit and SleepOnExit of Cortex System Control Register. */
 229:USB_DEVICE/Target/usbd_conf.c ****     SCB->SCR |= (uint32_t)((uint32_t)(SCB_SCR_SLEEPDEEP_Msk | SCB_SCR_SLEEPONEXIT_Msk));
 429              		.loc 1 229 5 is_stmt 1 view .LVU92
 430              		.loc 1 229 8 is_stmt 0 view .LVU93
 431 001e 034A     		ldr	r2, .L30
 432 0020 1369     		ldr	r3, [r2, #16]
 433              		.loc 1 229 14 view .LVU94
 434 0022 43F00603 		orr	r3, r3, #6
 435 0026 1361     		str	r3, [r2, #16]
 436              	.L24:
 230:USB_DEVICE/Target/usbd_conf.c ****   }
 231:USB_DEVICE/Target/usbd_conf.c ****   /* USER CODE END 2 */
 232:USB_DEVICE/Target/usbd_conf.c **** }
 437              		.loc 1 232 1 view .LVU95
 438 0028 10BD     		pop	{r4, pc}
 439              	.LVL29:
 440              	.L31:
 441              		.loc 1 232 1 view .LVU96
 442 002a 00BF     		.align	2
 443              	.L30:
 444 002c 00ED00E0 		.word	-536810240
 445              		.cfi_endproc
 446              	.LFE145:
 448              		.section	.text.HAL_PCD_ResumeCallback,"ax",%progbits
 449              		.align	1
 450              		.p2align 2,,3
 451              		.global	HAL_PCD_ResumeCallback
 452              		.syntax unified
 453              		.thumb
 454              		.thumb_func
 456              	HAL_PCD_ResumeCallback:
 457              	.LVL30:
 458              	.LFB146:
 233:USB_DEVICE/Target/usbd_conf.c **** 
 234:USB_DEVICE/Target/usbd_conf.c **** /**
 235:USB_DEVICE/Target/usbd_conf.c ****   * @brief  Resume callback.
 236:USB_DEVICE/Target/usbd_conf.c ****   * When Low power mode is enabled the debug cannot be used (IAR, Keil doesn't support it)
 237:USB_DEVICE/Target/usbd_conf.c ****   * @param  hpcd: PCD handle
 238:USB_DEVICE/Target/usbd_conf.c ****   * @retval None
 239:USB_DEVICE/Target/usbd_conf.c ****   */
 240:USB_DEVICE/Target/usbd_conf.c **** #if (USE_HAL_PCD_REGISTER_CALLBACKS == 1U)
 241:USB_DEVICE/Target/usbd_conf.c **** static void PCD_ResumeCallback(PCD_HandleTypeDef *hpcd)
 242:USB_DEVICE/Target/usbd_conf.c **** #else
 243:USB_DEVICE/Target/usbd_conf.c **** void HAL_PCD_ResumeCallback(PCD_HandleTypeDef *hpcd)
 244:USB_DEVICE/Target/usbd_conf.c **** #endif /* USE_HAL_PCD_REGISTER_CALLBACKS */
 245:USB_DEVICE/Target/usbd_conf.c **** {
 459              		.loc 1 245 1 is_stmt 1 view -0
 460              		.cfi_startproc
 461              		@ args = 0, pretend = 0, frame = 0
 462              		@ frame_needed = 0, uses_anonymous_args = 0
 463              		@ link register save eliminated.
 246:USB_DEVICE/Target/usbd_conf.c ****   /* USER CODE BEGIN 3 */
 247:USB_DEVICE/Target/usbd_conf.c **** 
ARM GAS  /tmp/ccEnClGU.s 			page 14


 248:USB_DEVICE/Target/usbd_conf.c ****   /* USER CODE END 3 */
 249:USB_DEVICE/Target/usbd_conf.c ****   USBD_LL_Resume((USBD_HandleTypeDef*)hpcd->pData);
 464              		.loc 1 249 3 view .LVU98
 465 0000 D0F8E004 		ldr	r0, [r0, #1248]
 466              	.LVL31:
 467              		.loc 1 249 3 is_stmt 0 view .LVU99
 468 0004 FFF7FEBF 		b	USBD_LL_Resume
 469              	.LVL32:
 470              		.cfi_endproc
 471              	.LFE146:
 473              		.section	.text.HAL_PCD_ISOOUTIncompleteCallback,"ax",%progbits
 474              		.align	1
 475              		.p2align 2,,3
 476              		.global	HAL_PCD_ISOOUTIncompleteCallback
 477              		.syntax unified
 478              		.thumb
 479              		.thumb_func
 481              	HAL_PCD_ISOOUTIncompleteCallback:
 482              	.LVL33:
 483              	.LFB147:
 250:USB_DEVICE/Target/usbd_conf.c **** }
 251:USB_DEVICE/Target/usbd_conf.c **** 
 252:USB_DEVICE/Target/usbd_conf.c **** /**
 253:USB_DEVICE/Target/usbd_conf.c ****   * @brief  ISOOUTIncomplete callback.
 254:USB_DEVICE/Target/usbd_conf.c ****   * @param  hpcd: PCD handle
 255:USB_DEVICE/Target/usbd_conf.c ****   * @param  epnum: Endpoint number
 256:USB_DEVICE/Target/usbd_conf.c ****   * @retval None
 257:USB_DEVICE/Target/usbd_conf.c ****   */
 258:USB_DEVICE/Target/usbd_conf.c **** #if (USE_HAL_PCD_REGISTER_CALLBACKS == 1U)
 259:USB_DEVICE/Target/usbd_conf.c **** static void PCD_ISOOUTIncompleteCallback(PCD_HandleTypeDef *hpcd, uint8_t epnum)
 260:USB_DEVICE/Target/usbd_conf.c **** #else
 261:USB_DEVICE/Target/usbd_conf.c **** void HAL_PCD_ISOOUTIncompleteCallback(PCD_HandleTypeDef *hpcd, uint8_t epnum)
 262:USB_DEVICE/Target/usbd_conf.c **** #endif /* USE_HAL_PCD_REGISTER_CALLBACKS */
 263:USB_DEVICE/Target/usbd_conf.c **** {
 484              		.loc 1 263 1 is_stmt 1 view -0
 485              		.cfi_startproc
 486              		@ args = 0, pretend = 0, frame = 0
 487              		@ frame_needed = 0, uses_anonymous_args = 0
 488              		@ link register save eliminated.
 264:USB_DEVICE/Target/usbd_conf.c ****   USBD_LL_IsoOUTIncomplete((USBD_HandleTypeDef*)hpcd->pData, epnum);
 489              		.loc 1 264 3 view .LVU101
 490 0000 D0F8E004 		ldr	r0, [r0, #1248]
 491              	.LVL34:
 492              		.loc 1 264 3 is_stmt 0 view .LVU102
 493 0004 FFF7FEBF 		b	USBD_LL_IsoOUTIncomplete
 494              	.LVL35:
 495              		.loc 1 264 3 view .LVU103
 496              		.cfi_endproc
 497              	.LFE147:
 499              		.section	.text.HAL_PCD_ISOINIncompleteCallback,"ax",%progbits
 500              		.align	1
 501              		.p2align 2,,3
 502              		.global	HAL_PCD_ISOINIncompleteCallback
 503              		.syntax unified
 504              		.thumb
 505              		.thumb_func
 507              	HAL_PCD_ISOINIncompleteCallback:
ARM GAS  /tmp/ccEnClGU.s 			page 15


 508              	.LVL36:
 509              	.LFB148:
 265:USB_DEVICE/Target/usbd_conf.c **** }
 266:USB_DEVICE/Target/usbd_conf.c **** 
 267:USB_DEVICE/Target/usbd_conf.c **** /**
 268:USB_DEVICE/Target/usbd_conf.c ****   * @brief  ISOINIncomplete callback.
 269:USB_DEVICE/Target/usbd_conf.c ****   * @param  hpcd: PCD handle
 270:USB_DEVICE/Target/usbd_conf.c ****   * @param  epnum: Endpoint number
 271:USB_DEVICE/Target/usbd_conf.c ****   * @retval None
 272:USB_DEVICE/Target/usbd_conf.c ****   */
 273:USB_DEVICE/Target/usbd_conf.c **** #if (USE_HAL_PCD_REGISTER_CALLBACKS == 1U)
 274:USB_DEVICE/Target/usbd_conf.c **** static void PCD_ISOINIncompleteCallback(PCD_HandleTypeDef *hpcd, uint8_t epnum)
 275:USB_DEVICE/Target/usbd_conf.c **** #else
 276:USB_DEVICE/Target/usbd_conf.c **** void HAL_PCD_ISOINIncompleteCallback(PCD_HandleTypeDef *hpcd, uint8_t epnum)
 277:USB_DEVICE/Target/usbd_conf.c **** #endif /* USE_HAL_PCD_REGISTER_CALLBACKS */
 278:USB_DEVICE/Target/usbd_conf.c **** {
 510              		.loc 1 278 1 is_stmt 1 view -0
 511              		.cfi_startproc
 512              		@ args = 0, pretend = 0, frame = 0
 513              		@ frame_needed = 0, uses_anonymous_args = 0
 514              		@ link register save eliminated.
 279:USB_DEVICE/Target/usbd_conf.c ****   USBD_LL_IsoINIncomplete((USBD_HandleTypeDef*)hpcd->pData, epnum);
 515              		.loc 1 279 3 view .LVU105
 516 0000 D0F8E004 		ldr	r0, [r0, #1248]
 517              	.LVL37:
 518              		.loc 1 279 3 is_stmt 0 view .LVU106
 519 0004 FFF7FEBF 		b	USBD_LL_IsoINIncomplete
 520              	.LVL38:
 521              		.loc 1 279 3 view .LVU107
 522              		.cfi_endproc
 523              	.LFE148:
 525              		.section	.text.HAL_PCD_ConnectCallback,"ax",%progbits
 526              		.align	1
 527              		.p2align 2,,3
 528              		.global	HAL_PCD_ConnectCallback
 529              		.syntax unified
 530              		.thumb
 531              		.thumb_func
 533              	HAL_PCD_ConnectCallback:
 534              	.LVL39:
 535              	.LFB149:
 280:USB_DEVICE/Target/usbd_conf.c **** }
 281:USB_DEVICE/Target/usbd_conf.c **** 
 282:USB_DEVICE/Target/usbd_conf.c **** /**
 283:USB_DEVICE/Target/usbd_conf.c ****   * @brief  Connect callback.
 284:USB_DEVICE/Target/usbd_conf.c ****   * @param  hpcd: PCD handle
 285:USB_DEVICE/Target/usbd_conf.c ****   * @retval None
 286:USB_DEVICE/Target/usbd_conf.c ****   */
 287:USB_DEVICE/Target/usbd_conf.c **** #if (USE_HAL_PCD_REGISTER_CALLBACKS == 1U)
 288:USB_DEVICE/Target/usbd_conf.c **** static void PCD_ConnectCallback(PCD_HandleTypeDef *hpcd)
 289:USB_DEVICE/Target/usbd_conf.c **** #else
 290:USB_DEVICE/Target/usbd_conf.c **** void HAL_PCD_ConnectCallback(PCD_HandleTypeDef *hpcd)
 291:USB_DEVICE/Target/usbd_conf.c **** #endif /* USE_HAL_PCD_REGISTER_CALLBACKS */
 292:USB_DEVICE/Target/usbd_conf.c **** {
 536              		.loc 1 292 1 is_stmt 1 view -0
 537              		.cfi_startproc
 538              		@ args = 0, pretend = 0, frame = 0
ARM GAS  /tmp/ccEnClGU.s 			page 16


 539              		@ frame_needed = 0, uses_anonymous_args = 0
 540              		@ link register save eliminated.
 293:USB_DEVICE/Target/usbd_conf.c ****   USBD_LL_DevConnected((USBD_HandleTypeDef*)hpcd->pData);
 541              		.loc 1 293 3 view .LVU109
 542 0000 D0F8E004 		ldr	r0, [r0, #1248]
 543              	.LVL40:
 544              		.loc 1 293 3 is_stmt 0 view .LVU110
 545 0004 FFF7FEBF 		b	USBD_LL_DevConnected
 546              	.LVL41:
 547              		.cfi_endproc
 548              	.LFE149:
 550              		.section	.text.HAL_PCD_DisconnectCallback,"ax",%progbits
 551              		.align	1
 552              		.p2align 2,,3
 553              		.global	HAL_PCD_DisconnectCallback
 554              		.syntax unified
 555              		.thumb
 556              		.thumb_func
 558              	HAL_PCD_DisconnectCallback:
 559              	.LVL42:
 560              	.LFB150:
 294:USB_DEVICE/Target/usbd_conf.c **** }
 295:USB_DEVICE/Target/usbd_conf.c **** 
 296:USB_DEVICE/Target/usbd_conf.c **** /**
 297:USB_DEVICE/Target/usbd_conf.c ****   * @brief  Disconnect callback.
 298:USB_DEVICE/Target/usbd_conf.c ****   * @param  hpcd: PCD handle
 299:USB_DEVICE/Target/usbd_conf.c ****   * @retval None
 300:USB_DEVICE/Target/usbd_conf.c ****   */
 301:USB_DEVICE/Target/usbd_conf.c **** #if (USE_HAL_PCD_REGISTER_CALLBACKS == 1U)
 302:USB_DEVICE/Target/usbd_conf.c **** static void PCD_DisconnectCallback(PCD_HandleTypeDef *hpcd)
 303:USB_DEVICE/Target/usbd_conf.c **** #else
 304:USB_DEVICE/Target/usbd_conf.c **** void HAL_PCD_DisconnectCallback(PCD_HandleTypeDef *hpcd)
 305:USB_DEVICE/Target/usbd_conf.c **** #endif /* USE_HAL_PCD_REGISTER_CALLBACKS */
 306:USB_DEVICE/Target/usbd_conf.c **** {
 561              		.loc 1 306 1 is_stmt 1 view -0
 562              		.cfi_startproc
 563              		@ args = 0, pretend = 0, frame = 0
 564              		@ frame_needed = 0, uses_anonymous_args = 0
 565              		@ link register save eliminated.
 307:USB_DEVICE/Target/usbd_conf.c ****   USBD_LL_DevDisconnected((USBD_HandleTypeDef*)hpcd->pData);
 566              		.loc 1 307 3 view .LVU112
 567 0000 D0F8E004 		ldr	r0, [r0, #1248]
 568              	.LVL43:
 569              		.loc 1 307 3 is_stmt 0 view .LVU113
 570 0004 FFF7FEBF 		b	USBD_LL_DevDisconnected
 571              	.LVL44:
 572              		.cfi_endproc
 573              	.LFE150:
 575              		.section	.text.USBD_LL_Init,"ax",%progbits
 576              		.align	1
 577              		.p2align 2,,3
 578              		.global	USBD_LL_Init
 579              		.syntax unified
 580              		.thumb
 581              		.thumb_func
 583              	USBD_LL_Init:
 584              	.LVL45:
ARM GAS  /tmp/ccEnClGU.s 			page 17


 585              	.LFB151:
 308:USB_DEVICE/Target/usbd_conf.c **** }
 309:USB_DEVICE/Target/usbd_conf.c **** 
 310:USB_DEVICE/Target/usbd_conf.c **** /*******************************************************************************
 311:USB_DEVICE/Target/usbd_conf.c ****                        LL Driver Interface (USB Device Library --> PCD)
 312:USB_DEVICE/Target/usbd_conf.c **** *******************************************************************************/
 313:USB_DEVICE/Target/usbd_conf.c **** 
 314:USB_DEVICE/Target/usbd_conf.c **** /**
 315:USB_DEVICE/Target/usbd_conf.c ****   * @brief  Initializes the low level portion of the device driver.
 316:USB_DEVICE/Target/usbd_conf.c ****   * @param  pdev: Device handle
 317:USB_DEVICE/Target/usbd_conf.c ****   * @retval USBD status
 318:USB_DEVICE/Target/usbd_conf.c ****   */
 319:USB_DEVICE/Target/usbd_conf.c **** USBD_StatusTypeDef USBD_LL_Init(USBD_HandleTypeDef *pdev)
 320:USB_DEVICE/Target/usbd_conf.c **** {
 586              		.loc 1 320 1 is_stmt 1 view -0
 587              		.cfi_startproc
 588              		@ args = 0, pretend = 0, frame = 0
 589              		@ frame_needed = 0, uses_anonymous_args = 0
 321:USB_DEVICE/Target/usbd_conf.c ****   /* Init USB Ip. */
 322:USB_DEVICE/Target/usbd_conf.c ****   if (pdev->id == DEVICE_FS) {
 590              		.loc 1 322 3 view .LVU115
 591              		.loc 1 322 6 is_stmt 0 view .LVU116
 592 0000 0278     		ldrb	r2, [r0]	@ zero_extendqisi2
 593 0002 0AB1     		cbz	r2, .L47
 323:USB_DEVICE/Target/usbd_conf.c ****   /* Link the driver to the stack. */
 324:USB_DEVICE/Target/usbd_conf.c ****   hpcd_USB_OTG_FS.pData = pdev;
 325:USB_DEVICE/Target/usbd_conf.c ****   pdev->pData = &hpcd_USB_OTG_FS;
 326:USB_DEVICE/Target/usbd_conf.c **** 
 327:USB_DEVICE/Target/usbd_conf.c ****   hpcd_USB_OTG_FS.Instance = USB_OTG_FS;
 328:USB_DEVICE/Target/usbd_conf.c ****   hpcd_USB_OTG_FS.Init.dev_endpoints = 4;
 329:USB_DEVICE/Target/usbd_conf.c ****   hpcd_USB_OTG_FS.Init.speed = PCD_SPEED_FULL;
 330:USB_DEVICE/Target/usbd_conf.c ****   hpcd_USB_OTG_FS.Init.dma_enable = DISABLE;
 331:USB_DEVICE/Target/usbd_conf.c ****   hpcd_USB_OTG_FS.Init.phy_itface = PCD_PHY_EMBEDDED;
 332:USB_DEVICE/Target/usbd_conf.c ****   hpcd_USB_OTG_FS.Init.Sof_enable = DISABLE;
 333:USB_DEVICE/Target/usbd_conf.c ****   hpcd_USB_OTG_FS.Init.low_power_enable = DISABLE;
 334:USB_DEVICE/Target/usbd_conf.c ****   hpcd_USB_OTG_FS.Init.lpm_enable = DISABLE;
 335:USB_DEVICE/Target/usbd_conf.c ****   hpcd_USB_OTG_FS.Init.vbus_sensing_enable = DISABLE;
 336:USB_DEVICE/Target/usbd_conf.c ****   hpcd_USB_OTG_FS.Init.use_dedicated_ep1 = DISABLE;
 337:USB_DEVICE/Target/usbd_conf.c ****   if (HAL_PCD_Init(&hpcd_USB_OTG_FS) != HAL_OK)
 338:USB_DEVICE/Target/usbd_conf.c ****   {
 339:USB_DEVICE/Target/usbd_conf.c ****     Error_Handler( );
 340:USB_DEVICE/Target/usbd_conf.c ****   }
 341:USB_DEVICE/Target/usbd_conf.c **** 
 342:USB_DEVICE/Target/usbd_conf.c **** #if (USE_HAL_PCD_REGISTER_CALLBACKS == 1U)
 343:USB_DEVICE/Target/usbd_conf.c ****   /* Register USB PCD CallBacks */
 344:USB_DEVICE/Target/usbd_conf.c ****   HAL_PCD_RegisterCallback(&hpcd_USB_OTG_FS, HAL_PCD_SOF_CB_ID, PCD_SOFCallback);
 345:USB_DEVICE/Target/usbd_conf.c ****   HAL_PCD_RegisterCallback(&hpcd_USB_OTG_FS, HAL_PCD_SETUPSTAGE_CB_ID, PCD_SetupStageCallback);
 346:USB_DEVICE/Target/usbd_conf.c ****   HAL_PCD_RegisterCallback(&hpcd_USB_OTG_FS, HAL_PCD_RESET_CB_ID, PCD_ResetCallback);
 347:USB_DEVICE/Target/usbd_conf.c ****   HAL_PCD_RegisterCallback(&hpcd_USB_OTG_FS, HAL_PCD_SUSPEND_CB_ID, PCD_SuspendCallback);
 348:USB_DEVICE/Target/usbd_conf.c ****   HAL_PCD_RegisterCallback(&hpcd_USB_OTG_FS, HAL_PCD_RESUME_CB_ID, PCD_ResumeCallback);
 349:USB_DEVICE/Target/usbd_conf.c ****   HAL_PCD_RegisterCallback(&hpcd_USB_OTG_FS, HAL_PCD_CONNECT_CB_ID, PCD_ConnectCallback);
 350:USB_DEVICE/Target/usbd_conf.c ****   HAL_PCD_RegisterCallback(&hpcd_USB_OTG_FS, HAL_PCD_DISCONNECT_CB_ID, PCD_DisconnectCallback);
 351:USB_DEVICE/Target/usbd_conf.c **** 
 352:USB_DEVICE/Target/usbd_conf.c ****   HAL_PCD_RegisterDataOutStageCallback(&hpcd_USB_OTG_FS, PCD_DataOutStageCallback);
 353:USB_DEVICE/Target/usbd_conf.c ****   HAL_PCD_RegisterDataInStageCallback(&hpcd_USB_OTG_FS, PCD_DataInStageCallback);
 354:USB_DEVICE/Target/usbd_conf.c ****   HAL_PCD_RegisterIsoOutIncpltCallback(&hpcd_USB_OTG_FS, PCD_ISOOUTIncompleteCallback);
 355:USB_DEVICE/Target/usbd_conf.c ****   HAL_PCD_RegisterIsoInIncpltCallback(&hpcd_USB_OTG_FS, PCD_ISOINIncompleteCallback);
ARM GAS  /tmp/ccEnClGU.s 			page 18


 356:USB_DEVICE/Target/usbd_conf.c **** #endif /* USE_HAL_PCD_REGISTER_CALLBACKS */
 357:USB_DEVICE/Target/usbd_conf.c ****   HAL_PCDEx_SetRxFiFo(&hpcd_USB_OTG_FS, 0x80);
 358:USB_DEVICE/Target/usbd_conf.c ****   HAL_PCDEx_SetTxFiFo(&hpcd_USB_OTG_FS, 0, 0x40);
 359:USB_DEVICE/Target/usbd_conf.c ****   HAL_PCDEx_SetTxFiFo(&hpcd_USB_OTG_FS, 1, 0x80);
 360:USB_DEVICE/Target/usbd_conf.c ****   }
 361:USB_DEVICE/Target/usbd_conf.c ****   return USBD_OK;
 594              		.loc 1 361 3 is_stmt 1 view .LVU117
 362:USB_DEVICE/Target/usbd_conf.c **** }
 595              		.loc 1 362 1 is_stmt 0 view .LVU118
 596 0004 0020     		movs	r0, #0
 597              	.LVL46:
 598              		.loc 1 362 1 view .LVU119
 599 0006 7047     		bx	lr
 600              	.LVL47:
 601              	.L47:
 324:USB_DEVICE/Target/usbd_conf.c ****   pdev->pData = &hpcd_USB_OTG_FS;
 602              		.loc 1 324 3 is_stmt 1 view .LVU120
 320:USB_DEVICE/Target/usbd_conf.c ****   /* Init USB Ip. */
 603              		.loc 1 320 1 is_stmt 0 view .LVU121
 604 0008 08B5     		push	{r3, lr}
 605              	.LCFI10:
 606              		.cfi_def_cfa_offset 8
 607              		.cfi_offset 3, -8
 608              		.cfi_offset 14, -4
 324:USB_DEVICE/Target/usbd_conf.c ****   pdev->pData = &hpcd_USB_OTG_FS;
 609              		.loc 1 324 25 view .LVU122
 610 000a 154B     		ldr	r3, .L49
 327:USB_DEVICE/Target/usbd_conf.c ****   hpcd_USB_OTG_FS.Init.dev_endpoints = 4;
 611              		.loc 1 327 28 view .LVU123
 612 000c 4FF0A041 		mov	r1, #1342177280
 324:USB_DEVICE/Target/usbd_conf.c ****   pdev->pData = &hpcd_USB_OTG_FS;
 613              		.loc 1 324 25 view .LVU124
 614 0010 C3F8E004 		str	r0, [r3, #1248]
 325:USB_DEVICE/Target/usbd_conf.c **** 
 615              		.loc 1 325 3 is_stmt 1 view .LVU125
 325:USB_DEVICE/Target/usbd_conf.c **** 
 616              		.loc 1 325 15 is_stmt 0 view .LVU126
 617 0014 C0F8C832 		str	r3, [r0, #712]
 327:USB_DEVICE/Target/usbd_conf.c ****   hpcd_USB_OTG_FS.Init.dev_endpoints = 4;
 618              		.loc 1 327 3 is_stmt 1 view .LVU127
 330:USB_DEVICE/Target/usbd_conf.c ****   hpcd_USB_OTG_FS.Init.phy_itface = PCD_PHY_EMBEDDED;
 619              		.loc 1 330 35 is_stmt 0 view .LVU128
 620 0018 4FF40070 		mov	r0, #512
 621              	.LVL48:
 328:USB_DEVICE/Target/usbd_conf.c ****   hpcd_USB_OTG_FS.Init.speed = PCD_SPEED_FULL;
 622              		.loc 1 328 38 view .LVU129
 623 001c 4FF0040C 		mov	ip, #4
 327:USB_DEVICE/Target/usbd_conf.c ****   hpcd_USB_OTG_FS.Init.dev_endpoints = 4;
 624              		.loc 1 327 28 view .LVU130
 625 0020 1960     		str	r1, [r3]
 328:USB_DEVICE/Target/usbd_conf.c ****   hpcd_USB_OTG_FS.Init.speed = PCD_SPEED_FULL;
 626              		.loc 1 328 3 is_stmt 1 view .LVU131
 330:USB_DEVICE/Target/usbd_conf.c ****   hpcd_USB_OTG_FS.Init.phy_itface = PCD_PHY_EMBEDDED;
 627              		.loc 1 330 35 is_stmt 0 view .LVU132
 628 0022 D880     		strh	r0, [r3, #6]	@ movhi
 331:USB_DEVICE/Target/usbd_conf.c ****   hpcd_USB_OTG_FS.Init.Sof_enable = DISABLE;
 629              		.loc 1 331 35 view .LVU133
ARM GAS  /tmp/ccEnClGU.s 			page 19


 630 0024 0221     		movs	r1, #2
 337:USB_DEVICE/Target/usbd_conf.c ****   {
 631              		.loc 1 337 7 view .LVU134
 632 0026 1846     		mov	r0, r3
 328:USB_DEVICE/Target/usbd_conf.c ****   hpcd_USB_OTG_FS.Init.speed = PCD_SPEED_FULL;
 633              		.loc 1 328 38 view .LVU135
 634 0028 83F804C0 		strb	ip, [r3, #4]
 329:USB_DEVICE/Target/usbd_conf.c ****   hpcd_USB_OTG_FS.Init.dma_enable = DISABLE;
 635              		.loc 1 329 3 is_stmt 1 view .LVU136
 330:USB_DEVICE/Target/usbd_conf.c ****   hpcd_USB_OTG_FS.Init.phy_itface = PCD_PHY_EMBEDDED;
 636              		.loc 1 330 3 view .LVU137
 331:USB_DEVICE/Target/usbd_conf.c ****   hpcd_USB_OTG_FS.Init.Sof_enable = DISABLE;
 637              		.loc 1 331 3 view .LVU138
 332:USB_DEVICE/Target/usbd_conf.c ****   hpcd_USB_OTG_FS.Init.low_power_enable = DISABLE;
 638              		.loc 1 332 3 view .LVU139
 333:USB_DEVICE/Target/usbd_conf.c ****   hpcd_USB_OTG_FS.Init.lpm_enable = DISABLE;
 639              		.loc 1 333 3 view .LVU140
 334:USB_DEVICE/Target/usbd_conf.c ****   hpcd_USB_OTG_FS.Init.vbus_sensing_enable = DISABLE;
 640              		.loc 1 334 3 view .LVU141
 331:USB_DEVICE/Target/usbd_conf.c ****   hpcd_USB_OTG_FS.Init.Sof_enable = DISABLE;
 641              		.loc 1 331 35 is_stmt 0 view .LVU142
 642 002c C3F80910 		str	r1, [r3, #9]	@ unaligned
 335:USB_DEVICE/Target/usbd_conf.c ****   hpcd_USB_OTG_FS.Init.use_dedicated_ep1 = DISABLE;
 643              		.loc 1 335 3 is_stmt 1 view .LVU143
 336:USB_DEVICE/Target/usbd_conf.c ****   if (HAL_PCD_Init(&hpcd_USB_OTG_FS) != HAL_OK)
 644              		.loc 1 336 3 view .LVU144
 335:USB_DEVICE/Target/usbd_conf.c ****   hpcd_USB_OTG_FS.Init.use_dedicated_ep1 = DISABLE;
 645              		.loc 1 335 44 is_stmt 0 view .LVU145
 646 0030 DA81     		strh	r2, [r3, #14]	@ movhi
 337:USB_DEVICE/Target/usbd_conf.c ****   {
 647              		.loc 1 337 3 is_stmt 1 view .LVU146
 337:USB_DEVICE/Target/usbd_conf.c ****   {
 648              		.loc 1 337 7 is_stmt 0 view .LVU147
 649 0032 FFF7FEFF 		bl	HAL_PCD_Init
 650              	.LVL49:
 337:USB_DEVICE/Target/usbd_conf.c ****   {
 651              		.loc 1 337 6 discriminator 1 view .LVU148
 652 0036 78B9     		cbnz	r0, .L48
 653              	.L39:
 357:USB_DEVICE/Target/usbd_conf.c ****   HAL_PCDEx_SetTxFiFo(&hpcd_USB_OTG_FS, 0, 0x40);
 654              		.loc 1 357 3 is_stmt 1 view .LVU149
 655 0038 8021     		movs	r1, #128
 656 003a 0948     		ldr	r0, .L49
 657 003c FFF7FEFF 		bl	HAL_PCDEx_SetRxFiFo
 658              	.LVL50:
 358:USB_DEVICE/Target/usbd_conf.c ****   HAL_PCDEx_SetTxFiFo(&hpcd_USB_OTG_FS, 1, 0x80);
 659              		.loc 1 358 3 view .LVU150
 660 0040 4022     		movs	r2, #64
 661 0042 0021     		movs	r1, #0
 662 0044 0648     		ldr	r0, .L49
 663 0046 FFF7FEFF 		bl	HAL_PCDEx_SetTxFiFo
 664              	.LVL51:
 359:USB_DEVICE/Target/usbd_conf.c ****   }
 665              		.loc 1 359 3 view .LVU151
 666 004a 8022     		movs	r2, #128
 667 004c 0121     		movs	r1, #1
 668 004e 0448     		ldr	r0, .L49
ARM GAS  /tmp/ccEnClGU.s 			page 20


 669 0050 FFF7FEFF 		bl	HAL_PCDEx_SetTxFiFo
 670              	.LVL52:
 361:USB_DEVICE/Target/usbd_conf.c **** }
 671              		.loc 1 361 3 view .LVU152
 672              		.loc 1 362 1 is_stmt 0 view .LVU153
 673 0054 0020     		movs	r0, #0
 674 0056 08BD     		pop	{r3, pc}
 675              	.L48:
 339:USB_DEVICE/Target/usbd_conf.c ****   }
 676              		.loc 1 339 5 is_stmt 1 view .LVU154
 677 0058 FFF7FEFF 		bl	Error_Handler
 678              	.LVL53:
 679 005c ECE7     		b	.L39
 680              	.L50:
 681 005e 00BF     		.align	2
 682              	.L49:
 683 0060 00000000 		.word	hpcd_USB_OTG_FS
 684              		.cfi_endproc
 685              	.LFE151:
 687              		.section	.text.USBD_LL_DeInit,"ax",%progbits
 688              		.align	1
 689              		.p2align 2,,3
 690              		.global	USBD_LL_DeInit
 691              		.syntax unified
 692              		.thumb
 693              		.thumb_func
 695              	USBD_LL_DeInit:
 696              	.LVL54:
 697              	.LFB152:
 363:USB_DEVICE/Target/usbd_conf.c **** 
 364:USB_DEVICE/Target/usbd_conf.c **** /**
 365:USB_DEVICE/Target/usbd_conf.c ****   * @brief  De-Initializes the low level portion of the device driver.
 366:USB_DEVICE/Target/usbd_conf.c ****   * @param  pdev: Device handle
 367:USB_DEVICE/Target/usbd_conf.c ****   * @retval USBD status
 368:USB_DEVICE/Target/usbd_conf.c ****   */
 369:USB_DEVICE/Target/usbd_conf.c **** USBD_StatusTypeDef USBD_LL_DeInit(USBD_HandleTypeDef *pdev)
 370:USB_DEVICE/Target/usbd_conf.c **** {
 698              		.loc 1 370 1 view -0
 699              		.cfi_startproc
 700              		@ args = 0, pretend = 0, frame = 0
 701              		@ frame_needed = 0, uses_anonymous_args = 0
 371:USB_DEVICE/Target/usbd_conf.c ****   HAL_StatusTypeDef hal_status = HAL_OK;
 702              		.loc 1 371 3 view .LVU156
 372:USB_DEVICE/Target/usbd_conf.c ****   USBD_StatusTypeDef usb_status = USBD_OK;
 703              		.loc 1 372 3 view .LVU157
 373:USB_DEVICE/Target/usbd_conf.c **** 
 374:USB_DEVICE/Target/usbd_conf.c ****   hal_status = HAL_PCD_DeInit(pdev->pData);
 704              		.loc 1 374 3 view .LVU158
 370:USB_DEVICE/Target/usbd_conf.c ****   HAL_StatusTypeDef hal_status = HAL_OK;
 705              		.loc 1 370 1 is_stmt 0 view .LVU159
 706 0000 08B5     		push	{r3, lr}
 707              	.LCFI11:
 708              		.cfi_def_cfa_offset 8
 709              		.cfi_offset 3, -8
 710              		.cfi_offset 14, -4
 711              		.loc 1 374 16 view .LVU160
 712 0002 D0F8C802 		ldr	r0, [r0, #712]
ARM GAS  /tmp/ccEnClGU.s 			page 21


 713              	.LVL55:
 714              		.loc 1 374 16 view .LVU161
 715 0006 FFF7FEFF 		bl	HAL_PCD_DeInit
 716              	.LVL56:
 375:USB_DEVICE/Target/usbd_conf.c **** 
 376:USB_DEVICE/Target/usbd_conf.c ****   usb_status =  USBD_Get_USB_Status(hal_status);
 717              		.loc 1 376 3 is_stmt 1 view .LVU162
 718              	.LBB29:
 719              	.LBI29:
 377:USB_DEVICE/Target/usbd_conf.c **** 
 378:USB_DEVICE/Target/usbd_conf.c ****   return usb_status;
 379:USB_DEVICE/Target/usbd_conf.c **** }
 380:USB_DEVICE/Target/usbd_conf.c **** 
 381:USB_DEVICE/Target/usbd_conf.c **** /**
 382:USB_DEVICE/Target/usbd_conf.c ****   * @brief  Starts the low level portion of the device driver.
 383:USB_DEVICE/Target/usbd_conf.c ****   * @param  pdev: Device handle
 384:USB_DEVICE/Target/usbd_conf.c ****   * @retval USBD status
 385:USB_DEVICE/Target/usbd_conf.c ****   */
 386:USB_DEVICE/Target/usbd_conf.c **** USBD_StatusTypeDef USBD_LL_Start(USBD_HandleTypeDef *pdev)
 387:USB_DEVICE/Target/usbd_conf.c **** {
 388:USB_DEVICE/Target/usbd_conf.c ****   HAL_StatusTypeDef hal_status = HAL_OK;
 389:USB_DEVICE/Target/usbd_conf.c ****   USBD_StatusTypeDef usb_status = USBD_OK;
 390:USB_DEVICE/Target/usbd_conf.c **** 
 391:USB_DEVICE/Target/usbd_conf.c ****   hal_status = HAL_PCD_Start(pdev->pData);
 392:USB_DEVICE/Target/usbd_conf.c **** 
 393:USB_DEVICE/Target/usbd_conf.c ****   usb_status =  USBD_Get_USB_Status(hal_status);
 394:USB_DEVICE/Target/usbd_conf.c **** 
 395:USB_DEVICE/Target/usbd_conf.c ****   return usb_status;
 396:USB_DEVICE/Target/usbd_conf.c **** }
 397:USB_DEVICE/Target/usbd_conf.c **** 
 398:USB_DEVICE/Target/usbd_conf.c **** /**
 399:USB_DEVICE/Target/usbd_conf.c ****   * @brief  Stops the low level portion of the device driver.
 400:USB_DEVICE/Target/usbd_conf.c ****   * @param  pdev: Device handle
 401:USB_DEVICE/Target/usbd_conf.c ****   * @retval USBD status
 402:USB_DEVICE/Target/usbd_conf.c ****   */
 403:USB_DEVICE/Target/usbd_conf.c **** USBD_StatusTypeDef USBD_LL_Stop(USBD_HandleTypeDef *pdev)
 404:USB_DEVICE/Target/usbd_conf.c **** {
 405:USB_DEVICE/Target/usbd_conf.c ****   HAL_StatusTypeDef hal_status = HAL_OK;
 406:USB_DEVICE/Target/usbd_conf.c ****   USBD_StatusTypeDef usb_status = USBD_OK;
 407:USB_DEVICE/Target/usbd_conf.c **** 
 408:USB_DEVICE/Target/usbd_conf.c ****   hal_status = HAL_PCD_Stop(pdev->pData);
 409:USB_DEVICE/Target/usbd_conf.c **** 
 410:USB_DEVICE/Target/usbd_conf.c ****   usb_status =  USBD_Get_USB_Status(hal_status);
 411:USB_DEVICE/Target/usbd_conf.c **** 
 412:USB_DEVICE/Target/usbd_conf.c ****   return usb_status;
 413:USB_DEVICE/Target/usbd_conf.c **** }
 414:USB_DEVICE/Target/usbd_conf.c **** 
 415:USB_DEVICE/Target/usbd_conf.c **** /**
 416:USB_DEVICE/Target/usbd_conf.c ****   * @brief  Opens an endpoint of the low level driver.
 417:USB_DEVICE/Target/usbd_conf.c ****   * @param  pdev: Device handle
 418:USB_DEVICE/Target/usbd_conf.c ****   * @param  ep_addr: Endpoint number
 419:USB_DEVICE/Target/usbd_conf.c ****   * @param  ep_type: Endpoint type
 420:USB_DEVICE/Target/usbd_conf.c ****   * @param  ep_mps: Endpoint max packet size
 421:USB_DEVICE/Target/usbd_conf.c ****   * @retval USBD status
 422:USB_DEVICE/Target/usbd_conf.c ****   */
 423:USB_DEVICE/Target/usbd_conf.c **** USBD_StatusTypeDef USBD_LL_OpenEP(USBD_HandleTypeDef *pdev, uint8_t ep_addr, uint8_t ep_type, uint1
 424:USB_DEVICE/Target/usbd_conf.c **** {
ARM GAS  /tmp/ccEnClGU.s 			page 22


 425:USB_DEVICE/Target/usbd_conf.c ****   HAL_StatusTypeDef hal_status = HAL_OK;
 426:USB_DEVICE/Target/usbd_conf.c ****   USBD_StatusTypeDef usb_status = USBD_OK;
 427:USB_DEVICE/Target/usbd_conf.c **** 
 428:USB_DEVICE/Target/usbd_conf.c ****   hal_status = HAL_PCD_EP_Open(pdev->pData, ep_addr, ep_mps, ep_type);
 429:USB_DEVICE/Target/usbd_conf.c **** 
 430:USB_DEVICE/Target/usbd_conf.c ****   usb_status =  USBD_Get_USB_Status(hal_status);
 431:USB_DEVICE/Target/usbd_conf.c **** 
 432:USB_DEVICE/Target/usbd_conf.c ****   return usb_status;
 433:USB_DEVICE/Target/usbd_conf.c **** }
 434:USB_DEVICE/Target/usbd_conf.c **** 
 435:USB_DEVICE/Target/usbd_conf.c **** /**
 436:USB_DEVICE/Target/usbd_conf.c ****   * @brief  Closes an endpoint of the low level driver.
 437:USB_DEVICE/Target/usbd_conf.c ****   * @param  pdev: Device handle
 438:USB_DEVICE/Target/usbd_conf.c ****   * @param  ep_addr: Endpoint number
 439:USB_DEVICE/Target/usbd_conf.c ****   * @retval USBD status
 440:USB_DEVICE/Target/usbd_conf.c ****   */
 441:USB_DEVICE/Target/usbd_conf.c **** USBD_StatusTypeDef USBD_LL_CloseEP(USBD_HandleTypeDef *pdev, uint8_t ep_addr)
 442:USB_DEVICE/Target/usbd_conf.c **** {
 443:USB_DEVICE/Target/usbd_conf.c ****   HAL_StatusTypeDef hal_status = HAL_OK;
 444:USB_DEVICE/Target/usbd_conf.c ****   USBD_StatusTypeDef usb_status = USBD_OK;
 445:USB_DEVICE/Target/usbd_conf.c **** 
 446:USB_DEVICE/Target/usbd_conf.c ****   hal_status = HAL_PCD_EP_Close(pdev->pData, ep_addr);
 447:USB_DEVICE/Target/usbd_conf.c **** 
 448:USB_DEVICE/Target/usbd_conf.c ****   usb_status =  USBD_Get_USB_Status(hal_status);
 449:USB_DEVICE/Target/usbd_conf.c **** 
 450:USB_DEVICE/Target/usbd_conf.c ****   return usb_status;
 451:USB_DEVICE/Target/usbd_conf.c **** }
 452:USB_DEVICE/Target/usbd_conf.c **** 
 453:USB_DEVICE/Target/usbd_conf.c **** /**
 454:USB_DEVICE/Target/usbd_conf.c ****   * @brief  Flushes an endpoint of the Low Level Driver.
 455:USB_DEVICE/Target/usbd_conf.c ****   * @param  pdev: Device handle
 456:USB_DEVICE/Target/usbd_conf.c ****   * @param  ep_addr: Endpoint number
 457:USB_DEVICE/Target/usbd_conf.c ****   * @retval USBD status
 458:USB_DEVICE/Target/usbd_conf.c ****   */
 459:USB_DEVICE/Target/usbd_conf.c **** USBD_StatusTypeDef USBD_LL_FlushEP(USBD_HandleTypeDef *pdev, uint8_t ep_addr)
 460:USB_DEVICE/Target/usbd_conf.c **** {
 461:USB_DEVICE/Target/usbd_conf.c ****   HAL_StatusTypeDef hal_status = HAL_OK;
 462:USB_DEVICE/Target/usbd_conf.c ****   USBD_StatusTypeDef usb_status = USBD_OK;
 463:USB_DEVICE/Target/usbd_conf.c **** 
 464:USB_DEVICE/Target/usbd_conf.c ****   hal_status = HAL_PCD_EP_Flush(pdev->pData, ep_addr);
 465:USB_DEVICE/Target/usbd_conf.c **** 
 466:USB_DEVICE/Target/usbd_conf.c ****   usb_status =  USBD_Get_USB_Status(hal_status);
 467:USB_DEVICE/Target/usbd_conf.c **** 
 468:USB_DEVICE/Target/usbd_conf.c ****   return usb_status;
 469:USB_DEVICE/Target/usbd_conf.c **** }
 470:USB_DEVICE/Target/usbd_conf.c **** 
 471:USB_DEVICE/Target/usbd_conf.c **** /**
 472:USB_DEVICE/Target/usbd_conf.c ****   * @brief  Sets a Stall condition on an endpoint of the Low Level Driver.
 473:USB_DEVICE/Target/usbd_conf.c ****   * @param  pdev: Device handle
 474:USB_DEVICE/Target/usbd_conf.c ****   * @param  ep_addr: Endpoint number
 475:USB_DEVICE/Target/usbd_conf.c ****   * @retval USBD status
 476:USB_DEVICE/Target/usbd_conf.c ****   */
 477:USB_DEVICE/Target/usbd_conf.c **** USBD_StatusTypeDef USBD_LL_StallEP(USBD_HandleTypeDef *pdev, uint8_t ep_addr)
 478:USB_DEVICE/Target/usbd_conf.c **** {
 479:USB_DEVICE/Target/usbd_conf.c ****   HAL_StatusTypeDef hal_status = HAL_OK;
 480:USB_DEVICE/Target/usbd_conf.c ****   USBD_StatusTypeDef usb_status = USBD_OK;
 481:USB_DEVICE/Target/usbd_conf.c **** 
ARM GAS  /tmp/ccEnClGU.s 			page 23


 482:USB_DEVICE/Target/usbd_conf.c ****   hal_status = HAL_PCD_EP_SetStall(pdev->pData, ep_addr);
 483:USB_DEVICE/Target/usbd_conf.c **** 
 484:USB_DEVICE/Target/usbd_conf.c ****   usb_status =  USBD_Get_USB_Status(hal_status);
 485:USB_DEVICE/Target/usbd_conf.c **** 
 486:USB_DEVICE/Target/usbd_conf.c ****   return usb_status;
 487:USB_DEVICE/Target/usbd_conf.c **** }
 488:USB_DEVICE/Target/usbd_conf.c **** 
 489:USB_DEVICE/Target/usbd_conf.c **** /**
 490:USB_DEVICE/Target/usbd_conf.c ****   * @brief  Clears a Stall condition on an endpoint of the Low Level Driver.
 491:USB_DEVICE/Target/usbd_conf.c ****   * @param  pdev: Device handle
 492:USB_DEVICE/Target/usbd_conf.c ****   * @param  ep_addr: Endpoint number
 493:USB_DEVICE/Target/usbd_conf.c ****   * @retval USBD status
 494:USB_DEVICE/Target/usbd_conf.c ****   */
 495:USB_DEVICE/Target/usbd_conf.c **** USBD_StatusTypeDef USBD_LL_ClearStallEP(USBD_HandleTypeDef *pdev, uint8_t ep_addr)
 496:USB_DEVICE/Target/usbd_conf.c **** {
 497:USB_DEVICE/Target/usbd_conf.c ****   HAL_StatusTypeDef hal_status = HAL_OK;
 498:USB_DEVICE/Target/usbd_conf.c ****   USBD_StatusTypeDef usb_status = USBD_OK;
 499:USB_DEVICE/Target/usbd_conf.c **** 
 500:USB_DEVICE/Target/usbd_conf.c ****   hal_status = HAL_PCD_EP_ClrStall(pdev->pData, ep_addr);
 501:USB_DEVICE/Target/usbd_conf.c **** 
 502:USB_DEVICE/Target/usbd_conf.c ****   usb_status =  USBD_Get_USB_Status(hal_status);
 503:USB_DEVICE/Target/usbd_conf.c **** 
 504:USB_DEVICE/Target/usbd_conf.c ****   return usb_status;
 505:USB_DEVICE/Target/usbd_conf.c **** }
 506:USB_DEVICE/Target/usbd_conf.c **** 
 507:USB_DEVICE/Target/usbd_conf.c **** /**
 508:USB_DEVICE/Target/usbd_conf.c ****   * @brief  Returns Stall condition.
 509:USB_DEVICE/Target/usbd_conf.c ****   * @param  pdev: Device handle
 510:USB_DEVICE/Target/usbd_conf.c ****   * @param  ep_addr: Endpoint number
 511:USB_DEVICE/Target/usbd_conf.c ****   * @retval Stall (1: Yes, 0: No)
 512:USB_DEVICE/Target/usbd_conf.c ****   */
 513:USB_DEVICE/Target/usbd_conf.c **** uint8_t USBD_LL_IsStallEP(USBD_HandleTypeDef *pdev, uint8_t ep_addr)
 514:USB_DEVICE/Target/usbd_conf.c **** {
 515:USB_DEVICE/Target/usbd_conf.c ****   PCD_HandleTypeDef *hpcd = (PCD_HandleTypeDef*) pdev->pData;
 516:USB_DEVICE/Target/usbd_conf.c **** 
 517:USB_DEVICE/Target/usbd_conf.c ****   if((ep_addr & 0x80) == 0x80)
 518:USB_DEVICE/Target/usbd_conf.c ****   {
 519:USB_DEVICE/Target/usbd_conf.c ****     return hpcd->IN_ep[ep_addr & 0x7F].is_stall;
 520:USB_DEVICE/Target/usbd_conf.c ****   }
 521:USB_DEVICE/Target/usbd_conf.c ****   else
 522:USB_DEVICE/Target/usbd_conf.c ****   {
 523:USB_DEVICE/Target/usbd_conf.c ****     return hpcd->OUT_ep[ep_addr & 0x7F].is_stall;
 524:USB_DEVICE/Target/usbd_conf.c ****   }
 525:USB_DEVICE/Target/usbd_conf.c **** }
 526:USB_DEVICE/Target/usbd_conf.c **** 
 527:USB_DEVICE/Target/usbd_conf.c **** /**
 528:USB_DEVICE/Target/usbd_conf.c ****   * @brief  Assigns a USB address to the device.
 529:USB_DEVICE/Target/usbd_conf.c ****   * @param  pdev: Device handle
 530:USB_DEVICE/Target/usbd_conf.c ****   * @param  dev_addr: Device address
 531:USB_DEVICE/Target/usbd_conf.c ****   * @retval USBD status
 532:USB_DEVICE/Target/usbd_conf.c ****   */
 533:USB_DEVICE/Target/usbd_conf.c **** USBD_StatusTypeDef USBD_LL_SetUSBAddress(USBD_HandleTypeDef *pdev, uint8_t dev_addr)
 534:USB_DEVICE/Target/usbd_conf.c **** {
 535:USB_DEVICE/Target/usbd_conf.c ****   HAL_StatusTypeDef hal_status = HAL_OK;
 536:USB_DEVICE/Target/usbd_conf.c ****   USBD_StatusTypeDef usb_status = USBD_OK;
 537:USB_DEVICE/Target/usbd_conf.c **** 
 538:USB_DEVICE/Target/usbd_conf.c ****   hal_status = HAL_PCD_SetAddress(pdev->pData, dev_addr);
ARM GAS  /tmp/ccEnClGU.s 			page 24


 539:USB_DEVICE/Target/usbd_conf.c **** 
 540:USB_DEVICE/Target/usbd_conf.c ****   usb_status =  USBD_Get_USB_Status(hal_status);
 541:USB_DEVICE/Target/usbd_conf.c **** 
 542:USB_DEVICE/Target/usbd_conf.c ****   return usb_status;
 543:USB_DEVICE/Target/usbd_conf.c **** }
 544:USB_DEVICE/Target/usbd_conf.c **** 
 545:USB_DEVICE/Target/usbd_conf.c **** /**
 546:USB_DEVICE/Target/usbd_conf.c ****   * @brief  Transmits data over an endpoint.
 547:USB_DEVICE/Target/usbd_conf.c ****   * @param  pdev: Device handle
 548:USB_DEVICE/Target/usbd_conf.c ****   * @param  ep_addr: Endpoint number
 549:USB_DEVICE/Target/usbd_conf.c ****   * @param  pbuf: Pointer to data to be sent
 550:USB_DEVICE/Target/usbd_conf.c ****   * @param  size: Data size
 551:USB_DEVICE/Target/usbd_conf.c ****   * @retval USBD status
 552:USB_DEVICE/Target/usbd_conf.c ****   */
 553:USB_DEVICE/Target/usbd_conf.c **** USBD_StatusTypeDef USBD_LL_Transmit(USBD_HandleTypeDef *pdev, uint8_t ep_addr, uint8_t *pbuf, uint3
 554:USB_DEVICE/Target/usbd_conf.c **** {
 555:USB_DEVICE/Target/usbd_conf.c ****   HAL_StatusTypeDef hal_status = HAL_OK;
 556:USB_DEVICE/Target/usbd_conf.c ****   USBD_StatusTypeDef usb_status = USBD_OK;
 557:USB_DEVICE/Target/usbd_conf.c **** 
 558:USB_DEVICE/Target/usbd_conf.c ****   hal_status = HAL_PCD_EP_Transmit(pdev->pData, ep_addr, pbuf, size);
 559:USB_DEVICE/Target/usbd_conf.c **** 
 560:USB_DEVICE/Target/usbd_conf.c ****   usb_status =  USBD_Get_USB_Status(hal_status);
 561:USB_DEVICE/Target/usbd_conf.c **** 
 562:USB_DEVICE/Target/usbd_conf.c ****   return usb_status;
 563:USB_DEVICE/Target/usbd_conf.c **** }
 564:USB_DEVICE/Target/usbd_conf.c **** 
 565:USB_DEVICE/Target/usbd_conf.c **** /**
 566:USB_DEVICE/Target/usbd_conf.c ****   * @brief  Prepares an endpoint for reception.
 567:USB_DEVICE/Target/usbd_conf.c ****   * @param  pdev: Device handle
 568:USB_DEVICE/Target/usbd_conf.c ****   * @param  ep_addr: Endpoint number
 569:USB_DEVICE/Target/usbd_conf.c ****   * @param  pbuf: Pointer to data to be received
 570:USB_DEVICE/Target/usbd_conf.c ****   * @param  size: Data size
 571:USB_DEVICE/Target/usbd_conf.c ****   * @retval USBD status
 572:USB_DEVICE/Target/usbd_conf.c ****   */
 573:USB_DEVICE/Target/usbd_conf.c **** USBD_StatusTypeDef USBD_LL_PrepareReceive(USBD_HandleTypeDef *pdev, uint8_t ep_addr, uint8_t *pbuf,
 574:USB_DEVICE/Target/usbd_conf.c **** {
 575:USB_DEVICE/Target/usbd_conf.c ****   HAL_StatusTypeDef hal_status = HAL_OK;
 576:USB_DEVICE/Target/usbd_conf.c ****   USBD_StatusTypeDef usb_status = USBD_OK;
 577:USB_DEVICE/Target/usbd_conf.c **** 
 578:USB_DEVICE/Target/usbd_conf.c ****   hal_status = HAL_PCD_EP_Receive(pdev->pData, ep_addr, pbuf, size);
 579:USB_DEVICE/Target/usbd_conf.c **** 
 580:USB_DEVICE/Target/usbd_conf.c ****   usb_status =  USBD_Get_USB_Status(hal_status);
 581:USB_DEVICE/Target/usbd_conf.c **** 
 582:USB_DEVICE/Target/usbd_conf.c ****   return usb_status;
 583:USB_DEVICE/Target/usbd_conf.c **** }
 584:USB_DEVICE/Target/usbd_conf.c **** 
 585:USB_DEVICE/Target/usbd_conf.c **** /**
 586:USB_DEVICE/Target/usbd_conf.c ****   * @brief  Returns the last transferred packet size.
 587:USB_DEVICE/Target/usbd_conf.c ****   * @param  pdev: Device handle
 588:USB_DEVICE/Target/usbd_conf.c ****   * @param  ep_addr: Endpoint number
 589:USB_DEVICE/Target/usbd_conf.c ****   * @retval Received Data Size
 590:USB_DEVICE/Target/usbd_conf.c ****   */
 591:USB_DEVICE/Target/usbd_conf.c **** uint32_t USBD_LL_GetRxDataSize(USBD_HandleTypeDef *pdev, uint8_t ep_addr)
 592:USB_DEVICE/Target/usbd_conf.c **** {
 593:USB_DEVICE/Target/usbd_conf.c ****   return HAL_PCD_EP_GetRxCount((PCD_HandleTypeDef*) pdev->pData, ep_addr);
 594:USB_DEVICE/Target/usbd_conf.c **** }
 595:USB_DEVICE/Target/usbd_conf.c **** 
ARM GAS  /tmp/ccEnClGU.s 			page 25


 596:USB_DEVICE/Target/usbd_conf.c **** #ifdef USBD_HS_TESTMODE_ENABLE
 597:USB_DEVICE/Target/usbd_conf.c **** /**
 598:USB_DEVICE/Target/usbd_conf.c ****   * @brief  Set High speed Test mode.
 599:USB_DEVICE/Target/usbd_conf.c ****   * @param  pdev: Device handle
 600:USB_DEVICE/Target/usbd_conf.c ****   * @param  testmode: test mode
 601:USB_DEVICE/Target/usbd_conf.c ****   * @retval USBD Status
 602:USB_DEVICE/Target/usbd_conf.c ****   */
 603:USB_DEVICE/Target/usbd_conf.c **** USBD_StatusTypeDef USBD_LL_SetTestMode(USBD_HandleTypeDef *pdev, uint8_t testmode)
 604:USB_DEVICE/Target/usbd_conf.c **** {
 605:USB_DEVICE/Target/usbd_conf.c ****   UNUSED(pdev);
 606:USB_DEVICE/Target/usbd_conf.c ****   UNUSED(testmode);
 607:USB_DEVICE/Target/usbd_conf.c **** 
 608:USB_DEVICE/Target/usbd_conf.c ****   return USBD_OK;
 609:USB_DEVICE/Target/usbd_conf.c **** }
 610:USB_DEVICE/Target/usbd_conf.c **** #endif /* USBD_HS_TESTMODE_ENABLE */
 611:USB_DEVICE/Target/usbd_conf.c **** 
 612:USB_DEVICE/Target/usbd_conf.c **** /**
 613:USB_DEVICE/Target/usbd_conf.c ****   * @brief  Static single allocation.
 614:USB_DEVICE/Target/usbd_conf.c ****   * @param  size: Size of allocated memory
 615:USB_DEVICE/Target/usbd_conf.c ****   * @retval None
 616:USB_DEVICE/Target/usbd_conf.c ****   */
 617:USB_DEVICE/Target/usbd_conf.c **** void *USBD_static_malloc(uint32_t size)
 618:USB_DEVICE/Target/usbd_conf.c **** {
 619:USB_DEVICE/Target/usbd_conf.c ****   static uint32_t mem[(sizeof(USB_MIDI_HandleTypeDef)/4+1)];/* On 32-bit boundary */
 620:USB_DEVICE/Target/usbd_conf.c ****   return mem;
 621:USB_DEVICE/Target/usbd_conf.c **** }
 622:USB_DEVICE/Target/usbd_conf.c **** 
 623:USB_DEVICE/Target/usbd_conf.c **** /**
 624:USB_DEVICE/Target/usbd_conf.c ****   * @brief  Dummy memory free
 625:USB_DEVICE/Target/usbd_conf.c ****   * @param  p: Pointer to allocated  memory address
 626:USB_DEVICE/Target/usbd_conf.c ****   * @retval None
 627:USB_DEVICE/Target/usbd_conf.c ****   */
 628:USB_DEVICE/Target/usbd_conf.c **** void USBD_static_free(void *p)
 629:USB_DEVICE/Target/usbd_conf.c **** {
 630:USB_DEVICE/Target/usbd_conf.c **** 
 631:USB_DEVICE/Target/usbd_conf.c **** }
 632:USB_DEVICE/Target/usbd_conf.c **** 
 633:USB_DEVICE/Target/usbd_conf.c **** /**
 634:USB_DEVICE/Target/usbd_conf.c ****   * @brief  Delays routine for the USB Device Library.
 635:USB_DEVICE/Target/usbd_conf.c ****   * @param  Delay: Delay in ms
 636:USB_DEVICE/Target/usbd_conf.c ****   * @retval None
 637:USB_DEVICE/Target/usbd_conf.c ****   */
 638:USB_DEVICE/Target/usbd_conf.c **** void USBD_LL_Delay(uint32_t Delay)
 639:USB_DEVICE/Target/usbd_conf.c **** {
 640:USB_DEVICE/Target/usbd_conf.c ****   HAL_Delay(Delay);
 641:USB_DEVICE/Target/usbd_conf.c **** }
 642:USB_DEVICE/Target/usbd_conf.c **** 
 643:USB_DEVICE/Target/usbd_conf.c **** /**
 644:USB_DEVICE/Target/usbd_conf.c ****   * @brief  Returns the USB status depending on the HAL status:
 645:USB_DEVICE/Target/usbd_conf.c ****   * @param  hal_status: HAL status
 646:USB_DEVICE/Target/usbd_conf.c ****   * @retval USB status
 647:USB_DEVICE/Target/usbd_conf.c ****   */
 648:USB_DEVICE/Target/usbd_conf.c **** USBD_StatusTypeDef USBD_Get_USB_Status(HAL_StatusTypeDef hal_status)
 720              		.loc 1 648 20 view .LVU163
 721              	.LBB30:
 649:USB_DEVICE/Target/usbd_conf.c **** {
 650:USB_DEVICE/Target/usbd_conf.c ****   USBD_StatusTypeDef usb_status = USBD_OK;
ARM GAS  /tmp/ccEnClGU.s 			page 26


 722              		.loc 1 650 3 view .LVU164
 651:USB_DEVICE/Target/usbd_conf.c **** 
 652:USB_DEVICE/Target/usbd_conf.c ****   switch (hal_status)
 723              		.loc 1 652 3 view .LVU165
 724 000a 18B1     		cbz	r0, .L52
 725 000c 0228     		cmp	r0, #2
 726 000e 0CBF     		ite	eq
 727 0010 0120     		moveq	r0, #1
 728              	.LVL57:
 729              		.loc 1 652 3 is_stmt 0 view .LVU166
 730 0012 0320     		movne	r0, #3
 731              	.L52:
 732              	.LVL58:
 653:USB_DEVICE/Target/usbd_conf.c ****   {
 654:USB_DEVICE/Target/usbd_conf.c ****     case HAL_OK :
 655:USB_DEVICE/Target/usbd_conf.c ****       usb_status = USBD_OK;
 656:USB_DEVICE/Target/usbd_conf.c ****     break;
 657:USB_DEVICE/Target/usbd_conf.c ****     case HAL_ERROR :
 658:USB_DEVICE/Target/usbd_conf.c ****       usb_status = USBD_FAIL;
 659:USB_DEVICE/Target/usbd_conf.c ****     break;
 660:USB_DEVICE/Target/usbd_conf.c ****     case HAL_BUSY :
 661:USB_DEVICE/Target/usbd_conf.c ****       usb_status = USBD_BUSY;
 662:USB_DEVICE/Target/usbd_conf.c ****     break;
 663:USB_DEVICE/Target/usbd_conf.c ****     case HAL_TIMEOUT :
 664:USB_DEVICE/Target/usbd_conf.c ****       usb_status = USBD_FAIL;
 665:USB_DEVICE/Target/usbd_conf.c ****     break;
 666:USB_DEVICE/Target/usbd_conf.c ****     default :
 667:USB_DEVICE/Target/usbd_conf.c ****       usb_status = USBD_FAIL;
 668:USB_DEVICE/Target/usbd_conf.c ****     break;
 669:USB_DEVICE/Target/usbd_conf.c ****   }
 670:USB_DEVICE/Target/usbd_conf.c ****   return usb_status;
 733              		.loc 1 670 3 is_stmt 1 view .LVU167
 734              		.loc 1 670 3 is_stmt 0 view .LVU168
 735              	.LBE30:
 736              	.LBE29:
 378:USB_DEVICE/Target/usbd_conf.c **** }
 737              		.loc 1 378 3 is_stmt 1 view .LVU169
 379:USB_DEVICE/Target/usbd_conf.c **** 
 738              		.loc 1 379 1 is_stmt 0 view .LVU170
 739 0014 08BD     		pop	{r3, pc}
 740              		.cfi_endproc
 741              	.LFE152:
 743 0016 00BF     		.section	.text.USBD_LL_Start,"ax",%progbits
 744              		.align	1
 745              		.p2align 2,,3
 746              		.global	USBD_LL_Start
 747              		.syntax unified
 748              		.thumb
 749              		.thumb_func
 751              	USBD_LL_Start:
 752              	.LVL59:
 753              	.LFB153:
 387:USB_DEVICE/Target/usbd_conf.c ****   HAL_StatusTypeDef hal_status = HAL_OK;
 754              		.loc 1 387 1 is_stmt 1 view -0
 755              		.cfi_startproc
 756              		@ args = 0, pretend = 0, frame = 0
 757              		@ frame_needed = 0, uses_anonymous_args = 0
ARM GAS  /tmp/ccEnClGU.s 			page 27


 388:USB_DEVICE/Target/usbd_conf.c ****   USBD_StatusTypeDef usb_status = USBD_OK;
 758              		.loc 1 388 3 view .LVU172
 389:USB_DEVICE/Target/usbd_conf.c **** 
 759              		.loc 1 389 3 view .LVU173
 391:USB_DEVICE/Target/usbd_conf.c **** 
 760              		.loc 1 391 3 view .LVU174
 387:USB_DEVICE/Target/usbd_conf.c ****   HAL_StatusTypeDef hal_status = HAL_OK;
 761              		.loc 1 387 1 is_stmt 0 view .LVU175
 762 0000 08B5     		push	{r3, lr}
 763              	.LCFI12:
 764              		.cfi_def_cfa_offset 8
 765              		.cfi_offset 3, -8
 766              		.cfi_offset 14, -4
 391:USB_DEVICE/Target/usbd_conf.c **** 
 767              		.loc 1 391 16 view .LVU176
 768 0002 D0F8C802 		ldr	r0, [r0, #712]
 769              	.LVL60:
 391:USB_DEVICE/Target/usbd_conf.c **** 
 770              		.loc 1 391 16 view .LVU177
 771 0006 FFF7FEFF 		bl	HAL_PCD_Start
 772              	.LVL61:
 393:USB_DEVICE/Target/usbd_conf.c **** 
 773              		.loc 1 393 3 is_stmt 1 view .LVU178
 774              	.LBB31:
 775              	.LBI31:
 648:USB_DEVICE/Target/usbd_conf.c **** {
 776              		.loc 1 648 20 view .LVU179
 777              	.LBB32:
 650:USB_DEVICE/Target/usbd_conf.c **** 
 778              		.loc 1 650 3 view .LVU180
 652:USB_DEVICE/Target/usbd_conf.c ****   {
 779              		.loc 1 652 3 view .LVU181
 780 000a 18B1     		cbz	r0, .L59
 781 000c 0228     		cmp	r0, #2
 782 000e 0CBF     		ite	eq
 783 0010 0120     		moveq	r0, #1
 784              	.LVL62:
 652:USB_DEVICE/Target/usbd_conf.c ****   {
 785              		.loc 1 652 3 is_stmt 0 view .LVU182
 786 0012 0320     		movne	r0, #3
 787              	.L59:
 788              	.LVL63:
 789              		.loc 1 670 3 is_stmt 1 view .LVU183
 790              		.loc 1 670 3 is_stmt 0 view .LVU184
 791              	.LBE32:
 792              	.LBE31:
 395:USB_DEVICE/Target/usbd_conf.c **** }
 793              		.loc 1 395 3 is_stmt 1 view .LVU185
 396:USB_DEVICE/Target/usbd_conf.c **** 
 794              		.loc 1 396 1 is_stmt 0 view .LVU186
 795 0014 08BD     		pop	{r3, pc}
 796              		.cfi_endproc
 797              	.LFE153:
 799 0016 00BF     		.section	.text.USBD_LL_Stop,"ax",%progbits
 800              		.align	1
 801              		.p2align 2,,3
 802              		.global	USBD_LL_Stop
ARM GAS  /tmp/ccEnClGU.s 			page 28


 803              		.syntax unified
 804              		.thumb
 805              		.thumb_func
 807              	USBD_LL_Stop:
 808              	.LVL64:
 809              	.LFB154:
 404:USB_DEVICE/Target/usbd_conf.c ****   HAL_StatusTypeDef hal_status = HAL_OK;
 810              		.loc 1 404 1 is_stmt 1 view -0
 811              		.cfi_startproc
 812              		@ args = 0, pretend = 0, frame = 0
 813              		@ frame_needed = 0, uses_anonymous_args = 0
 405:USB_DEVICE/Target/usbd_conf.c ****   USBD_StatusTypeDef usb_status = USBD_OK;
 814              		.loc 1 405 3 view .LVU188
 406:USB_DEVICE/Target/usbd_conf.c **** 
 815              		.loc 1 406 3 view .LVU189
 408:USB_DEVICE/Target/usbd_conf.c **** 
 816              		.loc 1 408 3 view .LVU190
 404:USB_DEVICE/Target/usbd_conf.c ****   HAL_StatusTypeDef hal_status = HAL_OK;
 817              		.loc 1 404 1 is_stmt 0 view .LVU191
 818 0000 08B5     		push	{r3, lr}
 819              	.LCFI13:
 820              		.cfi_def_cfa_offset 8
 821              		.cfi_offset 3, -8
 822              		.cfi_offset 14, -4
 408:USB_DEVICE/Target/usbd_conf.c **** 
 823              		.loc 1 408 16 view .LVU192
 824 0002 D0F8C802 		ldr	r0, [r0, #712]
 825              	.LVL65:
 408:USB_DEVICE/Target/usbd_conf.c **** 
 826              		.loc 1 408 16 view .LVU193
 827 0006 FFF7FEFF 		bl	HAL_PCD_Stop
 828              	.LVL66:
 410:USB_DEVICE/Target/usbd_conf.c **** 
 829              		.loc 1 410 3 is_stmt 1 view .LVU194
 830              	.LBB33:
 831              	.LBI33:
 648:USB_DEVICE/Target/usbd_conf.c **** {
 832              		.loc 1 648 20 view .LVU195
 833              	.LBB34:
 650:USB_DEVICE/Target/usbd_conf.c **** 
 834              		.loc 1 650 3 view .LVU196
 652:USB_DEVICE/Target/usbd_conf.c ****   {
 835              		.loc 1 652 3 view .LVU197
 836 000a 18B1     		cbz	r0, .L66
 837 000c 0228     		cmp	r0, #2
 838 000e 0CBF     		ite	eq
 839 0010 0120     		moveq	r0, #1
 840              	.LVL67:
 652:USB_DEVICE/Target/usbd_conf.c ****   {
 841              		.loc 1 652 3 is_stmt 0 view .LVU198
 842 0012 0320     		movne	r0, #3
 843              	.L66:
 844              	.LVL68:
 845              		.loc 1 670 3 is_stmt 1 view .LVU199
 846              		.loc 1 670 3 is_stmt 0 view .LVU200
 847              	.LBE34:
 848              	.LBE33:
ARM GAS  /tmp/ccEnClGU.s 			page 29


 412:USB_DEVICE/Target/usbd_conf.c **** }
 849              		.loc 1 412 3 is_stmt 1 view .LVU201
 413:USB_DEVICE/Target/usbd_conf.c **** 
 850              		.loc 1 413 1 is_stmt 0 view .LVU202
 851 0014 08BD     		pop	{r3, pc}
 852              		.cfi_endproc
 853              	.LFE154:
 855 0016 00BF     		.section	.text.USBD_LL_OpenEP,"ax",%progbits
 856              		.align	1
 857              		.p2align 2,,3
 858              		.global	USBD_LL_OpenEP
 859              		.syntax unified
 860              		.thumb
 861              		.thumb_func
 863              	USBD_LL_OpenEP:
 864              	.LVL69:
 865              	.LFB155:
 424:USB_DEVICE/Target/usbd_conf.c ****   HAL_StatusTypeDef hal_status = HAL_OK;
 866              		.loc 1 424 1 is_stmt 1 view -0
 867              		.cfi_startproc
 868              		@ args = 0, pretend = 0, frame = 0
 869              		@ frame_needed = 0, uses_anonymous_args = 0
 425:USB_DEVICE/Target/usbd_conf.c ****   USBD_StatusTypeDef usb_status = USBD_OK;
 870              		.loc 1 425 3 view .LVU204
 426:USB_DEVICE/Target/usbd_conf.c **** 
 871              		.loc 1 426 3 view .LVU205
 428:USB_DEVICE/Target/usbd_conf.c **** 
 872              		.loc 1 428 3 view .LVU206
 424:USB_DEVICE/Target/usbd_conf.c ****   HAL_StatusTypeDef hal_status = HAL_OK;
 873              		.loc 1 424 1 is_stmt 0 view .LVU207
 874 0000 9446     		mov	ip, r2
 875 0002 08B5     		push	{r3, lr}
 876              	.LCFI14:
 877              		.cfi_def_cfa_offset 8
 878              		.cfi_offset 3, -8
 879              		.cfi_offset 14, -4
 424:USB_DEVICE/Target/usbd_conf.c ****   HAL_StatusTypeDef hal_status = HAL_OK;
 880              		.loc 1 424 1 view .LVU208
 881 0004 1A46     		mov	r2, r3
 882              	.LVL70:
 428:USB_DEVICE/Target/usbd_conf.c **** 
 883              		.loc 1 428 16 view .LVU209
 884 0006 D0F8C802 		ldr	r0, [r0, #712]
 885              	.LVL71:
 428:USB_DEVICE/Target/usbd_conf.c **** 
 886              		.loc 1 428 16 view .LVU210
 887 000a 6346     		mov	r3, ip
 888              	.LVL72:
 428:USB_DEVICE/Target/usbd_conf.c **** 
 889              		.loc 1 428 16 view .LVU211
 890 000c FFF7FEFF 		bl	HAL_PCD_EP_Open
 891              	.LVL73:
 430:USB_DEVICE/Target/usbd_conf.c **** 
 892              		.loc 1 430 3 is_stmt 1 view .LVU212
 893              	.LBB35:
 894              	.LBI35:
 648:USB_DEVICE/Target/usbd_conf.c **** {
ARM GAS  /tmp/ccEnClGU.s 			page 30


 895              		.loc 1 648 20 view .LVU213
 896              	.LBB36:
 650:USB_DEVICE/Target/usbd_conf.c **** 
 897              		.loc 1 650 3 view .LVU214
 652:USB_DEVICE/Target/usbd_conf.c ****   {
 898              		.loc 1 652 3 view .LVU215
 899 0010 18B1     		cbz	r0, .L73
 900 0012 0228     		cmp	r0, #2
 901 0014 0CBF     		ite	eq
 902 0016 0120     		moveq	r0, #1
 903              	.LVL74:
 652:USB_DEVICE/Target/usbd_conf.c ****   {
 904              		.loc 1 652 3 is_stmt 0 view .LVU216
 905 0018 0320     		movne	r0, #3
 906              	.L73:
 907              	.LVL75:
 908              		.loc 1 670 3 is_stmt 1 view .LVU217
 909              		.loc 1 670 3 is_stmt 0 view .LVU218
 910              	.LBE36:
 911              	.LBE35:
 432:USB_DEVICE/Target/usbd_conf.c **** }
 912              		.loc 1 432 3 is_stmt 1 view .LVU219
 433:USB_DEVICE/Target/usbd_conf.c **** 
 913              		.loc 1 433 1 is_stmt 0 view .LVU220
 914 001a 08BD     		pop	{r3, pc}
 915              		.cfi_endproc
 916              	.LFE155:
 918              		.section	.text.USBD_LL_CloseEP,"ax",%progbits
 919              		.align	1
 920              		.p2align 2,,3
 921              		.global	USBD_LL_CloseEP
 922              		.syntax unified
 923              		.thumb
 924              		.thumb_func
 926              	USBD_LL_CloseEP:
 927              	.LVL76:
 928              	.LFB156:
 442:USB_DEVICE/Target/usbd_conf.c ****   HAL_StatusTypeDef hal_status = HAL_OK;
 929              		.loc 1 442 1 is_stmt 1 view -0
 930              		.cfi_startproc
 931              		@ args = 0, pretend = 0, frame = 0
 932              		@ frame_needed = 0, uses_anonymous_args = 0
 443:USB_DEVICE/Target/usbd_conf.c ****   USBD_StatusTypeDef usb_status = USBD_OK;
 933              		.loc 1 443 3 view .LVU222
 444:USB_DEVICE/Target/usbd_conf.c **** 
 934              		.loc 1 444 3 view .LVU223
 446:USB_DEVICE/Target/usbd_conf.c **** 
 935              		.loc 1 446 3 view .LVU224
 442:USB_DEVICE/Target/usbd_conf.c ****   HAL_StatusTypeDef hal_status = HAL_OK;
 936              		.loc 1 442 1 is_stmt 0 view .LVU225
 937 0000 08B5     		push	{r3, lr}
 938              	.LCFI15:
 939              		.cfi_def_cfa_offset 8
 940              		.cfi_offset 3, -8
 941              		.cfi_offset 14, -4
 446:USB_DEVICE/Target/usbd_conf.c **** 
 942              		.loc 1 446 16 view .LVU226
ARM GAS  /tmp/ccEnClGU.s 			page 31


 943 0002 D0F8C802 		ldr	r0, [r0, #712]
 944              	.LVL77:
 446:USB_DEVICE/Target/usbd_conf.c **** 
 945              		.loc 1 446 16 view .LVU227
 946 0006 FFF7FEFF 		bl	HAL_PCD_EP_Close
 947              	.LVL78:
 448:USB_DEVICE/Target/usbd_conf.c **** 
 948              		.loc 1 448 3 is_stmt 1 view .LVU228
 949              	.LBB37:
 950              	.LBI37:
 648:USB_DEVICE/Target/usbd_conf.c **** {
 951              		.loc 1 648 20 view .LVU229
 952              	.LBB38:
 650:USB_DEVICE/Target/usbd_conf.c **** 
 953              		.loc 1 650 3 view .LVU230
 652:USB_DEVICE/Target/usbd_conf.c ****   {
 954              		.loc 1 652 3 view .LVU231
 955 000a 18B1     		cbz	r0, .L80
 956 000c 0228     		cmp	r0, #2
 957 000e 0CBF     		ite	eq
 958 0010 0120     		moveq	r0, #1
 959              	.LVL79:
 652:USB_DEVICE/Target/usbd_conf.c ****   {
 960              		.loc 1 652 3 is_stmt 0 view .LVU232
 961 0012 0320     		movne	r0, #3
 962              	.L80:
 963              	.LVL80:
 964              		.loc 1 670 3 is_stmt 1 view .LVU233
 965              		.loc 1 670 3 is_stmt 0 view .LVU234
 966              	.LBE38:
 967              	.LBE37:
 450:USB_DEVICE/Target/usbd_conf.c **** }
 968              		.loc 1 450 3 is_stmt 1 view .LVU235
 451:USB_DEVICE/Target/usbd_conf.c **** 
 969              		.loc 1 451 1 is_stmt 0 view .LVU236
 970 0014 08BD     		pop	{r3, pc}
 971              		.cfi_endproc
 972              	.LFE156:
 974 0016 00BF     		.section	.text.USBD_LL_FlushEP,"ax",%progbits
 975              		.align	1
 976              		.p2align 2,,3
 977              		.global	USBD_LL_FlushEP
 978              		.syntax unified
 979              		.thumb
 980              		.thumb_func
 982              	USBD_LL_FlushEP:
 983              	.LVL81:
 984              	.LFB157:
 460:USB_DEVICE/Target/usbd_conf.c ****   HAL_StatusTypeDef hal_status = HAL_OK;
 985              		.loc 1 460 1 is_stmt 1 view -0
 986              		.cfi_startproc
 987              		@ args = 0, pretend = 0, frame = 0
 988              		@ frame_needed = 0, uses_anonymous_args = 0
 461:USB_DEVICE/Target/usbd_conf.c ****   USBD_StatusTypeDef usb_status = USBD_OK;
 989              		.loc 1 461 3 view .LVU238
 462:USB_DEVICE/Target/usbd_conf.c **** 
 990              		.loc 1 462 3 view .LVU239
ARM GAS  /tmp/ccEnClGU.s 			page 32


 464:USB_DEVICE/Target/usbd_conf.c **** 
 991              		.loc 1 464 3 view .LVU240
 460:USB_DEVICE/Target/usbd_conf.c ****   HAL_StatusTypeDef hal_status = HAL_OK;
 992              		.loc 1 460 1 is_stmt 0 view .LVU241
 993 0000 08B5     		push	{r3, lr}
 994              	.LCFI16:
 995              		.cfi_def_cfa_offset 8
 996              		.cfi_offset 3, -8
 997              		.cfi_offset 14, -4
 464:USB_DEVICE/Target/usbd_conf.c **** 
 998              		.loc 1 464 16 view .LVU242
 999 0002 D0F8C802 		ldr	r0, [r0, #712]
 1000              	.LVL82:
 464:USB_DEVICE/Target/usbd_conf.c **** 
 1001              		.loc 1 464 16 view .LVU243
 1002 0006 FFF7FEFF 		bl	HAL_PCD_EP_Flush
 1003              	.LVL83:
 466:USB_DEVICE/Target/usbd_conf.c **** 
 1004              		.loc 1 466 3 is_stmt 1 view .LVU244
 1005              	.LBB39:
 1006              	.LBI39:
 648:USB_DEVICE/Target/usbd_conf.c **** {
 1007              		.loc 1 648 20 view .LVU245
 1008              	.LBB40:
 650:USB_DEVICE/Target/usbd_conf.c **** 
 1009              		.loc 1 650 3 view .LVU246
 652:USB_DEVICE/Target/usbd_conf.c ****   {
 1010              		.loc 1 652 3 view .LVU247
 1011 000a 18B1     		cbz	r0, .L87
 1012 000c 0228     		cmp	r0, #2
 1013 000e 0CBF     		ite	eq
 1014 0010 0120     		moveq	r0, #1
 1015              	.LVL84:
 652:USB_DEVICE/Target/usbd_conf.c ****   {
 1016              		.loc 1 652 3 is_stmt 0 view .LVU248
 1017 0012 0320     		movne	r0, #3
 1018              	.L87:
 1019              	.LVL85:
 1020              		.loc 1 670 3 is_stmt 1 view .LVU249
 1021              		.loc 1 670 3 is_stmt 0 view .LVU250
 1022              	.LBE40:
 1023              	.LBE39:
 468:USB_DEVICE/Target/usbd_conf.c **** }
 1024              		.loc 1 468 3 is_stmt 1 view .LVU251
 469:USB_DEVICE/Target/usbd_conf.c **** 
 1025              		.loc 1 469 1 is_stmt 0 view .LVU252
 1026 0014 08BD     		pop	{r3, pc}
 1027              		.cfi_endproc
 1028              	.LFE157:
 1030 0016 00BF     		.section	.text.USBD_LL_StallEP,"ax",%progbits
 1031              		.align	1
 1032              		.p2align 2,,3
 1033              		.global	USBD_LL_StallEP
 1034              		.syntax unified
 1035              		.thumb
 1036              		.thumb_func
 1038              	USBD_LL_StallEP:
ARM GAS  /tmp/ccEnClGU.s 			page 33


 1039              	.LVL86:
 1040              	.LFB158:
 478:USB_DEVICE/Target/usbd_conf.c ****   HAL_StatusTypeDef hal_status = HAL_OK;
 1041              		.loc 1 478 1 is_stmt 1 view -0
 1042              		.cfi_startproc
 1043              		@ args = 0, pretend = 0, frame = 0
 1044              		@ frame_needed = 0, uses_anonymous_args = 0
 479:USB_DEVICE/Target/usbd_conf.c ****   USBD_StatusTypeDef usb_status = USBD_OK;
 1045              		.loc 1 479 3 view .LVU254
 480:USB_DEVICE/Target/usbd_conf.c **** 
 1046              		.loc 1 480 3 view .LVU255
 482:USB_DEVICE/Target/usbd_conf.c **** 
 1047              		.loc 1 482 3 view .LVU256
 478:USB_DEVICE/Target/usbd_conf.c ****   HAL_StatusTypeDef hal_status = HAL_OK;
 1048              		.loc 1 478 1 is_stmt 0 view .LVU257
 1049 0000 08B5     		push	{r3, lr}
 1050              	.LCFI17:
 1051              		.cfi_def_cfa_offset 8
 1052              		.cfi_offset 3, -8
 1053              		.cfi_offset 14, -4
 482:USB_DEVICE/Target/usbd_conf.c **** 
 1054              		.loc 1 482 16 view .LVU258
 1055 0002 D0F8C802 		ldr	r0, [r0, #712]
 1056              	.LVL87:
 482:USB_DEVICE/Target/usbd_conf.c **** 
 1057              		.loc 1 482 16 view .LVU259
 1058 0006 FFF7FEFF 		bl	HAL_PCD_EP_SetStall
 1059              	.LVL88:
 484:USB_DEVICE/Target/usbd_conf.c **** 
 1060              		.loc 1 484 3 is_stmt 1 view .LVU260
 1061              	.LBB41:
 1062              	.LBI41:
 648:USB_DEVICE/Target/usbd_conf.c **** {
 1063              		.loc 1 648 20 view .LVU261
 1064              	.LBB42:
 650:USB_DEVICE/Target/usbd_conf.c **** 
 1065              		.loc 1 650 3 view .LVU262
 652:USB_DEVICE/Target/usbd_conf.c ****   {
 1066              		.loc 1 652 3 view .LVU263
 1067 000a 18B1     		cbz	r0, .L94
 1068 000c 0228     		cmp	r0, #2
 1069 000e 0CBF     		ite	eq
 1070 0010 0120     		moveq	r0, #1
 1071              	.LVL89:
 652:USB_DEVICE/Target/usbd_conf.c ****   {
 1072              		.loc 1 652 3 is_stmt 0 view .LVU264
 1073 0012 0320     		movne	r0, #3
 1074              	.L94:
 1075              	.LVL90:
 1076              		.loc 1 670 3 is_stmt 1 view .LVU265
 1077              		.loc 1 670 3 is_stmt 0 view .LVU266
 1078              	.LBE42:
 1079              	.LBE41:
 486:USB_DEVICE/Target/usbd_conf.c **** }
 1080              		.loc 1 486 3 is_stmt 1 view .LVU267
 487:USB_DEVICE/Target/usbd_conf.c **** 
 1081              		.loc 1 487 1 is_stmt 0 view .LVU268
ARM GAS  /tmp/ccEnClGU.s 			page 34


 1082 0014 08BD     		pop	{r3, pc}
 1083              		.cfi_endproc
 1084              	.LFE158:
 1086 0016 00BF     		.section	.text.USBD_LL_ClearStallEP,"ax",%progbits
 1087              		.align	1
 1088              		.p2align 2,,3
 1089              		.global	USBD_LL_ClearStallEP
 1090              		.syntax unified
 1091              		.thumb
 1092              		.thumb_func
 1094              	USBD_LL_ClearStallEP:
 1095              	.LVL91:
 1096              	.LFB159:
 496:USB_DEVICE/Target/usbd_conf.c ****   HAL_StatusTypeDef hal_status = HAL_OK;
 1097              		.loc 1 496 1 is_stmt 1 view -0
 1098              		.cfi_startproc
 1099              		@ args = 0, pretend = 0, frame = 0
 1100              		@ frame_needed = 0, uses_anonymous_args = 0
 497:USB_DEVICE/Target/usbd_conf.c ****   USBD_StatusTypeDef usb_status = USBD_OK;
 1101              		.loc 1 497 3 view .LVU270
 498:USB_DEVICE/Target/usbd_conf.c **** 
 1102              		.loc 1 498 3 view .LVU271
 500:USB_DEVICE/Target/usbd_conf.c **** 
 1103              		.loc 1 500 3 view .LVU272
 496:USB_DEVICE/Target/usbd_conf.c ****   HAL_StatusTypeDef hal_status = HAL_OK;
 1104              		.loc 1 496 1 is_stmt 0 view .LVU273
 1105 0000 08B5     		push	{r3, lr}
 1106              	.LCFI18:
 1107              		.cfi_def_cfa_offset 8
 1108              		.cfi_offset 3, -8
 1109              		.cfi_offset 14, -4
 500:USB_DEVICE/Target/usbd_conf.c **** 
 1110              		.loc 1 500 16 view .LVU274
 1111 0002 D0F8C802 		ldr	r0, [r0, #712]
 1112              	.LVL92:
 500:USB_DEVICE/Target/usbd_conf.c **** 
 1113              		.loc 1 500 16 view .LVU275
 1114 0006 FFF7FEFF 		bl	HAL_PCD_EP_ClrStall
 1115              	.LVL93:
 502:USB_DEVICE/Target/usbd_conf.c **** 
 1116              		.loc 1 502 3 is_stmt 1 view .LVU276
 1117              	.LBB43:
 1118              	.LBI43:
 648:USB_DEVICE/Target/usbd_conf.c **** {
 1119              		.loc 1 648 20 view .LVU277
 1120              	.LBB44:
 650:USB_DEVICE/Target/usbd_conf.c **** 
 1121              		.loc 1 650 3 view .LVU278
 652:USB_DEVICE/Target/usbd_conf.c ****   {
 1122              		.loc 1 652 3 view .LVU279
 1123 000a 18B1     		cbz	r0, .L101
 1124 000c 0228     		cmp	r0, #2
 1125 000e 0CBF     		ite	eq
 1126 0010 0120     		moveq	r0, #1
 1127              	.LVL94:
 652:USB_DEVICE/Target/usbd_conf.c ****   {
 1128              		.loc 1 652 3 is_stmt 0 view .LVU280
ARM GAS  /tmp/ccEnClGU.s 			page 35


 1129 0012 0320     		movne	r0, #3
 1130              	.L101:
 1131              	.LVL95:
 1132              		.loc 1 670 3 is_stmt 1 view .LVU281
 1133              		.loc 1 670 3 is_stmt 0 view .LVU282
 1134              	.LBE44:
 1135              	.LBE43:
 504:USB_DEVICE/Target/usbd_conf.c **** }
 1136              		.loc 1 504 3 is_stmt 1 view .LVU283
 505:USB_DEVICE/Target/usbd_conf.c **** 
 1137              		.loc 1 505 1 is_stmt 0 view .LVU284
 1138 0014 08BD     		pop	{r3, pc}
 1139              		.cfi_endproc
 1140              	.LFE159:
 1142 0016 00BF     		.section	.text.USBD_LL_IsStallEP,"ax",%progbits
 1143              		.align	1
 1144              		.p2align 2,,3
 1145              		.global	USBD_LL_IsStallEP
 1146              		.syntax unified
 1147              		.thumb
 1148              		.thumb_func
 1150              	USBD_LL_IsStallEP:
 1151              	.LVL96:
 1152              	.LFB160:
 514:USB_DEVICE/Target/usbd_conf.c ****   PCD_HandleTypeDef *hpcd = (PCD_HandleTypeDef*) pdev->pData;
 1153              		.loc 1 514 1 is_stmt 1 view -0
 1154              		.cfi_startproc
 1155              		@ args = 0, pretend = 0, frame = 0
 1156              		@ frame_needed = 0, uses_anonymous_args = 0
 1157              		@ link register save eliminated.
 515:USB_DEVICE/Target/usbd_conf.c **** 
 1158              		.loc 1 515 3 view .LVU286
 517:USB_DEVICE/Target/usbd_conf.c ****   {
 1159              		.loc 1 517 5 is_stmt 0 view .LVU287
 1160 0000 0A06     		lsls	r2, r1, #24
 515:USB_DEVICE/Target/usbd_conf.c **** 
 1161              		.loc 1 515 22 view .LVU288
 1162 0002 D0F8C832 		ldr	r3, [r0, #712]
 1163              	.LVL97:
 517:USB_DEVICE/Target/usbd_conf.c ****   {
 1164              		.loc 1 517 3 is_stmt 1 view .LVU289
 517:USB_DEVICE/Target/usbd_conf.c ****   {
 1165              		.loc 1 517 5 is_stmt 0 view .LVU290
 1166 0006 06D4     		bmi	.L110
 523:USB_DEVICE/Target/usbd_conf.c ****   }
 1167              		.loc 1 523 5 is_stmt 1 view .LVU291
 523:USB_DEVICE/Target/usbd_conf.c ****   }
 1168              		.loc 1 523 40 is_stmt 0 view .LVU292
 1169 0008 01EBC101 		add	r1, r1, r1, lsl #3
 1170              	.LVL98:
 523:USB_DEVICE/Target/usbd_conf.c ****   }
 1171              		.loc 1 523 40 view .LVU293
 1172 000c 03EB8103 		add	r3, r3, r1, lsl #2
 1173              	.LVL99:
 523:USB_DEVICE/Target/usbd_conf.c ****   }
 1174              		.loc 1 523 40 view .LVU294
 1175 0010 93F85602 		ldrb	r0, [r3, #598]	@ zero_extendqisi2
ARM GAS  /tmp/ccEnClGU.s 			page 36


 1176              	.LVL100:
 525:USB_DEVICE/Target/usbd_conf.c **** 
 1177              		.loc 1 525 1 view .LVU295
 1178 0014 7047     		bx	lr
 1179              	.LVL101:
 1180              	.L110:
 519:USB_DEVICE/Target/usbd_conf.c ****   }
 1181              		.loc 1 519 5 is_stmt 1 view .LVU296
 519:USB_DEVICE/Target/usbd_conf.c ****   }
 1182              		.loc 1 519 32 is_stmt 0 view .LVU297
 1183 0016 01F07F01 		and	r1, r1, #127
 1184              	.LVL102:
 519:USB_DEVICE/Target/usbd_conf.c ****   }
 1185              		.loc 1 519 39 view .LVU298
 1186 001a 01EBC101 		add	r1, r1, r1, lsl #3
 1187 001e 03EB8103 		add	r3, r3, r1, lsl #2
 1188              	.LVL103:
 519:USB_DEVICE/Target/usbd_conf.c ****   }
 1189              		.loc 1 519 39 view .LVU299
 1190 0022 987D     		ldrb	r0, [r3, #22]	@ zero_extendqisi2
 1191              	.LVL104:
 519:USB_DEVICE/Target/usbd_conf.c ****   }
 1192              		.loc 1 519 39 view .LVU300
 1193 0024 7047     		bx	lr
 1194              		.cfi_endproc
 1195              	.LFE160:
 1197 0026 00BF     		.section	.text.USBD_LL_SetUSBAddress,"ax",%progbits
 1198              		.align	1
 1199              		.p2align 2,,3
 1200              		.global	USBD_LL_SetUSBAddress
 1201              		.syntax unified
 1202              		.thumb
 1203              		.thumb_func
 1205              	USBD_LL_SetUSBAddress:
 1206              	.LVL105:
 1207              	.LFB161:
 534:USB_DEVICE/Target/usbd_conf.c ****   HAL_StatusTypeDef hal_status = HAL_OK;
 1208              		.loc 1 534 1 is_stmt 1 view -0
 1209              		.cfi_startproc
 1210              		@ args = 0, pretend = 0, frame = 0
 1211              		@ frame_needed = 0, uses_anonymous_args = 0
 535:USB_DEVICE/Target/usbd_conf.c ****   USBD_StatusTypeDef usb_status = USBD_OK;
 1212              		.loc 1 535 3 view .LVU302
 536:USB_DEVICE/Target/usbd_conf.c **** 
 1213              		.loc 1 536 3 view .LVU303
 538:USB_DEVICE/Target/usbd_conf.c **** 
 1214              		.loc 1 538 3 view .LVU304
 534:USB_DEVICE/Target/usbd_conf.c ****   HAL_StatusTypeDef hal_status = HAL_OK;
 1215              		.loc 1 534 1 is_stmt 0 view .LVU305
 1216 0000 08B5     		push	{r3, lr}
 1217              	.LCFI19:
 1218              		.cfi_def_cfa_offset 8
 1219              		.cfi_offset 3, -8
 1220              		.cfi_offset 14, -4
 538:USB_DEVICE/Target/usbd_conf.c **** 
 1221              		.loc 1 538 16 view .LVU306
 1222 0002 D0F8C802 		ldr	r0, [r0, #712]
ARM GAS  /tmp/ccEnClGU.s 			page 37


 1223              	.LVL106:
 538:USB_DEVICE/Target/usbd_conf.c **** 
 1224              		.loc 1 538 16 view .LVU307
 1225 0006 FFF7FEFF 		bl	HAL_PCD_SetAddress
 1226              	.LVL107:
 540:USB_DEVICE/Target/usbd_conf.c **** 
 1227              		.loc 1 540 3 is_stmt 1 view .LVU308
 1228              	.LBB45:
 1229              	.LBI45:
 648:USB_DEVICE/Target/usbd_conf.c **** {
 1230              		.loc 1 648 20 view .LVU309
 1231              	.LBB46:
 650:USB_DEVICE/Target/usbd_conf.c **** 
 1232              		.loc 1 650 3 view .LVU310
 652:USB_DEVICE/Target/usbd_conf.c ****   {
 1233              		.loc 1 652 3 view .LVU311
 1234 000a 18B1     		cbz	r0, .L112
 1235 000c 0228     		cmp	r0, #2
 1236 000e 0CBF     		ite	eq
 1237 0010 0120     		moveq	r0, #1
 1238              	.LVL108:
 652:USB_DEVICE/Target/usbd_conf.c ****   {
 1239              		.loc 1 652 3 is_stmt 0 view .LVU312
 1240 0012 0320     		movne	r0, #3
 1241              	.L112:
 1242              	.LVL109:
 1243              		.loc 1 670 3 is_stmt 1 view .LVU313
 1244              		.loc 1 670 3 is_stmt 0 view .LVU314
 1245              	.LBE46:
 1246              	.LBE45:
 542:USB_DEVICE/Target/usbd_conf.c **** }
 1247              		.loc 1 542 3 is_stmt 1 view .LVU315
 543:USB_DEVICE/Target/usbd_conf.c **** 
 1248              		.loc 1 543 1 is_stmt 0 view .LVU316
 1249 0014 08BD     		pop	{r3, pc}
 1250              		.cfi_endproc
 1251              	.LFE161:
 1253 0016 00BF     		.section	.text.USBD_LL_Transmit,"ax",%progbits
 1254              		.align	1
 1255              		.p2align 2,,3
 1256              		.global	USBD_LL_Transmit
 1257              		.syntax unified
 1258              		.thumb
 1259              		.thumb_func
 1261              	USBD_LL_Transmit:
 1262              	.LVL110:
 1263              	.LFB162:
 554:USB_DEVICE/Target/usbd_conf.c ****   HAL_StatusTypeDef hal_status = HAL_OK;
 1264              		.loc 1 554 1 is_stmt 1 view -0
 1265              		.cfi_startproc
 1266              		@ args = 0, pretend = 0, frame = 0
 1267              		@ frame_needed = 0, uses_anonymous_args = 0
 555:USB_DEVICE/Target/usbd_conf.c ****   USBD_StatusTypeDef usb_status = USBD_OK;
 1268              		.loc 1 555 3 view .LVU318
 556:USB_DEVICE/Target/usbd_conf.c **** 
 1269              		.loc 1 556 3 view .LVU319
 558:USB_DEVICE/Target/usbd_conf.c **** 
ARM GAS  /tmp/ccEnClGU.s 			page 38


 1270              		.loc 1 558 3 view .LVU320
 554:USB_DEVICE/Target/usbd_conf.c ****   HAL_StatusTypeDef hal_status = HAL_OK;
 1271              		.loc 1 554 1 is_stmt 0 view .LVU321
 1272 0000 08B5     		push	{r3, lr}
 1273              	.LCFI20:
 1274              		.cfi_def_cfa_offset 8
 1275              		.cfi_offset 3, -8
 1276              		.cfi_offset 14, -4
 558:USB_DEVICE/Target/usbd_conf.c **** 
 1277              		.loc 1 558 16 view .LVU322
 1278 0002 D0F8C802 		ldr	r0, [r0, #712]
 1279              	.LVL111:
 558:USB_DEVICE/Target/usbd_conf.c **** 
 1280              		.loc 1 558 16 view .LVU323
 1281 0006 FFF7FEFF 		bl	HAL_PCD_EP_Transmit
 1282              	.LVL112:
 560:USB_DEVICE/Target/usbd_conf.c **** 
 1283              		.loc 1 560 3 is_stmt 1 view .LVU324
 1284              	.LBB47:
 1285              	.LBI47:
 648:USB_DEVICE/Target/usbd_conf.c **** {
 1286              		.loc 1 648 20 view .LVU325
 1287              	.LBB48:
 650:USB_DEVICE/Target/usbd_conf.c **** 
 1288              		.loc 1 650 3 view .LVU326
 652:USB_DEVICE/Target/usbd_conf.c ****   {
 1289              		.loc 1 652 3 view .LVU327
 1290 000a 18B1     		cbz	r0, .L119
 1291 000c 0228     		cmp	r0, #2
 1292 000e 0CBF     		ite	eq
 1293 0010 0120     		moveq	r0, #1
 1294              	.LVL113:
 652:USB_DEVICE/Target/usbd_conf.c ****   {
 1295              		.loc 1 652 3 is_stmt 0 view .LVU328
 1296 0012 0320     		movne	r0, #3
 1297              	.L119:
 1298              	.LVL114:
 1299              		.loc 1 670 3 is_stmt 1 view .LVU329
 1300              		.loc 1 670 3 is_stmt 0 view .LVU330
 1301              	.LBE48:
 1302              	.LBE47:
 562:USB_DEVICE/Target/usbd_conf.c **** }
 1303              		.loc 1 562 3 is_stmt 1 view .LVU331
 563:USB_DEVICE/Target/usbd_conf.c **** 
 1304              		.loc 1 563 1 is_stmt 0 view .LVU332
 1305 0014 08BD     		pop	{r3, pc}
 1306              		.cfi_endproc
 1307              	.LFE162:
 1309 0016 00BF     		.section	.text.USBD_LL_PrepareReceive,"ax",%progbits
 1310              		.align	1
 1311              		.p2align 2,,3
 1312              		.global	USBD_LL_PrepareReceive
 1313              		.syntax unified
 1314              		.thumb
 1315              		.thumb_func
 1317              	USBD_LL_PrepareReceive:
 1318              	.LVL115:
ARM GAS  /tmp/ccEnClGU.s 			page 39


 1319              	.LFB163:
 574:USB_DEVICE/Target/usbd_conf.c ****   HAL_StatusTypeDef hal_status = HAL_OK;
 1320              		.loc 1 574 1 is_stmt 1 view -0
 1321              		.cfi_startproc
 1322              		@ args = 0, pretend = 0, frame = 0
 1323              		@ frame_needed = 0, uses_anonymous_args = 0
 575:USB_DEVICE/Target/usbd_conf.c ****   USBD_StatusTypeDef usb_status = USBD_OK;
 1324              		.loc 1 575 3 view .LVU334
 576:USB_DEVICE/Target/usbd_conf.c **** 
 1325              		.loc 1 576 3 view .LVU335
 578:USB_DEVICE/Target/usbd_conf.c **** 
 1326              		.loc 1 578 3 view .LVU336
 574:USB_DEVICE/Target/usbd_conf.c ****   HAL_StatusTypeDef hal_status = HAL_OK;
 1327              		.loc 1 574 1 is_stmt 0 view .LVU337
 1328 0000 08B5     		push	{r3, lr}
 1329              	.LCFI21:
 1330              		.cfi_def_cfa_offset 8
 1331              		.cfi_offset 3, -8
 1332              		.cfi_offset 14, -4
 578:USB_DEVICE/Target/usbd_conf.c **** 
 1333              		.loc 1 578 16 view .LVU338
 1334 0002 D0F8C802 		ldr	r0, [r0, #712]
 1335              	.LVL116:
 578:USB_DEVICE/Target/usbd_conf.c **** 
 1336              		.loc 1 578 16 view .LVU339
 1337 0006 FFF7FEFF 		bl	HAL_PCD_EP_Receive
 1338              	.LVL117:
 580:USB_DEVICE/Target/usbd_conf.c **** 
 1339              		.loc 1 580 3 is_stmt 1 view .LVU340
 1340              	.LBB49:
 1341              	.LBI49:
 648:USB_DEVICE/Target/usbd_conf.c **** {
 1342              		.loc 1 648 20 view .LVU341
 1343              	.LBB50:
 650:USB_DEVICE/Target/usbd_conf.c **** 
 1344              		.loc 1 650 3 view .LVU342
 652:USB_DEVICE/Target/usbd_conf.c ****   {
 1345              		.loc 1 652 3 view .LVU343
 1346 000a 18B1     		cbz	r0, .L126
 1347 000c 0228     		cmp	r0, #2
 1348 000e 0CBF     		ite	eq
 1349 0010 0120     		moveq	r0, #1
 1350              	.LVL118:
 652:USB_DEVICE/Target/usbd_conf.c ****   {
 1351              		.loc 1 652 3 is_stmt 0 view .LVU344
 1352 0012 0320     		movne	r0, #3
 1353              	.L126:
 1354              	.LVL119:
 1355              		.loc 1 670 3 is_stmt 1 view .LVU345
 1356              		.loc 1 670 3 is_stmt 0 view .LVU346
 1357              	.LBE50:
 1358              	.LBE49:
 582:USB_DEVICE/Target/usbd_conf.c **** }
 1359              		.loc 1 582 3 is_stmt 1 view .LVU347
 583:USB_DEVICE/Target/usbd_conf.c **** 
 1360              		.loc 1 583 1 is_stmt 0 view .LVU348
 1361 0014 08BD     		pop	{r3, pc}
ARM GAS  /tmp/ccEnClGU.s 			page 40


 1362              		.cfi_endproc
 1363              	.LFE163:
 1365 0016 00BF     		.section	.text.USBD_LL_GetRxDataSize,"ax",%progbits
 1366              		.align	1
 1367              		.p2align 2,,3
 1368              		.global	USBD_LL_GetRxDataSize
 1369              		.syntax unified
 1370              		.thumb
 1371              		.thumb_func
 1373              	USBD_LL_GetRxDataSize:
 1374              	.LVL120:
 1375              	.LFB164:
 592:USB_DEVICE/Target/usbd_conf.c ****   return HAL_PCD_EP_GetRxCount((PCD_HandleTypeDef*) pdev->pData, ep_addr);
 1376              		.loc 1 592 1 is_stmt 1 view -0
 1377              		.cfi_startproc
 1378              		@ args = 0, pretend = 0, frame = 0
 1379              		@ frame_needed = 0, uses_anonymous_args = 0
 1380              		@ link register save eliminated.
 593:USB_DEVICE/Target/usbd_conf.c **** }
 1381              		.loc 1 593 3 view .LVU350
 593:USB_DEVICE/Target/usbd_conf.c **** }
 1382              		.loc 1 593 10 is_stmt 0 view .LVU351
 1383 0000 D0F8C802 		ldr	r0, [r0, #712]
 1384              	.LVL121:
 593:USB_DEVICE/Target/usbd_conf.c **** }
 1385              		.loc 1 593 10 view .LVU352
 1386 0004 FFF7FEBF 		b	HAL_PCD_EP_GetRxCount
 1387              	.LVL122:
 593:USB_DEVICE/Target/usbd_conf.c **** }
 1388              		.loc 1 593 10 view .LVU353
 1389              		.cfi_endproc
 1390              	.LFE164:
 1392              		.section	.text.USBD_static_malloc,"ax",%progbits
 1393              		.align	1
 1394              		.p2align 2,,3
 1395              		.global	USBD_static_malloc
 1396              		.syntax unified
 1397              		.thumb
 1398              		.thumb_func
 1400              	USBD_static_malloc:
 1401              	.LVL123:
 1402              	.LFB165:
 618:USB_DEVICE/Target/usbd_conf.c ****   static uint32_t mem[(sizeof(USB_MIDI_HandleTypeDef)/4+1)];/* On 32-bit boundary */
 1403              		.loc 1 618 1 is_stmt 1 view -0
 1404              		.cfi_startproc
 1405              		@ args = 0, pretend = 0, frame = 0
 1406              		@ frame_needed = 0, uses_anonymous_args = 0
 1407              		@ link register save eliminated.
 619:USB_DEVICE/Target/usbd_conf.c ****   return mem;
 1408              		.loc 1 619 3 view .LVU355
 620:USB_DEVICE/Target/usbd_conf.c **** }
 1409              		.loc 1 620 3 view .LVU356
 621:USB_DEVICE/Target/usbd_conf.c **** 
 1410              		.loc 1 621 1 is_stmt 0 view .LVU357
 1411 0000 0048     		ldr	r0, .L134
 1412              	.LVL124:
 621:USB_DEVICE/Target/usbd_conf.c **** 
ARM GAS  /tmp/ccEnClGU.s 			page 41


 1413              		.loc 1 621 1 view .LVU358
 1414 0002 7047     		bx	lr
 1415              	.L135:
 1416              		.align	2
 1417              	.L134:
 1418 0004 00000000 		.word	mem.0
 1419              		.cfi_endproc
 1420              	.LFE165:
 1422              		.section	.text.USBD_static_free,"ax",%progbits
 1423              		.align	1
 1424              		.p2align 2,,3
 1425              		.global	USBD_static_free
 1426              		.syntax unified
 1427              		.thumb
 1428              		.thumb_func
 1430              	USBD_static_free:
 1431              	.LVL125:
 1432              	.LFB166:
 629:USB_DEVICE/Target/usbd_conf.c **** 
 1433              		.loc 1 629 1 is_stmt 1 view -0
 1434              		.cfi_startproc
 1435              		@ args = 0, pretend = 0, frame = 0
 1436              		@ frame_needed = 0, uses_anonymous_args = 0
 1437              		@ link register save eliminated.
 631:USB_DEVICE/Target/usbd_conf.c **** 
 1438              		.loc 1 631 1 view .LVU360
 1439 0000 7047     		bx	lr
 1440              		.cfi_endproc
 1441              	.LFE166:
 1443 0002 00BF     		.section	.text.USBD_LL_Delay,"ax",%progbits
 1444              		.align	1
 1445              		.p2align 2,,3
 1446              		.global	USBD_LL_Delay
 1447              		.syntax unified
 1448              		.thumb
 1449              		.thumb_func
 1451              	USBD_LL_Delay:
 1452              	.LVL126:
 1453              	.LFB167:
 639:USB_DEVICE/Target/usbd_conf.c ****   HAL_Delay(Delay);
 1454              		.loc 1 639 1 view -0
 1455              		.cfi_startproc
 1456              		@ args = 0, pretend = 0, frame = 0
 1457              		@ frame_needed = 0, uses_anonymous_args = 0
 1458              		@ link register save eliminated.
 640:USB_DEVICE/Target/usbd_conf.c **** }
 1459              		.loc 1 640 3 view .LVU362
 1460 0000 FFF7FEBF 		b	HAL_Delay
 1461              	.LVL127:
 640:USB_DEVICE/Target/usbd_conf.c **** }
 1462              		.loc 1 640 3 is_stmt 0 view .LVU363
 1463              		.cfi_endproc
 1464              	.LFE167:
 1466              		.section	.text.USBD_Get_USB_Status,"ax",%progbits
 1467              		.align	1
 1468              		.p2align 2,,3
 1469              		.global	USBD_Get_USB_Status
ARM GAS  /tmp/ccEnClGU.s 			page 42


 1470              		.syntax unified
 1471              		.thumb
 1472              		.thumb_func
 1474              	USBD_Get_USB_Status:
 1475              	.LVL128:
 1476              	.LFB168:
 649:USB_DEVICE/Target/usbd_conf.c ****   USBD_StatusTypeDef usb_status = USBD_OK;
 1477              		.loc 1 649 1 is_stmt 1 view -0
 1478              		.cfi_startproc
 1479              		@ args = 0, pretend = 0, frame = 0
 1480              		@ frame_needed = 0, uses_anonymous_args = 0
 1481              		@ link register save eliminated.
 650:USB_DEVICE/Target/usbd_conf.c **** 
 1482              		.loc 1 650 3 view .LVU365
 652:USB_DEVICE/Target/usbd_conf.c ****   {
 1483              		.loc 1 652 3 view .LVU366
 1484 0000 18B1     		cbz	r0, .L139
 1485 0002 0228     		cmp	r0, #2
 1486 0004 0CBF     		ite	eq
 1487 0006 0120     		moveq	r0, #1
 1488              	.LVL129:
 652:USB_DEVICE/Target/usbd_conf.c ****   {
 1489              		.loc 1 652 3 is_stmt 0 view .LVU367
 1490 0008 0320     		movne	r0, #3
 1491              	.L139:
 1492              	.LVL130:
 1493              		.loc 1 670 3 is_stmt 1 view .LVU368
 671:USB_DEVICE/Target/usbd_conf.c **** }
 1494              		.loc 1 671 1 is_stmt 0 view .LVU369
 1495 000a 7047     		bx	lr
 1496              		.cfi_endproc
 1497              	.LFE168:
 1499              		.section	.bss.mem.0,"aw",%nobits
 1500              		.align	2
 1503              	mem.0:
 1504 0000 00000000 		.space	88
 1504      00000000 
 1504      00000000 
 1504      00000000 
 1504      00000000 
 1505              		.global	hpcd_USB_OTG_FS
 1506              		.section	.bss.hpcd_USB_OTG_FS,"aw",%nobits
 1507              		.align	2
 1510              	hpcd_USB_OTG_FS:
 1511 0000 00000000 		.space	1252
 1511      00000000 
 1511      00000000 
 1511      00000000 
 1511      00000000 
 1512              		.text
 1513              	.Letext0:
 1514              		.file 2 "Drivers/CMSIS/Device/ST/STM32F4xx/Include/stm32f411xe.h"
 1515              		.file 3 "/usr/arm-none-eabi/include/machine/_default_types.h"
 1516              		.file 4 "/usr/arm-none-eabi/include/sys/_stdint.h"
 1517              		.file 5 "Drivers/CMSIS/Include/core_cm4.h"
 1518              		.file 6 "Drivers/CMSIS/Device/ST/STM32F4xx/Include/stm32f4xx.h"
 1519              		.file 7 "Drivers/STM32F4xx_HAL_Driver/Inc/stm32f4xx_hal_def.h"
ARM GAS  /tmp/ccEnClGU.s 			page 43


 1520              		.file 8 "Drivers/STM32F4xx_HAL_Driver/Inc/stm32f4xx_hal_gpio.h"
 1521              		.file 9 "Drivers/STM32F4xx_HAL_Driver/Inc/stm32f4xx_ll_usb.h"
 1522              		.file 10 "Drivers/STM32F4xx_HAL_Driver/Inc/stm32f4xx_hal_pcd.h"
 1523              		.file 11 "Middlewares/ST/STM32_USB_Device_Library/Core/Inc/usbd_def.h"
 1524              		.file 12 "Drivers/STM32F4xx_HAL_Driver/Inc/stm32f4xx_hal_pcd_ex.h"
 1525              		.file 13 "Middlewares/ST/STM32_USB_Device_Library/Core/Inc/usbd_core.h"
 1526              		.file 14 "Drivers/STM32F4xx_HAL_Driver/Inc/stm32f4xx_hal.h"
 1527              		.file 15 "Drivers/STM32F4xx_HAL_Driver/Inc/stm32f4xx_hal_cortex.h"
ARM GAS  /tmp/ccEnClGU.s 			page 44

